
MxM.elf:     file format elf32-littlearm


Disassembly of section .text:

00100000 <_vector_table>:
  100000:	ea00003d 	b	1000fc <_boot>
  100004:	ea000025 	b	1000a0 <Undefined>
  100008:	ea000028 	b	1000b0 <SVCHandler>
  10000c:	ea000035 	b	1000e8 <PrefetchAbortHandler>
  100010:	ea00002f 	b	1000d4 <DataAbortHandler>
  100014:	e320f000 	nop	{0}
  100018:	ea000000 	b	100020 <IRQHandler>
  10001c:	ea00000f 	b	100060 <FIQHandler>

00100020 <IRQHandler>:
  100020:	e92d500f 	push	{r0, r1, r2, r3, ip, lr}
  100024:	ed2d0b10 	vpush	{d0-d7}
  100028:	ed6d0b20 	vpush	{d16-d31}
  10002c:	eef11a10 	vmrs	r1, fpscr
  100030:	e52d1004 	push	{r1}		; (str r1, [sp, #-4]!)
  100034:	eef81a10 	vmrs	r1, fpexc
  100038:	e52d1004 	push	{r1}		; (str r1, [sp, #-4]!)
  10003c:	eb0001b2 	bl	10070c <IRQInterrupt>
  100040:	e49d1004 	pop	{r1}		; (ldr r1, [sp], #4)
  100044:	eee81a10 	vmsr	fpexc, r1
  100048:	e49d1004 	pop	{r1}		; (ldr r1, [sp], #4)
  10004c:	eee11a10 	vmsr	fpscr, r1
  100050:	ecfd0b20 	vpop	{d16-d31}
  100054:	ecbd0b10 	vpop	{d0-d7}
  100058:	e8bd500f 	pop	{r0, r1, r2, r3, ip, lr}
  10005c:	e25ef004 	subs	pc, lr, #4

00100060 <FIQHandler>:
  100060:	e92d500f 	push	{r0, r1, r2, r3, ip, lr}
  100064:	ed2d0b10 	vpush	{d0-d7}
  100068:	ed6d0b20 	vpush	{d16-d31}
  10006c:	eef11a10 	vmrs	r1, fpscr
  100070:	e52d1004 	push	{r1}		; (str r1, [sp, #-4]!)
  100074:	eef81a10 	vmrs	r1, fpexc
  100078:	e52d1004 	push	{r1}		; (str r1, [sp, #-4]!)

0010007c <FIQLoop>:
  10007c:	eb00019b 	bl	1006f0 <FIQInterrupt>
  100080:	e49d1004 	pop	{r1}		; (ldr r1, [sp], #4)
  100084:	eee81a10 	vmsr	fpexc, r1
  100088:	e49d1004 	pop	{r1}		; (ldr r1, [sp], #4)
  10008c:	eee11a10 	vmsr	fpscr, r1
  100090:	ecfd0b20 	vpop	{d16-d31}
  100094:	ecbd0b10 	vpop	{d0-d7}
  100098:	e8bd500f 	pop	{r0, r1, r2, r3, ip, lr}
  10009c:	e25ef004 	subs	pc, lr, #4

001000a0 <Undefined>:
  1000a0:	e92d500f 	push	{r0, r1, r2, r3, ip, lr}
  1000a4:	e8bd500f 	pop	{r0, r1, r2, r3, ip, lr}
  1000a8:	ea000013 	b	1000fc <_boot>
  1000ac:	e1b0f00e 	movs	pc, lr

001000b0 <SVCHandler>:
  1000b0:	e92d500f 	push	{r0, r1, r2, r3, ip, lr}
  1000b4:	e3100020 	tst	r0, #32
  1000b8:	115e00b2 	ldrhne	r0, [lr, #-2]
  1000bc:	13c00cff 	bicne	r0, r0, #65280	; 0xff00
  1000c0:	051e0004 	ldreq	r0, [lr, #-4]
  1000c4:	03c004ff 	biceq	r0, r0, #-16777216	; 0xff000000
  1000c8:	eb000196 	bl	100728 <SWInterrupt>
  1000cc:	e8bd500f 	pop	{r0, r1, r2, r3, ip, lr}
  1000d0:	e1b0f00e 	movs	pc, lr

001000d4 <DataAbortHandler>:
  1000d4:	f57ff04f 	dsb	sy
  1000d8:	e92d500f 	push	{r0, r1, r2, r3, ip, lr}
  1000dc:	eb000198 	bl	100744 <DataAbortInterrupt>
  1000e0:	e8bd500f 	pop	{r0, r1, r2, r3, ip, lr}
  1000e4:	e25ef008 	subs	pc, lr, #8

001000e8 <PrefetchAbortHandler>:
  1000e8:	f57ff04f 	dsb	sy
  1000ec:	e92d500f 	push	{r0, r1, r2, r3, ip, lr}
  1000f0:	eb00019a 	bl	100760 <PrefetchAbortInterrupt>
  1000f4:	e8bd500f 	pop	{r0, r1, r2, r3, ip, lr}
  1000f8:	e25ef004 	subs	pc, lr, #4

001000fc <_boot>:
  1000fc:	ee101fb0 	mrc	15, 0, r1, cr0, cr0, {5}
  100100:	e201100f 	and	r1, r1, #15
  100104:	e3510000 	cmp	r1, #0
  100108:	0a000001 	beq	100114 <OKToRun>

0010010c <EndlessLoop0>:
  10010c:	e320f002 	wfe
  100110:	eafffffd 	b	10010c <EndlessLoop0>

00100114 <OKToRun>:
  100114:	ee100f10 	mrc	15, 0, r0, cr0, cr0, {0}
  100118:	e200560f 	and	r5, r0, #15728640	; 0xf00000
  10011c:	e200600f 	and	r6, r0, #15
  100120:	e1866825 	orr	r6, r6, r5, lsr #16
  100124:	e3560022 	cmp	r6, #34	; 0x22
  100128:	de1faf30 	mrcle	15, 0, sl, cr15, cr0, {1}
  10012c:	d38aa010 	orrle	sl, sl, #16
  100130:	de0faf30 	mcrle	15, 0, sl, cr15, cr0, {1}
  100134:	e3350602 	teq	r5, #2097152	; 0x200000
  100138:	0e1faf30 	mrceq	15, 0, sl, cr15, cr0, {1}
  10013c:	038aa040 	orreq	sl, sl, #64	; 0x40
  100140:	0e0faf30 	mcreq	15, 0, sl, cr15, cr0, {1}
  100144:	e59f027c 	ldr	r0, [pc, #636]	; 1003c8 <finished+0x14>
  100148:	ee0c0f10 	mcr	15, 0, r0, cr12, cr0, {0}
  10014c:	e59f7278 	ldr	r7, [pc, #632]	; 1003cc <finished+0x18>
  100150:	e5970000 	ldr	r0, [r7]
  100154:	e3800001 	orr	r0, r0, #1
  100158:	e5870000 	str	r0, [r7]
  10015c:	e59f726c 	ldr	r7, [pc, #620]	; 1003d0 <finished+0x1c>
  100160:	e59f626c 	ldr	r6, [pc, #620]	; 1003d4 <finished+0x20>
  100164:	e5876000 	str	r6, [r7]
  100168:	ee110f30 	mrc	15, 0, r0, cr1, cr0, {1}
  10016c:	e3800040 	orr	r0, r0, #64	; 0x40
  100170:	e3800001 	orr	r0, r0, #1
  100174:	ee010f30 	mcr	15, 0, r0, cr1, cr0, {1}
  100178:	e3a00000 	mov	r0, #0
  10017c:	ee080f17 	mcr	15, 0, r0, cr8, cr7, {0}
  100180:	ee070f15 	mcr	15, 0, r0, cr7, cr5, {0}
  100184:	ee070fd5 	mcr	15, 0, r0, cr7, cr5, {6}
  100188:	eb00006a 	bl	100338 <invalidate_dcache>
  10018c:	e59f0244 	ldr	r0, [pc, #580]	; 1003d8 <finished+0x24>
  100190:	e3a01000 	mov	r1, #0
  100194:	e5801000 	str	r1, [r0]
  100198:	e59f023c 	ldr	r0, [pc, #572]	; 1003dc <finished+0x28>
  10019c:	e5901000 	ldr	r1, [r0]
  1001a0:	e59f2238 	ldr	r2, [pc, #568]	; 1003e0 <finished+0x2c>
  1001a4:	e1811002 	orr	r1, r1, r2
  1001a8:	e5801000 	str	r1, [r0]
  1001ac:	e59f0230 	ldr	r0, [pc, #560]	; 1003e4 <finished+0x30>
  1001b0:	e59f1230 	ldr	r1, [pc, #560]	; 1003e8 <finished+0x34>
  1001b4:	e5801000 	str	r1, [r0]
  1001b8:	e59f022c 	ldr	r0, [pc, #556]	; 1003ec <finished+0x38>
  1001bc:	e59f122c 	ldr	r1, [pc, #556]	; 1003f0 <finished+0x3c>
  1001c0:	e5801000 	str	r1, [r0]
  1001c4:	e59f0228 	ldr	r0, [pc, #552]	; 1003f4 <finished+0x40>
  1001c8:	e59f2204 	ldr	r2, [pc, #516]	; 1003d4 <finished+0x20>
  1001cc:	e5802000 	str	r2, [r0]
  1001d0:	e59f0220 	ldr	r0, [pc, #544]	; 1003f8 <finished+0x44>

001001d4 <Sync>:
  1001d4:	e5901000 	ldr	r1, [r0]
  1001d8:	e3510000 	cmp	r1, #0
  1001dc:	1afffffc 	bne	1001d4 <Sync>
  1001e0:	e59f0214 	ldr	r0, [pc, #532]	; 1003fc <finished+0x48>
  1001e4:	e5901000 	ldr	r1, [r0]
  1001e8:	e59f0210 	ldr	r0, [pc, #528]	; 100400 <finished+0x4c>
  1001ec:	e5801000 	str	r1, [r0]
  1001f0:	ee110f10 	mrc	15, 0, r0, cr1, cr0, {0}
  1001f4:	e3c00001 	bic	r0, r0, #1
  1001f8:	ee010f10 	mcr	15, 0, r0, cr1, cr0, {0}
  1001fc:	e10f0000 	mrs	r0, CPSR
  100200:	e3e0101f 	mvn	r1, #31
  100204:	e0012000 	and	r2, r1, r0
  100208:	e3822012 	orr	r2, r2, #18
  10020c:	e129f002 	msr	CPSR_fc, r2
  100210:	e59fd1ec 	ldr	sp, [pc, #492]	; 100404 <finished+0x50>
  100214:	e10f0000 	mrs	r0, CPSR
  100218:	e3e0101f 	mvn	r1, #31
  10021c:	e0012000 	and	r2, r1, r0
  100220:	e3822013 	orr	r2, r2, #19
  100224:	e129f002 	msr	CPSR_fc, r2
  100228:	e59fd1d8 	ldr	sp, [pc, #472]	; 100408 <finished+0x54>
  10022c:	e10f0000 	mrs	r0, CPSR
  100230:	e3e0101f 	mvn	r1, #31
  100234:	e0012000 	and	r2, r1, r0
  100238:	e3822017 	orr	r2, r2, #23
  10023c:	e129f002 	msr	CPSR_fc, r2
  100240:	e59fd1c4 	ldr	sp, [pc, #452]	; 10040c <finished+0x58>
  100244:	e10f0000 	mrs	r0, CPSR
  100248:	e3e0101f 	mvn	r1, #31
  10024c:	e0012000 	and	r2, r1, r0
  100250:	e3822011 	orr	r2, r2, #17
  100254:	e129f002 	msr	CPSR_fc, r2
  100258:	e59fd1b0 	ldr	sp, [pc, #432]	; 100410 <finished+0x5c>
  10025c:	e10f0000 	mrs	r0, CPSR
  100260:	e3e0101f 	mvn	r1, #31
  100264:	e0012000 	and	r2, r1, r0
  100268:	e382201b 	orr	r2, r2, #27
  10026c:	e129f002 	msr	CPSR_fc, r2
  100270:	e59fd19c 	ldr	sp, [pc, #412]	; 100414 <finished+0x60>
  100274:	e10f0000 	mrs	r0, CPSR
  100278:	e3e0101f 	mvn	r1, #31
  10027c:	e0012000 	and	r2, r1, r0
  100280:	e382201f 	orr	r2, r2, #31
  100284:	e129f002 	msr	CPSR_fc, r2
  100288:	e59fd188 	ldr	sp, [pc, #392]	; 100418 <finished+0x64>
  10028c:	e59f0188 	ldr	r0, [pc, #392]	; 10041c <finished+0x68>
  100290:	e380005b 	orr	r0, r0, #91	; 0x5b
  100294:	ee020f10 	mcr	15, 0, r0, cr2, cr0, {0}
  100298:	e3e00000 	mvn	r0, #0
  10029c:	ee030f10 	mcr	15, 0, r0, cr3, cr0, {0}
  1002a0:	e59f0178 	ldr	r0, [pc, #376]	; 100420 <finished+0x6c>
  1002a4:	ee010f10 	mcr	15, 0, r0, cr1, cr0, {0}
  1002a8:	f57ff04f 	dsb	sy
  1002ac:	f57ff06f 	isb	sy
  1002b0:	e59f016c 	ldr	r0, [pc, #364]	; 100424 <finished+0x70>
  1002b4:	e59f116c 	ldr	r1, [pc, #364]	; 100428 <finished+0x74>
  1002b8:	e5801000 	str	r1, [r0]
  1002bc:	e59f0168 	ldr	r0, [pc, #360]	; 10042c <finished+0x78>
  1002c0:	e59f1168 	ldr	r1, [pc, #360]	; 100430 <finished+0x7c>
  1002c4:	e5801000 	str	r1, [r0]
  1002c8:	e59f0164 	ldr	r0, [pc, #356]	; 100434 <finished+0x80>
  1002cc:	e59f1164 	ldr	r1, [pc, #356]	; 100438 <finished+0x84>
  1002d0:	e5801000 	str	r1, [r0]
  1002d4:	e59f00fc 	ldr	r0, [pc, #252]	; 1003d8 <finished+0x24>
  1002d8:	e5901000 	ldr	r1, [r0]
  1002dc:	e3a02001 	mov	r2, #1
  1002e0:	e1811002 	orr	r1, r1, r2
  1002e4:	e5801000 	str	r1, [r0]
  1002e8:	e1a00000 	nop			; (mov r0, r0)
  1002ec:	ee111f50 	mrc	15, 0, r1, cr1, cr0, {2}
  1002f0:	e381160f 	orr	r1, r1, #15728640	; 0xf00000
  1002f4:	ee011f50 	mcr	15, 0, r1, cr1, cr0, {2}
  1002f8:	eef81a10 	vmrs	r1, fpexc
  1002fc:	e3811101 	orr	r1, r1, #1073741824	; 0x40000000
  100300:	eee81a10 	vmsr	fpexc, r1
  100304:	ee110f10 	mrc	15, 0, r0, cr1, cr0, {0}
  100308:	e3800b02 	orr	r0, r0, #2048	; 0x800
  10030c:	ee010f10 	mcr	15, 0, r0, cr1, cr0, {0}
  100310:	ee110f30 	mrc	15, 0, r0, cr1, cr0, {1}
  100314:	e3800004 	orr	r0, r0, #4
  100318:	e3800002 	orr	r0, r0, #2
  10031c:	ee010f30 	mcr	15, 0, r0, cr1, cr0, {1}
  100320:	e10f0000 	mrs	r0, CPSR
  100324:	e3c00c01 	bic	r0, r0, #256	; 0x100
  100328:	e12ef000 	msr	CPSR_fsx, r0
  10032c:	ea000117 	b	100790 <_start>
  100330:	e0000000 	and	r0, r0, r0
  100334:	eafffffe 	b	100334 <Sync+0x160>

00100338 <invalidate_dcache>:
  100338:	ee300f30 	mrc	15, 1, r0, cr0, cr0, {1}
  10033c:	e2103407 	ands	r3, r0, #117440512	; 0x7000000
  100340:	e1a03ba3 	lsr	r3, r3, #23
  100344:	0a00001a 	beq	1003b4 <finished>
  100348:	e3a0a000 	mov	sl, #0

0010034c <loop1>:
  10034c:	e08a20aa 	add	r2, sl, sl, lsr #1
  100350:	e1a01230 	lsr	r1, r0, r2
  100354:	e2011007 	and	r1, r1, #7
  100358:	e3510002 	cmp	r1, #2
  10035c:	ba000011 	blt	1003a8 <skip>
  100360:	ee40af10 	mcr	15, 2, sl, cr0, cr0, {0}
  100364:	f57ff06f 	isb	sy
  100368:	ee301f10 	mrc	15, 1, r1, cr0, cr0, {0}
  10036c:	e2012007 	and	r2, r1, #7
  100370:	e2822004 	add	r2, r2, #4
  100374:	e59f40c0 	ldr	r4, [pc, #192]	; 10043c <finished+0x88>
  100378:	e01441a1 	ands	r4, r4, r1, lsr #3
  10037c:	e16f5f14 	clz	r5, r4
  100380:	e59f70b8 	ldr	r7, [pc, #184]	; 100440 <finished+0x8c>
  100384:	e01776a1 	ands	r7, r7, r1, lsr #13

00100388 <loop2>:
  100388:	e1a09004 	mov	r9, r4

0010038c <loop3>:
  10038c:	e18ab519 	orr	fp, sl, r9, lsl r5
  100390:	e18bb217 	orr	fp, fp, r7, lsl r2
  100394:	ee07bf56 	mcr	15, 0, fp, cr7, cr6, {2}
  100398:	e2599001 	subs	r9, r9, #1
  10039c:	aafffffa 	bge	10038c <loop3>
  1003a0:	e2577001 	subs	r7, r7, #1
  1003a4:	aafffff7 	bge	100388 <loop2>

001003a8 <skip>:
  1003a8:	e28aa002 	add	sl, sl, #2
  1003ac:	e153000a 	cmp	r3, sl
  1003b0:	caffffe5 	bgt	10034c <loop1>

001003b4 <finished>:
  1003b4:	e3a0a000 	mov	sl, #0
  1003b8:	ee40af10 	mcr	15, 2, sl, cr0, cr0, {0}
  1003bc:	f57ff04f 	dsb	sy
  1003c0:	f57ff06f 	isb	sy
  1003c4:	e12fff1e 	bx	lr
  1003c8:	00100000 	andseq	r0, r0, r0
  1003cc:	f8f00000 			; <UNDEFINED> instruction: 0xf8f00000
  1003d0:	f8f0000c 			; <UNDEFINED> instruction: 0xf8f0000c
  1003d4:	0000ffff 	strdeq	pc, [r0], -pc	; <UNPREDICTABLE>
  1003d8:	f8f02100 			; <UNDEFINED> instruction: 0xf8f02100
  1003dc:	f8f02104 			; <UNDEFINED> instruction: 0xf8f02104
  1003e0:	72360000 	eorsvc	r0, r6, #0
  1003e4:	f8f02108 			; <UNDEFINED> instruction: 0xf8f02108
  1003e8:	00000111 	andeq	r0, r0, r1, lsl r1
  1003ec:	f8f0210c 			; <UNDEFINED> instruction: 0xf8f0210c
  1003f0:	00000121 	andeq	r0, r0, r1, lsr #2
  1003f4:	f8f0277c 			; <UNDEFINED> instruction: 0xf8f0277c
  1003f8:	f8f02730 			; <UNDEFINED> instruction: 0xf8f02730
  1003fc:	f8f0221c 			; <UNDEFINED> instruction: 0xf8f0221c
  100400:	f8f02220 			; <UNDEFINED> instruction: 0xf8f02220
  100404:	00115740 	andseq	r5, r1, r0, asr #14
  100408:	00115f40 	andseq	r5, r1, r0, asr #30
  10040c:	00116340 	andseq	r6, r1, r0, asr #6
  100410:	00116740 	andseq	r6, r1, r0, asr #14
  100414:	00116b40 	andseq	r6, r1, r0, asr #22
  100418:	00115340 	andseq	r5, r1, r0, asr #6
  10041c:	0010c000 	andseq	ip, r0, r0
  100420:	00001005 	andeq	r1, r0, r5
  100424:	f8000008 			; <UNDEFINED> instruction: 0xf8000008
  100428:	0000df0d 	andeq	sp, r0, sp, lsl #30
  10042c:	f8000a1c 			; <UNDEFINED> instruction: 0xf8000a1c
  100430:	00020202 	andeq	r0, r2, r2, lsl #4
  100434:	f8000004 			; <UNDEFINED> instruction: 0xf8000004
  100438:	0000767b 	andeq	r7, r0, fp, ror r6
  10043c:	000003ff 	strdeq	r0, [r0], -pc	; <UNPREDICTABLE>
  100440:	00007fff 	strdeq	r7, [r0], -pc	; <UNPREDICTABLE>

00100444 <deregister_tm_clones>:
  100444:	e92d4008 	push	{r3, lr}
  100448:	e30b0b1c 	movw	r0, #47900	; 0xbb1c
  10044c:	e59f3024 	ldr	r3, [pc, #36]	; 100478 <deregister_tm_clones+0x34>
  100450:	e3400010 	movt	r0, #16
  100454:	e0603003 	rsb	r3, r0, r3
  100458:	e3530006 	cmp	r3, #6
  10045c:	98bd8008 	popls	{r3, pc}
  100460:	e3003000 	movw	r3, #0
  100464:	e3403000 	movt	r3, #0
  100468:	e3530000 	cmp	r3, #0
  10046c:	08bd8008 	popeq	{r3, pc}
  100470:	e12fff33 	blx	r3
  100474:	e8bd8008 	pop	{r3, pc}
  100478:	0010bb1f 	andseq	fp, r0, pc, lsl fp

0010047c <register_tm_clones>:
  10047c:	e92d4008 	push	{r3, lr}
  100480:	e30b0b1c 	movw	r0, #47900	; 0xbb1c
  100484:	e30b3b1c 	movw	r3, #47900	; 0xbb1c
  100488:	e3400010 	movt	r0, #16
  10048c:	e3403010 	movt	r3, #16
  100490:	e0603003 	rsb	r3, r0, r3
  100494:	e1a03143 	asr	r3, r3, #2
  100498:	e0833fa3 	add	r3, r3, r3, lsr #31
  10049c:	e1b010c3 	asrs	r1, r3, #1
  1004a0:	08bd8008 	popeq	{r3, pc}
  1004a4:	e3002000 	movw	r2, #0
  1004a8:	e3402000 	movt	r2, #0
  1004ac:	e3520000 	cmp	r2, #0
  1004b0:	08bd8008 	popeq	{r3, pc}
  1004b4:	e12fff32 	blx	r2
  1004b8:	e8bd8008 	pop	{r3, pc}

001004bc <__do_global_dtors_aux>:
  1004bc:	e92d4010 	push	{r4, lr}
  1004c0:	e3004014 	movw	r4, #20
  1004c4:	e3404011 	movt	r4, #17
  1004c8:	e5d43000 	ldrb	r3, [r4]
  1004cc:	e3530000 	cmp	r3, #0
  1004d0:	18bd8010 	popne	{r4, pc}
  1004d4:	ebffffda 	bl	100444 <deregister_tm_clones>
  1004d8:	e3003000 	movw	r3, #0
  1004dc:	e3403000 	movt	r3, #0
  1004e0:	e3530000 	cmp	r3, #0
  1004e4:	0a000002 	beq	1004f4 <__do_global_dtors_aux+0x38>
  1004e8:	e30b0b1c 	movw	r0, #47900	; 0xbb1c
  1004ec:	e3400010 	movt	r0, #16
  1004f0:	e320f000 	nop	{0}
  1004f4:	e3a03001 	mov	r3, #1
  1004f8:	e5c43000 	strb	r3, [r4]
  1004fc:	e8bd8010 	pop	{r4, pc}

00100500 <frame_dummy>:
  100500:	e92d4008 	push	{r3, lr}
  100504:	e3003000 	movw	r3, #0
  100508:	e3403000 	movt	r3, #0
  10050c:	e3530000 	cmp	r3, #0
  100510:	0a000004 	beq	100528 <frame_dummy+0x28>
  100514:	e30b0b1c 	movw	r0, #47900	; 0xbb1c
  100518:	e3001018 	movw	r1, #24
  10051c:	e3400010 	movt	r0, #16
  100520:	e3401011 	movt	r1, #17
  100524:	e320f000 	nop	{0}
  100528:	e30b0b18 	movw	r0, #47896	; 0xbb18
  10052c:	e3400010 	movt	r0, #16
  100530:	e5903000 	ldr	r3, [r0]
  100534:	e3530000 	cmp	r3, #0
  100538:	0a000004 	beq	100550 <frame_dummy+0x50>
  10053c:	e3003000 	movw	r3, #0
  100540:	e3403000 	movt	r3, #0
  100544:	e3530000 	cmp	r3, #0
  100548:	0a000000 	beq	100550 <frame_dummy+0x50>
  10054c:	e12fff33 	blx	r3
  100550:	e8bd4008 	pop	{r3, lr}
  100554:	eaffffc8 	b	10047c <register_tm_clones>

00100558 <init_matrix>:
  100558:	e52d4004 	push	{r4}		; (str r4, [sp, #-4]!)
  10055c:	e3a0c000 	mov	ip, #0
  100560:	e1a0400c 	mov	r4, ip
  100564:	ea000007 	b	100588 <init_matrix+0x30>
  100568:	e7821003 	str	r1, [r2, r3]
  10056c:	e2833004 	add	r3, r3, #4
  100570:	e3530050 	cmp	r3, #80	; 0x50
  100574:	1afffffb 	bne	100568 <init_matrix+0x10>
  100578:	e28cc001 	add	ip, ip, #1
  10057c:	e2800050 	add	r0, r0, #80	; 0x50
  100580:	e35c0014 	cmp	ip, #20
  100584:	0a000002 	beq	100594 <init_matrix+0x3c>
  100588:	e1a02000 	mov	r2, r0
  10058c:	e1a03004 	mov	r3, r4
  100590:	eafffff4 	b	100568 <init_matrix+0x10>
  100594:	e49d4004 	pop	{r4}		; (ldr r4, [sp], #4)
  100598:	e12fff1e 	bx	lr

0010059c <multi_matrix>:
  10059c:	e92d0ff0 	push	{r4, r5, r6, r7, r8, r9, sl, fp}
  1005a0:	e24dd008 	sub	sp, sp, #8
  1005a4:	e3a0a000 	mov	sl, #0
  1005a8:	e1a0800a 	mov	r8, sl
  1005ac:	e2400004 	sub	r0, r0, #4
  1005b0:	e58d0004 	str	r0, [sp, #4]
  1005b4:	ea000011 	b	100600 <multi_matrix+0x64>
  1005b8:	e7964003 	ldr	r4, [r6, r3]
  1005bc:	e5bc5004 	ldr	r5, [ip, #4]!
  1005c0:	e0200495 	mla	r0, r5, r4, r0
  1005c4:	e2833050 	add	r3, r3, #80	; 0x50
  1005c8:	e3530d19 	cmp	r3, #1600	; 0x640
  1005cc:	1afffff9 	bne	1005b8 <multi_matrix+0x1c>
  1005d0:	e78b0007 	str	r0, [fp, r7]
  1005d4:	e2877004 	add	r7, r7, #4
  1005d8:	e3570050 	cmp	r7, #80	; 0x50
  1005dc:	0a000004 	beq	1005f4 <multi_matrix+0x58>
  1005e0:	e1a0c009 	mov	ip, r9
  1005e4:	e1a03008 	mov	r3, r8
  1005e8:	e1a00008 	mov	r0, r8
  1005ec:	e0816007 	add	r6, r1, r7
  1005f0:	eafffff0 	b	1005b8 <multi_matrix+0x1c>
  1005f4:	e28aa050 	add	sl, sl, #80	; 0x50
  1005f8:	e35a0d19 	cmp	sl, #1600	; 0x640
  1005fc:	0a000004 	beq	100614 <multi_matrix+0x78>
  100600:	e082b00a 	add	fp, r2, sl
  100604:	e1a07008 	mov	r7, r8
  100608:	e59d3004 	ldr	r3, [sp, #4]
  10060c:	e083900a 	add	r9, r3, sl
  100610:	eafffff2 	b	1005e0 <multi_matrix+0x44>
  100614:	e28dd008 	add	sp, sp, #8
  100618:	e8bd0ff0 	pop	{r4, r5, r6, r7, r8, r9, sl, fp}
  10061c:	e12fff1e 	bx	lr

00100620 <print_matrix>:
  100620:	e92d43f8 	push	{r3, r4, r5, r6, r7, r8, r9, lr}
  100624:	e2408004 	sub	r8, r0, #4
  100628:	e3a06000 	mov	r6, #0
  10062c:	e1a09006 	mov	r9, r6
  100630:	e30b7198 	movw	r7, #45464	; 0xb198
  100634:	e3407010 	movt	r7, #16
  100638:	ea00000b 	b	10066c <print_matrix+0x4c>
  10063c:	e1a00007 	mov	r0, r7
  100640:	e1a01006 	mov	r1, r6
  100644:	e1a02004 	mov	r2, r4
  100648:	e5b53004 	ldr	r3, [r5, #4]!
  10064c:	eb00041f 	bl	1016d0 <printf>
  100650:	e2844001 	add	r4, r4, #1
  100654:	e3540014 	cmp	r4, #20
  100658:	1afffff7 	bne	10063c <print_matrix+0x1c>
  10065c:	e2866001 	add	r6, r6, #1
  100660:	e2888050 	add	r8, r8, #80	; 0x50
  100664:	e3560014 	cmp	r6, #20
  100668:	08bd83f8 	popeq	{r3, r4, r5, r6, r7, r8, r9, pc}
  10066c:	e1a05008 	mov	r5, r8
  100670:	e1a04009 	mov	r4, r9
  100674:	eafffff0 	b	10063c <print_matrix+0x1c>

00100678 <main>:
  100678:	e92d4010 	push	{r4, lr}
  10067c:	eb000017 	bl	1006e0 <init_platform>
  100680:	e30b4214 	movw	r4, #45588	; 0xb214
  100684:	e3404010 	movt	r4, #16
  100688:	e5940000 	ldr	r0, [r4]
  10068c:	e3a01002 	mov	r1, #2
  100690:	ebffffb0 	bl	100558 <init_matrix>
  100694:	e5940004 	ldr	r0, [r4, #4]
  100698:	e3a01001 	mov	r1, #1
  10069c:	ebffffad 	bl	100558 <init_matrix>
  1006a0:	e5940008 	ldr	r0, [r4, #8]
  1006a4:	e3a01000 	mov	r1, #0
  1006a8:	ebffffaa 	bl	100558 <init_matrix>
  1006ac:	e5940000 	ldr	r0, [r4]
  1006b0:	e5941004 	ldr	r1, [r4, #4]
  1006b4:	e5942008 	ldr	r2, [r4, #8]
  1006b8:	ebffffb7 	bl	10059c <multi_matrix>
  1006bc:	eb000008 	bl	1006e4 <cleanup_platform>
  1006c0:	e3a00000 	mov	r0, #0
  1006c4:	e8bd8010 	pop	{r4, pc}

001006c8 <enable_caches>:
  1006c8:	e12fff1e 	bx	lr

001006cc <disable_caches>:
  1006cc:	e92d4008 	push	{r3, lr}
  1006d0:	eb000212 	bl	100f20 <Xil_DCacheDisable>
  1006d4:	eb000218 	bl	100f3c <Xil_ICacheDisable>
  1006d8:	e8bd8008 	pop	{r3, pc}

001006dc <init_uart>:
  1006dc:	e12fff1e 	bx	lr

001006e0 <init_platform>:
  1006e0:	e12fff1e 	bx	lr

001006e4 <cleanup_platform>:
  1006e4:	e92d4008 	push	{r3, lr}
  1006e8:	ebfffff7 	bl	1006cc <disable_caches>
  1006ec:	e8bd8008 	pop	{r3, pc}

001006f0 <FIQInterrupt>:
  1006f0:	e92d4008 	push	{r3, lr}
  1006f4:	e30b3220 	movw	r3, #45600	; 0xb220
  1006f8:	e3403010 	movt	r3, #16
  1006fc:	e5932030 	ldr	r2, [r3, #48]	; 0x30
  100700:	e5930034 	ldr	r0, [r3, #52]	; 0x34
  100704:	e12fff32 	blx	r2
  100708:	e8bd8008 	pop	{r3, pc}

0010070c <IRQInterrupt>:
  10070c:	e92d4008 	push	{r3, lr}
  100710:	e30b3220 	movw	r3, #45600	; 0xb220
  100714:	e3403010 	movt	r3, #16
  100718:	e5932028 	ldr	r2, [r3, #40]	; 0x28
  10071c:	e593002c 	ldr	r0, [r3, #44]	; 0x2c
  100720:	e12fff32 	blx	r2
  100724:	e8bd8008 	pop	{r3, pc}

00100728 <SWInterrupt>:
  100728:	e92d4008 	push	{r3, lr}
  10072c:	e30b3220 	movw	r3, #45600	; 0xb220
  100730:	e3403010 	movt	r3, #16
  100734:	e5932010 	ldr	r2, [r3, #16]
  100738:	e5930014 	ldr	r0, [r3, #20]
  10073c:	e12fff32 	blx	r2
  100740:	e8bd8008 	pop	{r3, pc}

00100744 <DataAbortInterrupt>:
  100744:	e92d4008 	push	{r3, lr}
  100748:	e30b3220 	movw	r3, #45600	; 0xb220
  10074c:	e3403010 	movt	r3, #16
  100750:	e5932020 	ldr	r2, [r3, #32]
  100754:	e5930024 	ldr	r0, [r3, #36]	; 0x24
  100758:	e12fff32 	blx	r2
  10075c:	e8bd8008 	pop	{r3, pc}

00100760 <PrefetchAbortInterrupt>:
  100760:	e92d4008 	push	{r3, lr}
  100764:	e30b3220 	movw	r3, #45600	; 0xb220
  100768:	e3403010 	movt	r3, #16
  10076c:	e5932018 	ldr	r2, [r3, #24]
  100770:	e593001c 	ldr	r0, [r3, #28]
  100774:	e12fff32 	blx	r2
  100778:	e8bd8008 	pop	{r3, pc}
  10077c:	00110014 	andseq	r0, r1, r4, lsl r0
  100780:	00110014 	andseq	r0, r1, r4, lsl r0
  100784:	00110014 	andseq	r0, r1, r4, lsl r0
  100788:	00111338 	andseq	r1, r1, r8, lsr r3
  10078c:	00115340 	andseq	r5, r1, r0, asr #6

00100790 <_start>:
  100790:	eb0002f1 	bl	10135c <__cpu_init>
  100794:	e3a00000 	mov	r0, #0
  100798:	e51f1024 	ldr	r1, [pc, #-36]	; 10077c <PrefetchAbortInterrupt+0x1c>
  10079c:	e51f2024 	ldr	r2, [pc, #-36]	; 100780 <PrefetchAbortInterrupt+0x20>
  1007a0:	e1510002 	cmp	r1, r2
  1007a4:	aa000001 	bge	1007b0 <_start+0x20>
  1007a8:	e4810004 	str	r0, [r1], #4
  1007ac:	eafffffb 	b	1007a0 <_start+0x10>
  1007b0:	e51f1034 	ldr	r1, [pc, #-52]	; 100784 <PrefetchAbortInterrupt+0x24>
  1007b4:	e51f2034 	ldr	r2, [pc, #-52]	; 100788 <PrefetchAbortInterrupt+0x28>
  1007b8:	e1510002 	cmp	r1, r2
  1007bc:	aa000001 	bge	1007c8 <_start+0x38>
  1007c0:	e4810004 	str	r0, [r1], #4
  1007c4:	eafffffb 	b	1007b8 <_start+0x28>
  1007c8:	e51fd044 	ldr	sp, [pc, #-68]	; 10078c <PrefetchAbortInterrupt+0x2c>
  1007cc:	e3a00000 	mov	r0, #0
  1007d0:	e3a01000 	mov	r1, #0
  1007d4:	eb0002b8 	bl	1012bc <XTime_SetTime>
  1007d8:	eb000390 	bl	101620 <__libc_init_array>
  1007dc:	e3a00000 	mov	r0, #0
  1007e0:	e3a01000 	mov	r1, #0
  1007e4:	ebffffa3 	bl	100678 <main>
  1007e8:	eb00037c 	bl	1015e0 <__libc_fini_array>
  1007ec:	eb00036e 	bl	1015ac <exit>
  1007f0:	eafffffe 	b	1007f0 <_start+0x60>

001007f4 <Xil_DCacheInvalidateLine>:
  1007f4:	e92d4038 	push	{r3, r4, r5, lr}
  1007f8:	e1a05000 	mov	r5, r0
  1007fc:	e10f4000 	mrs	r4, CPSR
  100800:	e38430c0 	orr	r3, r4, #192	; 0xc0
  100804:	e129f003 	msr	CPSR_fc, r3
  100808:	e3020770 	movw	r0, #10096	; 0x2770
  10080c:	e1a01005 	mov	r1, r5
  100810:	e34f08f0 	movt	r0, #63728	; 0xf8f0
  100814:	eb000282 	bl	101224 <Xil_Out32>
  100818:	f57ff04f 	dsb	sy
  10081c:	e3a03000 	mov	r3, #0
  100820:	ee403f10 	mcr	15, 2, r3, cr0, cr0, {0}
  100824:	e3c5501f 	bic	r5, r5, #31
  100828:	ee075f36 	mcr	15, 0, r5, cr7, cr6, {1}
  10082c:	f57ff04f 	dsb	sy
  100830:	e129f004 	msr	CPSR_fc, r4
  100834:	e8bd8038 	pop	{r3, r4, r5, pc}

00100838 <Xil_DCacheFlushRange>:
  100838:	e10f2000 	mrs	r2, CPSR
  10083c:	e38230c0 	orr	r3, r2, #192	; 0xc0
  100840:	e129f003 	msr	CPSR_fc, r3
  100844:	e3510000 	cmp	r1, #0
  100848:	0a00000b 	beq	10087c <Xil_DCacheFlushRange+0x44>
  10084c:	e0811000 	add	r1, r1, r0
  100850:	e3c0001f 	bic	r0, r0, #31
  100854:	e1510000 	cmp	r1, r0
  100858:	9a000007 	bls	10087c <Xil_DCacheFlushRange+0x44>
  10085c:	e3a03a02 	mov	r3, #8192	; 0x2000
  100860:	e34f38f0 	movt	r3, #63728	; 0xf8f0
  100864:	ee070f3e 	mcr	15, 0, r0, cr7, cr14, {1}
  100868:	e58307f0 	str	r0, [r3, #2032]	; 0x7f0
  10086c:	f57ff04f 	dsb	sy
  100870:	e2800020 	add	r0, r0, #32
  100874:	e1510000 	cmp	r1, r0
  100878:	8afffff9 	bhi	100864 <Xil_DCacheFlushRange+0x2c>
  10087c:	f57ff04f 	dsb	sy
  100880:	e129f002 	msr	CPSR_fc, r2
  100884:	e12fff1e 	bx	lr

00100888 <Xil_DCacheStoreLine>:
  100888:	e92d4010 	push	{r4, lr}
  10088c:	e1a01000 	mov	r1, r0
  100890:	e10f4000 	mrs	r4, CPSR
  100894:	e38430c0 	orr	r3, r4, #192	; 0xc0
  100898:	e129f003 	msr	CPSR_fc, r3
  10089c:	e3a03000 	mov	r3, #0
  1008a0:	ee403f10 	mcr	15, 2, r3, cr0, cr0, {0}
  1008a4:	e3c0301f 	bic	r3, r0, #31
  1008a8:	ee073f3a 	mcr	15, 0, r3, cr7, cr10, {1}
  1008ac:	f57ff04f 	dsb	sy
  1008b0:	e30207b0 	movw	r0, #10160	; 0x27b0
  1008b4:	e34f08f0 	movt	r0, #63728	; 0xf8f0
  1008b8:	eb000259 	bl	101224 <Xil_Out32>
  1008bc:	f57ff04f 	dsb	sy
  1008c0:	e129f004 	msr	CPSR_fc, r4
  1008c4:	e8bd8010 	pop	{r4, pc}

001008c8 <Xil_ICacheInvalidateLine>:
  1008c8:	e92d4038 	push	{r3, r4, r5, lr}
  1008cc:	e1a05000 	mov	r5, r0
  1008d0:	e10f4000 	mrs	r4, CPSR
  1008d4:	e38430c0 	orr	r3, r4, #192	; 0xc0
  1008d8:	e129f003 	msr	CPSR_fc, r3
  1008dc:	e3020770 	movw	r0, #10096	; 0x2770
  1008e0:	e1a01005 	mov	r1, r5
  1008e4:	e34f08f0 	movt	r0, #63728	; 0xf8f0
  1008e8:	eb00024d 	bl	101224 <Xil_Out32>
  1008ec:	f57ff04f 	dsb	sy
  1008f0:	e3a03001 	mov	r3, #1
  1008f4:	ee403f10 	mcr	15, 2, r3, cr0, cr0, {0}
  1008f8:	e3c5501f 	bic	r5, r5, #31
  1008fc:	ee075f35 	mcr	15, 0, r5, cr7, cr5, {1}
  100900:	f57ff04f 	dsb	sy
  100904:	e129f004 	msr	CPSR_fc, r4
  100908:	e8bd8038 	pop	{r3, r4, r5, pc}

0010090c <Xil_ICacheInvalidateRange>:
  10090c:	e10f2000 	mrs	r2, CPSR
  100910:	e38230c0 	orr	r3, r2, #192	; 0xc0
  100914:	e129f003 	msr	CPSR_fc, r3
  100918:	e3510000 	cmp	r1, #0
  10091c:	0a00000d 	beq	100958 <Xil_ICacheInvalidateRange+0x4c>
  100920:	e0811000 	add	r1, r1, r0
  100924:	e3a03001 	mov	r3, #1
  100928:	e3c0001f 	bic	r0, r0, #31
  10092c:	ee403f10 	mcr	15, 2, r3, cr0, cr0, {0}
  100930:	e1510000 	cmp	r1, r0
  100934:	9a000007 	bls	100958 <Xil_ICacheInvalidateRange+0x4c>
  100938:	e3a03a02 	mov	r3, #8192	; 0x2000
  10093c:	e34f38f0 	movt	r3, #63728	; 0xf8f0
  100940:	e5830770 	str	r0, [r3, #1904]	; 0x770
  100944:	f57ff04f 	dsb	sy
  100948:	ee070f35 	mcr	15, 0, r0, cr7, cr5, {1}
  10094c:	e2800020 	add	r0, r0, #32
  100950:	e1510000 	cmp	r1, r0
  100954:	8afffff9 	bhi	100940 <Xil_ICacheInvalidateRange+0x34>
  100958:	f57ff04f 	dsb	sy
  10095c:	e129f002 	msr	CPSR_fc, r2
  100960:	e12fff1e 	bx	lr

00100964 <Xil_L1DCacheInvalidate>:
  100964:	e92d41f0 	push	{r4, r5, r6, r7, r8, lr}
  100968:	e10f8000 	mrs	r8, CPSR
  10096c:	e38830c0 	orr	r3, r8, #192	; 0xc0
  100970:	e129f003 	msr	CPSR_fc, r3
  100974:	e3030340 	movw	r0, #13120	; 0x3340
  100978:	e3051340 	movw	r1, #21312	; 0x5340
  10097c:	e3400011 	movt	r0, #17
  100980:	e3401011 	movt	r1, #17
  100984:	e0601001 	rsb	r1, r0, r1
  100988:	ebffffaa 	bl	100838 <Xil_DCacheFlushRange>
  10098c:	e3a03000 	mov	r3, #0
  100990:	ee403f10 	mcr	15, 2, r3, cr0, cr0, {0}
  100994:	ee304f10 	mrc	15, 1, r4, cr0, cr0, {0}
  100998:	e7e806d4 	ubfx	r0, r4, #13, #9
  10099c:	e7e671d4 	ubfx	r7, r4, #3, #7
  1009a0:	e2800001 	add	r0, r0, #1
  1009a4:	e2877001 	add	r7, r7, #1
  1009a8:	e3a05001 	mov	r5, #1
  1009ac:	e3a06000 	mov	r6, #0
  1009b0:	e1a00380 	lsl	r0, r0, #7
  1009b4:	e1a01007 	mov	r1, r7
  1009b8:	eb000277 	bl	10139c <__aeabi_uidiv>
  1009bc:	e2043007 	and	r3, r4, #7
  1009c0:	e2833004 	add	r3, r3, #4
  1009c4:	e1a05315 	lsl	r5, r5, r3
  1009c8:	e1a00330 	lsr	r0, r0, r3
  1009cc:	e3500000 	cmp	r0, #0
  1009d0:	e1a04f06 	lsl	r4, r6, #30
  1009d4:	0a000007 	beq	1009f8 <Xil_L1DCacheInvalidate+0x94>
  1009d8:	e3a03000 	mov	r3, #0
  1009dc:	e1a02003 	mov	r2, r3
  1009e0:	e182c004 	orr	ip, r2, r4
  1009e4:	ee07cf56 	mcr	15, 0, ip, cr7, cr6, {2}
  1009e8:	e2833001 	add	r3, r3, #1
  1009ec:	e0822005 	add	r2, r2, r5
  1009f0:	e1530000 	cmp	r3, r0
  1009f4:	1afffff9 	bne	1009e0 <Xil_L1DCacheInvalidate+0x7c>
  1009f8:	e2866001 	add	r6, r6, #1
  1009fc:	e1570006 	cmp	r7, r6
  100a00:	8afffff1 	bhi	1009cc <Xil_L1DCacheInvalidate+0x68>
  100a04:	f57ff04f 	dsb	sy
  100a08:	e129f008 	msr	CPSR_fc, r8
  100a0c:	e8bd81f0 	pop	{r4, r5, r6, r7, r8, pc}

00100a10 <Xil_L1DCacheEnable>:
  100a10:	e92d4010 	push	{r4, lr}
  100a14:	ee114f10 	mrc	15, 0, r4, cr1, cr0, {0}
  100a18:	e3140004 	tst	r4, #4
  100a1c:	18bd8010 	popne	{r4, pc}
  100a20:	ebffffcf 	bl	100964 <Xil_L1DCacheInvalidate>
  100a24:	e3844004 	orr	r4, r4, #4
  100a28:	ee014f10 	mcr	15, 0, r4, cr1, cr0, {0}
  100a2c:	e8bd8010 	pop	{r4, pc}

00100a30 <Xil_L1DCacheInvalidateLine>:
  100a30:	e3a03000 	mov	r3, #0
  100a34:	ee403f10 	mcr	15, 2, r3, cr0, cr0, {0}
  100a38:	e3c0001f 	bic	r0, r0, #31
  100a3c:	ee070f36 	mcr	15, 0, r0, cr7, cr6, {1}
  100a40:	f57ff04f 	dsb	sy
  100a44:	e12fff1e 	bx	lr

00100a48 <Xil_L1DCacheInvalidateRange>:
  100a48:	e10f3000 	mrs	r3, CPSR
  100a4c:	e38320c0 	orr	r2, r3, #192	; 0xc0
  100a50:	e129f002 	msr	CPSR_fc, r2
  100a54:	e3510000 	cmp	r1, #0
  100a58:	0a000009 	beq	100a84 <Xil_L1DCacheInvalidateRange+0x3c>
  100a5c:	e0811000 	add	r1, r1, r0
  100a60:	e3a02000 	mov	r2, #0
  100a64:	e3c0001f 	bic	r0, r0, #31
  100a68:	ee402f10 	mcr	15, 2, r2, cr0, cr0, {0}
  100a6c:	e1510000 	cmp	r1, r0
  100a70:	9a000003 	bls	100a84 <Xil_L1DCacheInvalidateRange+0x3c>
  100a74:	ee070f36 	mcr	15, 0, r0, cr7, cr6, {1}
  100a78:	e2800020 	add	r0, r0, #32
  100a7c:	e1510000 	cmp	r1, r0
  100a80:	8afffffb 	bhi	100a74 <Xil_L1DCacheInvalidateRange+0x2c>
  100a84:	f57ff04f 	dsb	sy
  100a88:	e129f003 	msr	CPSR_fc, r3
  100a8c:	e12fff1e 	bx	lr

00100a90 <Xil_L1DCacheFlush>:
  100a90:	e92d41f0 	push	{r4, r5, r6, r7, r8, lr}
  100a94:	e10f8000 	mrs	r8, CPSR
  100a98:	e38830c0 	orr	r3, r8, #192	; 0xc0
  100a9c:	e129f003 	msr	CPSR_fc, r3
  100aa0:	e3a03000 	mov	r3, #0
  100aa4:	ee403f10 	mcr	15, 2, r3, cr0, cr0, {0}
  100aa8:	ee304f10 	mrc	15, 1, r4, cr0, cr0, {0}
  100aac:	e7e806d4 	ubfx	r0, r4, #13, #9
  100ab0:	e7e671d4 	ubfx	r7, r4, #3, #7
  100ab4:	e2800001 	add	r0, r0, #1
  100ab8:	e2877001 	add	r7, r7, #1
  100abc:	e3a05001 	mov	r5, #1
  100ac0:	e3a06000 	mov	r6, #0
  100ac4:	e1a00380 	lsl	r0, r0, #7
  100ac8:	e1a01007 	mov	r1, r7
  100acc:	eb000232 	bl	10139c <__aeabi_uidiv>
  100ad0:	e2043007 	and	r3, r4, #7
  100ad4:	e2833004 	add	r3, r3, #4
  100ad8:	e1a05315 	lsl	r5, r5, r3
  100adc:	e1a00330 	lsr	r0, r0, r3
  100ae0:	e3500000 	cmp	r0, #0
  100ae4:	e1a04f06 	lsl	r4, r6, #30
  100ae8:	0a000007 	beq	100b0c <Xil_L1DCacheFlush+0x7c>
  100aec:	e3a03000 	mov	r3, #0
  100af0:	e1a02003 	mov	r2, r3
  100af4:	e182c004 	orr	ip, r2, r4
  100af8:	ee07cf5e 	mcr	15, 0, ip, cr7, cr14, {2}
  100afc:	e2833001 	add	r3, r3, #1
  100b00:	e0822005 	add	r2, r2, r5
  100b04:	e1530000 	cmp	r3, r0
  100b08:	1afffff9 	bne	100af4 <Xil_L1DCacheFlush+0x64>
  100b0c:	e2866001 	add	r6, r6, #1
  100b10:	e1570006 	cmp	r7, r6
  100b14:	8afffff1 	bhi	100ae0 <Xil_L1DCacheFlush+0x50>
  100b18:	f57ff04f 	dsb	sy
  100b1c:	e129f008 	msr	CPSR_fc, r8
  100b20:	e8bd81f0 	pop	{r4, r5, r6, r7, r8, pc}

00100b24 <Xil_L1DCacheDisable>:
  100b24:	e92d4008 	push	{r3, lr}
  100b28:	ebffffd8 	bl	100a90 <Xil_L1DCacheFlush>
  100b2c:	ee113f10 	mrc	15, 0, r3, cr1, cr0, {0}
  100b30:	e3c33004 	bic	r3, r3, #4
  100b34:	ee013f10 	mcr	15, 0, r3, cr1, cr0, {0}
  100b38:	e8bd8008 	pop	{r3, pc}

00100b3c <Xil_L1DCacheFlushLine>:
  100b3c:	e3a03000 	mov	r3, #0
  100b40:	ee403f10 	mcr	15, 2, r3, cr0, cr0, {0}
  100b44:	e3c0001f 	bic	r0, r0, #31
  100b48:	ee070f3e 	mcr	15, 0, r0, cr7, cr14, {1}
  100b4c:	f57ff04f 	dsb	sy
  100b50:	e12fff1e 	bx	lr

00100b54 <Xil_L1DCacheFlushRange>:
  100b54:	e10f3000 	mrs	r3, CPSR
  100b58:	e38320c0 	orr	r2, r3, #192	; 0xc0
  100b5c:	e129f002 	msr	CPSR_fc, r2
  100b60:	e3510000 	cmp	r1, #0
  100b64:	0a000009 	beq	100b90 <Xil_L1DCacheFlushRange+0x3c>
  100b68:	e0811000 	add	r1, r1, r0
  100b6c:	e3a02000 	mov	r2, #0
  100b70:	e3c0001f 	bic	r0, r0, #31
  100b74:	ee402f10 	mcr	15, 2, r2, cr0, cr0, {0}
  100b78:	e1510000 	cmp	r1, r0
  100b7c:	9a000003 	bls	100b90 <Xil_L1DCacheFlushRange+0x3c>
  100b80:	ee070f3e 	mcr	15, 0, r0, cr7, cr14, {1}
  100b84:	e2800020 	add	r0, r0, #32
  100b88:	e1510000 	cmp	r1, r0
  100b8c:	8afffffb 	bhi	100b80 <Xil_L1DCacheFlushRange+0x2c>
  100b90:	f57ff04f 	dsb	sy
  100b94:	e129f003 	msr	CPSR_fc, r3
  100b98:	e12fff1e 	bx	lr

00100b9c <Xil_L1DCacheStoreLine>:
  100b9c:	e3a03000 	mov	r3, #0
  100ba0:	ee403f10 	mcr	15, 2, r3, cr0, cr0, {0}
  100ba4:	e3c0001f 	bic	r0, r0, #31
  100ba8:	ee070f3a 	mcr	15, 0, r0, cr7, cr10, {1}
  100bac:	f57ff04f 	dsb	sy
  100bb0:	e12fff1e 	bx	lr

00100bb4 <Xil_L1ICacheEnable>:
  100bb4:	ee113f10 	mrc	15, 0, r3, cr1, cr0, {0}
  100bb8:	e2132a01 	ands	r2, r3, #4096	; 0x1000
  100bbc:	112fff1e 	bxne	lr
  100bc0:	ee072f15 	mcr	15, 0, r2, cr7, cr5, {0}
  100bc4:	e3833a01 	orr	r3, r3, #4096	; 0x1000
  100bc8:	ee013f10 	mcr	15, 0, r3, cr1, cr0, {0}
  100bcc:	e12fff1e 	bx	lr

00100bd0 <Xil_L1ICacheDisable>:
  100bd0:	f57ff04f 	dsb	sy
  100bd4:	e3a03000 	mov	r3, #0
  100bd8:	ee073f15 	mcr	15, 0, r3, cr7, cr5, {0}
  100bdc:	ee113f10 	mrc	15, 0, r3, cr1, cr0, {0}
  100be0:	e3c33a01 	bic	r3, r3, #4096	; 0x1000
  100be4:	ee013f10 	mcr	15, 0, r3, cr1, cr0, {0}
  100be8:	e12fff1e 	bx	lr

00100bec <Xil_L1ICacheInvalidate>:
  100bec:	e3a03001 	mov	r3, #1
  100bf0:	ee403f10 	mcr	15, 2, r3, cr0, cr0, {0}
  100bf4:	e3a03000 	mov	r3, #0
  100bf8:	ee073f15 	mcr	15, 0, r3, cr7, cr5, {0}
  100bfc:	f57ff04f 	dsb	sy
  100c00:	e12fff1e 	bx	lr

00100c04 <Xil_L1ICacheInvalidateLine>:
  100c04:	e3a03001 	mov	r3, #1
  100c08:	ee403f10 	mcr	15, 2, r3, cr0, cr0, {0}
  100c0c:	e3c0001f 	bic	r0, r0, #31
  100c10:	ee070f35 	mcr	15, 0, r0, cr7, cr5, {1}
  100c14:	f57ff04f 	dsb	sy
  100c18:	e12fff1e 	bx	lr

00100c1c <Xil_L1ICacheInvalidateRange>:
  100c1c:	e10f3000 	mrs	r3, CPSR
  100c20:	e38320c0 	orr	r2, r3, #192	; 0xc0
  100c24:	e129f002 	msr	CPSR_fc, r2
  100c28:	e3510000 	cmp	r1, #0
  100c2c:	0a000009 	beq	100c58 <Xil_L1ICacheInvalidateRange+0x3c>
  100c30:	e0811000 	add	r1, r1, r0
  100c34:	e3a02001 	mov	r2, #1
  100c38:	e3c0001f 	bic	r0, r0, #31
  100c3c:	ee402f10 	mcr	15, 2, r2, cr0, cr0, {0}
  100c40:	e1510000 	cmp	r1, r0
  100c44:	9a000003 	bls	100c58 <Xil_L1ICacheInvalidateRange+0x3c>
  100c48:	ee070f35 	mcr	15, 0, r0, cr7, cr5, {1}
  100c4c:	e2800020 	add	r0, r0, #32
  100c50:	e1510000 	cmp	r1, r0
  100c54:	8afffffb 	bhi	100c48 <Xil_L1ICacheInvalidateRange+0x2c>
  100c58:	f57ff04f 	dsb	sy
  100c5c:	e129f003 	msr	CPSR_fc, r3
  100c60:	e12fff1e 	bx	lr

00100c64 <Xil_L2CacheInvalidate>:
  100c64:	e302077c 	movw	r0, #10108	; 0x277c
  100c68:	e30f1fff 	movw	r1, #65535	; 0xffff
  100c6c:	e92d4008 	push	{r3, lr}
  100c70:	e34f08f0 	movt	r0, #63728	; 0xf8f0
  100c74:	eb00016a 	bl	101224 <Xil_Out32>
  100c78:	e302077c 	movw	r0, #10108	; 0x277c
  100c7c:	e34f08f0 	movt	r0, #63728	; 0xf8f0
  100c80:	eb000161 	bl	10120c <Xil_In32>
  100c84:	e6ff1070 	uxth	r1, r0
  100c88:	e3510000 	cmp	r1, #0
  100c8c:	1afffff9 	bne	100c78 <Xil_L2CacheInvalidate+0x14>
  100c90:	e3a00d9d 	mov	r0, #10048	; 0x2740
  100c94:	e34f08f0 	movt	r0, #63728	; 0xf8f0
  100c98:	eb000161 	bl	101224 <Xil_Out32>
  100c9c:	f57ff04f 	dsb	sy
  100ca0:	e8bd8008 	pop	{r3, pc}

00100ca4 <Xil_DCacheInvalidate>:
  100ca4:	e92d4010 	push	{r4, lr}
  100ca8:	e10f4000 	mrs	r4, CPSR
  100cac:	e38430c0 	orr	r3, r4, #192	; 0xc0
  100cb0:	e129f003 	msr	CPSR_fc, r3
  100cb4:	ebffffea 	bl	100c64 <Xil_L2CacheInvalidate>
  100cb8:	ebffff29 	bl	100964 <Xil_L1DCacheInvalidate>
  100cbc:	e129f004 	msr	CPSR_fc, r4
  100cc0:	e8bd8010 	pop	{r4, pc}

00100cc4 <Xil_ICacheInvalidate>:
  100cc4:	e92d4010 	push	{r4, lr}
  100cc8:	e10f4000 	mrs	r4, CPSR
  100ccc:	e38430c0 	orr	r3, r4, #192	; 0xc0
  100cd0:	e129f003 	msr	CPSR_fc, r3
  100cd4:	ebffffe2 	bl	100c64 <Xil_L2CacheInvalidate>
  100cd8:	e3a03001 	mov	r3, #1
  100cdc:	ee403f10 	mcr	15, 2, r3, cr0, cr0, {0}
  100ce0:	e3a03000 	mov	r3, #0
  100ce4:	ee073f15 	mcr	15, 0, r3, cr7, cr5, {0}
  100ce8:	f57ff04f 	dsb	sy
  100cec:	e129f004 	msr	CPSR_fc, r4
  100cf0:	e8bd8010 	pop	{r4, pc}

00100cf4 <Xil_L2CacheEnable>:
  100cf4:	e92d4010 	push	{r4, lr}
  100cf8:	e3a00c21 	mov	r0, #8448	; 0x2100
  100cfc:	e34f08f0 	movt	r0, #63728	; 0xf8f0
  100d00:	eb000141 	bl	10120c <Xil_In32>
  100d04:	e2104001 	ands	r4, r0, #1
  100d08:	18bd8010 	popne	{r4, pc}
  100d0c:	e3020104 	movw	r0, #8452	; 0x2104
  100d10:	e34f08f0 	movt	r0, #63728	; 0xf8f0
  100d14:	eb00013c 	bl	10120c <Xil_In32>
  100d18:	e3c0180e 	bic	r1, r0, #917504	; 0xe0000
  100d1c:	e3020104 	movw	r0, #8452	; 0x2104
  100d20:	e3811472 	orr	r1, r1, #1912602624	; 0x72000000
  100d24:	e34f08f0 	movt	r0, #63728	; 0xf8f0
  100d28:	e3811836 	orr	r1, r1, #3538944	; 0x360000
  100d2c:	eb00013c 	bl	101224 <Xil_Out32>
  100d30:	e3001111 	movw	r1, #273	; 0x111
  100d34:	e3020108 	movw	r0, #8456	; 0x2108
  100d38:	e34f08f0 	movt	r0, #63728	; 0xf8f0
  100d3c:	eb000138 	bl	101224 <Xil_Out32>
  100d40:	e3001121 	movw	r1, #289	; 0x121
  100d44:	e302010c 	movw	r0, #8460	; 0x210c
  100d48:	e34f08f0 	movt	r0, #63728	; 0xf8f0
  100d4c:	eb000134 	bl	101224 <Xil_Out32>
  100d50:	e302021c 	movw	r0, #8732	; 0x221c
  100d54:	e34f08f0 	movt	r0, #63728	; 0xf8f0
  100d58:	eb00012b 	bl	10120c <Xil_In32>
  100d5c:	e1a01000 	mov	r1, r0
  100d60:	e3020220 	movw	r0, #8736	; 0x2220
  100d64:	e34f08f0 	movt	r0, #63728	; 0xf8f0
  100d68:	eb00012d 	bl	101224 <Xil_Out32>
  100d6c:	ebffffbc 	bl	100c64 <Xil_L2CacheInvalidate>
  100d70:	e3a00c21 	mov	r0, #8448	; 0x2100
  100d74:	e34f08f0 	movt	r0, #63728	; 0xf8f0
  100d78:	eb000123 	bl	10120c <Xil_In32>
  100d7c:	e3801001 	orr	r1, r0, #1
  100d80:	e3a00c21 	mov	r0, #8448	; 0x2100
  100d84:	e34f08f0 	movt	r0, #63728	; 0xf8f0
  100d88:	eb000125 	bl	101224 <Xil_Out32>
  100d8c:	e1a01004 	mov	r1, r4
  100d90:	e3a00d9d 	mov	r0, #10048	; 0x2740
  100d94:	e34f08f0 	movt	r0, #63728	; 0xf8f0
  100d98:	eb000121 	bl	101224 <Xil_Out32>
  100d9c:	f57ff04f 	dsb	sy
  100da0:	e8bd8010 	pop	{r4, pc}

00100da4 <Xil_DCacheEnable>:
  100da4:	e92d4008 	push	{r3, lr}
  100da8:	ebffff18 	bl	100a10 <Xil_L1DCacheEnable>
  100dac:	e8bd4008 	pop	{r3, lr}
  100db0:	eaffffcf 	b	100cf4 <Xil_L2CacheEnable>

00100db4 <Xil_ICacheEnable>:
  100db4:	ee113f10 	mrc	15, 0, r3, cr1, cr0, {0}
  100db8:	e2132a01 	ands	r2, r3, #4096	; 0x1000
  100dbc:	1a000002 	bne	100dcc <Xil_ICacheEnable+0x18>
  100dc0:	ee072f15 	mcr	15, 0, r2, cr7, cr5, {0}
  100dc4:	e3833a01 	orr	r3, r3, #4096	; 0x1000
  100dc8:	ee013f10 	mcr	15, 0, r3, cr1, cr0, {0}
  100dcc:	eaffffc8 	b	100cf4 <Xil_L2CacheEnable>

00100dd0 <Xil_L2CacheInvalidateLine>:
  100dd0:	e1a01000 	mov	r1, r0
  100dd4:	e3020770 	movw	r0, #10096	; 0x2770
  100dd8:	e92d4008 	push	{r3, lr}
  100ddc:	e34f08f0 	movt	r0, #63728	; 0xf8f0
  100de0:	eb00010f 	bl	101224 <Xil_Out32>
  100de4:	f57ff04f 	dsb	sy
  100de8:	e8bd8008 	pop	{r3, pc}

00100dec <Xil_L2CacheInvalidateRange>:
  100dec:	e92d4070 	push	{r4, r5, r6, lr}
  100df0:	e10f6000 	mrs	r6, CPSR
  100df4:	e38630c0 	orr	r3, r6, #192	; 0xc0
  100df8:	e129f003 	msr	CPSR_fc, r3
  100dfc:	e3510000 	cmp	r1, #0
  100e00:	1a000002 	bne	100e10 <Xil_L2CacheInvalidateRange+0x24>
  100e04:	f57ff04f 	dsb	sy
  100e08:	e129f006 	msr	CPSR_fc, r6
  100e0c:	e8bd8070 	pop	{r4, r5, r6, pc}
  100e10:	e0815000 	add	r5, r1, r0
  100e14:	e3c0401f 	bic	r4, r0, #31
  100e18:	e3a01003 	mov	r1, #3
  100e1c:	e3a00dbd 	mov	r0, #12096	; 0x2f40
  100e20:	e34f08f0 	movt	r0, #63728	; 0xf8f0
  100e24:	eb0000fe 	bl	101224 <Xil_Out32>
  100e28:	e1550004 	cmp	r5, r4
  100e2c:	83a03a02 	movhi	r3, #8192	; 0x2000
  100e30:	834f38f0 	movthi	r3, #63728	; 0xf8f0
  100e34:	9a000003 	bls	100e48 <Xil_L2CacheInvalidateRange+0x5c>
  100e38:	e5834770 	str	r4, [r3, #1904]	; 0x770
  100e3c:	e2844020 	add	r4, r4, #32
  100e40:	e1550004 	cmp	r5, r4
  100e44:	8afffffb 	bhi	100e38 <Xil_L2CacheInvalidateRange+0x4c>
  100e48:	e3a00dbd 	mov	r0, #12096	; 0x2f40
  100e4c:	e3a01000 	mov	r1, #0
  100e50:	e34f08f0 	movt	r0, #63728	; 0xf8f0
  100e54:	eb0000f2 	bl	101224 <Xil_Out32>
  100e58:	eaffffe9 	b	100e04 <Xil_L2CacheInvalidateRange+0x18>

00100e5c <Xil_L2CacheFlush>:
  100e5c:	e3a01003 	mov	r1, #3
  100e60:	e3a00dbd 	mov	r0, #12096	; 0x2f40
  100e64:	e92d4010 	push	{r4, lr}
  100e68:	e34f08f0 	movt	r0, #63728	; 0xf8f0
  100e6c:	eb0000ec 	bl	101224 <Xil_Out32>
  100e70:	e30207fc 	movw	r0, #10236	; 0x27fc
  100e74:	e30f1fff 	movw	r1, #65535	; 0xffff
  100e78:	e34f08f0 	movt	r0, #63728	; 0xf8f0
  100e7c:	eb0000e8 	bl	101224 <Xil_Out32>
  100e80:	e30207fc 	movw	r0, #10236	; 0x27fc
  100e84:	e34f08f0 	movt	r0, #63728	; 0xf8f0
  100e88:	eb0000df 	bl	10120c <Xil_In32>
  100e8c:	e6ff4070 	uxth	r4, r0
  100e90:	e3540000 	cmp	r4, #0
  100e94:	1afffff9 	bne	100e80 <Xil_L2CacheFlush+0x24>
  100e98:	e1a01004 	mov	r1, r4
  100e9c:	e3a00d9d 	mov	r0, #10048	; 0x2740
  100ea0:	e34f08f0 	movt	r0, #63728	; 0xf8f0
  100ea4:	eb0000de 	bl	101224 <Xil_Out32>
  100ea8:	e1a01004 	mov	r1, r4
  100eac:	e3a00dbd 	mov	r0, #12096	; 0x2f40
  100eb0:	e34f08f0 	movt	r0, #63728	; 0xf8f0
  100eb4:	eb0000da 	bl	101224 <Xil_Out32>
  100eb8:	f57ff04f 	dsb	sy
  100ebc:	e8bd8010 	pop	{r4, pc}

00100ec0 <Xil_DCacheFlush>:
  100ec0:	e92d4010 	push	{r4, lr}
  100ec4:	e10f4000 	mrs	r4, CPSR
  100ec8:	e38430c0 	orr	r3, r4, #192	; 0xc0
  100ecc:	e129f003 	msr	CPSR_fc, r3
  100ed0:	ebfffeee 	bl	100a90 <Xil_L1DCacheFlush>
  100ed4:	ebffffe0 	bl	100e5c <Xil_L2CacheFlush>
  100ed8:	e129f004 	msr	CPSR_fc, r4
  100edc:	e8bd8010 	pop	{r4, pc}

00100ee0 <Xil_L2CacheDisable>:
  100ee0:	e92d4008 	push	{r3, lr}
  100ee4:	e3a00c21 	mov	r0, #8448	; 0x2100
  100ee8:	e34f08f0 	movt	r0, #63728	; 0xf8f0
  100eec:	eb0000c6 	bl	10120c <Xil_In32>
  100ef0:	e3100001 	tst	r0, #1
  100ef4:	08bd8008 	popeq	{r3, pc}
  100ef8:	ebffffd7 	bl	100e5c <Xil_L2CacheFlush>
  100efc:	e3a00c21 	mov	r0, #8448	; 0x2100
  100f00:	e34f08f0 	movt	r0, #63728	; 0xf8f0
  100f04:	eb0000c0 	bl	10120c <Xil_In32>
  100f08:	e3c01001 	bic	r1, r0, #1
  100f0c:	e3a00c21 	mov	r0, #8448	; 0x2100
  100f10:	e34f08f0 	movt	r0, #63728	; 0xf8f0
  100f14:	eb0000c2 	bl	101224 <Xil_Out32>
  100f18:	f57ff04f 	dsb	sy
  100f1c:	e8bd8008 	pop	{r3, pc}

00100f20 <Xil_DCacheDisable>:
  100f20:	e92d4008 	push	{r3, lr}
  100f24:	ebffffed 	bl	100ee0 <Xil_L2CacheDisable>
  100f28:	ebfffed8 	bl	100a90 <Xil_L1DCacheFlush>
  100f2c:	ee113f10 	mrc	15, 0, r3, cr1, cr0, {0}
  100f30:	e3c33004 	bic	r3, r3, #4
  100f34:	ee013f10 	mcr	15, 0, r3, cr1, cr0, {0}
  100f38:	e8bd8008 	pop	{r3, pc}

00100f3c <Xil_ICacheDisable>:
  100f3c:	e92d4008 	push	{r3, lr}
  100f40:	ebffffe6 	bl	100ee0 <Xil_L2CacheDisable>
  100f44:	f57ff04f 	dsb	sy
  100f48:	e3a03000 	mov	r3, #0
  100f4c:	ee073f15 	mcr	15, 0, r3, cr7, cr5, {0}
  100f50:	ee113f10 	mrc	15, 0, r3, cr1, cr0, {0}
  100f54:	e3c33a01 	bic	r3, r3, #4096	; 0x1000
  100f58:	ee013f10 	mcr	15, 0, r3, cr1, cr0, {0}
  100f5c:	e8bd8008 	pop	{r3, pc}

00100f60 <Xil_L2CacheFlushLine>:
  100f60:	e92d4010 	push	{r4, lr}
  100f64:	e1a04000 	mov	r4, r0
  100f68:	e1a01004 	mov	r1, r4
  100f6c:	e30207b0 	movw	r0, #10160	; 0x27b0
  100f70:	e34f08f0 	movt	r0, #63728	; 0xf8f0
  100f74:	eb0000aa 	bl	101224 <Xil_Out32>
  100f78:	e1a01004 	mov	r1, r4
  100f7c:	e3020770 	movw	r0, #10096	; 0x2770
  100f80:	e34f08f0 	movt	r0, #63728	; 0xf8f0
  100f84:	eb0000a6 	bl	101224 <Xil_Out32>
  100f88:	f57ff04f 	dsb	sy
  100f8c:	e8bd8010 	pop	{r4, pc}

00100f90 <Xil_DCacheInvalidateRange>:
  100f90:	e92d40f8 	push	{r3, r4, r5, r6, r7, lr}
  100f94:	e1a04000 	mov	r4, r0
  100f98:	e10f6000 	mrs	r6, CPSR
  100f9c:	e38630c0 	orr	r3, r6, #192	; 0xc0
  100fa0:	e129f003 	msr	CPSR_fc, r3
  100fa4:	e3510000 	cmp	r1, #0
  100fa8:	0a000010 	beq	100ff0 <Xil_DCacheInvalidateRange+0x60>
  100fac:	e0805001 	add	r5, r0, r1
  100fb0:	e3a03000 	mov	r3, #0
  100fb4:	ee403f10 	mcr	15, 2, r3, cr0, cr0, {0}
  100fb8:	e310001f 	tst	r0, #31
  100fbc:	1a000022 	bne	10104c <Xil_DCacheInvalidateRange+0xbc>
  100fc0:	e315001f 	tst	r5, #31
  100fc4:	1a00000c 	bne	100ffc <Xil_DCacheInvalidateRange+0x6c>
  100fc8:	e1540005 	cmp	r4, r5
  100fcc:	2a000007 	bcs	100ff0 <Xil_DCacheInvalidateRange+0x60>
  100fd0:	e3a03a02 	mov	r3, #8192	; 0x2000
  100fd4:	e34f38f0 	movt	r3, #63728	; 0xf8f0
  100fd8:	e5834770 	str	r4, [r3, #1904]	; 0x770
  100fdc:	f57ff04f 	dsb	sy
  100fe0:	ee074f36 	mcr	15, 0, r4, cr7, cr6, {1}
  100fe4:	e2844020 	add	r4, r4, #32
  100fe8:	e1540005 	cmp	r4, r5
  100fec:	3afffff9 	bcc	100fd8 <Xil_DCacheInvalidateRange+0x48>
  100ff0:	f57ff04f 	dsb	sy
  100ff4:	e129f006 	msr	CPSR_fc, r6
  100ff8:	e8bd80f8 	pop	{r3, r4, r5, r6, r7, pc}
  100ffc:	e3c5501f 	bic	r5, r5, #31
  101000:	e3a03000 	mov	r3, #0
  101004:	ee403f10 	mcr	15, 2, r3, cr0, cr0, {0}
  101008:	ee075f3e 	mcr	15, 0, r5, cr7, cr14, {1}
  10100c:	f57ff04f 	dsb	sy
  101010:	e3a01003 	mov	r1, #3
  101014:	e3a00dbd 	mov	r0, #12096	; 0x2f40
  101018:	e34f08f0 	movt	r0, #63728	; 0xf8f0
  10101c:	eb000080 	bl	101224 <Xil_Out32>
  101020:	e1a00005 	mov	r0, r5
  101024:	ebffffcd 	bl	100f60 <Xil_L2CacheFlushLine>
  101028:	e3a01000 	mov	r1, #0
  10102c:	e3a00dbd 	mov	r0, #12096	; 0x2f40
  101030:	e34f08f0 	movt	r0, #63728	; 0xf8f0
  101034:	eb00007a 	bl	101224 <Xil_Out32>
  101038:	e3a00d9d 	mov	r0, #10048	; 0x2740
  10103c:	e3a01000 	mov	r1, #0
  101040:	e34f08f0 	movt	r0, #63728	; 0xf8f0
  101044:	eb000076 	bl	101224 <Xil_Out32>
  101048:	eaffffde 	b	100fc8 <Xil_DCacheInvalidateRange+0x38>
  10104c:	e3c0701f 	bic	r7, r0, #31
  101050:	ee403f10 	mcr	15, 2, r3, cr0, cr0, {0}
  101054:	ee077f3e 	mcr	15, 0, r7, cr7, cr14, {1}
  101058:	f57ff04f 	dsb	sy
  10105c:	e3a01003 	mov	r1, #3
  101060:	e3a00dbd 	mov	r0, #12096	; 0x2f40
  101064:	e34f08f0 	movt	r0, #63728	; 0xf8f0
  101068:	e2874020 	add	r4, r7, #32
  10106c:	eb00006c 	bl	101224 <Xil_Out32>
  101070:	e1a00007 	mov	r0, r7
  101074:	ebffffb9 	bl	100f60 <Xil_L2CacheFlushLine>
  101078:	e3a01000 	mov	r1, #0
  10107c:	e3a00dbd 	mov	r0, #12096	; 0x2f40
  101080:	e34f08f0 	movt	r0, #63728	; 0xf8f0
  101084:	eb000066 	bl	101224 <Xil_Out32>
  101088:	e3a00d9d 	mov	r0, #10048	; 0x2740
  10108c:	e3a01000 	mov	r1, #0
  101090:	e34f08f0 	movt	r0, #63728	; 0xf8f0
  101094:	eb000062 	bl	101224 <Xil_Out32>
  101098:	e315001f 	tst	r5, #31
  10109c:	0affffc9 	beq	100fc8 <Xil_DCacheInvalidateRange+0x38>
  1010a0:	eaffffd5 	b	100ffc <Xil_DCacheInvalidateRange+0x6c>

001010a4 <Xil_DCacheFlushLine>:
  1010a4:	e92d4070 	push	{r4, r5, r6, lr}
  1010a8:	e1a06000 	mov	r6, r0
  1010ac:	e10f5000 	mrs	r5, CPSR
  1010b0:	e38530c0 	orr	r3, r5, #192	; 0xc0
  1010b4:	e129f003 	msr	CPSR_fc, r3
  1010b8:	e3a03000 	mov	r3, #0
  1010bc:	ee403f10 	mcr	15, 2, r3, cr0, cr0, {0}
  1010c0:	e3c0301f 	bic	r3, r0, #31
  1010c4:	ee073f3e 	mcr	15, 0, r3, cr7, cr14, {1}
  1010c8:	f57ff04f 	dsb	sy
  1010cc:	e3a04dbd 	mov	r4, #12096	; 0x2f40
  1010d0:	e34f48f0 	movt	r4, #63728	; 0xf8f0
  1010d4:	e3a01003 	mov	r1, #3
  1010d8:	e1a00004 	mov	r0, r4
  1010dc:	eb000050 	bl	101224 <Xil_Out32>
  1010e0:	e1a00006 	mov	r0, r6
  1010e4:	ebffff9d 	bl	100f60 <Xil_L2CacheFlushLine>
  1010e8:	e1a00004 	mov	r0, r4
  1010ec:	e3a01000 	mov	r1, #0
  1010f0:	eb00004b 	bl	101224 <Xil_Out32>
  1010f4:	e3a01000 	mov	r1, #0
  1010f8:	e3a00d9d 	mov	r0, #10048	; 0x2740
  1010fc:	e34f08f0 	movt	r0, #63728	; 0xf8f0
  101100:	eb000047 	bl	101224 <Xil_Out32>
  101104:	e129f005 	msr	CPSR_fc, r5
  101108:	e8bd8070 	pop	{r4, r5, r6, pc}

0010110c <Xil_L2CacheFlushRange>:
  10110c:	e92d40f8 	push	{r3, r4, r5, r6, r7, lr}
  101110:	e10f7000 	mrs	r7, CPSR
  101114:	e38730c0 	orr	r3, r7, #192	; 0xc0
  101118:	e129f003 	msr	CPSR_fc, r3
  10111c:	e3510000 	cmp	r1, #0
  101120:	1a000002 	bne	101130 <Xil_L2CacheFlushRange+0x24>
  101124:	f57ff04f 	dsb	sy
  101128:	e129f007 	msr	CPSR_fc, r7
  10112c:	e8bd80f8 	pop	{r3, r4, r5, r6, r7, pc}
  101130:	e0815000 	add	r5, r1, r0
  101134:	e3c0401f 	bic	r4, r0, #31
  101138:	e3a01003 	mov	r1, #3
  10113c:	e3a00dbd 	mov	r0, #12096	; 0x2f40
  101140:	e34f08f0 	movt	r0, #63728	; 0xf8f0
  101144:	eb000036 	bl	101224 <Xil_Out32>
  101148:	e1550004 	cmp	r5, r4
  10114c:	83a06a02 	movhi	r6, #8192	; 0x2000
  101150:	834f68f0 	movthi	r6, #63728	; 0xf8f0
  101154:	9a000007 	bls	101178 <Xil_L2CacheFlushRange+0x6c>
  101158:	e58647f0 	str	r4, [r6, #2032]	; 0x7f0
  10115c:	e3a00d9d 	mov	r0, #10048	; 0x2740
  101160:	e2844020 	add	r4, r4, #32
  101164:	e34f08f0 	movt	r0, #63728	; 0xf8f0
  101168:	e3a01000 	mov	r1, #0
  10116c:	eb00002c 	bl	101224 <Xil_Out32>
  101170:	e1550004 	cmp	r5, r4
  101174:	8afffff7 	bhi	101158 <Xil_L2CacheFlushRange+0x4c>
  101178:	e3a00dbd 	mov	r0, #12096	; 0x2f40
  10117c:	e3a01000 	mov	r1, #0
  101180:	e34f08f0 	movt	r0, #63728	; 0xf8f0
  101184:	eb000026 	bl	101224 <Xil_Out32>
  101188:	eaffffe5 	b	101124 <Xil_L2CacheFlushRange+0x18>

0010118c <Xil_L2CacheStoreLine>:
  10118c:	e1a01000 	mov	r1, r0
  101190:	e30207b0 	movw	r0, #10160	; 0x27b0
  101194:	e92d4008 	push	{r3, lr}
  101198:	e34f08f0 	movt	r0, #63728	; 0xf8f0
  10119c:	eb000020 	bl	101224 <Xil_Out32>
  1011a0:	f57ff04f 	dsb	sy
  1011a4:	e8bd8008 	pop	{r3, pc}

001011a8 <Xil_ExceptionNullHandler>:
  1011a8:	eafffffe 	b	1011a8 <Xil_ExceptionNullHandler>

001011ac <Xil_DataAbortHandler>:
  1011ac:	ee153f10 	mrc	15, 0, r3, cr5, cr0, {0}
  1011b0:	eafffffe 	b	1011b0 <Xil_DataAbortHandler+0x4>

001011b4 <Xil_PrefetchAbortHandler>:
  1011b4:	ee153f30 	mrc	15, 0, r3, cr5, cr0, {1}
  1011b8:	eafffffe 	b	1011b8 <Xil_PrefetchAbortHandler+0x4>

001011bc <Xil_ExceptionInit>:
  1011bc:	e12fff1e 	bx	lr

001011c0 <Xil_ExceptionRegisterHandler>:
  1011c0:	e30b3220 	movw	r3, #45600	; 0xb220
  1011c4:	e3403010 	movt	r3, #16
  1011c8:	e083c180 	add	ip, r3, r0, lsl #3
  1011cc:	e7831180 	str	r1, [r3, r0, lsl #3]
  1011d0:	e58c2004 	str	r2, [ip, #4]
  1011d4:	e12fff1e 	bx	lr

001011d8 <Xil_ExceptionRemoveHandler>:
  1011d8:	e30b3220 	movw	r3, #45600	; 0xb220
  1011dc:	e3403010 	movt	r3, #16
  1011e0:	e0831180 	add	r1, r3, r0, lsl #3
  1011e4:	e30121a8 	movw	r2, #4520	; 0x11a8
  1011e8:	e3a0c000 	mov	ip, #0
  1011ec:	e3402010 	movt	r2, #16
  1011f0:	e7832180 	str	r2, [r3, r0, lsl #3]
  1011f4:	e581c004 	str	ip, [r1, #4]
  1011f8:	e12fff1e 	bx	lr

001011fc <Xil_In8>:
  1011fc:	e5d00000 	ldrb	r0, [r0]
  101200:	e12fff1e 	bx	lr

00101204 <Xil_In16>:
  101204:	e1d000b0 	ldrh	r0, [r0]
  101208:	e12fff1e 	bx	lr

0010120c <Xil_In32>:
  10120c:	e5900000 	ldr	r0, [r0]
  101210:	e12fff1e 	bx	lr

00101214 <Xil_Out8>:
  101214:	e5c01000 	strb	r1, [r0]
  101218:	e12fff1e 	bx	lr

0010121c <Xil_Out16>:
  10121c:	e1c010b0 	strh	r1, [r0]
  101220:	e12fff1e 	bx	lr

00101224 <Xil_Out32>:
  101224:	e5801000 	str	r1, [r0]
  101228:	e12fff1e 	bx	lr

0010122c <Xil_In16BE>:
  10122c:	e1d000b0 	ldrh	r0, [r0]
  101230:	e6bf0fb0 	rev16	r0, r0
  101234:	e6ff0070 	uxth	r0, r0
  101238:	e12fff1e 	bx	lr

0010123c <Xil_In32BE>:
  10123c:	e5902000 	ldr	r2, [r0]
  101240:	e6ff3072 	uxth	r3, r2
  101244:	e1a02822 	lsr	r2, r2, #16
  101248:	e6bf2fb2 	rev16	r2, r2
  10124c:	e1a01423 	lsr	r1, r3, #8
  101250:	e1813403 	orr	r3, r1, r3, lsl #8
  101254:	e6ff0072 	uxth	r0, r2
  101258:	e1800803 	orr	r0, r0, r3, lsl #16
  10125c:	e12fff1e 	bx	lr

00101260 <Xil_Out16BE>:
  101260:	e6bf1fb1 	rev16	r1, r1
  101264:	e1c010b0 	strh	r1, [r0]
  101268:	e12fff1e 	bx	lr

0010126c <Xil_Out32BE>:
  10126c:	e6ff3071 	uxth	r3, r1
  101270:	e1a01821 	lsr	r1, r1, #16
  101274:	e6bf1fb1 	rev16	r1, r1
  101278:	e1a02423 	lsr	r2, r3, #8
  10127c:	e1823403 	orr	r3, r2, r3, lsl #8
  101280:	e6ff1071 	uxth	r1, r1
  101284:	e1813803 	orr	r3, r1, r3, lsl #16
  101288:	e5803000 	str	r3, [r0]
  10128c:	e12fff1e 	bx	lr

00101290 <Xil_EndianSwap16>:
  101290:	e6bf0fb0 	rev16	r0, r0
  101294:	e6ff0070 	uxth	r0, r0
  101298:	e12fff1e 	bx	lr

0010129c <Xil_EndianSwap32>:
  10129c:	e6ff3070 	uxth	r3, r0
  1012a0:	e1a00820 	lsr	r0, r0, #16
  1012a4:	e6bf0fb0 	rev16	r0, r0
  1012a8:	e1a02423 	lsr	r2, r3, #8
  1012ac:	e1823403 	orr	r3, r2, r3, lsl #8
  1012b0:	e6ff0070 	uxth	r0, r0
  1012b4:	e1800803 	orr	r0, r0, r3, lsl #16
  1012b8:	e12fff1e 	bx	lr

001012bc <XTime_SetTime>:
  1012bc:	e92d4070 	push	{r4, r5, r6, lr}
  1012c0:	e3a04f82 	mov	r4, #520	; 0x208
  1012c4:	e34f48f0 	movt	r4, #63728	; 0xf8f0
  1012c8:	e1a06000 	mov	r6, r0
  1012cc:	e1a05001 	mov	r5, r1
  1012d0:	e3a01000 	mov	r1, #0
  1012d4:	e1a00004 	mov	r0, r4
  1012d8:	ebffffd1 	bl	101224 <Xil_Out32>
  1012dc:	e1a01006 	mov	r1, r6
  1012e0:	e3a00c02 	mov	r0, #512	; 0x200
  1012e4:	e34f08f0 	movt	r0, #63728	; 0xf8f0
  1012e8:	ebffffcd 	bl	101224 <Xil_Out32>
  1012ec:	e1a01005 	mov	r1, r5
  1012f0:	e3a00f81 	mov	r0, #516	; 0x204
  1012f4:	e34f08f0 	movt	r0, #63728	; 0xf8f0
  1012f8:	ebffffc9 	bl	101224 <Xil_Out32>
  1012fc:	e1a00004 	mov	r0, r4
  101300:	e3a01001 	mov	r1, #1
  101304:	e8bd4070 	pop	{r4, r5, r6, lr}
  101308:	eaffffc5 	b	101224 <Xil_Out32>

0010130c <XTime_GetTime>:
  10130c:	e92d4070 	push	{r4, r5, r6, lr}
  101310:	e1a06000 	mov	r6, r0
  101314:	e3a00f81 	mov	r0, #516	; 0x204
  101318:	e34f08f0 	movt	r0, #63728	; 0xf8f0
  10131c:	ebffffba 	bl	10120c <Xil_In32>
  101320:	e1a04000 	mov	r4, r0
  101324:	e3a00c02 	mov	r0, #512	; 0x200
  101328:	e34f08f0 	movt	r0, #63728	; 0xf8f0
  10132c:	ebffffb6 	bl	10120c <Xil_In32>
  101330:	e1a05000 	mov	r5, r0
  101334:	e3a00f81 	mov	r0, #516	; 0x204
  101338:	e34f08f0 	movt	r0, #63728	; 0xf8f0
  10133c:	ebffffb2 	bl	10120c <Xil_In32>
  101340:	e1500004 	cmp	r0, r4
  101344:	1afffff2 	bne	101314 <XTime_GetTime+0x8>
  101348:	e3a02000 	mov	r2, #0
  10134c:	e1a03000 	mov	r3, r0
  101350:	e1822005 	orr	r2, r2, r5
  101354:	e1c620f0 	strd	r2, [r6]
  101358:	e8bd8070 	pop	{r4, r5, r6, pc}

0010135c <__cpu_init>:
  10135c:	e3a00000 	mov	r0, #0
  101360:	ee050f10 	mcr	15, 0, r0, cr5, cr0, {0}
  101364:	ee050f30 	mcr	15, 0, r0, cr5, cr0, {1}
  101368:	ee060f10 	mcr	15, 0, r0, cr6, cr0, {0}
  10136c:	ee060f50 	mcr	15, 0, r0, cr6, cr0, {2}
  101370:	ee090f5d 	mcr	15, 0, r0, cr9, cr13, {2}
  101374:	ee0d0f50 	mcr	15, 0, r0, cr13, cr0, {2}
  101378:	ee0d0f70 	mcr	15, 0, r0, cr13, cr0, {3}
  10137c:	eeaf0f55 	mcr	15, 5, r0, cr15, cr5, {2}
  101380:	e3a02102 	mov	r2, #-2147483648	; 0x80000000
  101384:	ee092f7c 	mcr	15, 0, r2, cr9, cr12, {3}
  101388:	e3a0200d 	mov	r2, #13
  10138c:	ee092f1c 	mcr	15, 0, r2, cr9, cr12, {0}
  101390:	e3a02102 	mov	r2, #-2147483648	; 0x80000000
  101394:	ee092f3c 	mcr	15, 0, r2, cr9, cr12, {1}
  101398:	e12fff1e 	bx	lr

0010139c <__aeabi_uidiv>:
  10139c:	e2512001 	subs	r2, r1, #1
  1013a0:	012fff1e 	bxeq	lr
  1013a4:	3a000074 	bcc	10157c <__aeabi_uidiv+0x1e0>
  1013a8:	e1500001 	cmp	r0, r1
  1013ac:	9a00006b 	bls	101560 <__aeabi_uidiv+0x1c4>
  1013b0:	e1110002 	tst	r1, r2
  1013b4:	0a00006c 	beq	10156c <__aeabi_uidiv+0x1d0>
  1013b8:	e16f3f10 	clz	r3, r0
  1013bc:	e16f2f11 	clz	r2, r1
  1013c0:	e0423003 	sub	r3, r2, r3
  1013c4:	e273301f 	rsbs	r3, r3, #31
  1013c8:	10833083 	addne	r3, r3, r3, lsl #1
  1013cc:	e3a02000 	mov	r2, #0
  1013d0:	108ff103 	addne	pc, pc, r3, lsl #2
  1013d4:	e320f000 	nop	{0}
  1013d8:	e1500f81 	cmp	r0, r1, lsl #31
  1013dc:	e0a22002 	adc	r2, r2, r2
  1013e0:	20400f81 	subcs	r0, r0, r1, lsl #31
  1013e4:	e1500f01 	cmp	r0, r1, lsl #30
  1013e8:	e0a22002 	adc	r2, r2, r2
  1013ec:	20400f01 	subcs	r0, r0, r1, lsl #30
  1013f0:	e1500e81 	cmp	r0, r1, lsl #29
  1013f4:	e0a22002 	adc	r2, r2, r2
  1013f8:	20400e81 	subcs	r0, r0, r1, lsl #29
  1013fc:	e1500e01 	cmp	r0, r1, lsl #28
  101400:	e0a22002 	adc	r2, r2, r2
  101404:	20400e01 	subcs	r0, r0, r1, lsl #28
  101408:	e1500d81 	cmp	r0, r1, lsl #27
  10140c:	e0a22002 	adc	r2, r2, r2
  101410:	20400d81 	subcs	r0, r0, r1, lsl #27
  101414:	e1500d01 	cmp	r0, r1, lsl #26
  101418:	e0a22002 	adc	r2, r2, r2
  10141c:	20400d01 	subcs	r0, r0, r1, lsl #26
  101420:	e1500c81 	cmp	r0, r1, lsl #25
  101424:	e0a22002 	adc	r2, r2, r2
  101428:	20400c81 	subcs	r0, r0, r1, lsl #25
  10142c:	e1500c01 	cmp	r0, r1, lsl #24
  101430:	e0a22002 	adc	r2, r2, r2
  101434:	20400c01 	subcs	r0, r0, r1, lsl #24
  101438:	e1500b81 	cmp	r0, r1, lsl #23
  10143c:	e0a22002 	adc	r2, r2, r2
  101440:	20400b81 	subcs	r0, r0, r1, lsl #23
  101444:	e1500b01 	cmp	r0, r1, lsl #22
  101448:	e0a22002 	adc	r2, r2, r2
  10144c:	20400b01 	subcs	r0, r0, r1, lsl #22
  101450:	e1500a81 	cmp	r0, r1, lsl #21
  101454:	e0a22002 	adc	r2, r2, r2
  101458:	20400a81 	subcs	r0, r0, r1, lsl #21
  10145c:	e1500a01 	cmp	r0, r1, lsl #20
  101460:	e0a22002 	adc	r2, r2, r2
  101464:	20400a01 	subcs	r0, r0, r1, lsl #20
  101468:	e1500981 	cmp	r0, r1, lsl #19
  10146c:	e0a22002 	adc	r2, r2, r2
  101470:	20400981 	subcs	r0, r0, r1, lsl #19
  101474:	e1500901 	cmp	r0, r1, lsl #18
  101478:	e0a22002 	adc	r2, r2, r2
  10147c:	20400901 	subcs	r0, r0, r1, lsl #18
  101480:	e1500881 	cmp	r0, r1, lsl #17
  101484:	e0a22002 	adc	r2, r2, r2
  101488:	20400881 	subcs	r0, r0, r1, lsl #17
  10148c:	e1500801 	cmp	r0, r1, lsl #16
  101490:	e0a22002 	adc	r2, r2, r2
  101494:	20400801 	subcs	r0, r0, r1, lsl #16
  101498:	e1500781 	cmp	r0, r1, lsl #15
  10149c:	e0a22002 	adc	r2, r2, r2
  1014a0:	20400781 	subcs	r0, r0, r1, lsl #15
  1014a4:	e1500701 	cmp	r0, r1, lsl #14
  1014a8:	e0a22002 	adc	r2, r2, r2
  1014ac:	20400701 	subcs	r0, r0, r1, lsl #14
  1014b0:	e1500681 	cmp	r0, r1, lsl #13
  1014b4:	e0a22002 	adc	r2, r2, r2
  1014b8:	20400681 	subcs	r0, r0, r1, lsl #13
  1014bc:	e1500601 	cmp	r0, r1, lsl #12
  1014c0:	e0a22002 	adc	r2, r2, r2
  1014c4:	20400601 	subcs	r0, r0, r1, lsl #12
  1014c8:	e1500581 	cmp	r0, r1, lsl #11
  1014cc:	e0a22002 	adc	r2, r2, r2
  1014d0:	20400581 	subcs	r0, r0, r1, lsl #11
  1014d4:	e1500501 	cmp	r0, r1, lsl #10
  1014d8:	e0a22002 	adc	r2, r2, r2
  1014dc:	20400501 	subcs	r0, r0, r1, lsl #10
  1014e0:	e1500481 	cmp	r0, r1, lsl #9
  1014e4:	e0a22002 	adc	r2, r2, r2
  1014e8:	20400481 	subcs	r0, r0, r1, lsl #9
  1014ec:	e1500401 	cmp	r0, r1, lsl #8
  1014f0:	e0a22002 	adc	r2, r2, r2
  1014f4:	20400401 	subcs	r0, r0, r1, lsl #8
  1014f8:	e1500381 	cmp	r0, r1, lsl #7
  1014fc:	e0a22002 	adc	r2, r2, r2
  101500:	20400381 	subcs	r0, r0, r1, lsl #7
  101504:	e1500301 	cmp	r0, r1, lsl #6
  101508:	e0a22002 	adc	r2, r2, r2
  10150c:	20400301 	subcs	r0, r0, r1, lsl #6
  101510:	e1500281 	cmp	r0, r1, lsl #5
  101514:	e0a22002 	adc	r2, r2, r2
  101518:	20400281 	subcs	r0, r0, r1, lsl #5
  10151c:	e1500201 	cmp	r0, r1, lsl #4
  101520:	e0a22002 	adc	r2, r2, r2
  101524:	20400201 	subcs	r0, r0, r1, lsl #4
  101528:	e1500181 	cmp	r0, r1, lsl #3
  10152c:	e0a22002 	adc	r2, r2, r2
  101530:	20400181 	subcs	r0, r0, r1, lsl #3
  101534:	e1500101 	cmp	r0, r1, lsl #2
  101538:	e0a22002 	adc	r2, r2, r2
  10153c:	20400101 	subcs	r0, r0, r1, lsl #2
  101540:	e1500081 	cmp	r0, r1, lsl #1
  101544:	e0a22002 	adc	r2, r2, r2
  101548:	20400081 	subcs	r0, r0, r1, lsl #1
  10154c:	e1500001 	cmp	r0, r1
  101550:	e0a22002 	adc	r2, r2, r2
  101554:	20400001 	subcs	r0, r0, r1
  101558:	e1a00002 	mov	r0, r2
  10155c:	e12fff1e 	bx	lr
  101560:	03a00001 	moveq	r0, #1
  101564:	13a00000 	movne	r0, #0
  101568:	e12fff1e 	bx	lr
  10156c:	e16f2f11 	clz	r2, r1
  101570:	e262201f 	rsb	r2, r2, #31
  101574:	e1a00230 	lsr	r0, r0, r2
  101578:	e12fff1e 	bx	lr
  10157c:	e3500000 	cmp	r0, #0
  101580:	13e00000 	mvnne	r0, #0
  101584:	ea000007 	b	1015a8 <__aeabi_idiv0>

00101588 <__aeabi_uidivmod>:
  101588:	e3510000 	cmp	r1, #0
  10158c:	0afffffa 	beq	10157c <__aeabi_uidiv+0x1e0>
  101590:	e92d4003 	push	{r0, r1, lr}
  101594:	ebffff80 	bl	10139c <__aeabi_uidiv>
  101598:	e8bd4006 	pop	{r1, r2, lr}
  10159c:	e0030092 	mul	r3, r2, r0
  1015a0:	e0411003 	sub	r1, r1, r3
  1015a4:	e12fff1e 	bx	lr

001015a8 <__aeabi_idiv0>:
  1015a8:	e12fff1e 	bx	lr

001015ac <exit>:
  1015ac:	e92d4008 	push	{r3, lr}
  1015b0:	e3a01000 	mov	r1, #0
  1015b4:	e1a04000 	mov	r4, r0
  1015b8:	eb0008c1 	bl	1038c4 <__call_exitprocs>
  1015bc:	e30b3028 	movw	r3, #45096	; 0xb028
  1015c0:	e3403010 	movt	r3, #16
  1015c4:	e5930000 	ldr	r0, [r3]
  1015c8:	e590303c 	ldr	r3, [r0, #60]	; 0x3c
  1015cc:	e3530000 	cmp	r3, #0
  1015d0:	0a000000 	beq	1015d8 <exit+0x2c>
  1015d4:	e12fff33 	blx	r3
  1015d8:	e1a00004 	mov	r0, r4
  1015dc:	eb00236e 	bl	10a39c <_exit>

001015e0 <__libc_fini_array>:
  1015e0:	e92d4038 	push	{r3, r4, r5, lr}
  1015e4:	e3004014 	movw	r4, #20
  1015e8:	e3005010 	movw	r5, #16
  1015ec:	e3404011 	movt	r4, #17
  1015f0:	e3405011 	movt	r5, #17
  1015f4:	e0654004 	rsb	r4, r5, r4
  1015f8:	e1b04144 	asrs	r4, r4, #2
  1015fc:	10855104 	addne	r5, r5, r4, lsl #2
  101600:	0a000004 	beq	101618 <__libc_fini_array+0x38>
  101604:	e2444001 	sub	r4, r4, #1
  101608:	e5353004 	ldr	r3, [r5, #-4]!
  10160c:	e12fff33 	blx	r3
  101610:	e3540000 	cmp	r4, #0
  101614:	1afffffa 	bne	101604 <__libc_fini_array+0x24>
  101618:	e8bd4038 	pop	{r3, r4, r5, lr}
  10161c:	ea00267b 	b	10b010 <_fini>

00101620 <__libc_init_array>:
  101620:	e92d4070 	push	{r4, r5, r6, lr}
  101624:	e3006008 	movw	r6, #8
  101628:	e3005008 	movw	r5, #8
  10162c:	e3406011 	movt	r6, #17
  101630:	e3405011 	movt	r5, #17
  101634:	e0656006 	rsb	r6, r5, r6
  101638:	e1b06146 	asrs	r6, r6, #2
  10163c:	12455004 	subne	r5, r5, #4
  101640:	13a04000 	movne	r4, #0
  101644:	0a000004 	beq	10165c <__libc_init_array+0x3c>
  101648:	e2844001 	add	r4, r4, #1
  10164c:	e5b53004 	ldr	r3, [r5, #4]!
  101650:	e12fff33 	blx	r3
  101654:	e1560004 	cmp	r6, r4
  101658:	1afffffa 	bne	101648 <__libc_init_array+0x28>
  10165c:	e3006010 	movw	r6, #16
  101660:	e3005008 	movw	r5, #8
  101664:	e3406011 	movt	r6, #17
  101668:	e3405011 	movt	r5, #17
  10166c:	e0656006 	rsb	r6, r5, r6
  101670:	eb002660 	bl	10aff8 <_init>
  101674:	e1b06146 	asrs	r6, r6, #2
  101678:	08bd8070 	popeq	{r4, r5, r6, pc}
  10167c:	e2455004 	sub	r5, r5, #4
  101680:	e3a04000 	mov	r4, #0
  101684:	e2844001 	add	r4, r4, #1
  101688:	e5b53004 	ldr	r3, [r5, #4]!
  10168c:	e12fff33 	blx	r3
  101690:	e1560004 	cmp	r6, r4
  101694:	1afffffa 	bne	101684 <__libc_init_array+0x64>
  101698:	e8bd8070 	pop	{r4, r5, r6, pc}

0010169c <_printf_r>:
  10169c:	e92d000e 	push	{r1, r2, r3}
  1016a0:	e52de004 	push	{lr}		; (str lr, [sp, #-4]!)
  1016a4:	e24dd008 	sub	sp, sp, #8
  1016a8:	e28dc010 	add	ip, sp, #16
  1016ac:	e5901008 	ldr	r1, [r0, #8]
  1016b0:	e59d200c 	ldr	r2, [sp, #12]
  1016b4:	e1a0300c 	mov	r3, ip
  1016b8:	e58dc004 	str	ip, [sp, #4]
  1016bc:	eb000013 	bl	101710 <_vfprintf_r>
  1016c0:	e28dd008 	add	sp, sp, #8
  1016c4:	e49de004 	pop	{lr}		; (ldr lr, [sp], #4)
  1016c8:	e28dd00c 	add	sp, sp, #12
  1016cc:	e12fff1e 	bx	lr

001016d0 <printf>:
  1016d0:	e92d000f 	push	{r0, r1, r2, r3}
  1016d4:	e30b1258 	movw	r1, #45656	; 0xb258
  1016d8:	e3401010 	movt	r1, #16
  1016dc:	e52de004 	push	{lr}		; (str lr, [sp, #-4]!)
  1016e0:	e24dd00c 	sub	sp, sp, #12
  1016e4:	e5910000 	ldr	r0, [r1]
  1016e8:	e28dc014 	add	ip, sp, #20
  1016ec:	e59d2010 	ldr	r2, [sp, #16]
  1016f0:	e1a0300c 	mov	r3, ip
  1016f4:	e58dc004 	str	ip, [sp, #4]
  1016f8:	e5901008 	ldr	r1, [r0, #8]
  1016fc:	eb000003 	bl	101710 <_vfprintf_r>
  101700:	e28dd00c 	add	sp, sp, #12
  101704:	e49de004 	pop	{lr}		; (ldr lr, [sp], #4)
  101708:	e28dd010 	add	sp, sp, #16
  10170c:	e12fff1e 	bx	lr

00101710 <_vfprintf_r>:
  101710:	e92d4ff0 	push	{r4, r5, r6, r7, r8, r9, sl, fp, lr}
  101714:	ed2d8b04 	vpush	{d8-d9}
  101718:	e24ddf47 	sub	sp, sp, #284	; 0x11c
  10171c:	e1a04003 	mov	r4, r3
  101720:	e1a09001 	mov	r9, r1
  101724:	e58d2024 	str	r2, [sp, #36]	; 0x24
  101728:	e58d0030 	str	r0, [sp, #48]	; 0x30
  10172c:	eb001082 	bl	10593c <_localeconv_r>
  101730:	e58d4040 	str	r4, [sp, #64]	; 0x40
  101734:	e5900000 	ldr	r0, [r0]
  101738:	e58d005c 	str	r0, [sp, #92]	; 0x5c
  10173c:	fa00188f 	blx	107980 <strlen>
  101740:	e59dc030 	ldr	ip, [sp, #48]	; 0x30
  101744:	e35c0000 	cmp	ip, #0
  101748:	e58d0064 	str	r0, [sp, #100]	; 0x64
  10174c:	0a000002 	beq	10175c <_vfprintf_r+0x4c>
  101750:	e59c3038 	ldr	r3, [ip, #56]	; 0x38
  101754:	e3530000 	cmp	r3, #0
  101758:	0a0000de 	beq	101ad8 <_vfprintf_r+0x3c8>
  10175c:	e1d930bc 	ldrh	r3, [r9, #12]
  101760:	e6ff2073 	uxth	r2, r3
  101764:	e3120a02 	tst	r2, #8192	; 0x2000
  101768:	1a000005 	bne	101784 <_vfprintf_r+0x74>
  10176c:	e3833a02 	orr	r3, r3, #8192	; 0x2000
  101770:	e5991064 	ldr	r1, [r9, #100]	; 0x64
  101774:	e1c930bc 	strh	r3, [r9, #12]
  101778:	e6ff2073 	uxth	r2, r3
  10177c:	e3c13a02 	bic	r3, r1, #8192	; 0x2000
  101780:	e5893064 	str	r3, [r9, #100]	; 0x64
  101784:	e3120008 	tst	r2, #8
  101788:	0a0000b5 	beq	101a64 <_vfprintf_r+0x354>
  10178c:	e5993010 	ldr	r3, [r9, #16]
  101790:	e3530000 	cmp	r3, #0
  101794:	0a0000b2 	beq	101a64 <_vfprintf_r+0x354>
  101798:	e202201a 	and	r2, r2, #26
  10179c:	e352000a 	cmp	r2, #10
  1017a0:	0a0000c1 	beq	101aac <_vfprintf_r+0x39c>
  1017a4:	e28dc0d8 	add	ip, sp, #216	; 0xd8
  1017a8:	e58dc01c 	str	ip, [sp, #28]
  1017ac:	e30bc02c 	movw	ip, #45100	; 0xb02c
  1017b0:	e340c010 	movt	ip, #16
  1017b4:	e58dc050 	str	ip, [sp, #80]	; 0x50
  1017b8:	e28dc0d7 	add	ip, sp, #215	; 0xd7
  1017bc:	e58dc018 	str	ip, [sp, #24]
  1017c0:	e3a03000 	mov	r3, #0
  1017c4:	e59dc050 	ldr	ip, [sp, #80]	; 0x50
  1017c8:	e28d70d8 	add	r7, sp, #216	; 0xd8
  1017cc:	e59d0018 	ldr	r0, [sp, #24]
  1017d0:	ed9f8bc6 	vldr	d8, [pc, #792]	; 101af0 <_vfprintf_r+0x3e0>
  1017d4:	e28cb010 	add	fp, ip, #16
  1017d8:	e59dc01c 	ldr	ip, [sp, #28]
  1017dc:	e58d3048 	str	r3, [sp, #72]	; 0x48
  1017e0:	e060c00c 	rsb	ip, r0, ip
  1017e4:	e58d3060 	str	r3, [sp, #96]	; 0x60
  1017e8:	e58dc07c 	str	ip, [sp, #124]	; 0x7c
  1017ec:	e30bc1f0 	movw	ip, #45552	; 0xb1f0
  1017f0:	e58d306c 	str	r3, [sp, #108]	; 0x6c
  1017f4:	e340c010 	movt	ip, #16
  1017f8:	e58d3044 	str	r3, [sp, #68]	; 0x44
  1017fc:	e58dc054 	str	ip, [sp, #84]	; 0x54
  101800:	e306c667 	movw	ip, #26215	; 0x6667
  101804:	e58d30ac 	str	r3, [sp, #172]	; 0xac
  101808:	e346c666 	movt	ip, #26214	; 0x6666
  10180c:	e58d30a8 	str	r3, [sp, #168]	; 0xa8
  101810:	e58dc068 	str	ip, [sp, #104]	; 0x68
  101814:	e58d70a4 	str	r7, [sp, #164]	; 0xa4
  101818:	e58d9034 	str	r9, [sp, #52]	; 0x34
  10181c:	e59dc024 	ldr	ip, [sp, #36]	; 0x24
  101820:	e5dc3000 	ldrb	r3, [ip]
  101824:	e3530025 	cmp	r3, #37	; 0x25
  101828:	13530000 	cmpne	r3, #0
  10182c:	0a0000ac 	beq	101ae4 <_vfprintf_r+0x3d4>
  101830:	e28c2001 	add	r2, ip, #1
  101834:	e1a04002 	mov	r4, r2
  101838:	e2822001 	add	r2, r2, #1
  10183c:	e5d43000 	ldrb	r3, [r4]
  101840:	e3530025 	cmp	r3, #37	; 0x25
  101844:	13530000 	cmpne	r3, #0
  101848:	1afffff9 	bne	101834 <_vfprintf_r+0x124>
  10184c:	e59dc024 	ldr	ip, [sp, #36]	; 0x24
  101850:	e054500c 	subs	r5, r4, ip
  101854:	0a00000d 	beq	101890 <_vfprintf_r+0x180>
  101858:	e59d30a8 	ldr	r3, [sp, #168]	; 0xa8
  10185c:	e59d20ac 	ldr	r2, [sp, #172]	; 0xac
  101860:	e2833001 	add	r3, r3, #1
  101864:	e587c000 	str	ip, [r7]
  101868:	e3530007 	cmp	r3, #7
  10186c:	e5875004 	str	r5, [r7, #4]
  101870:	e58d30a8 	str	r3, [sp, #168]	; 0xa8
  101874:	d2877008 	addle	r7, r7, #8
  101878:	e0823005 	add	r3, r2, r5
  10187c:	e58d30ac 	str	r3, [sp, #172]	; 0xac
  101880:	ca000081 	bgt	101a8c <_vfprintf_r+0x37c>
  101884:	e59dc044 	ldr	ip, [sp, #68]	; 0x44
  101888:	e08cc005 	add	ip, ip, r5
  10188c:	e58dc044 	str	ip, [sp, #68]	; 0x44
  101890:	e5d43000 	ldrb	r3, [r4]
  101894:	e3530000 	cmp	r3, #0
  101898:	0a000384 	beq	1026b0 <_vfprintf_r+0xfa0>
  10189c:	e3a03000 	mov	r3, #0
  1018a0:	e284c001 	add	ip, r4, #1
  1018a4:	e58dc024 	str	ip, [sp, #36]	; 0x24
  1018a8:	e1a02003 	mov	r2, r3
  1018ac:	e5cd3087 	strb	r3, [sp, #135]	; 0x87
  1018b0:	e3e0c000 	mvn	ip, #0
  1018b4:	e58d303c 	str	r3, [sp, #60]	; 0x3c
  1018b8:	e58d3020 	str	r3, [sp, #32]
  1018bc:	e5d48001 	ldrb	r8, [r4, #1]
  1018c0:	e59d3024 	ldr	r3, [sp, #36]	; 0x24
  1018c4:	e58dc028 	str	ip, [sp, #40]	; 0x28
  1018c8:	e2833001 	add	r3, r3, #1
  1018cc:	e2481020 	sub	r1, r8, #32
  1018d0:	e3510058 	cmp	r1, #88	; 0x58
  1018d4:	979ff101 	ldrls	pc, [pc, r1, lsl #2]
  1018d8:	ea000262 	b	102268 <_vfprintf_r+0xb58>
  1018dc:	001020fc 	ldrsheq	r2, [r0], -ip
  1018e0:	00102268 	andseq	r2, r0, r8, ror #4
  1018e4:	00102268 	andseq	r2, r0, r8, ror #4
  1018e8:	0010218c 	andseq	r2, r0, ip, lsl #3
  1018ec:	00102268 	andseq	r2, r0, r8, ror #4
  1018f0:	00102268 	andseq	r2, r0, r8, ror #4
  1018f4:	00102268 	andseq	r2, r0, r8, ror #4
  1018f8:	00102268 	andseq	r2, r0, r8, ror #4
  1018fc:	00102268 	andseq	r2, r0, r8, ror #4
  101900:	00102268 	andseq	r2, r0, r8, ror #4
  101904:	00101fd8 			; <UNDEFINED> instruction: 0x00101fd8
  101908:	001020f0 	ldrsheq	r2, [r0], -r0
  10190c:	00102268 	andseq	r2, r0, r8, ror #4
  101910:	00101a50 	andseq	r1, r0, r0, asr sl
  101914:	00101db8 			; <UNDEFINED> instruction: 0x00101db8
  101918:	00102268 	andseq	r2, r0, r8, ror #4
  10191c:	00101e0c 	andseq	r1, r0, ip, lsl #28
  101920:	00101e20 	andseq	r1, r0, r0, lsr #28
  101924:	00101e20 	andseq	r1, r0, r0, lsr #28
  101928:	00101e20 	andseq	r1, r0, r0, lsr #28
  10192c:	00101e20 	andseq	r1, r0, r0, lsr #28
  101930:	00101e20 	andseq	r1, r0, r0, lsr #28
  101934:	00101e20 	andseq	r1, r0, r0, lsr #28
  101938:	00101e20 	andseq	r1, r0, r0, lsr #28
  10193c:	00101e20 	andseq	r1, r0, r0, lsr #28
  101940:	00101e20 	andseq	r1, r0, r0, lsr #28
  101944:	00102268 	andseq	r2, r0, r8, ror #4
  101948:	00102268 	andseq	r2, r0, r8, ror #4
  10194c:	00102268 	andseq	r2, r0, r8, ror #4
  101950:	00102268 	andseq	r2, r0, r8, ror #4
  101954:	00102268 	andseq	r2, r0, r8, ror #4
  101958:	00102268 	andseq	r2, r0, r8, ror #4
  10195c:	00102268 	andseq	r2, r0, r8, ror #4
  101960:	00102268 	andseq	r2, r0, r8, ror #4
  101964:	00102268 	andseq	r2, r0, r8, ror #4
  101968:	00102268 	andseq	r2, r0, r8, ror #4
  10196c:	00101e50 	andseq	r1, r0, r0, asr lr
  101970:	00101f0c 	andseq	r1, r0, ip, lsl #30
  101974:	00102268 	andseq	r2, r0, r8, ror #4
  101978:	00101f0c 	andseq	r1, r0, ip, lsl #30
  10197c:	00102268 	andseq	r2, r0, r8, ror #4
  101980:	00102268 	andseq	r2, r0, r8, ror #4
  101984:	00102268 	andseq	r2, r0, r8, ror #4
  101988:	00102268 	andseq	r2, r0, r8, ror #4
  10198c:	00101ea8 	andseq	r1, r0, r8, lsr #29
  101990:	00102268 	andseq	r2, r0, r8, ror #4
  101994:	00102268 	andseq	r2, r0, r8, ror #4
  101998:	00101ebc 			; <UNDEFINED> instruction: 0x00101ebc
  10199c:	00102268 	andseq	r2, r0, r8, ror #4
  1019a0:	00102268 	andseq	r2, r0, r8, ror #4
  1019a4:	00102268 	andseq	r2, r0, r8, ror #4
  1019a8:	00102268 	andseq	r2, r0, r8, ror #4
  1019ac:	00102268 	andseq	r2, r0, r8, ror #4
  1019b0:	00101f94 	mulseq	r0, r4, pc	; <UNPREDICTABLE>
  1019b4:	00102268 	andseq	r2, r0, r8, ror #4
  1019b8:	00102268 	andseq	r2, r0, r8, ror #4
  1019bc:	00102224 	andseq	r2, r0, r4, lsr #4
  1019c0:	00102268 	andseq	r2, r0, r8, ror #4
  1019c4:	00102268 	andseq	r2, r0, r8, ror #4
  1019c8:	00102268 	andseq	r2, r0, r8, ror #4
  1019cc:	00102268 	andseq	r2, r0, r8, ror #4
  1019d0:	00102268 	andseq	r2, r0, r8, ror #4
  1019d4:	00102268 	andseq	r2, r0, r8, ror #4
  1019d8:	00102268 	andseq	r2, r0, r8, ror #4
  1019dc:	00102268 	andseq	r2, r0, r8, ror #4
  1019e0:	00102268 	andseq	r2, r0, r8, ror #4
  1019e4:	00102268 	andseq	r2, r0, r8, ror #4
  1019e8:	001021a0 	andseq	r2, r0, r0, lsr #3
  1019ec:	001021e4 	andseq	r2, r0, r4, ror #3
  1019f0:	00101f0c 	andseq	r1, r0, ip, lsl #30
  1019f4:	00101f0c 	andseq	r1, r0, ip, lsl #30
  1019f8:	00101f0c 	andseq	r1, r0, ip, lsl #30
  1019fc:	0010210c 	andseq	r2, r0, ip, lsl #2
  101a00:	001021e4 	andseq	r2, r0, r4, ror #3
  101a04:	00102268 	andseq	r2, r0, r8, ror #4
  101a08:	00102268 	andseq	r2, r0, r8, ror #4
  101a0c:	00102120 	andseq	r2, r0, r0, lsr #2
  101a10:	00102268 	andseq	r2, r0, r8, ror #4
  101a14:	00102150 	andseq	r2, r0, r0, asr r1
  101a18:	00101d40 	andseq	r1, r0, r0, asr #26
  101a1c:	00101d70 	andseq	r1, r0, r0, ror sp
  101a20:	00102004 	andseq	r2, r0, r4
  101a24:	00102268 	andseq	r2, r0, r8, ror #4
  101a28:	00102018 	andseq	r2, r0, r8, lsl r0
  101a2c:	00102268 	andseq	r2, r0, r8, ror #4
  101a30:	00101afc 			; <UNDEFINED> instruction: 0x00101afc
  101a34:	00102268 	andseq	r2, r0, r8, ror #4
  101a38:	00102268 	andseq	r2, r0, r8, ror #4
  101a3c:	00102088 	andseq	r2, r0, r8, lsl #1
  101a40:	e59dc03c 	ldr	ip, [sp, #60]	; 0x3c
  101a44:	e58d1040 	str	r1, [sp, #64]	; 0x40
  101a48:	e26cc000 	rsb	ip, ip, #0
  101a4c:	e58dc03c 	str	ip, [sp, #60]	; 0x3c
  101a50:	e59dc020 	ldr	ip, [sp, #32]
  101a54:	e38cc004 	orr	ip, ip, #4
  101a58:	e58dc020 	str	ip, [sp, #32]
  101a5c:	e5d38000 	ldrb	r8, [r3]
  101a60:	eaffff98 	b	1018c8 <_vfprintf_r+0x1b8>
  101a64:	e59d0030 	ldr	r0, [sp, #48]	; 0x30
  101a68:	e1a01009 	mov	r1, r9
  101a6c:	eb00073d 	bl	103768 <__swsetup_r>
  101a70:	e3500000 	cmp	r0, #0
  101a74:	01d920bc 	ldrheq	r2, [r9, #12]
  101a78:	0affff46 	beq	101798 <_vfprintf_r+0x88>
  101a7c:	e3e00000 	mvn	r0, #0
  101a80:	e28ddf47 	add	sp, sp, #284	; 0x11c
  101a84:	ecbd8b04 	vpop	{d8-d9}
  101a88:	e8bd8ff0 	pop	{r4, r5, r6, r7, r8, r9, sl, fp, pc}
  101a8c:	e59d0030 	ldr	r0, [sp, #48]	; 0x30
  101a90:	e28d20a4 	add	r2, sp, #164	; 0xa4
  101a94:	e59d1034 	ldr	r1, [sp, #52]	; 0x34
  101a98:	eb001821 	bl	107b24 <__sprint_r>
  101a9c:	e3500000 	cmp	r0, #0
  101aa0:	1a0003a1 	bne	10292c <_vfprintf_r+0x121c>
  101aa4:	e28d70d8 	add	r7, sp, #216	; 0xd8
  101aa8:	eaffff75 	b	101884 <_vfprintf_r+0x174>
  101aac:	e1d930fe 	ldrsh	r3, [r9, #14]
  101ab0:	e3530000 	cmp	r3, #0
  101ab4:	baffff3a 	blt	1017a4 <_vfprintf_r+0x94>
  101ab8:	e59d0030 	ldr	r0, [sp, #48]	; 0x30
  101abc:	e1a01009 	mov	r1, r9
  101ac0:	e59d2024 	ldr	r2, [sp, #36]	; 0x24
  101ac4:	e1a03004 	mov	r3, r4
  101ac8:	eb0006f1 	bl	103694 <__sbprintf>
  101acc:	e28ddf47 	add	sp, sp, #284	; 0x11c
  101ad0:	ecbd8b04 	vpop	{d8-d9}
  101ad4:	e8bd8ff0 	pop	{r4, r5, r6, r7, r8, r9, sl, fp, pc}
  101ad8:	e1a0000c 	mov	r0, ip
  101adc:	eb000db0 	bl	1051a4 <__sinit>
  101ae0:	eaffff1d 	b	10175c <_vfprintf_r+0x4c>
  101ae4:	e59d4024 	ldr	r4, [sp, #36]	; 0x24
  101ae8:	eaffff68 	b	101890 <_vfprintf_r+0x180>
  101aec:	e320f000 	nop	{0}
	...
  101af8:	0010b03c 	andseq	fp, r0, ip, lsr r0
  101afc:	e59dc020 	ldr	ip, [sp, #32]
  101b00:	e58d3024 	str	r3, [sp, #36]	; 0x24
  101b04:	e31c0020 	tst	ip, #32
  101b08:	0a000128 	beq	101fb0 <_vfprintf_r+0x8a0>
  101b0c:	e59dc040 	ldr	ip, [sp, #64]	; 0x40
  101b10:	e3a03001 	mov	r3, #1
  101b14:	e28c2007 	add	r2, ip, #7
  101b18:	e3c22007 	bic	r2, r2, #7
  101b1c:	e282c008 	add	ip, r2, #8
  101b20:	e58dc040 	str	ip, [sp, #64]	; 0x40
  101b24:	e1c240d0 	ldrd	r4, [r2]
  101b28:	e3a09000 	mov	r9, #0
  101b2c:	e5cd9087 	strb	r9, [sp, #135]	; 0x87
  101b30:	e59dc028 	ldr	ip, [sp, #40]	; 0x28
  101b34:	e35c0000 	cmp	ip, #0
  101b38:	a59dc020 	ldrge	ip, [sp, #32]
  101b3c:	a3ccc080 	bicge	ip, ip, #128	; 0x80
  101b40:	a58dc020 	strge	ip, [sp, #32]
  101b44:	e1940005 	orrs	r0, r4, r5
  101b48:	e59dc028 	ldr	ip, [sp, #40]	; 0x28
  101b4c:	03a02000 	moveq	r2, #0
  101b50:	13a02001 	movne	r2, #1
  101b54:	e35c0000 	cmp	ip, #0
  101b58:	13822001 	orrne	r2, r2, #1
  101b5c:	e3520000 	cmp	r2, #0
  101b60:	0a0002e1 	beq	1026ec <_vfprintf_r+0xfdc>
  101b64:	e3530001 	cmp	r3, #1
  101b68:	0a0003c0 	beq	102a70 <_vfprintf_r+0x1360>
  101b6c:	e3530002 	cmp	r3, #2
  101b70:	e28d30d7 	add	r3, sp, #215	; 0xd7
  101b74:	1a00005b 	bne	101ce8 <_vfprintf_r+0x5d8>
  101b78:	e59d1060 	ldr	r1, [sp, #96]	; 0x60
  101b7c:	e204200f 	and	r2, r4, #15
  101b80:	e1a04224 	lsr	r4, r4, #4
  101b84:	e1844e05 	orr	r4, r4, r5, lsl #28
  101b88:	e1a05225 	lsr	r5, r5, #4
  101b8c:	e7d12002 	ldrb	r2, [r1, r2]
  101b90:	e1940005 	orrs	r0, r4, r5
  101b94:	e1a06003 	mov	r6, r3
  101b98:	e2433001 	sub	r3, r3, #1
  101b9c:	e5c62000 	strb	r2, [r6]
  101ba0:	1afffff5 	bne	101b7c <_vfprintf_r+0x46c>
  101ba4:	e59dc01c 	ldr	ip, [sp, #28]
  101ba8:	e066500c 	rsb	r5, r6, ip
  101bac:	e59dc028 	ldr	ip, [sp, #40]	; 0x28
  101bb0:	e3a03000 	mov	r3, #0
  101bb4:	e58d3058 	str	r3, [sp, #88]	; 0x58
  101bb8:	e15c0005 	cmp	ip, r5
  101bbc:	b1a0c005 	movlt	ip, r5
  101bc0:	e58dc02c 	str	ip, [sp, #44]	; 0x2c
  101bc4:	e3590000 	cmp	r9, #0
  101bc8:	0a000002 	beq	101bd8 <_vfprintf_r+0x4c8>
  101bcc:	e59d302c 	ldr	r3, [sp, #44]	; 0x2c
  101bd0:	e2833001 	add	r3, r3, #1
  101bd4:	e58d302c 	str	r3, [sp, #44]	; 0x2c
  101bd8:	e59dc020 	ldr	ip, [sp, #32]
  101bdc:	e21cc002 	ands	ip, ip, #2
  101be0:	e58dc038 	str	ip, [sp, #56]	; 0x38
  101be4:	e59dc020 	ldr	ip, [sp, #32]
  101be8:	159d302c 	ldrne	r3, [sp, #44]	; 0x2c
  101bec:	12833002 	addne	r3, r3, #2
  101bf0:	158d302c 	strne	r3, [sp, #44]	; 0x2c
  101bf4:	e21cc084 	ands	ip, ip, #132	; 0x84
  101bf8:	e58dc04c 	str	ip, [sp, #76]	; 0x4c
  101bfc:	1a0001b0 	bne	1022c4 <_vfprintf_r+0xbb4>
  101c00:	e59dc03c 	ldr	ip, [sp, #60]	; 0x3c
  101c04:	e59d302c 	ldr	r3, [sp, #44]	; 0x2c
  101c08:	e063400c 	rsb	r4, r3, ip
  101c0c:	e3540000 	cmp	r4, #0
  101c10:	da0001ab 	ble	1022c4 <_vfprintf_r+0xbb4>
  101c14:	e3540010 	cmp	r4, #16
  101c18:	da0005a1 	ble	1032a4 <_vfprintf_r+0x1b94>
  101c1c:	e30b902c 	movw	r9, #45100	; 0xb02c
  101c20:	e58d8070 	str	r8, [sp, #112]	; 0x70
  101c24:	e58d6074 	str	r6, [sp, #116]	; 0x74
  101c28:	e3409010 	movt	r9, #16
  101c2c:	e58d5078 	str	r5, [sp, #120]	; 0x78
  101c30:	e3a0a010 	mov	sl, #16
  101c34:	e1a05004 	mov	r5, r4
  101c38:	e59d20ac 	ldr	r2, [sp, #172]	; 0xac
  101c3c:	e59d10a8 	ldr	r1, [sp, #168]	; 0xa8
  101c40:	e59d4030 	ldr	r4, [sp, #48]	; 0x30
  101c44:	e59d6034 	ldr	r6, [sp, #52]	; 0x34
  101c48:	e59d8050 	ldr	r8, [sp, #80]	; 0x50
  101c4c:	ea000002 	b	101c5c <_vfprintf_r+0x54c>
  101c50:	e2455010 	sub	r5, r5, #16
  101c54:	e3550010 	cmp	r5, #16
  101c58:	da000013 	ble	101cac <_vfprintf_r+0x59c>
  101c5c:	e2811001 	add	r1, r1, #1
  101c60:	e2822010 	add	r2, r2, #16
  101c64:	e3510007 	cmp	r1, #7
  101c68:	e8870500 	stm	r7, {r8, sl}
  101c6c:	e58d10a8 	str	r1, [sp, #168]	; 0xa8
  101c70:	e2877008 	add	r7, r7, #8
  101c74:	e58d20ac 	str	r2, [sp, #172]	; 0xac
  101c78:	dafffff4 	ble	101c50 <_vfprintf_r+0x540>
  101c7c:	e1a00004 	mov	r0, r4
  101c80:	e1a01006 	mov	r1, r6
  101c84:	e28d20a4 	add	r2, sp, #164	; 0xa4
  101c88:	e28d70d8 	add	r7, sp, #216	; 0xd8
  101c8c:	eb0017a4 	bl	107b24 <__sprint_r>
  101c90:	e3500000 	cmp	r0, #0
  101c94:	1a00037d 	bne	102a90 <_vfprintf_r+0x1380>
  101c98:	e2455010 	sub	r5, r5, #16
  101c9c:	e59d20ac 	ldr	r2, [sp, #172]	; 0xac
  101ca0:	e3550010 	cmp	r5, #16
  101ca4:	e59d10a8 	ldr	r1, [sp, #168]	; 0xa8
  101ca8:	caffffeb 	bgt	101c5c <_vfprintf_r+0x54c>
  101cac:	e1a04005 	mov	r4, r5
  101cb0:	e59d8070 	ldr	r8, [sp, #112]	; 0x70
  101cb4:	e59d6074 	ldr	r6, [sp, #116]	; 0x74
  101cb8:	e59d5078 	ldr	r5, [sp, #120]	; 0x78
  101cbc:	e2811001 	add	r1, r1, #1
  101cc0:	e0842002 	add	r2, r4, r2
  101cc4:	e3510007 	cmp	r1, #7
  101cc8:	e58d10a8 	str	r1, [sp, #168]	; 0xa8
  101ccc:	e58d20ac 	str	r2, [sp, #172]	; 0xac
  101cd0:	e5879000 	str	r9, [r7]
  101cd4:	e5874004 	str	r4, [r7, #4]
  101cd8:	ca000171 	bgt	1022a4 <_vfprintf_r+0xb94>
  101cdc:	e2877008 	add	r7, r7, #8
  101ce0:	e5dd9087 	ldrb	r9, [sp, #135]	; 0x87
  101ce4:	ea000177 	b	1022c8 <_vfprintf_r+0xbb8>
  101ce8:	e2042007 	and	r2, r4, #7
  101cec:	e1a041a4 	lsr	r4, r4, #3
  101cf0:	e1844e85 	orr	r4, r4, r5, lsl #29
  101cf4:	e1a051a5 	lsr	r5, r5, #3
  101cf8:	e1940005 	orrs	r0, r4, r5
  101cfc:	e1a06003 	mov	r6, r3
  101d00:	e2822030 	add	r2, r2, #48	; 0x30
  101d04:	e2433001 	sub	r3, r3, #1
  101d08:	e5c62000 	strb	r2, [r6]
  101d0c:	1afffff5 	bne	101ce8 <_vfprintf_r+0x5d8>
  101d10:	e59dc020 	ldr	ip, [sp, #32]
  101d14:	e1a01006 	mov	r1, r6
  101d18:	e31c0001 	tst	ip, #1
  101d1c:	0affffa0 	beq	101ba4 <_vfprintf_r+0x494>
  101d20:	e3520030 	cmp	r2, #48	; 0x30
  101d24:	0affff9e 	beq	101ba4 <_vfprintf_r+0x494>
  101d28:	e59dc01c 	ldr	ip, [sp, #28]
  101d2c:	e1a06003 	mov	r6, r3
  101d30:	e3a03030 	mov	r3, #48	; 0x30
  101d34:	e5413001 	strb	r3, [r1, #-1]
  101d38:	e066500c 	rsb	r5, r6, ip
  101d3c:	eaffff9a 	b	101bac <_vfprintf_r+0x49c>
  101d40:	e59dc020 	ldr	ip, [sp, #32]
  101d44:	e58d3024 	str	r3, [sp, #36]	; 0x24
  101d48:	e21c3020 	ands	r3, ip, #32
  101d4c:	0a000061 	beq	101ed8 <_vfprintf_r+0x7c8>
  101d50:	e59dc040 	ldr	ip, [sp, #64]	; 0x40
  101d54:	e3a03000 	mov	r3, #0
  101d58:	e28c2007 	add	r2, ip, #7
  101d5c:	e3c22007 	bic	r2, r2, #7
  101d60:	e282c008 	add	ip, r2, #8
  101d64:	e58dc040 	str	ip, [sp, #64]	; 0x40
  101d68:	e1c240d0 	ldrd	r4, [r2]
  101d6c:	eaffff6d 	b	101b28 <_vfprintf_r+0x418>
  101d70:	e58d3024 	str	r3, [sp, #36]	; 0x24
  101d74:	e3a08078 	mov	r8, #120	; 0x78
  101d78:	e59d3040 	ldr	r3, [sp, #64]	; 0x40
  101d7c:	e3a05000 	mov	r5, #0
  101d80:	e59dc020 	ldr	ip, [sp, #32]
  101d84:	e5cd8089 	strb	r8, [sp, #137]	; 0x89
  101d88:	e38cc002 	orr	ip, ip, #2
  101d8c:	e5934000 	ldr	r4, [r3]
  101d90:	e58dc020 	str	ip, [sp, #32]
  101d94:	e283c004 	add	ip, r3, #4
  101d98:	e3a03030 	mov	r3, #48	; 0x30
  101d9c:	e58dc040 	str	ip, [sp, #64]	; 0x40
  101da0:	e5cd3088 	strb	r3, [sp, #136]	; 0x88
  101da4:	e30bc1d4 	movw	ip, #45524	; 0xb1d4
  101da8:	e3a03002 	mov	r3, #2
  101dac:	e340c010 	movt	ip, #16
  101db0:	e58dc060 	str	ip, [sp, #96]	; 0x60
  101db4:	eaffff5b 	b	101b28 <_vfprintf_r+0x418>
  101db8:	e5d38000 	ldrb	r8, [r3]
  101dbc:	e2830001 	add	r0, r3, #1
  101dc0:	e358002a 	cmp	r8, #42	; 0x2a
  101dc4:	0a000612 	beq	103614 <_vfprintf_r+0x1f04>
  101dc8:	e2481030 	sub	r1, r8, #48	; 0x30
  101dcc:	e3510009 	cmp	r1, #9
  101dd0:	83a0c000 	movhi	ip, #0
  101dd4:	81a03000 	movhi	r3, r0
  101dd8:	858dc028 	strhi	ip, [sp, #40]	; 0x28
  101ddc:	8afffeba 	bhi	1018cc <_vfprintf_r+0x1bc>
  101de0:	e3a03000 	mov	r3, #0
  101de4:	e0833103 	add	r3, r3, r3, lsl #2
  101de8:	e4d08001 	ldrb	r8, [r0], #1
  101dec:	e0813083 	add	r3, r1, r3, lsl #1
  101df0:	e2481030 	sub	r1, r8, #48	; 0x30
  101df4:	e3510009 	cmp	r1, #9
  101df8:	9afffff9 	bls	101de4 <_vfprintf_r+0x6d4>
  101dfc:	e1833fc3 	orr	r3, r3, r3, asr #31
  101e00:	e58d3028 	str	r3, [sp, #40]	; 0x28
  101e04:	e1a03000 	mov	r3, r0
  101e08:	eafffeaf 	b	1018cc <_vfprintf_r+0x1bc>
  101e0c:	e59dc020 	ldr	ip, [sp, #32]
  101e10:	e38cc080 	orr	ip, ip, #128	; 0x80
  101e14:	e58dc020 	str	ip, [sp, #32]
  101e18:	e5d38000 	ldrb	r8, [r3]
  101e1c:	eafffea9 	b	1018c8 <_vfprintf_r+0x1b8>
  101e20:	e3a0c000 	mov	ip, #0
  101e24:	e2481030 	sub	r1, r8, #48	; 0x30
  101e28:	e1a0000c 	mov	r0, ip
  101e2c:	e58dc03c 	str	ip, [sp, #60]	; 0x3c
  101e30:	e0800100 	add	r0, r0, r0, lsl #2
  101e34:	e4d38001 	ldrb	r8, [r3], #1
  101e38:	e0810080 	add	r0, r1, r0, lsl #1
  101e3c:	e2481030 	sub	r1, r8, #48	; 0x30
  101e40:	e3510009 	cmp	r1, #9
  101e44:	9afffff9 	bls	101e30 <_vfprintf_r+0x720>
  101e48:	e58d003c 	str	r0, [sp, #60]	; 0x3c
  101e4c:	eafffe9e 	b	1018cc <_vfprintf_r+0x1bc>
  101e50:	e59dc020 	ldr	ip, [sp, #32]
  101e54:	e58d3024 	str	r3, [sp, #36]	; 0x24
  101e58:	e38cc010 	orr	ip, ip, #16
  101e5c:	e58dc020 	str	ip, [sp, #32]
  101e60:	e59dc020 	ldr	ip, [sp, #32]
  101e64:	e5cd2087 	strb	r2, [sp, #135]	; 0x87
  101e68:	e31c0020 	tst	ip, #32
  101e6c:	0a0000e1 	beq	1021f8 <_vfprintf_r+0xae8>
  101e70:	e59dc040 	ldr	ip, [sp, #64]	; 0x40
  101e74:	e28c3007 	add	r3, ip, #7
  101e78:	e3c33007 	bic	r3, r3, #7
  101e7c:	e283c008 	add	ip, r3, #8
  101e80:	e58dc040 	str	ip, [sp, #64]	; 0x40
  101e84:	e1c320d0 	ldrd	r2, [r3]
  101e88:	e1a04002 	mov	r4, r2
  101e8c:	e1a05003 	mov	r5, r3
  101e90:	e3520000 	cmp	r2, #0
  101e94:	e2d30000 	sbcs	r0, r3, #0
  101e98:	ba0003d8 	blt	102e00 <_vfprintf_r+0x16f0>
  101e9c:	e5dd9087 	ldrb	r9, [sp, #135]	; 0x87
  101ea0:	e3a03001 	mov	r3, #1
  101ea4:	eaffff21 	b	101b30 <_vfprintf_r+0x420>
  101ea8:	e59dc020 	ldr	ip, [sp, #32]
  101eac:	e38cc008 	orr	ip, ip, #8
  101eb0:	e58dc020 	str	ip, [sp, #32]
  101eb4:	e5d38000 	ldrb	r8, [r3]
  101eb8:	eafffe82 	b	1018c8 <_vfprintf_r+0x1b8>
  101ebc:	e59dc020 	ldr	ip, [sp, #32]
  101ec0:	e58d3024 	str	r3, [sp, #36]	; 0x24
  101ec4:	e38cc010 	orr	ip, ip, #16
  101ec8:	e58dc020 	str	ip, [sp, #32]
  101ecc:	e59dc020 	ldr	ip, [sp, #32]
  101ed0:	e21c3020 	ands	r3, ip, #32
  101ed4:	1affff9d 	bne	101d50 <_vfprintf_r+0x640>
  101ed8:	e59dc020 	ldr	ip, [sp, #32]
  101edc:	e21c2010 	ands	r2, ip, #16
  101ee0:	1a00030d 	bne	102b1c <_vfprintf_r+0x140c>
  101ee4:	e59dc020 	ldr	ip, [sp, #32]
  101ee8:	e21c3040 	ands	r3, ip, #64	; 0x40
  101eec:	0a00030a 	beq	102b1c <_vfprintf_r+0x140c>
  101ef0:	e59dc040 	ldr	ip, [sp, #64]	; 0x40
  101ef4:	e1a03002 	mov	r3, r2
  101ef8:	e3a05000 	mov	r5, #0
  101efc:	e28cc004 	add	ip, ip, #4
  101f00:	e15c40b4 	ldrh	r4, [ip, #-4]
  101f04:	e58dc040 	str	ip, [sp, #64]	; 0x40
  101f08:	eaffff06 	b	101b28 <_vfprintf_r+0x418>
  101f0c:	e59dc040 	ldr	ip, [sp, #64]	; 0x40
  101f10:	e58d3024 	str	r3, [sp, #36]	; 0x24
  101f14:	e28c3007 	add	r3, ip, #7
  101f18:	e5cd2087 	strb	r2, [sp, #135]	; 0x87
  101f1c:	e3c33007 	bic	r3, r3, #7
  101f20:	ed938b00 	vldr	d8, [r3]
  101f24:	ec510b18 	vmov	r0, r1, d8
  101f28:	e2833008 	add	r3, r3, #8
  101f2c:	e58d3040 	str	r3, [sp, #64]	; 0x40
  101f30:	eb00158d 	bl	10756c <__fpclassifyd>
  101f34:	e3500001 	cmp	r0, #1
  101f38:	1a0003b6 	bne	102e18 <_vfprintf_r+0x1708>
  101f3c:	eeb58bc0 	vcmpe.f64	d8, #0.0
  101f40:	e3a0c003 	mov	ip, #3
  101f44:	e30b31b0 	movw	r3, #45488	; 0xb1b0
  101f48:	e58dc02c 	str	ip, [sp, #44]	; 0x2c
  101f4c:	e3403010 	movt	r3, #16
  101f50:	e3a0c000 	mov	ip, #0
  101f54:	e58dc028 	str	ip, [sp, #40]	; 0x28
  101f58:	e30b61b4 	movw	r6, #45492	; 0xb1b4
  101f5c:	eef1fa10 	vmrs	APSR_nzcv, fpscr
  101f60:	e59dc020 	ldr	ip, [sp, #32]
  101f64:	43a0902d 	movmi	r9, #45	; 0x2d
  101f68:	55dd9087 	ldrbpl	r9, [sp, #135]	; 0x87
  101f6c:	45cd9087 	strbmi	r9, [sp, #135]	; 0x87
  101f70:	e3580047 	cmp	r8, #71	; 0x47
  101f74:	e3ccc080 	bic	ip, ip, #128	; 0x80
  101f78:	e3406010 	movt	r6, #16
  101f7c:	e58dc020 	str	ip, [sp, #32]
  101f80:	d1a06003 	movle	r6, r3
  101f84:	e3a0c000 	mov	ip, #0
  101f88:	e3a05003 	mov	r5, #3
  101f8c:	e58dc058 	str	ip, [sp, #88]	; 0x58
  101f90:	eaffff0b 	b	101bc4 <_vfprintf_r+0x4b4>
  101f94:	e59dc020 	ldr	ip, [sp, #32]
  101f98:	e58d3024 	str	r3, [sp, #36]	; 0x24
  101f9c:	e38cc010 	orr	ip, ip, #16
  101fa0:	e58dc020 	str	ip, [sp, #32]
  101fa4:	e59dc020 	ldr	ip, [sp, #32]
  101fa8:	e31c0020 	tst	ip, #32
  101fac:	1afffed6 	bne	101b0c <_vfprintf_r+0x3fc>
  101fb0:	e59dc020 	ldr	ip, [sp, #32]
  101fb4:	e31c0010 	tst	ip, #16
  101fb8:	0a000405 	beq	102fd4 <_vfprintf_r+0x18c4>
  101fbc:	e59dc040 	ldr	ip, [sp, #64]	; 0x40
  101fc0:	e59c4000 	ldr	r4, [ip]
  101fc4:	e3a03001 	mov	r3, #1
  101fc8:	e28cc004 	add	ip, ip, #4
  101fcc:	e3a05000 	mov	r5, #0
  101fd0:	e58dc040 	str	ip, [sp, #64]	; 0x40
  101fd4:	eafffed3 	b	101b28 <_vfprintf_r+0x418>
  101fd8:	e59dc040 	ldr	ip, [sp, #64]	; 0x40
  101fdc:	e59cc000 	ldr	ip, [ip]
  101fe0:	e58dc03c 	str	ip, [sp, #60]	; 0x3c
  101fe4:	e59dc040 	ldr	ip, [sp, #64]	; 0x40
  101fe8:	e28c1004 	add	r1, ip, #4
  101fec:	e59dc03c 	ldr	ip, [sp, #60]	; 0x3c
  101ff0:	e35c0000 	cmp	ip, #0
  101ff4:	bafffe91 	blt	101a40 <_vfprintf_r+0x330>
  101ff8:	e58d1040 	str	r1, [sp, #64]	; 0x40
  101ffc:	e5d38000 	ldrb	r8, [r3]
  102000:	eafffe30 	b	1018c8 <_vfprintf_r+0x1b8>
  102004:	e59dc020 	ldr	ip, [sp, #32]
  102008:	e38cc020 	orr	ip, ip, #32
  10200c:	e58dc020 	str	ip, [sp, #32]
  102010:	e5d38000 	ldrb	r8, [r3]
  102014:	eafffe2b 	b	1018c8 <_vfprintf_r+0x1b8>
  102018:	e59dc040 	ldr	ip, [sp, #64]	; 0x40
  10201c:	e3a04000 	mov	r4, #0
  102020:	e58d3024 	str	r3, [sp, #36]	; 0x24
  102024:	e28ca004 	add	sl, ip, #4
  102028:	e5cd4087 	strb	r4, [sp, #135]	; 0x87
  10202c:	e59c6000 	ldr	r6, [ip]
  102030:	e1560004 	cmp	r6, r4
  102034:	0a0004b8 	beq	10331c <_vfprintf_r+0x1c0c>
  102038:	e59dc028 	ldr	ip, [sp, #40]	; 0x28
  10203c:	e35c0000 	cmp	ip, #0
  102040:	ba00048c 	blt	103278 <_vfprintf_r+0x1b68>
  102044:	e1a00006 	mov	r0, r6
  102048:	e1a01004 	mov	r1, r4
  10204c:	e1a0200c 	mov	r2, ip
  102050:	fa00106e 	blx	106210 <memchr>
  102054:	e3500000 	cmp	r0, #0
  102058:	0a0004ec 	beq	103410 <_vfprintf_r+0x1d00>
  10205c:	e59d5028 	ldr	r5, [sp, #40]	; 0x28
  102060:	e0660000 	rsb	r0, r6, r0
  102064:	e58da040 	str	sl, [sp, #64]	; 0x40
  102068:	e1550000 	cmp	r5, r0
  10206c:	a1a05000 	movge	r5, r0
  102070:	e58d4028 	str	r4, [sp, #40]	; 0x28
  102074:	e1c5cfc5 	bic	ip, r5, r5, asr #31
  102078:	e58d4058 	str	r4, [sp, #88]	; 0x58
  10207c:	e58dc02c 	str	ip, [sp, #44]	; 0x2c
  102080:	e5dd9087 	ldrb	r9, [sp, #135]	; 0x87
  102084:	eafffece 	b	101bc4 <_vfprintf_r+0x4b4>
  102088:	e30bc1d4 	movw	ip, #45524	; 0xb1d4
  10208c:	e340c010 	movt	ip, #16
  102090:	e58dc060 	str	ip, [sp, #96]	; 0x60
  102094:	e59dc020 	ldr	ip, [sp, #32]
  102098:	e58d3024 	str	r3, [sp, #36]	; 0x24
  10209c:	e31c0020 	tst	ip, #32
  1020a0:	e5cd2087 	strb	r2, [sp, #135]	; 0x87
  1020a4:	0a000066 	beq	102244 <_vfprintf_r+0xb34>
  1020a8:	e59dc040 	ldr	ip, [sp, #64]	; 0x40
  1020ac:	e28c3007 	add	r3, ip, #7
  1020b0:	e3c33007 	bic	r3, r3, #7
  1020b4:	e283c008 	add	ip, r3, #8
  1020b8:	e58dc040 	str	ip, [sp, #64]	; 0x40
  1020bc:	e1c340d0 	ldrd	r4, [r3]
  1020c0:	e59dc020 	ldr	ip, [sp, #32]
  1020c4:	e31c0001 	tst	ip, #1
  1020c8:	0a00022d 	beq	102984 <_vfprintf_r+0x1274>
  1020cc:	e1940005 	orrs	r0, r4, r5
  1020d0:	0a00022b 	beq	102984 <_vfprintf_r+0x1274>
  1020d4:	e3a03030 	mov	r3, #48	; 0x30
  1020d8:	e38cc002 	orr	ip, ip, #2
  1020dc:	e5cd3088 	strb	r3, [sp, #136]	; 0x88
  1020e0:	e3a03002 	mov	r3, #2
  1020e4:	e5cd8089 	strb	r8, [sp, #137]	; 0x89
  1020e8:	e58dc020 	str	ip, [sp, #32]
  1020ec:	eafffe8d 	b	101b28 <_vfprintf_r+0x418>
  1020f0:	e5d38000 	ldrb	r8, [r3]
  1020f4:	e3a0202b 	mov	r2, #43	; 0x2b
  1020f8:	eafffdf2 	b	1018c8 <_vfprintf_r+0x1b8>
  1020fc:	e3520000 	cmp	r2, #0
  102100:	e5d38000 	ldrb	r8, [r3]
  102104:	03a02020 	moveq	r2, #32
  102108:	eafffdee 	b	1018c8 <_vfprintf_r+0x1b8>
  10210c:	e59dc020 	ldr	ip, [sp, #32]
  102110:	e38cc040 	orr	ip, ip, #64	; 0x40
  102114:	e58dc020 	str	ip, [sp, #32]
  102118:	e5d38000 	ldrb	r8, [r3]
  10211c:	eafffde9 	b	1018c8 <_vfprintf_r+0x1b8>
  102120:	e5d38000 	ldrb	r8, [r3]
  102124:	e1a01003 	mov	r1, r3
  102128:	e358006c 	cmp	r8, #108	; 0x6c
  10212c:	02833001 	addeq	r3, r3, #1
  102130:	059dc020 	ldreq	ip, [sp, #32]
  102134:	159dc020 	ldrne	ip, [sp, #32]
  102138:	038cc020 	orreq	ip, ip, #32
  10213c:	05d18001 	ldrbeq	r8, [r1, #1]
  102140:	138cc010 	orrne	ip, ip, #16
  102144:	058dc020 	streq	ip, [sp, #32]
  102148:	158dc020 	strne	ip, [sp, #32]
  10214c:	eafffddd 	b	1018c8 <_vfprintf_r+0x1b8>
  102150:	e59dc020 	ldr	ip, [sp, #32]
  102154:	e58d3024 	str	r3, [sp, #36]	; 0x24
  102158:	e31c0020 	tst	ip, #32
  10215c:	e5cd2087 	strb	r2, [sp, #135]	; 0x87
  102160:	0a000387 	beq	102f84 <_vfprintf_r+0x1874>
  102164:	e59dc040 	ldr	ip, [sp, #64]	; 0x40
  102168:	e59c3000 	ldr	r3, [ip]
  10216c:	e59dc044 	ldr	ip, [sp, #68]	; 0x44
  102170:	ee80cb90 	vdup.32	d16, ip
  102174:	e59dc040 	ldr	ip, [sp, #64]	; 0x40
  102178:	f2e000b0 	vshr.s64	d16, d16, #32
  10217c:	e28cc004 	add	ip, ip, #4
  102180:	edc30b00 	vstr	d16, [r3]
  102184:	e58dc040 	str	ip, [sp, #64]	; 0x40
  102188:	eafffda3 	b	10181c <_vfprintf_r+0x10c>
  10218c:	e59dc020 	ldr	ip, [sp, #32]
  102190:	e38cc001 	orr	ip, ip, #1
  102194:	e58dc020 	str	ip, [sp, #32]
  102198:	e5d38000 	ldrb	r8, [r3]
  10219c:	eafffdc9 	b	1018c8 <_vfprintf_r+0x1b8>
  1021a0:	e59d2040 	ldr	r2, [sp, #64]	; 0x40
  1021a4:	e3a0c001 	mov	ip, #1
  1021a8:	e58dc02c 	str	ip, [sp, #44]	; 0x2c
  1021ac:	e3a05001 	mov	r5, #1
  1021b0:	e59dc040 	ldr	ip, [sp, #64]	; 0x40
  1021b4:	e28d60b0 	add	r6, sp, #176	; 0xb0
  1021b8:	e5922000 	ldr	r2, [r2]
  1021bc:	e58d3024 	str	r3, [sp, #36]	; 0x24
  1021c0:	e3a03000 	mov	r3, #0
  1021c4:	e28cc004 	add	ip, ip, #4
  1021c8:	e1a09003 	mov	r9, r3
  1021cc:	e58dc040 	str	ip, [sp, #64]	; 0x40
  1021d0:	e5cd3087 	strb	r3, [sp, #135]	; 0x87
  1021d4:	e58d3028 	str	r3, [sp, #40]	; 0x28
  1021d8:	e5cd20b0 	strb	r2, [sp, #176]	; 0xb0
  1021dc:	e58d3058 	str	r3, [sp, #88]	; 0x58
  1021e0:	eafffe7c 	b	101bd8 <_vfprintf_r+0x4c8>
  1021e4:	e59dc020 	ldr	ip, [sp, #32]
  1021e8:	e58d3024 	str	r3, [sp, #36]	; 0x24
  1021ec:	e31c0020 	tst	ip, #32
  1021f0:	e5cd2087 	strb	r2, [sp, #135]	; 0x87
  1021f4:	1affff1d 	bne	101e70 <_vfprintf_r+0x760>
  1021f8:	e59dc020 	ldr	ip, [sp, #32]
  1021fc:	e31c0010 	tst	ip, #16
  102200:	0a00037d 	beq	102ffc <_vfprintf_r+0x18ec>
  102204:	e59dc040 	ldr	ip, [sp, #64]	; 0x40
  102208:	e59c4000 	ldr	r4, [ip]
  10220c:	e28cc004 	add	ip, ip, #4
  102210:	e58dc040 	str	ip, [sp, #64]	; 0x40
  102214:	e1a05fc4 	asr	r5, r4, #31
  102218:	e1a02004 	mov	r2, r4
  10221c:	e1a03005 	mov	r3, r5
  102220:	eaffff1a 	b	101e90 <_vfprintf_r+0x780>
  102224:	e30bc1c0 	movw	ip, #45504	; 0xb1c0
  102228:	e340c010 	movt	ip, #16
  10222c:	e58dc060 	str	ip, [sp, #96]	; 0x60
  102230:	e59dc020 	ldr	ip, [sp, #32]
  102234:	e58d3024 	str	r3, [sp, #36]	; 0x24
  102238:	e31c0020 	tst	ip, #32
  10223c:	e5cd2087 	strb	r2, [sp, #135]	; 0x87
  102240:	1affff98 	bne	1020a8 <_vfprintf_r+0x998>
  102244:	e59dc020 	ldr	ip, [sp, #32]
  102248:	e31c0010 	tst	ip, #16
  10224c:	0a000375 	beq	103028 <_vfprintf_r+0x1918>
  102250:	e59dc040 	ldr	ip, [sp, #64]	; 0x40
  102254:	e3a05000 	mov	r5, #0
  102258:	e28cc004 	add	ip, ip, #4
  10225c:	e51c4004 	ldr	r4, [ip, #-4]
  102260:	e58dc040 	str	ip, [sp, #64]	; 0x40
  102264:	eaffff95 	b	1020c0 <_vfprintf_r+0x9b0>
  102268:	e3580000 	cmp	r8, #0
  10226c:	e58d3024 	str	r3, [sp, #36]	; 0x24
  102270:	e5cd2087 	strb	r2, [sp, #135]	; 0x87
  102274:	0a00010d 	beq	1026b0 <_vfprintf_r+0xfa0>
  102278:	e3a03000 	mov	r3, #0
  10227c:	e3a0c001 	mov	ip, #1
  102280:	e1a09003 	mov	r9, r3
  102284:	e58dc02c 	str	ip, [sp, #44]	; 0x2c
  102288:	e5cd80b0 	strb	r8, [sp, #176]	; 0xb0
  10228c:	e1a0500c 	mov	r5, ip
  102290:	e5cd3087 	strb	r3, [sp, #135]	; 0x87
  102294:	e28d60b0 	add	r6, sp, #176	; 0xb0
  102298:	e58d3028 	str	r3, [sp, #40]	; 0x28
  10229c:	e58d3058 	str	r3, [sp, #88]	; 0x58
  1022a0:	eafffe4c 	b	101bd8 <_vfprintf_r+0x4c8>
  1022a4:	e59d0030 	ldr	r0, [sp, #48]	; 0x30
  1022a8:	e28d20a4 	add	r2, sp, #164	; 0xa4
  1022ac:	e59d1034 	ldr	r1, [sp, #52]	; 0x34
  1022b0:	eb00161b 	bl	107b24 <__sprint_r>
  1022b4:	e3500000 	cmp	r0, #0
  1022b8:	1a00019b 	bne	10292c <_vfprintf_r+0x121c>
  1022bc:	e5dd9087 	ldrb	r9, [sp, #135]	; 0x87
  1022c0:	e28d70d8 	add	r7, sp, #216	; 0xd8
  1022c4:	e59d20ac 	ldr	r2, [sp, #172]	; 0xac
  1022c8:	e3590000 	cmp	r9, #0
  1022cc:	0a00000b 	beq	102300 <_vfprintf_r+0xbf0>
  1022d0:	e59d30a8 	ldr	r3, [sp, #168]	; 0xa8
  1022d4:	e2822001 	add	r2, r2, #1
  1022d8:	e28d1087 	add	r1, sp, #135	; 0x87
  1022dc:	e58d20ac 	str	r2, [sp, #172]	; 0xac
  1022e0:	e2833001 	add	r3, r3, #1
  1022e4:	e5871000 	str	r1, [r7]
  1022e8:	e3530007 	cmp	r3, #7
  1022ec:	e58d30a8 	str	r3, [sp, #168]	; 0xa8
  1022f0:	e3a03001 	mov	r3, #1
  1022f4:	e5873004 	str	r3, [r7, #4]
  1022f8:	d2877008 	addle	r7, r7, #8
  1022fc:	ca00018e 	bgt	10293c <_vfprintf_r+0x122c>
  102300:	e59dc038 	ldr	ip, [sp, #56]	; 0x38
  102304:	e35c0000 	cmp	ip, #0
  102308:	0a00000b 	beq	10233c <_vfprintf_r+0xc2c>
  10230c:	e59d30a8 	ldr	r3, [sp, #168]	; 0xa8
  102310:	e2822002 	add	r2, r2, #2
  102314:	e28d1088 	add	r1, sp, #136	; 0x88
  102318:	e58d20ac 	str	r2, [sp, #172]	; 0xac
  10231c:	e2833001 	add	r3, r3, #1
  102320:	e5871000 	str	r1, [r7]
  102324:	e3530007 	cmp	r3, #7
  102328:	e58d30a8 	str	r3, [sp, #168]	; 0xa8
  10232c:	e3a03002 	mov	r3, #2
  102330:	e5873004 	str	r3, [r7, #4]
  102334:	d2877008 	addle	r7, r7, #8
  102338:	ca000188 	bgt	102960 <_vfprintf_r+0x1250>
  10233c:	e59d304c 	ldr	r3, [sp, #76]	; 0x4c
  102340:	e3530080 	cmp	r3, #128	; 0x80
  102344:	0a0000f5 	beq	102720 <_vfprintf_r+0x1010>
  102348:	e59dc028 	ldr	ip, [sp, #40]	; 0x28
  10234c:	e065900c 	rsb	r9, r5, ip
  102350:	e3590000 	cmp	r9, #0
  102354:	da00003b 	ble	102448 <_vfprintf_r+0xd38>
  102358:	e3590010 	cmp	r9, #16
  10235c:	e59d30a8 	ldr	r3, [sp, #168]	; 0xa8
  102360:	e51f4870 	ldr	r4, [pc, #-2160]	; 101af8 <_vfprintf_r+0x3e8>
  102364:	da000027 	ble	102408 <_vfprintf_r+0xcf8>
  102368:	e58d6028 	str	r6, [sp, #40]	; 0x28
  10236c:	e3a0a010 	mov	sl, #16
  102370:	e58d5038 	str	r5, [sp, #56]	; 0x38
  102374:	e1a06007 	mov	r6, r7
  102378:	e1a01003 	mov	r1, r3
  10237c:	e1a07009 	mov	r7, r9
  102380:	e59d5034 	ldr	r5, [sp, #52]	; 0x34
  102384:	e1a09004 	mov	r9, r4
  102388:	e59d4030 	ldr	r4, [sp, #48]	; 0x30
  10238c:	ea000002 	b	10239c <_vfprintf_r+0xc8c>
  102390:	e2477010 	sub	r7, r7, #16
  102394:	e3570010 	cmp	r7, #16
  102398:	da000014 	ble	1023f0 <_vfprintf_r+0xce0>
  10239c:	e2811001 	add	r1, r1, #1
  1023a0:	e2822010 	add	r2, r2, #16
  1023a4:	e3510007 	cmp	r1, #7
  1023a8:	e586b000 	str	fp, [r6]
  1023ac:	e586a004 	str	sl, [r6, #4]
  1023b0:	e2866008 	add	r6, r6, #8
  1023b4:	e58d10a8 	str	r1, [sp, #168]	; 0xa8
  1023b8:	e58d20ac 	str	r2, [sp, #172]	; 0xac
  1023bc:	dafffff3 	ble	102390 <_vfprintf_r+0xc80>
  1023c0:	e1a00004 	mov	r0, r4
  1023c4:	e1a01005 	mov	r1, r5
  1023c8:	e28d20a4 	add	r2, sp, #164	; 0xa4
  1023cc:	e28d60d8 	add	r6, sp, #216	; 0xd8
  1023d0:	eb0015d3 	bl	107b24 <__sprint_r>
  1023d4:	e3500000 	cmp	r0, #0
  1023d8:	1a000155 	bne	102934 <_vfprintf_r+0x1224>
  1023dc:	e2477010 	sub	r7, r7, #16
  1023e0:	e59d20ac 	ldr	r2, [sp, #172]	; 0xac
  1023e4:	e3570010 	cmp	r7, #16
  1023e8:	e59d10a8 	ldr	r1, [sp, #168]	; 0xa8
  1023ec:	caffffea 	bgt	10239c <_vfprintf_r+0xc8c>
  1023f0:	e1a04009 	mov	r4, r9
  1023f4:	e59d5038 	ldr	r5, [sp, #56]	; 0x38
  1023f8:	e1a09007 	mov	r9, r7
  1023fc:	e1a07006 	mov	r7, r6
  102400:	e59d6028 	ldr	r6, [sp, #40]	; 0x28
  102404:	e1a03001 	mov	r3, r1
  102408:	e2833001 	add	r3, r3, #1
  10240c:	e0822009 	add	r2, r2, r9
  102410:	e3530007 	cmp	r3, #7
  102414:	e8870210 	stm	r7, {r4, r9}
  102418:	e58d30a8 	str	r3, [sp, #168]	; 0xa8
  10241c:	d2877008 	addle	r7, r7, #8
  102420:	e58d20ac 	str	r2, [sp, #172]	; 0xac
  102424:	da000007 	ble	102448 <_vfprintf_r+0xd38>
  102428:	e59d0030 	ldr	r0, [sp, #48]	; 0x30
  10242c:	e28d20a4 	add	r2, sp, #164	; 0xa4
  102430:	e59d1034 	ldr	r1, [sp, #52]	; 0x34
  102434:	eb0015ba 	bl	107b24 <__sprint_r>
  102438:	e3500000 	cmp	r0, #0
  10243c:	1a00013a 	bne	10292c <_vfprintf_r+0x121c>
  102440:	e59d20ac 	ldr	r2, [sp, #172]	; 0xac
  102444:	e28d70d8 	add	r7, sp, #216	; 0xd8
  102448:	e59dc020 	ldr	ip, [sp, #32]
  10244c:	e31c0c01 	tst	ip, #256	; 0x100
  102450:	1a00004f 	bne	102594 <_vfprintf_r+0xe84>
  102454:	e59d30a8 	ldr	r3, [sp, #168]	; 0xa8
  102458:	e0822005 	add	r2, r2, r5
  10245c:	e5876000 	str	r6, [r7]
  102460:	e2833001 	add	r3, r3, #1
  102464:	e58d20ac 	str	r2, [sp, #172]	; 0xac
  102468:	e3530007 	cmp	r3, #7
  10246c:	e5875004 	str	r5, [r7, #4]
  102470:	e58d30a8 	str	r3, [sp, #168]	; 0xa8
  102474:	ca00011d 	bgt	1028f0 <_vfprintf_r+0x11e0>
  102478:	e2877008 	add	r7, r7, #8
  10247c:	e59dc020 	ldr	ip, [sp, #32]
  102480:	e31c0004 	tst	ip, #4
  102484:	0a000035 	beq	102560 <_vfprintf_r+0xe50>
  102488:	e59dc03c 	ldr	ip, [sp, #60]	; 0x3c
  10248c:	e59d302c 	ldr	r3, [sp, #44]	; 0x2c
  102490:	e063400c 	rsb	r4, r3, ip
  102494:	e3540000 	cmp	r4, #0
  102498:	da000030 	ble	102560 <_vfprintf_r+0xe50>
  10249c:	e3540010 	cmp	r4, #16
  1024a0:	da000399 	ble	10330c <_vfprintf_r+0x1bfc>
  1024a4:	e30b902c 	movw	r9, #45100	; 0xb02c
  1024a8:	e59d30a8 	ldr	r3, [sp, #168]	; 0xa8
  1024ac:	e3409010 	movt	r9, #16
  1024b0:	e3a05010 	mov	r5, #16
  1024b4:	e59d6030 	ldr	r6, [sp, #48]	; 0x30
  1024b8:	e59d8034 	ldr	r8, [sp, #52]	; 0x34
  1024bc:	e59da050 	ldr	sl, [sp, #80]	; 0x50
  1024c0:	ea000002 	b	1024d0 <_vfprintf_r+0xdc0>
  1024c4:	e2444010 	sub	r4, r4, #16
  1024c8:	e3540010 	cmp	r4, #16
  1024cc:	da000014 	ble	102524 <_vfprintf_r+0xe14>
  1024d0:	e2833001 	add	r3, r3, #1
  1024d4:	e2822010 	add	r2, r2, #16
  1024d8:	e3530007 	cmp	r3, #7
  1024dc:	e587a000 	str	sl, [r7]
  1024e0:	e5875004 	str	r5, [r7, #4]
  1024e4:	e2877008 	add	r7, r7, #8
  1024e8:	e58d30a8 	str	r3, [sp, #168]	; 0xa8
  1024ec:	e58d20ac 	str	r2, [sp, #172]	; 0xac
  1024f0:	dafffff3 	ble	1024c4 <_vfprintf_r+0xdb4>
  1024f4:	e1a00006 	mov	r0, r6
  1024f8:	e1a01008 	mov	r1, r8
  1024fc:	e28d20a4 	add	r2, sp, #164	; 0xa4
  102500:	e28d70d8 	add	r7, sp, #216	; 0xd8
  102504:	eb001586 	bl	107b24 <__sprint_r>
  102508:	e3500000 	cmp	r0, #0
  10250c:	1a0001f4 	bne	102ce4 <_vfprintf_r+0x15d4>
  102510:	e2444010 	sub	r4, r4, #16
  102514:	e59d20ac 	ldr	r2, [sp, #172]	; 0xac
  102518:	e3540010 	cmp	r4, #16
  10251c:	e59d30a8 	ldr	r3, [sp, #168]	; 0xa8
  102520:	caffffea 	bgt	1024d0 <_vfprintf_r+0xdc0>
  102524:	e2833001 	add	r3, r3, #1
  102528:	e0822004 	add	r2, r2, r4
  10252c:	e3530007 	cmp	r3, #7
  102530:	e58d30a8 	str	r3, [sp, #168]	; 0xa8
  102534:	e58d20ac 	str	r2, [sp, #172]	; 0xac
  102538:	e5879000 	str	r9, [r7]
  10253c:	e5874004 	str	r4, [r7, #4]
  102540:	da000006 	ble	102560 <_vfprintf_r+0xe50>
  102544:	e59d0030 	ldr	r0, [sp, #48]	; 0x30
  102548:	e28d20a4 	add	r2, sp, #164	; 0xa4
  10254c:	e59d1034 	ldr	r1, [sp, #52]	; 0x34
  102550:	eb001573 	bl	107b24 <__sprint_r>
  102554:	e3500000 	cmp	r0, #0
  102558:	1a0000f3 	bne	10292c <_vfprintf_r+0x121c>
  10255c:	e59d20ac 	ldr	r2, [sp, #172]	; 0xac
  102560:	e59dc044 	ldr	ip, [sp, #68]	; 0x44
  102564:	e59d302c 	ldr	r3, [sp, #44]	; 0x2c
  102568:	e59d003c 	ldr	r0, [sp, #60]	; 0x3c
  10256c:	e1530000 	cmp	r3, r0
  102570:	a08cc003 	addge	ip, ip, r3
  102574:	b08cc000 	addlt	ip, ip, r0
  102578:	e3520000 	cmp	r2, #0
  10257c:	e58dc044 	str	ip, [sp, #68]	; 0x44
  102580:	1a0000e3 	bne	102914 <_vfprintf_r+0x1204>
  102584:	e3a03000 	mov	r3, #0
  102588:	e28d70d8 	add	r7, sp, #216	; 0xd8
  10258c:	e58d30a8 	str	r3, [sp, #168]	; 0xa8
  102590:	eafffca1 	b	10181c <_vfprintf_r+0x10c>
  102594:	e3580065 	cmp	r8, #101	; 0x65
  102598:	da0000a2 	ble	102828 <_vfprintf_r+0x1118>
  10259c:	eeb58b40 	vcmp.f64	d8, #0.0
  1025a0:	eef1fa10 	vmrs	APSR_nzcv, fpscr
  1025a4:	1a0000f8 	bne	10298c <_vfprintf_r+0x127c>
  1025a8:	e59d30a8 	ldr	r3, [sp, #168]	; 0xa8
  1025ac:	e3a01001 	mov	r1, #1
  1025b0:	e59dc054 	ldr	ip, [sp, #84]	; 0x54
  1025b4:	e2822001 	add	r2, r2, #1
  1025b8:	e0833001 	add	r3, r3, r1
  1025bc:	e5871004 	str	r1, [r7, #4]
  1025c0:	e3530007 	cmp	r3, #7
  1025c4:	e58d20ac 	str	r2, [sp, #172]	; 0xac
  1025c8:	e587c000 	str	ip, [r7]
  1025cc:	d2877008 	addle	r7, r7, #8
  1025d0:	e58d30a8 	str	r3, [sp, #168]	; 0xa8
  1025d4:	ca00029f 	bgt	103058 <_vfprintf_r+0x1948>
  1025d8:	e59d308c 	ldr	r3, [sp, #140]	; 0x8c
  1025dc:	e59dc048 	ldr	ip, [sp, #72]	; 0x48
  1025e0:	e153000c 	cmp	r3, ip
  1025e4:	ba000002 	blt	1025f4 <_vfprintf_r+0xee4>
  1025e8:	e59dc020 	ldr	ip, [sp, #32]
  1025ec:	e31c0001 	tst	ip, #1
  1025f0:	0affffa1 	beq	10247c <_vfprintf_r+0xd6c>
  1025f4:	e59dc064 	ldr	ip, [sp, #100]	; 0x64
  1025f8:	e59d30a8 	ldr	r3, [sp, #168]	; 0xa8
  1025fc:	e082200c 	add	r2, r2, ip
  102600:	e59dc05c 	ldr	ip, [sp, #92]	; 0x5c
  102604:	e2833001 	add	r3, r3, #1
  102608:	e58d20ac 	str	r2, [sp, #172]	; 0xac
  10260c:	e3530007 	cmp	r3, #7
  102610:	e58d30a8 	str	r3, [sp, #168]	; 0xa8
  102614:	e587c000 	str	ip, [r7]
  102618:	e59dc064 	ldr	ip, [sp, #100]	; 0x64
  10261c:	e587c004 	str	ip, [r7, #4]
  102620:	d2877008 	addle	r7, r7, #8
  102624:	ca0002f0 	bgt	1031ec <_vfprintf_r+0x1adc>
  102628:	e59dc048 	ldr	ip, [sp, #72]	; 0x48
  10262c:	e24c5001 	sub	r5, ip, #1
  102630:	e3550000 	cmp	r5, #0
  102634:	daffff90 	ble	10247c <_vfprintf_r+0xd6c>
  102638:	e3550010 	cmp	r5, #16
  10263c:	e59d30a8 	ldr	r3, [sp, #168]	; 0xa8
  102640:	e51f4b50 	ldr	r4, [pc, #-2896]	; 101af8 <_vfprintf_r+0x3e8>
  102644:	da00013a 	ble	102b34 <_vfprintf_r+0x1424>
  102648:	e3a06010 	mov	r6, #16
  10264c:	e59d8030 	ldr	r8, [sp, #48]	; 0x30
  102650:	e59d9034 	ldr	r9, [sp, #52]	; 0x34
  102654:	ea000002 	b	102664 <_vfprintf_r+0xf54>
  102658:	e2455010 	sub	r5, r5, #16
  10265c:	e3550010 	cmp	r5, #16
  102660:	da000133 	ble	102b34 <_vfprintf_r+0x1424>
  102664:	e2833001 	add	r3, r3, #1
  102668:	e2822010 	add	r2, r2, #16
  10266c:	e3530007 	cmp	r3, #7
  102670:	e587b000 	str	fp, [r7]
  102674:	e5876004 	str	r6, [r7, #4]
  102678:	e2877008 	add	r7, r7, #8
  10267c:	e58d30a8 	str	r3, [sp, #168]	; 0xa8
  102680:	e58d20ac 	str	r2, [sp, #172]	; 0xac
  102684:	dafffff3 	ble	102658 <_vfprintf_r+0xf48>
  102688:	e1a00008 	mov	r0, r8
  10268c:	e1a01009 	mov	r1, r9
  102690:	e28d20a4 	add	r2, sp, #164	; 0xa4
  102694:	e28d70d8 	add	r7, sp, #216	; 0xd8
  102698:	eb001521 	bl	107b24 <__sprint_r>
  10269c:	e3500000 	cmp	r0, #0
  1026a0:	1a00000a 	bne	1026d0 <_vfprintf_r+0xfc0>
  1026a4:	e59d20ac 	ldr	r2, [sp, #172]	; 0xac
  1026a8:	e59d30a8 	ldr	r3, [sp, #168]	; 0xa8
  1026ac:	eaffffe9 	b	102658 <_vfprintf_r+0xf48>
  1026b0:	e59d30ac 	ldr	r3, [sp, #172]	; 0xac
  1026b4:	e59d9034 	ldr	r9, [sp, #52]	; 0x34
  1026b8:	e3530000 	cmp	r3, #0
  1026bc:	0a000003 	beq	1026d0 <_vfprintf_r+0xfc0>
  1026c0:	e59d0030 	ldr	r0, [sp, #48]	; 0x30
  1026c4:	e1a01009 	mov	r1, r9
  1026c8:	e28d20a4 	add	r2, sp, #164	; 0xa4
  1026cc:	eb001514 	bl	107b24 <__sprint_r>
  1026d0:	e1d930bc 	ldrh	r3, [r9, #12]
  1026d4:	e3130040 	tst	r3, #64	; 0x40
  1026d8:	1afffce7 	bne	101a7c <_vfprintf_r+0x36c>
  1026dc:	e59d0044 	ldr	r0, [sp, #68]	; 0x44
  1026e0:	e28ddf47 	add	sp, sp, #284	; 0x11c
  1026e4:	ecbd8b04 	vpop	{d8-d9}
  1026e8:	e8bd8ff0 	pop	{r4, r5, r6, r7, r8, r9, sl, fp, pc}
  1026ec:	e3530000 	cmp	r3, #0
  1026f0:	128d60d8 	addne	r6, sp, #216	; 0xd8
  1026f4:	11a05002 	movne	r5, r2
  1026f8:	1afffd2b 	bne	101bac <_vfprintf_r+0x49c>
  1026fc:	e59dc020 	ldr	ip, [sp, #32]
  102700:	e31c0001 	tst	ip, #1
  102704:	128d60d7 	addne	r6, sp, #215	; 0xd7
  102708:	028d60d8 	addeq	r6, sp, #216	; 0xd8
  10270c:	13a03030 	movne	r3, #48	; 0x30
  102710:	159d507c 	ldrne	r5, [sp, #124]	; 0x7c
  102714:	15cd30d7 	strbne	r3, [sp, #215]	; 0xd7
  102718:	01a05003 	moveq	r5, r3
  10271c:	eafffd22 	b	101bac <_vfprintf_r+0x49c>
  102720:	e59dc03c 	ldr	ip, [sp, #60]	; 0x3c
  102724:	e59d302c 	ldr	r3, [sp, #44]	; 0x2c
  102728:	e063900c 	rsb	r9, r3, ip
  10272c:	e3590000 	cmp	r9, #0
  102730:	daffff04 	ble	102348 <_vfprintf_r+0xc38>
  102734:	e3590010 	cmp	r9, #16
  102738:	e59d30a8 	ldr	r3, [sp, #168]	; 0xa8
  10273c:	e51f4c4c 	ldr	r4, [pc, #-3148]	; 101af8 <_vfprintf_r+0x3e8>
  102740:	da000027 	ble	1027e4 <_vfprintf_r+0x10d4>
  102744:	e58d6038 	str	r6, [sp, #56]	; 0x38
  102748:	e3a0a010 	mov	sl, #16
  10274c:	e58d504c 	str	r5, [sp, #76]	; 0x4c
  102750:	e1a06007 	mov	r6, r7
  102754:	e1a01003 	mov	r1, r3
  102758:	e1a07009 	mov	r7, r9
  10275c:	e59d5034 	ldr	r5, [sp, #52]	; 0x34
  102760:	e1a09004 	mov	r9, r4
  102764:	e59d4030 	ldr	r4, [sp, #48]	; 0x30
  102768:	ea000002 	b	102778 <_vfprintf_r+0x1068>
  10276c:	e2477010 	sub	r7, r7, #16
  102770:	e3570010 	cmp	r7, #16
  102774:	da000014 	ble	1027cc <_vfprintf_r+0x10bc>
  102778:	e2811001 	add	r1, r1, #1
  10277c:	e2822010 	add	r2, r2, #16
  102780:	e3510007 	cmp	r1, #7
  102784:	e586b000 	str	fp, [r6]
  102788:	e586a004 	str	sl, [r6, #4]
  10278c:	e2866008 	add	r6, r6, #8
  102790:	e58d10a8 	str	r1, [sp, #168]	; 0xa8
  102794:	e58d20ac 	str	r2, [sp, #172]	; 0xac
  102798:	dafffff3 	ble	10276c <_vfprintf_r+0x105c>
  10279c:	e1a00004 	mov	r0, r4
  1027a0:	e1a01005 	mov	r1, r5
  1027a4:	e28d20a4 	add	r2, sp, #164	; 0xa4
  1027a8:	e28d60d8 	add	r6, sp, #216	; 0xd8
  1027ac:	eb0014dc 	bl	107b24 <__sprint_r>
  1027b0:	e3500000 	cmp	r0, #0
  1027b4:	1a00005e 	bne	102934 <_vfprintf_r+0x1224>
  1027b8:	e2477010 	sub	r7, r7, #16
  1027bc:	e59d20ac 	ldr	r2, [sp, #172]	; 0xac
  1027c0:	e3570010 	cmp	r7, #16
  1027c4:	e59d10a8 	ldr	r1, [sp, #168]	; 0xa8
  1027c8:	caffffea 	bgt	102778 <_vfprintf_r+0x1068>
  1027cc:	e1a04009 	mov	r4, r9
  1027d0:	e59d504c 	ldr	r5, [sp, #76]	; 0x4c
  1027d4:	e1a09007 	mov	r9, r7
  1027d8:	e1a07006 	mov	r7, r6
  1027dc:	e59d6038 	ldr	r6, [sp, #56]	; 0x38
  1027e0:	e1a03001 	mov	r3, r1
  1027e4:	e2833001 	add	r3, r3, #1
  1027e8:	e0822009 	add	r2, r2, r9
  1027ec:	e3530007 	cmp	r3, #7
  1027f0:	e8870210 	stm	r7, {r4, r9}
  1027f4:	e58d30a8 	str	r3, [sp, #168]	; 0xa8
  1027f8:	d2877008 	addle	r7, r7, #8
  1027fc:	e58d20ac 	str	r2, [sp, #172]	; 0xac
  102800:	dafffed0 	ble	102348 <_vfprintf_r+0xc38>
  102804:	e59d0030 	ldr	r0, [sp, #48]	; 0x30
  102808:	e28d20a4 	add	r2, sp, #164	; 0xa4
  10280c:	e59d1034 	ldr	r1, [sp, #52]	; 0x34
  102810:	eb0014c3 	bl	107b24 <__sprint_r>
  102814:	e3500000 	cmp	r0, #0
  102818:	1a000043 	bne	10292c <_vfprintf_r+0x121c>
  10281c:	e59d20ac 	ldr	r2, [sp, #172]	; 0xac
  102820:	e28d70d8 	add	r7, sp, #216	; 0xd8
  102824:	eafffec7 	b	102348 <_vfprintf_r+0xc38>
  102828:	e59dc048 	ldr	ip, [sp, #72]	; 0x48
  10282c:	e2822001 	add	r2, r2, #1
  102830:	e59d30a8 	ldr	r3, [sp, #168]	; 0xa8
  102834:	e35c0001 	cmp	ip, #1
  102838:	da00012b 	ble	102cec <_vfprintf_r+0x15dc>
  10283c:	e3a01001 	mov	r1, #1
  102840:	e0833001 	add	r3, r3, r1
  102844:	e3530007 	cmp	r3, #7
  102848:	e5876000 	str	r6, [r7]
  10284c:	e58d20ac 	str	r2, [sp, #172]	; 0xac
  102850:	e58d30a8 	str	r3, [sp, #168]	; 0xa8
  102854:	e5871004 	str	r1, [r7, #4]
  102858:	d2877008 	addle	r7, r7, #8
  10285c:	ca000141 	bgt	102d68 <_vfprintf_r+0x1658>
  102860:	e59dc064 	ldr	ip, [sp, #100]	; 0x64
  102864:	e2833001 	add	r3, r3, #1
  102868:	e3530007 	cmp	r3, #7
  10286c:	e58d30a8 	str	r3, [sp, #168]	; 0xa8
  102870:	e082200c 	add	r2, r2, ip
  102874:	e59dc05c 	ldr	ip, [sp, #92]	; 0x5c
  102878:	e58d20ac 	str	r2, [sp, #172]	; 0xac
  10287c:	e587c000 	str	ip, [r7]
  102880:	e59dc064 	ldr	ip, [sp, #100]	; 0x64
  102884:	e587c004 	str	ip, [r7, #4]
  102888:	d2877008 	addle	r7, r7, #8
  10288c:	ca00012b 	bgt	102d40 <_vfprintf_r+0x1630>
  102890:	eeb58b40 	vcmp.f64	d8, #0.0
  102894:	eef1fa10 	vmrs	APSR_nzcv, fpscr
  102898:	0a00007e 	beq	102a98 <_vfprintf_r+0x1388>
  10289c:	e2833001 	add	r3, r3, #1
  1028a0:	e59dc048 	ldr	ip, [sp, #72]	; 0x48
  1028a4:	e3530007 	cmp	r3, #7
  1028a8:	e2866001 	add	r6, r6, #1
  1028ac:	e24c1001 	sub	r1, ip, #1
  1028b0:	e58d30a8 	str	r3, [sp, #168]	; 0xa8
  1028b4:	e0822001 	add	r2, r2, r1
  1028b8:	e5876000 	str	r6, [r7]
  1028bc:	e58d20ac 	str	r2, [sp, #172]	; 0xac
  1028c0:	e5871004 	str	r1, [r7, #4]
  1028c4:	ca000113 	bgt	102d18 <_vfprintf_r+0x1608>
  1028c8:	e2877008 	add	r7, r7, #8
  1028cc:	e2833001 	add	r3, r3, #1
  1028d0:	e59dc06c 	ldr	ip, [sp, #108]	; 0x6c
  1028d4:	e3530007 	cmp	r3, #7
  1028d8:	e58d30a8 	str	r3, [sp, #168]	; 0xa8
  1028dc:	e08c2002 	add	r2, ip, r2
  1028e0:	e28d3094 	add	r3, sp, #148	; 0x94
  1028e4:	e58d20ac 	str	r2, [sp, #172]	; 0xac
  1028e8:	e8871008 	stm	r7, {r3, ip}
  1028ec:	dafffee1 	ble	102478 <_vfprintf_r+0xd68>
  1028f0:	e59d0030 	ldr	r0, [sp, #48]	; 0x30
  1028f4:	e28d20a4 	add	r2, sp, #164	; 0xa4
  1028f8:	e59d1034 	ldr	r1, [sp, #52]	; 0x34
  1028fc:	eb001488 	bl	107b24 <__sprint_r>
  102900:	e3500000 	cmp	r0, #0
  102904:	1a000008 	bne	10292c <_vfprintf_r+0x121c>
  102908:	e59d20ac 	ldr	r2, [sp, #172]	; 0xac
  10290c:	e28d70d8 	add	r7, sp, #216	; 0xd8
  102910:	eafffed9 	b	10247c <_vfprintf_r+0xd6c>
  102914:	e59d0030 	ldr	r0, [sp, #48]	; 0x30
  102918:	e28d20a4 	add	r2, sp, #164	; 0xa4
  10291c:	e59d1034 	ldr	r1, [sp, #52]	; 0x34
  102920:	eb00147f 	bl	107b24 <__sprint_r>
  102924:	e3500000 	cmp	r0, #0
  102928:	0affff15 	beq	102584 <_vfprintf_r+0xe74>
  10292c:	e59d9034 	ldr	r9, [sp, #52]	; 0x34
  102930:	eaffff66 	b	1026d0 <_vfprintf_r+0xfc0>
  102934:	e1a09005 	mov	r9, r5
  102938:	eaffff64 	b	1026d0 <_vfprintf_r+0xfc0>
  10293c:	e59d0030 	ldr	r0, [sp, #48]	; 0x30
  102940:	e28d20a4 	add	r2, sp, #164	; 0xa4
  102944:	e59d1034 	ldr	r1, [sp, #52]	; 0x34
  102948:	eb001475 	bl	107b24 <__sprint_r>
  10294c:	e3500000 	cmp	r0, #0
  102950:	1afffff5 	bne	10292c <_vfprintf_r+0x121c>
  102954:	e59d20ac 	ldr	r2, [sp, #172]	; 0xac
  102958:	e28d70d8 	add	r7, sp, #216	; 0xd8
  10295c:	eafffe67 	b	102300 <_vfprintf_r+0xbf0>
  102960:	e59d0030 	ldr	r0, [sp, #48]	; 0x30
  102964:	e28d20a4 	add	r2, sp, #164	; 0xa4
  102968:	e59d1034 	ldr	r1, [sp, #52]	; 0x34
  10296c:	eb00146c 	bl	107b24 <__sprint_r>
  102970:	e3500000 	cmp	r0, #0
  102974:	1affffec 	bne	10292c <_vfprintf_r+0x121c>
  102978:	e59d20ac 	ldr	r2, [sp, #172]	; 0xac
  10297c:	e28d70d8 	add	r7, sp, #216	; 0xd8
  102980:	eafffe6d 	b	10233c <_vfprintf_r+0xc2c>
  102984:	e3a03002 	mov	r3, #2
  102988:	eafffc66 	b	101b28 <_vfprintf_r+0x418>
  10298c:	e59d508c 	ldr	r5, [sp, #140]	; 0x8c
  102990:	e3550000 	cmp	r5, #0
  102994:	da0001b8 	ble	10307c <_vfprintf_r+0x196c>
  102998:	e59d4048 	ldr	r4, [sp, #72]	; 0x48
  10299c:	e59d3058 	ldr	r3, [sp, #88]	; 0x58
  1029a0:	e59dc048 	ldr	ip, [sp, #72]	; 0x48
  1029a4:	e1540003 	cmp	r4, r3
  1029a8:	a1a04003 	movge	r4, r3
  1029ac:	e3540000 	cmp	r4, #0
  1029b0:	e086900c 	add	r9, r6, ip
  1029b4:	da000009 	ble	1029e0 <_vfprintf_r+0x12d0>
  1029b8:	e59d30a8 	ldr	r3, [sp, #168]	; 0xa8
  1029bc:	e0822004 	add	r2, r2, r4
  1029c0:	e5876000 	str	r6, [r7]
  1029c4:	e2833001 	add	r3, r3, #1
  1029c8:	e5874004 	str	r4, [r7, #4]
  1029cc:	e3530007 	cmp	r3, #7
  1029d0:	e58d20ac 	str	r2, [sp, #172]	; 0xac
  1029d4:	e58d30a8 	str	r3, [sp, #168]	; 0xa8
  1029d8:	d2877008 	addle	r7, r7, #8
  1029dc:	ca000235 	bgt	1032b8 <_vfprintf_r+0x1ba8>
  1029e0:	e59d3058 	ldr	r3, [sp, #88]	; 0x58
  1029e4:	e1c44fc4 	bic	r4, r4, r4, asr #31
  1029e8:	e0645003 	rsb	r5, r4, r3
  1029ec:	e3550000 	cmp	r5, #0
  1029f0:	da000068 	ble	102b98 <_vfprintf_r+0x1488>
  1029f4:	e3550010 	cmp	r5, #16
  1029f8:	e59d30a8 	ldr	r3, [sp, #168]	; 0xa8
  1029fc:	e51f4f0c 	ldr	r4, [pc, #-3852]	; 101af8 <_vfprintf_r+0x3e8>
  102a00:	da000054 	ble	102b58 <_vfprintf_r+0x1448>
  102a04:	e58d4028 	str	r4, [sp, #40]	; 0x28
  102a08:	e3a08010 	mov	r8, #16
  102a0c:	e59da030 	ldr	sl, [sp, #48]	; 0x30
  102a10:	e59d4034 	ldr	r4, [sp, #52]	; 0x34
  102a14:	ea000002 	b	102a24 <_vfprintf_r+0x1314>
  102a18:	e2455010 	sub	r5, r5, #16
  102a1c:	e3550010 	cmp	r5, #16
  102a20:	da00004b 	ble	102b54 <_vfprintf_r+0x1444>
  102a24:	e2833001 	add	r3, r3, #1
  102a28:	e2822010 	add	r2, r2, #16
  102a2c:	e3530007 	cmp	r3, #7
  102a30:	e587b000 	str	fp, [r7]
  102a34:	e5878004 	str	r8, [r7, #4]
  102a38:	e2877008 	add	r7, r7, #8
  102a3c:	e58d30a8 	str	r3, [sp, #168]	; 0xa8
  102a40:	e58d20ac 	str	r2, [sp, #172]	; 0xac
  102a44:	dafffff3 	ble	102a18 <_vfprintf_r+0x1308>
  102a48:	e1a0000a 	mov	r0, sl
  102a4c:	e1a01004 	mov	r1, r4
  102a50:	e28d20a4 	add	r2, sp, #164	; 0xa4
  102a54:	e28d70d8 	add	r7, sp, #216	; 0xd8
  102a58:	eb001431 	bl	107b24 <__sprint_r>
  102a5c:	e3500000 	cmp	r0, #0
  102a60:	1a000239 	bne	10334c <_vfprintf_r+0x1c3c>
  102a64:	e59d20ac 	ldr	r2, [sp, #172]	; 0xac
  102a68:	e59d30a8 	ldr	r3, [sp, #168]	; 0xa8
  102a6c:	eaffffe9 	b	102a18 <_vfprintf_r+0x1308>
  102a70:	e3550000 	cmp	r5, #0
  102a74:	03540009 	cmpeq	r4, #9
  102a78:	8a0000cc 	bhi	102db0 <_vfprintf_r+0x16a0>
  102a7c:	e2844030 	add	r4, r4, #48	; 0x30
  102a80:	e59d507c 	ldr	r5, [sp, #124]	; 0x7c
  102a84:	e5cd40d7 	strb	r4, [sp, #215]	; 0xd7
  102a88:	e28d60d7 	add	r6, sp, #215	; 0xd7
  102a8c:	eafffc46 	b	101bac <_vfprintf_r+0x49c>
  102a90:	e1a09006 	mov	r9, r6
  102a94:	eaffff0d 	b	1026d0 <_vfprintf_r+0xfc0>
  102a98:	e59dc048 	ldr	ip, [sp, #72]	; 0x48
  102a9c:	e24c5001 	sub	r5, ip, #1
  102aa0:	e3550000 	cmp	r5, #0
  102aa4:	daffff88 	ble	1028cc <_vfprintf_r+0x11bc>
  102aa8:	e3550010 	cmp	r5, #16
  102aac:	e51f4fbc 	ldr	r4, [pc, #-4028]	; 101af8 <_vfprintf_r+0x3e8>
  102ab0:	da0000b6 	ble	102d90 <_vfprintf_r+0x1680>
  102ab4:	e3a06010 	mov	r6, #16
  102ab8:	e59d8030 	ldr	r8, [sp, #48]	; 0x30
  102abc:	e59d9034 	ldr	r9, [sp, #52]	; 0x34
  102ac0:	ea000002 	b	102ad0 <_vfprintf_r+0x13c0>
  102ac4:	e2455010 	sub	r5, r5, #16
  102ac8:	e3550010 	cmp	r5, #16
  102acc:	da0000af 	ble	102d90 <_vfprintf_r+0x1680>
  102ad0:	e2833001 	add	r3, r3, #1
  102ad4:	e2822010 	add	r2, r2, #16
  102ad8:	e3530007 	cmp	r3, #7
  102adc:	e587b000 	str	fp, [r7]
  102ae0:	e5876004 	str	r6, [r7, #4]
  102ae4:	e2877008 	add	r7, r7, #8
  102ae8:	e58d30a8 	str	r3, [sp, #168]	; 0xa8
  102aec:	e58d20ac 	str	r2, [sp, #172]	; 0xac
  102af0:	dafffff3 	ble	102ac4 <_vfprintf_r+0x13b4>
  102af4:	e1a00008 	mov	r0, r8
  102af8:	e1a01009 	mov	r1, r9
  102afc:	e28d20a4 	add	r2, sp, #164	; 0xa4
  102b00:	e28d70d8 	add	r7, sp, #216	; 0xd8
  102b04:	eb001406 	bl	107b24 <__sprint_r>
  102b08:	e3500000 	cmp	r0, #0
  102b0c:	1afffeef 	bne	1026d0 <_vfprintf_r+0xfc0>
  102b10:	e59d20ac 	ldr	r2, [sp, #172]	; 0xac
  102b14:	e59d30a8 	ldr	r3, [sp, #168]	; 0xa8
  102b18:	eaffffe9 	b	102ac4 <_vfprintf_r+0x13b4>
  102b1c:	e59dc040 	ldr	ip, [sp, #64]	; 0x40
  102b20:	e3a05000 	mov	r5, #0
  102b24:	e28cc004 	add	ip, ip, #4
  102b28:	e51c4004 	ldr	r4, [ip, #-4]
  102b2c:	e58dc040 	str	ip, [sp, #64]	; 0x40
  102b30:	eafffbfc 	b	101b28 <_vfprintf_r+0x418>
  102b34:	e2833001 	add	r3, r3, #1
  102b38:	e0822005 	add	r2, r2, r5
  102b3c:	e3530007 	cmp	r3, #7
  102b40:	e58d30a8 	str	r3, [sp, #168]	; 0xa8
  102b44:	e58d20ac 	str	r2, [sp, #172]	; 0xac
  102b48:	e8870030 	stm	r7, {r4, r5}
  102b4c:	dafffe49 	ble	102478 <_vfprintf_r+0xd68>
  102b50:	eaffff66 	b	1028f0 <_vfprintf_r+0x11e0>
  102b54:	e59d4028 	ldr	r4, [sp, #40]	; 0x28
  102b58:	e2833001 	add	r3, r3, #1
  102b5c:	e0822005 	add	r2, r2, r5
  102b60:	e3530007 	cmp	r3, #7
  102b64:	e8870030 	stm	r7, {r4, r5}
  102b68:	e58d30a8 	str	r3, [sp, #168]	; 0xa8
  102b6c:	d2877008 	addle	r7, r7, #8
  102b70:	e58d20ac 	str	r2, [sp, #172]	; 0xac
  102b74:	da000007 	ble	102b98 <_vfprintf_r+0x1488>
  102b78:	e59d0030 	ldr	r0, [sp, #48]	; 0x30
  102b7c:	e28d20a4 	add	r2, sp, #164	; 0xa4
  102b80:	e59d1034 	ldr	r1, [sp, #52]	; 0x34
  102b84:	eb0013e6 	bl	107b24 <__sprint_r>
  102b88:	e3500000 	cmp	r0, #0
  102b8c:	1affff66 	bne	10292c <_vfprintf_r+0x121c>
  102b90:	e59d20ac 	ldr	r2, [sp, #172]	; 0xac
  102b94:	e28d70d8 	add	r7, sp, #216	; 0xd8
  102b98:	e59dc058 	ldr	ip, [sp, #88]	; 0x58
  102b9c:	e59d508c 	ldr	r5, [sp, #140]	; 0x8c
  102ba0:	e086600c 	add	r6, r6, ip
  102ba4:	e59dc048 	ldr	ip, [sp, #72]	; 0x48
  102ba8:	e155000c 	cmp	r5, ip
  102bac:	ba000035 	blt	102c88 <_vfprintf_r+0x1578>
  102bb0:	e59dc020 	ldr	ip, [sp, #32]
  102bb4:	e31c0001 	tst	ip, #1
  102bb8:	1a000032 	bne	102c88 <_vfprintf_r+0x1578>
  102bbc:	e59dc048 	ldr	ip, [sp, #72]	; 0x48
  102bc0:	e0664009 	rsb	r4, r6, r9
  102bc4:	e065500c 	rsb	r5, r5, ip
  102bc8:	e1540005 	cmp	r4, r5
  102bcc:	a1a04005 	movge	r4, r5
  102bd0:	e3540000 	cmp	r4, #0
  102bd4:	da000009 	ble	102c00 <_vfprintf_r+0x14f0>
  102bd8:	e59d30a8 	ldr	r3, [sp, #168]	; 0xa8
  102bdc:	e0822004 	add	r2, r2, r4
  102be0:	e5876000 	str	r6, [r7]
  102be4:	e2833001 	add	r3, r3, #1
  102be8:	e5874004 	str	r4, [r7, #4]
  102bec:	e3530007 	cmp	r3, #7
  102bf0:	e58d20ac 	str	r2, [sp, #172]	; 0xac
  102bf4:	e58d30a8 	str	r3, [sp, #168]	; 0xa8
  102bf8:	d2877008 	addle	r7, r7, #8
  102bfc:	ca0001b6 	bgt	1032dc <_vfprintf_r+0x1bcc>
  102c00:	e1c44fc4 	bic	r4, r4, r4, asr #31
  102c04:	e0645005 	rsb	r5, r4, r5
  102c08:	e3550000 	cmp	r5, #0
  102c0c:	dafffe1a 	ble	10247c <_vfprintf_r+0xd6c>
  102c10:	e3550010 	cmp	r5, #16
  102c14:	e59d30a8 	ldr	r3, [sp, #168]	; 0xa8
  102c18:	e59f4a48 	ldr	r4, [pc, #2632]	; 103668 <_vfprintf_r+0x1f58>
  102c1c:	daffffc4 	ble	102b34 <_vfprintf_r+0x1424>
  102c20:	e3a06010 	mov	r6, #16
  102c24:	e59d8030 	ldr	r8, [sp, #48]	; 0x30
  102c28:	e59d9034 	ldr	r9, [sp, #52]	; 0x34
  102c2c:	ea000002 	b	102c3c <_vfprintf_r+0x152c>
  102c30:	e2455010 	sub	r5, r5, #16
  102c34:	e3550010 	cmp	r5, #16
  102c38:	daffffbd 	ble	102b34 <_vfprintf_r+0x1424>
  102c3c:	e2833001 	add	r3, r3, #1
  102c40:	e2822010 	add	r2, r2, #16
  102c44:	e3530007 	cmp	r3, #7
  102c48:	e587b000 	str	fp, [r7]
  102c4c:	e5876004 	str	r6, [r7, #4]
  102c50:	e2877008 	add	r7, r7, #8
  102c54:	e58d30a8 	str	r3, [sp, #168]	; 0xa8
  102c58:	e58d20ac 	str	r2, [sp, #172]	; 0xac
  102c5c:	dafffff3 	ble	102c30 <_vfprintf_r+0x1520>
  102c60:	e1a00008 	mov	r0, r8
  102c64:	e1a01009 	mov	r1, r9
  102c68:	e28d20a4 	add	r2, sp, #164	; 0xa4
  102c6c:	e28d70d8 	add	r7, sp, #216	; 0xd8
  102c70:	eb0013ab 	bl	107b24 <__sprint_r>
  102c74:	e3500000 	cmp	r0, #0
  102c78:	1afffe94 	bne	1026d0 <_vfprintf_r+0xfc0>
  102c7c:	e59d20ac 	ldr	r2, [sp, #172]	; 0xac
  102c80:	e59d30a8 	ldr	r3, [sp, #168]	; 0xa8
  102c84:	eaffffe9 	b	102c30 <_vfprintf_r+0x1520>
  102c88:	e59dc064 	ldr	ip, [sp, #100]	; 0x64
  102c8c:	e59d30a8 	ldr	r3, [sp, #168]	; 0xa8
  102c90:	e082200c 	add	r2, r2, ip
  102c94:	e59dc05c 	ldr	ip, [sp, #92]	; 0x5c
  102c98:	e2833001 	add	r3, r3, #1
  102c9c:	e58d20ac 	str	r2, [sp, #172]	; 0xac
  102ca0:	e3530007 	cmp	r3, #7
  102ca4:	e58d30a8 	str	r3, [sp, #168]	; 0xa8
  102ca8:	e587c000 	str	ip, [r7]
  102cac:	e59dc064 	ldr	ip, [sp, #100]	; 0x64
  102cb0:	e587c004 	str	ip, [r7, #4]
  102cb4:	d2877008 	addle	r7, r7, #8
  102cb8:	daffffbf 	ble	102bbc <_vfprintf_r+0x14ac>
  102cbc:	e59d0030 	ldr	r0, [sp, #48]	; 0x30
  102cc0:	e28d20a4 	add	r2, sp, #164	; 0xa4
  102cc4:	e59d1034 	ldr	r1, [sp, #52]	; 0x34
  102cc8:	eb001395 	bl	107b24 <__sprint_r>
  102ccc:	e3500000 	cmp	r0, #0
  102cd0:	1affff15 	bne	10292c <_vfprintf_r+0x121c>
  102cd4:	e59d508c 	ldr	r5, [sp, #140]	; 0x8c
  102cd8:	e28d70d8 	add	r7, sp, #216	; 0xd8
  102cdc:	e59d20ac 	ldr	r2, [sp, #172]	; 0xac
  102ce0:	eaffffb5 	b	102bbc <_vfprintf_r+0x14ac>
  102ce4:	e1a09008 	mov	r9, r8
  102ce8:	eafffe78 	b	1026d0 <_vfprintf_r+0xfc0>
  102cec:	e59dc020 	ldr	ip, [sp, #32]
  102cf0:	e31c0001 	tst	ip, #1
  102cf4:	1afffed0 	bne	10283c <_vfprintf_r+0x112c>
  102cf8:	e3a01001 	mov	r1, #1
  102cfc:	e0833001 	add	r3, r3, r1
  102d00:	e3530007 	cmp	r3, #7
  102d04:	e58d20ac 	str	r2, [sp, #172]	; 0xac
  102d08:	e58d30a8 	str	r3, [sp, #168]	; 0xa8
  102d0c:	e5876000 	str	r6, [r7]
  102d10:	e5871004 	str	r1, [r7, #4]
  102d14:	dafffeeb 	ble	1028c8 <_vfprintf_r+0x11b8>
  102d18:	e59d0030 	ldr	r0, [sp, #48]	; 0x30
  102d1c:	e28d20a4 	add	r2, sp, #164	; 0xa4
  102d20:	e59d1034 	ldr	r1, [sp, #52]	; 0x34
  102d24:	eb00137e 	bl	107b24 <__sprint_r>
  102d28:	e3500000 	cmp	r0, #0
  102d2c:	1afffefe 	bne	10292c <_vfprintf_r+0x121c>
  102d30:	e59d20ac 	ldr	r2, [sp, #172]	; 0xac
  102d34:	e28d70d8 	add	r7, sp, #216	; 0xd8
  102d38:	e59d30a8 	ldr	r3, [sp, #168]	; 0xa8
  102d3c:	eafffee2 	b	1028cc <_vfprintf_r+0x11bc>
  102d40:	e59d0030 	ldr	r0, [sp, #48]	; 0x30
  102d44:	e28d20a4 	add	r2, sp, #164	; 0xa4
  102d48:	e59d1034 	ldr	r1, [sp, #52]	; 0x34
  102d4c:	eb001374 	bl	107b24 <__sprint_r>
  102d50:	e3500000 	cmp	r0, #0
  102d54:	1afffef4 	bne	10292c <_vfprintf_r+0x121c>
  102d58:	e59d20ac 	ldr	r2, [sp, #172]	; 0xac
  102d5c:	e28d70d8 	add	r7, sp, #216	; 0xd8
  102d60:	e59d30a8 	ldr	r3, [sp, #168]	; 0xa8
  102d64:	eafffec9 	b	102890 <_vfprintf_r+0x1180>
  102d68:	e59d0030 	ldr	r0, [sp, #48]	; 0x30
  102d6c:	e28d20a4 	add	r2, sp, #164	; 0xa4
  102d70:	e59d1034 	ldr	r1, [sp, #52]	; 0x34
  102d74:	eb00136a 	bl	107b24 <__sprint_r>
  102d78:	e3500000 	cmp	r0, #0
  102d7c:	1afffeea 	bne	10292c <_vfprintf_r+0x121c>
  102d80:	e59d20ac 	ldr	r2, [sp, #172]	; 0xac
  102d84:	e28d70d8 	add	r7, sp, #216	; 0xd8
  102d88:	e59d30a8 	ldr	r3, [sp, #168]	; 0xa8
  102d8c:	eafffeb3 	b	102860 <_vfprintf_r+0x1150>
  102d90:	e2833001 	add	r3, r3, #1
  102d94:	e0822005 	add	r2, r2, r5
  102d98:	e3530007 	cmp	r3, #7
  102d9c:	e58d30a8 	str	r3, [sp, #168]	; 0xa8
  102da0:	e58d20ac 	str	r2, [sp, #172]	; 0xac
  102da4:	e8870030 	stm	r7, {r4, r5}
  102da8:	dafffec6 	ble	1028c8 <_vfprintf_r+0x11b8>
  102dac:	eaffffd9 	b	102d18 <_vfprintf_r+0x1608>
  102db0:	e28da0d7 	add	sl, sp, #215	; 0xd7
  102db4:	e1a00004 	mov	r0, r4
  102db8:	e1a01005 	mov	r1, r5
  102dbc:	e3a0200a 	mov	r2, #10
  102dc0:	e3a03000 	mov	r3, #0
  102dc4:	eb001e28 	bl	10a66c <__aeabi_uldivmod>
  102dc8:	e1a0600a 	mov	r6, sl
  102dcc:	e1a00004 	mov	r0, r4
  102dd0:	e1a01005 	mov	r1, r5
  102dd4:	e3a03000 	mov	r3, #0
  102dd8:	e24aa001 	sub	sl, sl, #1
  102ddc:	e2822030 	add	r2, r2, #48	; 0x30
  102de0:	e5c62000 	strb	r2, [r6]
  102de4:	e3a0200a 	mov	r2, #10
  102de8:	eb001e1f 	bl	10a66c <__aeabi_uldivmod>
  102dec:	e1a04000 	mov	r4, r0
  102df0:	e1a05001 	mov	r5, r1
  102df4:	e1940005 	orrs	r0, r4, r5
  102df8:	1affffed 	bne	102db4 <_vfprintf_r+0x16a4>
  102dfc:	eafffb68 	b	101ba4 <_vfprintf_r+0x494>
  102e00:	e3a0902d 	mov	r9, #45	; 0x2d
  102e04:	e2744000 	rsbs	r4, r4, #0
  102e08:	e2e55000 	rsc	r5, r5, #0
  102e0c:	e5cd9087 	strb	r9, [sp, #135]	; 0x87
  102e10:	e3a03001 	mov	r3, #1
  102e14:	eafffb45 	b	101b30 <_vfprintf_r+0x420>
  102e18:	ec510b18 	vmov	r0, r1, d8
  102e1c:	eb0011d2 	bl	10756c <__fpclassifyd>
  102e20:	e3500000 	cmp	r0, #0
  102e24:	0a0000cf 	beq	103168 <_vfprintf_r+0x1a58>
  102e28:	e59dc028 	ldr	ip, [sp, #40]	; 0x28
  102e2c:	e3c85020 	bic	r5, r8, #32
  102e30:	e37c0001 	cmn	ip, #1
  102e34:	03a0c006 	moveq	ip, #6
  102e38:	058dc028 	streq	ip, [sp, #40]	; 0x28
  102e3c:	0a000005 	beq	102e58 <_vfprintf_r+0x1748>
  102e40:	e3550047 	cmp	r5, #71	; 0x47
  102e44:	1a000003 	bne	102e58 <_vfprintf_r+0x1748>
  102e48:	e59dc028 	ldr	ip, [sp, #40]	; 0x28
  102e4c:	e35c0000 	cmp	ip, #0
  102e50:	03a0c001 	moveq	ip, #1
  102e54:	e58dc028 	str	ip, [sp, #40]	; 0x28
  102e58:	ec532b18 	vmov	r2, r3, d8
  102e5c:	e59dc020 	ldr	ip, [sp, #32]
  102e60:	e38cac01 	orr	sl, ip, #256	; 0x100
  102e64:	e3530000 	cmp	r3, #0
  102e68:	beb19b48 	vneglt.f64	d9, d8
  102e6c:	b3a0902d 	movlt	r9, #45	; 0x2d
  102e70:	a3a09000 	movge	r9, #0
  102e74:	aeb09b48 	vmovge.f64	d9, d8
  102e78:	e2553046 	subs	r3, r5, #70	; 0x46
  102e7c:	e2734000 	rsbs	r4, r3, #0
  102e80:	e0b44003 	adcs	r4, r4, r3
  102e84:	e3540000 	cmp	r4, #0
  102e88:	1a000138 	bne	103370 <_vfprintf_r+0x1c60>
  102e8c:	e3550045 	cmp	r5, #69	; 0x45
  102e90:	1a000197 	bne	1034f4 <_vfprintf_r+0x1de4>
  102e94:	e59dc028 	ldr	ip, [sp, #40]	; 0x28
  102e98:	e3a02002 	mov	r2, #2
  102e9c:	e28d308c 	add	r3, sp, #140	; 0x8c
  102ea0:	e58d2000 	str	r2, [sp]
  102ea4:	e28c4001 	add	r4, ip, #1
  102ea8:	e28d2090 	add	r2, sp, #144	; 0x90
  102eac:	e58d3008 	str	r3, [sp, #8]
  102eb0:	e28d309c 	add	r3, sp, #156	; 0x9c
  102eb4:	e58d200c 	str	r2, [sp, #12]
  102eb8:	e58d3010 	str	r3, [sp, #16]
  102ebc:	e58d4004 	str	r4, [sp, #4]
  102ec0:	e59d0030 	ldr	r0, [sp, #48]	; 0x30
  102ec4:	ec532b19 	vmov	r2, r3, d9
  102ec8:	eb00034f 	bl	103c0c <_dtoa_r>
  102ecc:	e0801004 	add	r1, r0, r4
  102ed0:	e1a06000 	mov	r6, r0
  102ed4:	eeb59b40 	vcmp.f64	d9, #0.0
  102ed8:	eef1fa10 	vmrs	APSR_nzcv, fpscr
  102edc:	01a03001 	moveq	r3, r1
  102ee0:	0a000009 	beq	102f0c <_vfprintf_r+0x17fc>
  102ee4:	e59d309c 	ldr	r3, [sp, #156]	; 0x9c
  102ee8:	e1510003 	cmp	r1, r3
  102eec:	9a000006 	bls	102f0c <_vfprintf_r+0x17fc>
  102ef0:	e3a00030 	mov	r0, #48	; 0x30
  102ef4:	e2832001 	add	r2, r3, #1
  102ef8:	e58d209c 	str	r2, [sp, #156]	; 0x9c
  102efc:	e5c30000 	strb	r0, [r3]
  102f00:	e59d309c 	ldr	r3, [sp, #156]	; 0x9c
  102f04:	e1510003 	cmp	r1, r3
  102f08:	8afffff9 	bhi	102ef4 <_vfprintf_r+0x17e4>
  102f0c:	e3550047 	cmp	r5, #71	; 0x47
  102f10:	e0663003 	rsb	r3, r6, r3
  102f14:	e58d3048 	str	r3, [sp, #72]	; 0x48
  102f18:	0a000134 	beq	1033f0 <_vfprintf_r+0x1ce0>
  102f1c:	e3580065 	cmp	r8, #101	; 0x65
  102f20:	da0001cc 	ble	103658 <_vfprintf_r+0x1f48>
  102f24:	e3580066 	cmp	r8, #102	; 0x66
  102f28:	0a000173 	beq	1034fc <_vfprintf_r+0x1dec>
  102f2c:	e59dc08c 	ldr	ip, [sp, #140]	; 0x8c
  102f30:	e58dc058 	str	ip, [sp, #88]	; 0x58
  102f34:	e59d3058 	ldr	r3, [sp, #88]	; 0x58
  102f38:	e59dc048 	ldr	ip, [sp, #72]	; 0x48
  102f3c:	e153000c 	cmp	r3, ip
  102f40:	ba000162 	blt	1034d0 <_vfprintf_r+0x1dc0>
  102f44:	e59dc020 	ldr	ip, [sp, #32]
  102f48:	e31c0001 	tst	ip, #1
  102f4c:	01c33fc3 	biceq	r3, r3, r3, asr #31
  102f50:	159d3058 	ldrne	r3, [sp, #88]	; 0x58
  102f54:	03a08067 	moveq	r8, #103	; 0x67
  102f58:	059d5058 	ldreq	r5, [sp, #88]	; 0x58
  102f5c:	13a08067 	movne	r8, #103	; 0x67
  102f60:	12835001 	addne	r5, r3, #1
  102f64:	11c53fc5 	bicne	r3, r5, r5, asr #31
  102f68:	e3590000 	cmp	r9, #0
  102f6c:	1a0000f8 	bne	103354 <_vfprintf_r+0x1c44>
  102f70:	e58d9028 	str	r9, [sp, #40]	; 0x28
  102f74:	e58d302c 	str	r3, [sp, #44]	; 0x2c
  102f78:	e58da020 	str	sl, [sp, #32]
  102f7c:	e5dd9087 	ldrb	r9, [sp, #135]	; 0x87
  102f80:	eafffb0f 	b	101bc4 <_vfprintf_r+0x4b4>
  102f84:	e59dc020 	ldr	ip, [sp, #32]
  102f88:	e31c0010 	tst	ip, #16
  102f8c:	1a000009 	bne	102fb8 <_vfprintf_r+0x18a8>
  102f90:	e59dc020 	ldr	ip, [sp, #32]
  102f94:	e31c0040 	tst	ip, #64	; 0x40
  102f98:	0a000006 	beq	102fb8 <_vfprintf_r+0x18a8>
  102f9c:	e59dc040 	ldr	ip, [sp, #64]	; 0x40
  102fa0:	e28cc004 	add	ip, ip, #4
  102fa4:	e51c3004 	ldr	r3, [ip, #-4]
  102fa8:	e58dc040 	str	ip, [sp, #64]	; 0x40
  102fac:	e59dc044 	ldr	ip, [sp, #68]	; 0x44
  102fb0:	e1c3c0b0 	strh	ip, [r3]
  102fb4:	eafffa18 	b	10181c <_vfprintf_r+0x10c>
  102fb8:	e59dc040 	ldr	ip, [sp, #64]	; 0x40
  102fbc:	e28cc004 	add	ip, ip, #4
  102fc0:	e51c3004 	ldr	r3, [ip, #-4]
  102fc4:	e58dc040 	str	ip, [sp, #64]	; 0x40
  102fc8:	e59dc044 	ldr	ip, [sp, #68]	; 0x44
  102fcc:	e583c000 	str	ip, [r3]
  102fd0:	eafffa11 	b	10181c <_vfprintf_r+0x10c>
  102fd4:	e59dc020 	ldr	ip, [sp, #32]
  102fd8:	e31c0040 	tst	ip, #64	; 0x40
  102fdc:	e59dc040 	ldr	ip, [sp, #64]	; 0x40
  102fe0:	0afffbf6 	beq	101fc0 <_vfprintf_r+0x8b0>
  102fe4:	e1dc40b0 	ldrh	r4, [ip]
  102fe8:	e3a05000 	mov	r5, #0
  102fec:	e28cc004 	add	ip, ip, #4
  102ff0:	e3a03001 	mov	r3, #1
  102ff4:	e58dc040 	str	ip, [sp, #64]	; 0x40
  102ff8:	eafffaca 	b	101b28 <_vfprintf_r+0x418>
  102ffc:	e59dc020 	ldr	ip, [sp, #32]
  103000:	e31c0040 	tst	ip, #64	; 0x40
  103004:	e59dc040 	ldr	ip, [sp, #64]	; 0x40
  103008:	0afffc7e 	beq	102208 <_vfprintf_r+0xaf8>
  10300c:	e1dc40f0 	ldrsh	r4, [ip]
  103010:	e28cc004 	add	ip, ip, #4
  103014:	e58dc040 	str	ip, [sp, #64]	; 0x40
  103018:	e1a05fc4 	asr	r5, r4, #31
  10301c:	e1a02004 	mov	r2, r4
  103020:	e1a03005 	mov	r3, r5
  103024:	eafffb99 	b	101e90 <_vfprintf_r+0x780>
  103028:	e59dc020 	ldr	ip, [sp, #32]
  10302c:	e31c0040 	tst	ip, #64	; 0x40
  103030:	e59dc040 	ldr	ip, [sp, #64]	; 0x40
  103034:	13a05000 	movne	r5, #0
  103038:	03a05000 	moveq	r5, #0
  10303c:	059c4000 	ldreq	r4, [ip]
  103040:	028cc004 	addeq	ip, ip, #4
  103044:	11dc40b0 	ldrhne	r4, [ip]
  103048:	128cc004 	addne	ip, ip, #4
  10304c:	058dc040 	streq	ip, [sp, #64]	; 0x40
  103050:	158dc040 	strne	ip, [sp, #64]	; 0x40
  103054:	eafffc19 	b	1020c0 <_vfprintf_r+0x9b0>
  103058:	e59d0030 	ldr	r0, [sp, #48]	; 0x30
  10305c:	e28d20a4 	add	r2, sp, #164	; 0xa4
  103060:	e59d1034 	ldr	r1, [sp, #52]	; 0x34
  103064:	eb0012ae 	bl	107b24 <__sprint_r>
  103068:	e3500000 	cmp	r0, #0
  10306c:	1afffe2e 	bne	10292c <_vfprintf_r+0x121c>
  103070:	e59d20ac 	ldr	r2, [sp, #172]	; 0xac
  103074:	e28d70d8 	add	r7, sp, #216	; 0xd8
  103078:	eafffd56 	b	1025d8 <_vfprintf_r+0xec8>
  10307c:	e59d30a8 	ldr	r3, [sp, #168]	; 0xa8
  103080:	e3a01001 	mov	r1, #1
  103084:	e59dc054 	ldr	ip, [sp, #84]	; 0x54
  103088:	e2822001 	add	r2, r2, #1
  10308c:	e0833001 	add	r3, r3, r1
  103090:	e5871004 	str	r1, [r7, #4]
  103094:	e3530007 	cmp	r3, #7
  103098:	e58d20ac 	str	r2, [sp, #172]	; 0xac
  10309c:	e587c000 	str	ip, [r7]
  1030a0:	d2877008 	addle	r7, r7, #8
  1030a4:	e58d30a8 	str	r3, [sp, #168]	; 0xa8
  1030a8:	ca000045 	bgt	1031c4 <_vfprintf_r+0x1ab4>
  1030ac:	e3550000 	cmp	r5, #0
  1030b0:	0a00003c 	beq	1031a8 <_vfprintf_r+0x1a98>
  1030b4:	e59dc064 	ldr	ip, [sp, #100]	; 0x64
  1030b8:	e59d30a8 	ldr	r3, [sp, #168]	; 0xa8
  1030bc:	e082200c 	add	r2, r2, ip
  1030c0:	e59dc05c 	ldr	ip, [sp, #92]	; 0x5c
  1030c4:	e2833001 	add	r3, r3, #1
  1030c8:	e58d20ac 	str	r2, [sp, #172]	; 0xac
  1030cc:	e3530007 	cmp	r3, #7
  1030d0:	e58d30a8 	str	r3, [sp, #168]	; 0xa8
  1030d4:	e587c000 	str	ip, [r7]
  1030d8:	e59dc064 	ldr	ip, [sp, #100]	; 0x64
  1030dc:	e587c004 	str	ip, [r7, #4]
  1030e0:	d2877008 	addle	r7, r7, #8
  1030e4:	ca0000ee 	bgt	1034a4 <_vfprintf_r+0x1d94>
  1030e8:	e2655000 	rsb	r5, r5, #0
  1030ec:	e3550000 	cmp	r5, #0
  1030f0:	da000057 	ble	103254 <_vfprintf_r+0x1b44>
  1030f4:	e3550010 	cmp	r5, #16
  1030f8:	e59f4568 	ldr	r4, [pc, #1384]	; 103668 <_vfprintf_r+0x1f58>
  1030fc:	da000043 	ble	103210 <_vfprintf_r+0x1b00>
  103100:	e3a08010 	mov	r8, #16
  103104:	e59d9030 	ldr	r9, [sp, #48]	; 0x30
  103108:	e59da034 	ldr	sl, [sp, #52]	; 0x34
  10310c:	ea000002 	b	10311c <_vfprintf_r+0x1a0c>
  103110:	e2455010 	sub	r5, r5, #16
  103114:	e3550010 	cmp	r5, #16
  103118:	da00003c 	ble	103210 <_vfprintf_r+0x1b00>
  10311c:	e2833001 	add	r3, r3, #1
  103120:	e2822010 	add	r2, r2, #16
  103124:	e3530007 	cmp	r3, #7
  103128:	e587b000 	str	fp, [r7]
  10312c:	e5878004 	str	r8, [r7, #4]
  103130:	e2877008 	add	r7, r7, #8
  103134:	e58d30a8 	str	r3, [sp, #168]	; 0xa8
  103138:	e58d20ac 	str	r2, [sp, #172]	; 0xac
  10313c:	dafffff3 	ble	103110 <_vfprintf_r+0x1a00>
  103140:	e1a00009 	mov	r0, r9
  103144:	e1a0100a 	mov	r1, sl
  103148:	e28d20a4 	add	r2, sp, #164	; 0xa4
  10314c:	e28d70d8 	add	r7, sp, #216	; 0xd8
  103150:	eb001273 	bl	107b24 <__sprint_r>
  103154:	e3500000 	cmp	r0, #0
  103158:	1a000113 	bne	1035ac <_vfprintf_r+0x1e9c>
  10315c:	e59d20ac 	ldr	r2, [sp, #172]	; 0xac
  103160:	e59d30a8 	ldr	r3, [sp, #168]	; 0xa8
  103164:	eaffffe9 	b	103110 <_vfprintf_r+0x1a00>
  103168:	e3a0c003 	mov	ip, #3
  10316c:	e30b31b8 	movw	r3, #45496	; 0xb1b8
  103170:	e58dc02c 	str	ip, [sp, #44]	; 0x2c
  103174:	e3403010 	movt	r3, #16
  103178:	e59dc020 	ldr	ip, [sp, #32]
  10317c:	e3580047 	cmp	r8, #71	; 0x47
  103180:	e30b61bc 	movw	r6, #45500	; 0xb1bc
  103184:	e58d0028 	str	r0, [sp, #40]	; 0x28
  103188:	e3406010 	movt	r6, #16
  10318c:	e3ccc080 	bic	ip, ip, #128	; 0x80
  103190:	d1a06003 	movle	r6, r3
  103194:	e58dc020 	str	ip, [sp, #32]
  103198:	e58d0058 	str	r0, [sp, #88]	; 0x58
  10319c:	e3a05003 	mov	r5, #3
  1031a0:	e5dd9087 	ldrb	r9, [sp, #135]	; 0x87
  1031a4:	eafffa86 	b	101bc4 <_vfprintf_r+0x4b4>
  1031a8:	e59dc048 	ldr	ip, [sp, #72]	; 0x48
  1031ac:	e35c0000 	cmp	ip, #0
  1031b0:	1affffbf 	bne	1030b4 <_vfprintf_r+0x19a4>
  1031b4:	e59dc020 	ldr	ip, [sp, #32]
  1031b8:	e31c0001 	tst	ip, #1
  1031bc:	0afffcae 	beq	10247c <_vfprintf_r+0xd6c>
  1031c0:	eaffffbb 	b	1030b4 <_vfprintf_r+0x19a4>
  1031c4:	e59d0030 	ldr	r0, [sp, #48]	; 0x30
  1031c8:	e28d20a4 	add	r2, sp, #164	; 0xa4
  1031cc:	e59d1034 	ldr	r1, [sp, #52]	; 0x34
  1031d0:	eb001253 	bl	107b24 <__sprint_r>
  1031d4:	e3500000 	cmp	r0, #0
  1031d8:	1afffdd3 	bne	10292c <_vfprintf_r+0x121c>
  1031dc:	e59d508c 	ldr	r5, [sp, #140]	; 0x8c
  1031e0:	e28d70d8 	add	r7, sp, #216	; 0xd8
  1031e4:	e59d20ac 	ldr	r2, [sp, #172]	; 0xac
  1031e8:	eaffffaf 	b	1030ac <_vfprintf_r+0x199c>
  1031ec:	e59d0030 	ldr	r0, [sp, #48]	; 0x30
  1031f0:	e28d20a4 	add	r2, sp, #164	; 0xa4
  1031f4:	e59d1034 	ldr	r1, [sp, #52]	; 0x34
  1031f8:	eb001249 	bl	107b24 <__sprint_r>
  1031fc:	e3500000 	cmp	r0, #0
  103200:	1afffdc9 	bne	10292c <_vfprintf_r+0x121c>
  103204:	e59d20ac 	ldr	r2, [sp, #172]	; 0xac
  103208:	e28d70d8 	add	r7, sp, #216	; 0xd8
  10320c:	eafffd05 	b	102628 <_vfprintf_r+0xf18>
  103210:	e2833001 	add	r3, r3, #1
  103214:	e0822005 	add	r2, r2, r5
  103218:	e3530007 	cmp	r3, #7
  10321c:	e8870030 	stm	r7, {r4, r5}
  103220:	e58d30a8 	str	r3, [sp, #168]	; 0xa8
  103224:	d2877008 	addle	r7, r7, #8
  103228:	e58d20ac 	str	r2, [sp, #172]	; 0xac
  10322c:	da000008 	ble	103254 <_vfprintf_r+0x1b44>
  103230:	e59d0030 	ldr	r0, [sp, #48]	; 0x30
  103234:	e28d20a4 	add	r2, sp, #164	; 0xa4
  103238:	e59d1034 	ldr	r1, [sp, #52]	; 0x34
  10323c:	eb001238 	bl	107b24 <__sprint_r>
  103240:	e3500000 	cmp	r0, #0
  103244:	1afffdb8 	bne	10292c <_vfprintf_r+0x121c>
  103248:	e59d20ac 	ldr	r2, [sp, #172]	; 0xac
  10324c:	e28d70d8 	add	r7, sp, #216	; 0xd8
  103250:	e59d30a8 	ldr	r3, [sp, #168]	; 0xa8
  103254:	e2833001 	add	r3, r3, #1
  103258:	e59dc048 	ldr	ip, [sp, #72]	; 0x48
  10325c:	e3530007 	cmp	r3, #7
  103260:	e58d30a8 	str	r3, [sp, #168]	; 0xa8
  103264:	e08c2002 	add	r2, ip, r2
  103268:	e58d20ac 	str	r2, [sp, #172]	; 0xac
  10326c:	e8871040 	stm	r7, {r6, ip}
  103270:	dafffc80 	ble	102478 <_vfprintf_r+0xd68>
  103274:	eafffd9d 	b	1028f0 <_vfprintf_r+0x11e0>
  103278:	e1a00006 	mov	r0, r6
  10327c:	e58d4028 	str	r4, [sp, #40]	; 0x28
  103280:	e58da040 	str	sl, [sp, #64]	; 0x40
  103284:	fa0011bd 	blx	107980 <strlen>
  103288:	e59d4028 	ldr	r4, [sp, #40]	; 0x28
  10328c:	e5dd9087 	ldrb	r9, [sp, #135]	; 0x87
  103290:	e58d4058 	str	r4, [sp, #88]	; 0x58
  103294:	e1c03fc0 	bic	r3, r0, r0, asr #31
  103298:	e1a05000 	mov	r5, r0
  10329c:	e58d302c 	str	r3, [sp, #44]	; 0x2c
  1032a0:	eafffa47 	b	101bc4 <_vfprintf_r+0x4b4>
  1032a4:	e30b902c 	movw	r9, #45100	; 0xb02c
  1032a8:	e59d20ac 	ldr	r2, [sp, #172]	; 0xac
  1032ac:	e3409010 	movt	r9, #16
  1032b0:	e59d10a8 	ldr	r1, [sp, #168]	; 0xa8
  1032b4:	eafffa80 	b	101cbc <_vfprintf_r+0x5ac>
  1032b8:	e59d0030 	ldr	r0, [sp, #48]	; 0x30
  1032bc:	e28d20a4 	add	r2, sp, #164	; 0xa4
  1032c0:	e59d1034 	ldr	r1, [sp, #52]	; 0x34
  1032c4:	eb001216 	bl	107b24 <__sprint_r>
  1032c8:	e3500000 	cmp	r0, #0
  1032cc:	1afffd96 	bne	10292c <_vfprintf_r+0x121c>
  1032d0:	e59d20ac 	ldr	r2, [sp, #172]	; 0xac
  1032d4:	e28d70d8 	add	r7, sp, #216	; 0xd8
  1032d8:	eafffdc0 	b	1029e0 <_vfprintf_r+0x12d0>
  1032dc:	e59d0030 	ldr	r0, [sp, #48]	; 0x30
  1032e0:	e28d20a4 	add	r2, sp, #164	; 0xa4
  1032e4:	e59d1034 	ldr	r1, [sp, #52]	; 0x34
  1032e8:	eb00120d 	bl	107b24 <__sprint_r>
  1032ec:	e3500000 	cmp	r0, #0
  1032f0:	1afffd8d 	bne	10292c <_vfprintf_r+0x121c>
  1032f4:	e59d508c 	ldr	r5, [sp, #140]	; 0x8c
  1032f8:	e28d70d8 	add	r7, sp, #216	; 0xd8
  1032fc:	e59dc048 	ldr	ip, [sp, #72]	; 0x48
  103300:	e59d20ac 	ldr	r2, [sp, #172]	; 0xac
  103304:	e065500c 	rsb	r5, r5, ip
  103308:	eafffe3c 	b	102c00 <_vfprintf_r+0x14f0>
  10330c:	e30b902c 	movw	r9, #45100	; 0xb02c
  103310:	e59d30a8 	ldr	r3, [sp, #168]	; 0xa8
  103314:	e3409010 	movt	r9, #16
  103318:	eafffc81 	b	102524 <_vfprintf_r+0xe14>
  10331c:	e59d5028 	ldr	r5, [sp, #40]	; 0x28
  103320:	e1a09006 	mov	r9, r6
  103324:	e58d6028 	str	r6, [sp, #40]	; 0x28
  103328:	e3550006 	cmp	r5, #6
  10332c:	23a05006 	movcs	r5, #6
  103330:	e58d6058 	str	r6, [sp, #88]	; 0x58
  103334:	e1c53fc5 	bic	r3, r5, r5, asr #31
  103338:	e30b61e8 	movw	r6, #45544	; 0xb1e8
  10333c:	e58da040 	str	sl, [sp, #64]	; 0x40
  103340:	e3406010 	movt	r6, #16
  103344:	e58d302c 	str	r3, [sp, #44]	; 0x2c
  103348:	eafffa1d 	b	101bc4 <_vfprintf_r+0x4b4>
  10334c:	e1a09004 	mov	r9, r4
  103350:	eafffcde 	b	1026d0 <_vfprintf_r+0xfc0>
  103354:	e3a0902d 	mov	r9, #45	; 0x2d
  103358:	e3a0c000 	mov	ip, #0
  10335c:	e58d302c 	str	r3, [sp, #44]	; 0x2c
  103360:	e58da020 	str	sl, [sp, #32]
  103364:	e5cd9087 	strb	r9, [sp, #135]	; 0x87
  103368:	e58dc028 	str	ip, [sp, #40]	; 0x28
  10336c:	eafffa16 	b	101bcc <_vfprintf_r+0x4bc>
  103370:	e3a03003 	mov	r3, #3
  103374:	e59dc028 	ldr	ip, [sp, #40]	; 0x28
  103378:	e28d2090 	add	r2, sp, #144	; 0x90
  10337c:	e58d3000 	str	r3, [sp]
  103380:	e28d308c 	add	r3, sp, #140	; 0x8c
  103384:	e58d200c 	str	r2, [sp, #12]
  103388:	e58d3008 	str	r3, [sp, #8]
  10338c:	e28d309c 	add	r3, sp, #156	; 0x9c
  103390:	e58dc004 	str	ip, [sp, #4]
  103394:	e58d3010 	str	r3, [sp, #16]
  103398:	e59d0030 	ldr	r0, [sp, #48]	; 0x30
  10339c:	ec532b19 	vmov	r2, r3, d9
  1033a0:	eb000219 	bl	103c0c <_dtoa_r>
  1033a4:	e3550047 	cmp	r5, #71	; 0x47
  1033a8:	e1a06000 	mov	r6, r0
  1033ac:	1a000002 	bne	1033bc <_vfprintf_r+0x1cac>
  1033b0:	e59dc020 	ldr	ip, [sp, #32]
  1033b4:	e31c0001 	tst	ip, #1
  1033b8:	0a000009 	beq	1033e4 <_vfprintf_r+0x1cd4>
  1033bc:	e59dc028 	ldr	ip, [sp, #40]	; 0x28
  1033c0:	e3540000 	cmp	r4, #0
  1033c4:	e086100c 	add	r1, r6, ip
  1033c8:	0afffec1 	beq	102ed4 <_vfprintf_r+0x17c4>
  1033cc:	e5d63000 	ldrb	r3, [r6]
  1033d0:	e3530030 	cmp	r3, #48	; 0x30
  1033d4:	0a000076 	beq	1035b4 <_vfprintf_r+0x1ea4>
  1033d8:	e59d308c 	ldr	r3, [sp, #140]	; 0x8c
  1033dc:	e0811003 	add	r1, r1, r3
  1033e0:	eafffebb 	b	102ed4 <_vfprintf_r+0x17c4>
  1033e4:	e59d309c 	ldr	r3, [sp, #156]	; 0x9c
  1033e8:	e0603003 	rsb	r3, r0, r3
  1033ec:	e58d3048 	str	r3, [sp, #72]	; 0x48
  1033f0:	e59d308c 	ldr	r3, [sp, #140]	; 0x8c
  1033f4:	e3730003 	cmn	r3, #3
  1033f8:	ba00000d 	blt	103434 <_vfprintf_r+0x1d24>
  1033fc:	e59dc028 	ldr	ip, [sp, #40]	; 0x28
  103400:	e15c0003 	cmp	ip, r3
  103404:	ba00000a 	blt	103434 <_vfprintf_r+0x1d24>
  103408:	e58d3058 	str	r3, [sp, #88]	; 0x58
  10340c:	eafffec8 	b	102f34 <_vfprintf_r+0x1824>
  103410:	e59d3028 	ldr	r3, [sp, #40]	; 0x28
  103414:	e59d5028 	ldr	r5, [sp, #40]	; 0x28
  103418:	e1c33fc3 	bic	r3, r3, r3, asr #31
  10341c:	e58d0028 	str	r0, [sp, #40]	; 0x28
  103420:	e58d302c 	str	r3, [sp, #44]	; 0x2c
  103424:	e58da040 	str	sl, [sp, #64]	; 0x40
  103428:	e58d0058 	str	r0, [sp, #88]	; 0x58
  10342c:	e5dd9087 	ldrb	r9, [sp, #135]	; 0x87
  103430:	eafff9e3 	b	101bc4 <_vfprintf_r+0x4b4>
  103434:	e2488002 	sub	r8, r8, #2
  103438:	e2433001 	sub	r3, r3, #1
  10343c:	e58d308c 	str	r3, [sp, #140]	; 0x8c
  103440:	e3530000 	cmp	r3, #0
  103444:	e5cd8094 	strb	r8, [sp, #148]	; 0x94
  103448:	b2633000 	rsblt	r3, r3, #0
  10344c:	b3a0202d 	movlt	r2, #45	; 0x2d
  103450:	a3a0202b 	movge	r2, #43	; 0x2b
  103454:	e3530009 	cmp	r3, #9
  103458:	e5cd2095 	strb	r2, [sp, #149]	; 0x95
  10345c:	ca000033 	bgt	103530 <_vfprintf_r+0x1e20>
  103460:	e2833030 	add	r3, r3, #48	; 0x30
  103464:	e5cd3097 	strb	r3, [sp, #151]	; 0x97
  103468:	e3a03030 	mov	r3, #48	; 0x30
  10346c:	e5cd3096 	strb	r3, [sp, #150]	; 0x96
  103470:	e28d3098 	add	r3, sp, #152	; 0x98
  103474:	e59dc048 	ldr	ip, [sp, #72]	; 0x48
  103478:	e28d2094 	add	r2, sp, #148	; 0x94
  10347c:	e0622003 	rsb	r2, r2, r3
  103480:	e58d206c 	str	r2, [sp, #108]	; 0x6c
  103484:	e35c0001 	cmp	ip, #1
  103488:	e08c5002 	add	r5, ip, r2
  10348c:	da00006d 	ble	103648 <_vfprintf_r+0x1f38>
  103490:	e2855001 	add	r5, r5, #1
  103494:	e3a03000 	mov	r3, #0
  103498:	e58d3058 	str	r3, [sp, #88]	; 0x58
  10349c:	e1c53fc5 	bic	r3, r5, r5, asr #31
  1034a0:	eafffeb0 	b	102f68 <_vfprintf_r+0x1858>
  1034a4:	e59d0030 	ldr	r0, [sp, #48]	; 0x30
  1034a8:	e28d20a4 	add	r2, sp, #164	; 0xa4
  1034ac:	e59d1034 	ldr	r1, [sp, #52]	; 0x34
  1034b0:	eb00119b 	bl	107b24 <__sprint_r>
  1034b4:	e3500000 	cmp	r0, #0
  1034b8:	1afffd1b 	bne	10292c <_vfprintf_r+0x121c>
  1034bc:	e59d508c 	ldr	r5, [sp, #140]	; 0x8c
  1034c0:	e28d70d8 	add	r7, sp, #216	; 0xd8
  1034c4:	e59d20ac 	ldr	r2, [sp, #172]	; 0xac
  1034c8:	e59d30a8 	ldr	r3, [sp, #168]	; 0xa8
  1034cc:	eaffff05 	b	1030e8 <_vfprintf_r+0x19d8>
  1034d0:	e59dc058 	ldr	ip, [sp, #88]	; 0x58
  1034d4:	e3a08067 	mov	r8, #103	; 0x67
  1034d8:	e35c0000 	cmp	ip, #0
  1034dc:	d26c5002 	rsble	r5, ip, #2
  1034e0:	e59dc048 	ldr	ip, [sp, #72]	; 0x48
  1034e4:	c3a05001 	movgt	r5, #1
  1034e8:	e085500c 	add	r5, r5, ip
  1034ec:	e1c53fc5 	bic	r3, r5, r5, asr #31
  1034f0:	eafffe9c 	b	102f68 <_vfprintf_r+0x1858>
  1034f4:	e3a03002 	mov	r3, #2
  1034f8:	eaffff9d 	b	103374 <_vfprintf_r+0x1c64>
  1034fc:	e59d308c 	ldr	r3, [sp, #140]	; 0x8c
  103500:	e59dc028 	ldr	ip, [sp, #40]	; 0x28
  103504:	e3530000 	cmp	r3, #0
  103508:	e58d3058 	str	r3, [sp, #88]	; 0x58
  10350c:	da000035 	ble	1035e8 <_vfprintf_r+0x1ed8>
  103510:	e35c0000 	cmp	ip, #0
  103514:	1a00002d 	bne	1035d0 <_vfprintf_r+0x1ec0>
  103518:	e59dc020 	ldr	ip, [sp, #32]
  10351c:	e31c0001 	tst	ip, #1
  103520:	1a00002a 	bne	1035d0 <_vfprintf_r+0x1ec0>
  103524:	e1c33fc3 	bic	r3, r3, r3, asr #31
  103528:	e59d5058 	ldr	r5, [sp, #88]	; 0x58
  10352c:	eafffe8d 	b	102f68 <_vfprintf_r+0x1858>
  103530:	e59d4068 	ldr	r4, [sp, #104]	; 0x68
  103534:	e28dc0a2 	add	ip, sp, #162	; 0xa2
  103538:	e0c01394 	smull	r1, r0, r4, r3
  10353c:	e1a01fc3 	asr	r1, r3, #31
  103540:	e1a0200c 	mov	r2, ip
  103544:	e24cc001 	sub	ip, ip, #1
  103548:	e0611140 	rsb	r1, r1, r0, asr #2
  10354c:	e3510009 	cmp	r1, #9
  103550:	e0810101 	add	r0, r1, r1, lsl #2
  103554:	e0430080 	sub	r0, r3, r0, lsl #1
  103558:	e1a03001 	mov	r3, r1
  10355c:	e2801030 	add	r1, r0, #48	; 0x30
  103560:	e5c21000 	strb	r1, [r2]
  103564:	cafffff3 	bgt	103538 <_vfprintf_r+0x1e28>
  103568:	e28d40a3 	add	r4, sp, #163	; 0xa3
  10356c:	e2833030 	add	r3, r3, #48	; 0x30
  103570:	e154000c 	cmp	r4, ip
  103574:	e6ef1073 	uxtb	r1, r3
  103578:	e5421001 	strb	r1, [r2, #-1]
  10357c:	9a000037 	bls	103660 <_vfprintf_r+0x1f50>
  103580:	e28d0095 	add	r0, sp, #149	; 0x95
  103584:	e1a03002 	mov	r3, r2
  103588:	ea000000 	b	103590 <_vfprintf_r+0x1e80>
  10358c:	e4d31001 	ldrb	r1, [r3], #1
  103590:	e1530004 	cmp	r3, r4
  103594:	e5e01001 	strb	r1, [r0, #1]!
  103598:	1afffffb 	bne	10358c <_vfprintf_r+0x1e7c>
  10359c:	e28dcf46 	add	ip, sp, #280	; 0x118
  1035a0:	e062308c 	rsb	r3, r2, ip, lsl #1
  1035a4:	e24330f6 	sub	r3, r3, #246	; 0xf6
  1035a8:	eaffffb1 	b	103474 <_vfprintf_r+0x1d64>
  1035ac:	e1a0900a 	mov	r9, sl
  1035b0:	eafffc46 	b	1026d0 <_vfprintf_r+0xfc0>
  1035b4:	eeb59b40 	vcmp.f64	d9, #0.0
  1035b8:	eef1fa10 	vmrs	APSR_nzcv, fpscr
  1035bc:	0affff85 	beq	1033d8 <_vfprintf_r+0x1cc8>
  1035c0:	e59dc028 	ldr	ip, [sp, #40]	; 0x28
  1035c4:	e26c3001 	rsb	r3, ip, #1
  1035c8:	e58d308c 	str	r3, [sp, #140]	; 0x8c
  1035cc:	eaffff82 	b	1033dc <_vfprintf_r+0x1ccc>
  1035d0:	e59dc028 	ldr	ip, [sp, #40]	; 0x28
  1035d4:	e59d3058 	ldr	r3, [sp, #88]	; 0x58
  1035d8:	e28c5001 	add	r5, ip, #1
  1035dc:	e0835005 	add	r5, r3, r5
  1035e0:	e1c53fc5 	bic	r3, r5, r5, asr #31
  1035e4:	eafffe5f 	b	102f68 <_vfprintf_r+0x1858>
  1035e8:	e35c0000 	cmp	ip, #0
  1035ec:	1a000004 	bne	103604 <_vfprintf_r+0x1ef4>
  1035f0:	e59dc020 	ldr	ip, [sp, #32]
  1035f4:	e31c0001 	tst	ip, #1
  1035f8:	03a03001 	moveq	r3, #1
  1035fc:	01a05003 	moveq	r5, r3
  103600:	0afffe58 	beq	102f68 <_vfprintf_r+0x1858>
  103604:	e59dc028 	ldr	ip, [sp, #40]	; 0x28
  103608:	e28c5002 	add	r5, ip, #2
  10360c:	e1c53fc5 	bic	r3, r5, r5, asr #31
  103610:	eafffe54 	b	102f68 <_vfprintf_r+0x1858>
  103614:	e59dc040 	ldr	ip, [sp, #64]	; 0x40
  103618:	e5d38001 	ldrb	r8, [r3, #1]
  10361c:	e1a03000 	mov	r3, r0
  103620:	e59cc000 	ldr	ip, [ip]
  103624:	e58dc028 	str	ip, [sp, #40]	; 0x28
  103628:	e59dc040 	ldr	ip, [sp, #64]	; 0x40
  10362c:	e28c1004 	add	r1, ip, #4
  103630:	e59dc028 	ldr	ip, [sp, #40]	; 0x28
  103634:	e58d1040 	str	r1, [sp, #64]	; 0x40
  103638:	e35c0000 	cmp	ip, #0
  10363c:	b3e0c000 	mvnlt	ip, #0
  103640:	b58dc028 	strlt	ip, [sp, #40]	; 0x28
  103644:	eafff89f 	b	1018c8 <_vfprintf_r+0x1b8>
  103648:	e59dc020 	ldr	ip, [sp, #32]
  10364c:	e21c3001 	ands	r3, ip, #1
  103650:	1affff8e 	bne	103490 <_vfprintf_r+0x1d80>
  103654:	eaffff8f 	b	103498 <_vfprintf_r+0x1d88>
  103658:	e59d308c 	ldr	r3, [sp, #140]	; 0x8c
  10365c:	eaffff75 	b	103438 <_vfprintf_r+0x1d28>
  103660:	e28d3096 	add	r3, sp, #150	; 0x96
  103664:	eaffff82 	b	103474 <_vfprintf_r+0x1d64>
  103668:	0010b03c 	andseq	fp, r0, ip, lsr r0

0010366c <vfprintf>:
  10366c:	e30bc258 	movw	ip, #45656	; 0xb258
  103670:	e340c010 	movt	ip, #16
  103674:	e52d4004 	push	{r4}		; (str r4, [sp, #-4]!)
  103678:	e1a04001 	mov	r4, r1
  10367c:	e1a03002 	mov	r3, r2
  103680:	e1a01000 	mov	r1, r0
  103684:	e1a02004 	mov	r2, r4
  103688:	e59c0000 	ldr	r0, [ip]
  10368c:	e49d4004 	pop	{r4}		; (ldr r4, [sp], #4)
  103690:	eafff81e 	b	101710 <_vfprintf_r>

00103694 <__sbprintf>:
  103694:	e92d43f0 	push	{r4, r5, r6, r7, r8, r9, lr}
  103698:	e24dde46 	sub	sp, sp, #1120	; 0x460
  10369c:	e5919064 	ldr	r9, [r1, #100]	; 0x64
  1036a0:	e24dd00c 	sub	sp, sp, #12
  1036a4:	e591601c 	ldr	r6, [r1, #28]
  1036a8:	e30fcba4 	movw	ip, #64420	; 0xfba4
  1036ac:	e5915024 	ldr	r5, [r1, #36]	; 0x24
  1036b0:	e34fcfff 	movt	ip, #65535	; 0xffff
  1036b4:	e1d180be 	ldrh	r8, [r1, #14]
  1036b8:	e30feba6 	movw	lr, #64422	; 0xfba6
  1036bc:	e58d9064 	str	r9, [sp, #100]	; 0x64
  1036c0:	e28d9e46 	add	r9, sp, #1120	; 0x460
  1036c4:	e1d170bc 	ldrh	r7, [r1, #12]
  1036c8:	e34fefff 	movt	lr, #65535	; 0xffff
  1036cc:	e2899008 	add	r9, r9, #8
  1036d0:	e1a04001 	mov	r4, r1
  1036d4:	e1a0100d 	mov	r1, sp
  1036d8:	e58d601c 	str	r6, [sp, #28]
  1036dc:	e18980be 	strh	r8, [r9, lr]
  1036e0:	e3c77002 	bic	r7, r7, #2
  1036e4:	e28de068 	add	lr, sp, #104	; 0x68
  1036e8:	e18970bc 	strh	r7, [r9, ip]
  1036ec:	e58d5024 	str	r5, [sp, #36]	; 0x24
  1036f0:	e3a0cb01 	mov	ip, #1024	; 0x400
  1036f4:	e3a05000 	mov	r5, #0
  1036f8:	e58de000 	str	lr, [sp]
  1036fc:	e58d5018 	str	r5, [sp, #24]
  103700:	e1a06000 	mov	r6, r0
  103704:	e58de010 	str	lr, [sp, #16]
  103708:	e58dc008 	str	ip, [sp, #8]
  10370c:	e58dc014 	str	ip, [sp, #20]
  103710:	ebfff7fe 	bl	101710 <_vfprintf_r>
  103714:	e2505000 	subs	r5, r0, #0
  103718:	ba000004 	blt	103730 <__sbprintf+0x9c>
  10371c:	e1a00006 	mov	r0, r6
  103720:	e1a0100d 	mov	r1, sp
  103724:	eb00065f 	bl	1050a8 <_fflush_r>
  103728:	e3500000 	cmp	r0, #0
  10372c:	13e05000 	mvnne	r5, #0
  103730:	e28d2e46 	add	r2, sp, #1120	; 0x460
  103734:	e30f3ba4 	movw	r3, #64420	; 0xfba4
  103738:	e2822008 	add	r2, r2, #8
  10373c:	e34f3fff 	movt	r3, #65535	; 0xffff
  103740:	e1a00005 	mov	r0, r5
  103744:	e19230b3 	ldrh	r3, [r2, r3]
  103748:	e3130040 	tst	r3, #64	; 0x40
  10374c:	11d430bc 	ldrhne	r3, [r4, #12]
  103750:	13833040 	orrne	r3, r3, #64	; 0x40
  103754:	11c430bc 	strhne	r3, [r4, #12]
  103758:	e28dde46 	add	sp, sp, #1120	; 0x460
  10375c:	e28dd00c 	add	sp, sp, #12
  103760:	e8bd83f0 	pop	{r4, r5, r6, r7, r8, r9, pc}
  103764:	e320f000 	nop	{0}

00103768 <__swsetup_r>:
  103768:	e92d4038 	push	{r3, r4, r5, lr}
  10376c:	e30b3258 	movw	r3, #45656	; 0xb258
  103770:	e3403010 	movt	r3, #16
  103774:	e1a05000 	mov	r5, r0
  103778:	e1a04001 	mov	r4, r1
  10377c:	e5930000 	ldr	r0, [r3]
  103780:	e3500000 	cmp	r0, #0
  103784:	0a000002 	beq	103794 <__swsetup_r+0x2c>
  103788:	e5902038 	ldr	r2, [r0, #56]	; 0x38
  10378c:	e3520000 	cmp	r2, #0
  103790:	0a000030 	beq	103858 <__swsetup_r+0xf0>
  103794:	e1d420bc 	ldrh	r2, [r4, #12]
  103798:	e6ff3072 	uxth	r3, r2
  10379c:	e3130008 	tst	r3, #8
  1037a0:	0a00000b 	beq	1037d4 <__swsetup_r+0x6c>
  1037a4:	e5941010 	ldr	r1, [r4, #16]
  1037a8:	e3510000 	cmp	r1, #0
  1037ac:	0a000012 	beq	1037fc <__swsetup_r+0x94>
  1037b0:	e2132001 	ands	r2, r3, #1
  1037b4:	1a000019 	bne	103820 <__swsetup_r+0xb8>
  1037b8:	e3130002 	tst	r3, #2
  1037bc:	05942014 	ldreq	r2, [r4, #20]
  1037c0:	e3510000 	cmp	r1, #0
  1037c4:	e5842008 	str	r2, [r4, #8]
  1037c8:	0a00001b 	beq	10383c <__swsetup_r+0xd4>
  1037cc:	e3a00000 	mov	r0, #0
  1037d0:	e8bd8038 	pop	{r3, r4, r5, pc}
  1037d4:	e3130010 	tst	r3, #16
  1037d8:	0a000033 	beq	1038ac <__swsetup_r+0x144>
  1037dc:	e3130004 	tst	r3, #4
  1037e0:	1a00001e 	bne	103860 <__swsetup_r+0xf8>
  1037e4:	e5941010 	ldr	r1, [r4, #16]
  1037e8:	e3823008 	orr	r3, r2, #8
  1037ec:	e3510000 	cmp	r1, #0
  1037f0:	e1c430bc 	strh	r3, [r4, #12]
  1037f4:	e6ff3073 	uxth	r3, r3
  1037f8:	1affffec 	bne	1037b0 <__swsetup_r+0x48>
  1037fc:	e2032d0a 	and	r2, r3, #640	; 0x280
  103800:	e3520c02 	cmp	r2, #512	; 0x200
  103804:	0affffe9 	beq	1037b0 <__swsetup_r+0x48>
  103808:	e1a01004 	mov	r1, r4
  10380c:	e1a00005 	mov	r0, r5
  103810:	eb000855 	bl	10596c <__smakebuf_r>
  103814:	e1d430bc 	ldrh	r3, [r4, #12]
  103818:	e5941010 	ldr	r1, [r4, #16]
  10381c:	eaffffe3 	b	1037b0 <__swsetup_r+0x48>
  103820:	e5943014 	ldr	r3, [r4, #20]
  103824:	e3510000 	cmp	r1, #0
  103828:	e3a02000 	mov	r2, #0
  10382c:	e5842008 	str	r2, [r4, #8]
  103830:	e2633000 	rsb	r3, r3, #0
  103834:	e5843018 	str	r3, [r4, #24]
  103838:	1affffe3 	bne	1037cc <__swsetup_r+0x64>
  10383c:	e1d430bc 	ldrh	r3, [r4, #12]
  103840:	e3130080 	tst	r3, #128	; 0x80
  103844:	0affffe0 	beq	1037cc <__swsetup_r+0x64>
  103848:	e3833040 	orr	r3, r3, #64	; 0x40
  10384c:	e3e00000 	mvn	r0, #0
  103850:	e1c430bc 	strh	r3, [r4, #12]
  103854:	e8bd8038 	pop	{r3, r4, r5, pc}
  103858:	eb000651 	bl	1051a4 <__sinit>
  10385c:	eaffffcc 	b	103794 <__swsetup_r+0x2c>
  103860:	e5941030 	ldr	r1, [r4, #48]	; 0x30
  103864:	e3510000 	cmp	r1, #0
  103868:	0a000007 	beq	10388c <__swsetup_r+0x124>
  10386c:	e2843040 	add	r3, r4, #64	; 0x40
  103870:	e1510003 	cmp	r1, r3
  103874:	0a000002 	beq	103884 <__swsetup_r+0x11c>
  103878:	e1a00005 	mov	r0, r5
  10387c:	eb00072c 	bl	105534 <_free_r>
  103880:	e1d420bc 	ldrh	r2, [r4, #12]
  103884:	e3a03000 	mov	r3, #0
  103888:	e5843030 	str	r3, [r4, #48]	; 0x30
  10388c:	e3c22024 	bic	r2, r2, #36	; 0x24
  103890:	e5941010 	ldr	r1, [r4, #16]
  103894:	e3a03000 	mov	r3, #0
  103898:	e5843004 	str	r3, [r4, #4]
  10389c:	e1a02802 	lsl	r2, r2, #16
  1038a0:	e5841000 	str	r1, [r4]
  1038a4:	e1a02822 	lsr	r2, r2, #16
  1038a8:	eaffffce 	b	1037e8 <__swsetup_r+0x80>
  1038ac:	e3822040 	orr	r2, r2, #64	; 0x40
  1038b0:	e3a03009 	mov	r3, #9
  1038b4:	e3e00000 	mvn	r0, #0
  1038b8:	e5853000 	str	r3, [r5]
  1038bc:	e1c420bc 	strh	r2, [r4, #12]
  1038c0:	e8bd8038 	pop	{r3, r4, r5, pc}

001038c4 <__call_exitprocs>:
  1038c4:	e30b3028 	movw	r3, #45096	; 0xb028
  1038c8:	e3403010 	movt	r3, #16
  1038cc:	e92d4ff0 	push	{r4, r5, r6, r7, r8, r9, sl, fp, lr}
  1038d0:	e24dd014 	sub	sp, sp, #20
  1038d4:	e5933000 	ldr	r3, [r3]
  1038d8:	e1a07001 	mov	r7, r1
  1038dc:	e3a09001 	mov	r9, #1
  1038e0:	e3002000 	movw	r2, #0
  1038e4:	e58d0008 	str	r0, [sp, #8]
  1038e8:	e3402000 	movt	r2, #0
  1038ec:	e58d3004 	str	r3, [sp, #4]
  1038f0:	e2833f52 	add	r3, r3, #328	; 0x148
  1038f4:	e58d2000 	str	r2, [sp]
  1038f8:	e58d300c 	str	r3, [sp, #12]
  1038fc:	e59d2004 	ldr	r2, [sp, #4]
  103900:	e5928148 	ldr	r8, [r2, #328]	; 0x148
  103904:	e3580000 	cmp	r8, #0
  103908:	0a000035 	beq	1039e4 <__call_exitprocs+0x120>
  10390c:	e59db00c 	ldr	fp, [sp, #12]
  103910:	e5985004 	ldr	r5, [r8, #4]
  103914:	e2554001 	subs	r4, r5, #1
  103918:	52856002 	addpl	r6, r5, #2
  10391c:	50885105 	addpl	r5, r8, r5, lsl #2
  103920:	52855f42 	addpl	r5, r5, #264	; 0x108
  103924:	50886106 	addpl	r6, r8, r6, lsl #2
  103928:	5a000008 	bpl	103950 <__call_exitprocs+0x8c>
  10392c:	ea000029 	b	1039d8 <__call_exitprocs+0x114>
  103930:	e5153004 	ldr	r3, [r5, #-4]
  103934:	e1530007 	cmp	r3, r7
  103938:	0a000006 	beq	103958 <__call_exitprocs+0x94>
  10393c:	e2444001 	sub	r4, r4, #1
  103940:	e2455004 	sub	r5, r5, #4
  103944:	e3740001 	cmn	r4, #1
  103948:	e2466004 	sub	r6, r6, #4
  10394c:	0a000021 	beq	1039d8 <__call_exitprocs+0x114>
  103950:	e3570000 	cmp	r7, #0
  103954:	1afffff5 	bne	103930 <__call_exitprocs+0x6c>
  103958:	e5982004 	ldr	r2, [r8, #4]
  10395c:	e5163004 	ldr	r3, [r6, #-4]
  103960:	e2422001 	sub	r2, r2, #1
  103964:	e1520004 	cmp	r2, r4
  103968:	05884004 	streq	r4, [r8, #4]
  10396c:	13a02000 	movne	r2, #0
  103970:	15062004 	strne	r2, [r6, #-4]
  103974:	e3530000 	cmp	r3, #0
  103978:	0affffef 	beq	10393c <__call_exitprocs+0x78>
  10397c:	e5981188 	ldr	r1, [r8, #392]	; 0x188
  103980:	e1a02419 	lsl	r2, r9, r4
  103984:	e598a004 	ldr	sl, [r8, #4]
  103988:	e1120001 	tst	r2, r1
  10398c:	0a00000c 	beq	1039c4 <__call_exitprocs+0x100>
  103990:	e598118c 	ldr	r1, [r8, #396]	; 0x18c
  103994:	e1120001 	tst	r2, r1
  103998:	1a00000b 	bne	1039cc <__call_exitprocs+0x108>
  10399c:	e59d0008 	ldr	r0, [sp, #8]
  1039a0:	e5151084 	ldr	r1, [r5, #-132]	; 0xffffff7c
  1039a4:	e12fff33 	blx	r3
  1039a8:	e5983004 	ldr	r3, [r8, #4]
  1039ac:	e153000a 	cmp	r3, sl
  1039b0:	1affffd1 	bne	1038fc <__call_exitprocs+0x38>
  1039b4:	e59b3000 	ldr	r3, [fp]
  1039b8:	e1530008 	cmp	r3, r8
  1039bc:	0affffde 	beq	10393c <__call_exitprocs+0x78>
  1039c0:	eaffffcd 	b	1038fc <__call_exitprocs+0x38>
  1039c4:	e12fff33 	blx	r3
  1039c8:	eafffff6 	b	1039a8 <__call_exitprocs+0xe4>
  1039cc:	e5150084 	ldr	r0, [r5, #-132]	; 0xffffff7c
  1039d0:	e12fff33 	blx	r3
  1039d4:	eafffff3 	b	1039a8 <__call_exitprocs+0xe4>
  1039d8:	e59d3000 	ldr	r3, [sp]
  1039dc:	e3530000 	cmp	r3, #0
  1039e0:	1a000001 	bne	1039ec <__call_exitprocs+0x128>
  1039e4:	e28dd014 	add	sp, sp, #20
  1039e8:	e8bd8ff0 	pop	{r4, r5, r6, r7, r8, r9, sl, fp, pc}
  1039ec:	e5983004 	ldr	r3, [r8, #4]
  1039f0:	e3530000 	cmp	r3, #0
  1039f4:	e5983000 	ldr	r3, [r8]
  1039f8:	1a000008 	bne	103a20 <__call_exitprocs+0x15c>
  1039fc:	e3530000 	cmp	r3, #0
  103a00:	0a000006 	beq	103a20 <__call_exitprocs+0x15c>
  103a04:	e1a00008 	mov	r0, r8
  103a08:	e58b3000 	str	r3, [fp]
  103a0c:	e320f000 	nop	{0}
  103a10:	e59b8000 	ldr	r8, [fp]
  103a14:	e3580000 	cmp	r8, #0
  103a18:	1affffbc 	bne	103910 <__call_exitprocs+0x4c>
  103a1c:	eafffff0 	b	1039e4 <__call_exitprocs+0x120>
  103a20:	e1a0b008 	mov	fp, r8
  103a24:	e1a08003 	mov	r8, r3
  103a28:	eafffff9 	b	103a14 <__call_exitprocs+0x150>

00103a2c <atexit>:
  103a2c:	e1a01000 	mov	r1, r0
  103a30:	e3a00000 	mov	r0, #0
  103a34:	e1a02000 	mov	r2, r0
  103a38:	e1a03000 	mov	r3, r0
  103a3c:	ea00153b 	b	108f30 <__register_exitproc>

00103a40 <quorem>:
  103a40:	e92d4ff0 	push	{r4, r5, r6, r7, r8, r9, sl, fp, lr}
  103a44:	e1a09000 	mov	r9, r0
  103a48:	e5903010 	ldr	r3, [r0, #16]
  103a4c:	e24dd00c 	sub	sp, sp, #12
  103a50:	e5915010 	ldr	r5, [r1, #16]
  103a54:	e1a0a001 	mov	sl, r1
  103a58:	e1550003 	cmp	r5, r3
  103a5c:	c3a00000 	movgt	r0, #0
  103a60:	ca000067 	bgt	103c04 <quorem+0x1c4>
  103a64:	e2455001 	sub	r5, r5, #1
  103a68:	e2814014 	add	r4, r1, #20
  103a6c:	e2898014 	add	r8, r9, #20
  103a70:	e7941105 	ldr	r1, [r4, r5, lsl #2]
  103a74:	e1a02105 	lsl	r2, r5, #2
  103a78:	e7980105 	ldr	r0, [r8, r5, lsl #2]
  103a7c:	e0883002 	add	r3, r8, r2
  103a80:	e2811001 	add	r1, r1, #1
  103a84:	e58d2000 	str	r2, [sp]
  103a88:	e0846002 	add	r6, r4, r2
  103a8c:	e58d3004 	str	r3, [sp, #4]
  103a90:	ebfff641 	bl	10139c <__aeabi_uidiv>
  103a94:	e2507000 	subs	r7, r0, #0
  103a98:	0a00002d 	beq	103b54 <quorem+0x114>
  103a9c:	e3a01000 	mov	r1, #0
  103aa0:	e1a02004 	mov	r2, r4
  103aa4:	e1a00001 	mov	r0, r1
  103aa8:	e1a03008 	mov	r3, r8
  103aac:	e492c004 	ldr	ip, [r2], #4
  103ab0:	e593e000 	ldr	lr, [r3]
  103ab4:	e1560002 	cmp	r6, r2
  103ab8:	e6ffb07c 	uxth	fp, ip
  103abc:	e1a0c82c 	lsr	ip, ip, #16
  103ac0:	e02b179b 	mla	fp, fp, r7, r1
  103ac4:	e001079c 	mul	r1, ip, r7
  103ac8:	e081182b 	add	r1, r1, fp, lsr #16
  103acc:	e6ffb07b 	uxth	fp, fp
  103ad0:	e06b0000 	rsb	r0, fp, r0
  103ad4:	e6f0c07e 	uxtah	ip, r0, lr
  103ad8:	e6ff0071 	uxth	r0, r1
  103adc:	e060082e 	rsb	r0, r0, lr, lsr #16
  103ae0:	e1a01821 	lsr	r1, r1, #16
  103ae4:	e080084c 	add	r0, r0, ip, asr #16
  103ae8:	e6ffc07c 	uxth	ip, ip
  103aec:	e18cc800 	orr	ip, ip, r0, lsl #16
  103af0:	e1a00840 	asr	r0, r0, #16
  103af4:	e483c004 	str	ip, [r3], #4
  103af8:	2affffeb 	bcs	103aac <quorem+0x6c>
  103afc:	e59d2000 	ldr	r2, [sp]
  103b00:	e7983002 	ldr	r3, [r8, r2]
  103b04:	e3530000 	cmp	r3, #0
  103b08:	1a000011 	bne	103b54 <quorem+0x114>
  103b0c:	e59d2004 	ldr	r2, [sp, #4]
  103b10:	e2423004 	sub	r3, r2, #4
  103b14:	e1580003 	cmp	r8, r3
  103b18:	2a00000c 	bcs	103b50 <quorem+0x110>
  103b1c:	e5123004 	ldr	r3, [r2, #-4]
  103b20:	e3530000 	cmp	r3, #0
  103b24:	1a000009 	bne	103b50 <quorem+0x110>
  103b28:	e2423008 	sub	r3, r2, #8
  103b2c:	ea000002 	b	103b3c <quorem+0xfc>
  103b30:	e5922000 	ldr	r2, [r2]
  103b34:	e3520000 	cmp	r2, #0
  103b38:	1a000004 	bne	103b50 <quorem+0x110>
  103b3c:	e1580003 	cmp	r8, r3
  103b40:	e1a02003 	mov	r2, r3
  103b44:	e2455001 	sub	r5, r5, #1
  103b48:	e2433004 	sub	r3, r3, #4
  103b4c:	3afffff7 	bcc	103b30 <quorem+0xf0>
  103b50:	e5895010 	str	r5, [r9, #16]
  103b54:	e1a0100a 	mov	r1, sl
  103b58:	e1a00009 	mov	r0, r9
  103b5c:	eb000d29 	bl	107008 <__mcmp>
  103b60:	e3500000 	cmp	r0, #0
  103b64:	ba000025 	blt	103c00 <quorem+0x1c0>
  103b68:	e2877001 	add	r7, r7, #1
  103b6c:	e1a03008 	mov	r3, r8
  103b70:	e3a02000 	mov	r2, #0
  103b74:	e494c004 	ldr	ip, [r4], #4
  103b78:	e5930000 	ldr	r0, [r3]
  103b7c:	e1560004 	cmp	r6, r4
  103b80:	e6ff107c 	uxth	r1, ip
  103b84:	e1a0c82c 	lsr	ip, ip, #16
  103b88:	e0611002 	rsb	r1, r1, r2
  103b8c:	e06cc820 	rsb	ip, ip, r0, lsr #16
  103b90:	e6f11070 	uxtah	r1, r1, r0
  103b94:	e08c2841 	add	r2, ip, r1, asr #16
  103b98:	e6ff1071 	uxth	r1, r1
  103b9c:	e1811802 	orr	r1, r1, r2, lsl #16
  103ba0:	e1a02842 	asr	r2, r2, #16
  103ba4:	e4831004 	str	r1, [r3], #4
  103ba8:	2afffff1 	bcs	103b74 <quorem+0x134>
  103bac:	e7982105 	ldr	r2, [r8, r5, lsl #2]
  103bb0:	e0883105 	add	r3, r8, r5, lsl #2
  103bb4:	e3520000 	cmp	r2, #0
  103bb8:	1a000010 	bne	103c00 <quorem+0x1c0>
  103bbc:	e2432004 	sub	r2, r3, #4
  103bc0:	e1580002 	cmp	r8, r2
  103bc4:	2a00000c 	bcs	103bfc <quorem+0x1bc>
  103bc8:	e5132004 	ldr	r2, [r3, #-4]
  103bcc:	e3520000 	cmp	r2, #0
  103bd0:	1a000009 	bne	103bfc <quorem+0x1bc>
  103bd4:	e2433008 	sub	r3, r3, #8
  103bd8:	ea000002 	b	103be8 <quorem+0x1a8>
  103bdc:	e5922000 	ldr	r2, [r2]
  103be0:	e3520000 	cmp	r2, #0
  103be4:	1a000004 	bne	103bfc <quorem+0x1bc>
  103be8:	e1580003 	cmp	r8, r3
  103bec:	e1a02003 	mov	r2, r3
  103bf0:	e2455001 	sub	r5, r5, #1
  103bf4:	e2433004 	sub	r3, r3, #4
  103bf8:	3afffff7 	bcc	103bdc <quorem+0x19c>
  103bfc:	e5895010 	str	r5, [r9, #16]
  103c00:	e1a00007 	mov	r0, r7
  103c04:	e28dd00c 	add	sp, sp, #12
  103c08:	e8bd8ff0 	pop	{r4, r5, r6, r7, r8, r9, sl, fp, pc}

00103c0c <_dtoa_r>:
  103c0c:	e590c040 	ldr	ip, [r0, #64]	; 0x40
  103c10:	e92d4ff0 	push	{r4, r5, r6, r7, r8, r9, sl, fp, lr}
  103c14:	ed2d8b02 	vpush	{d8}
  103c18:	e35c0000 	cmp	ip, #0
  103c1c:	e24dd044 	sub	sp, sp, #68	; 0x44
  103c20:	e1a04000 	mov	r4, r0
  103c24:	e1a0a002 	mov	sl, r2
  103c28:	e1a0b003 	mov	fp, r3
  103c2c:	e59d507c 	ldr	r5, [sp, #124]	; 0x7c
  103c30:	0a000008 	beq	103c58 <_dtoa_r+0x4c>
  103c34:	e5903044 	ldr	r3, [r0, #68]	; 0x44
  103c38:	e3a02001 	mov	r2, #1
  103c3c:	e1a0100c 	mov	r1, ip
  103c40:	e1a02312 	lsl	r2, r2, r3
  103c44:	e58c2008 	str	r2, [ip, #8]
  103c48:	e58c3004 	str	r3, [ip, #4]
  103c4c:	eb000b3e 	bl	10694c <_Bfree>
  103c50:	e3a03000 	mov	r3, #0
  103c54:	e5843040 	str	r3, [r4, #64]	; 0x40
  103c58:	e35b0000 	cmp	fp, #0
  103c5c:	e3a02000 	mov	r2, #0
  103c60:	b3cb6102 	biclt	r6, fp, #-2147483648	; 0x80000000
  103c64:	e3472ff0 	movt	r2, #32752	; 0x7ff0
  103c68:	b3a03001 	movlt	r3, #1
  103c6c:	a3a03000 	movge	r3, #0
  103c70:	b5853000 	strlt	r3, [r5]
  103c74:	a1a0600b 	movge	r6, fp
  103c78:	a5853000 	strge	r3, [r5]
  103c7c:	e3a03000 	mov	r3, #0
  103c80:	e3473ff0 	movt	r3, #32752	; 0x7ff0
  103c84:	b1a0b006 	movlt	fp, r6
  103c88:	e0063003 	and	r3, r6, r3
  103c8c:	e1530002 	cmp	r3, r2
  103c90:	0a000010 	beq	103cd8 <_dtoa_r+0xcc>
  103c94:	ec4bab18 	vmov	d8, sl, fp
  103c98:	eeb58b40 	vcmp.f64	d8, #0.0
  103c9c:	eef1fa10 	vmrs	APSR_nzcv, fpscr
  103ca0:	1a00001b 	bne	103d14 <_dtoa_r+0x108>
  103ca4:	e59dc080 	ldr	ip, [sp, #128]	; 0x80
  103ca8:	e3a03001 	mov	r3, #1
  103cac:	e35c0000 	cmp	ip, #0
  103cb0:	e59dc078 	ldr	ip, [sp, #120]	; 0x78
  103cb4:	e58c3000 	str	r3, [ip]
  103cb8:	0a000087 	beq	103edc <_dtoa_r+0x2d0>
  103cbc:	e59f33a4 	ldr	r3, [pc, #932]	; 104068 <_dtoa_r+0x45c>
  103cc0:	e2430001 	sub	r0, r3, #1
  103cc4:	e59dc080 	ldr	ip, [sp, #128]	; 0x80
  103cc8:	e58c3000 	str	r3, [ip]
  103ccc:	e28dd044 	add	sp, sp, #68	; 0x44
  103cd0:	ecbd8b02 	vpop	{d8}
  103cd4:	e8bd8ff0 	pop	{r4, r5, r6, r7, r8, r9, sl, fp, pc}
  103cd8:	e59dc078 	ldr	ip, [sp, #120]	; 0x78
  103cdc:	e35a0000 	cmp	sl, #0
  103ce0:	e302370f 	movw	r3, #9999	; 0x270f
  103ce4:	130b0200 	movwne	r0, #45568	; 0xb200
  103ce8:	13400010 	movtne	r0, #16
  103cec:	e58c3000 	str	r3, [ip]
  103cf0:	0a000065 	beq	103e8c <_dtoa_r+0x280>
  103cf4:	e59dc080 	ldr	ip, [sp, #128]	; 0x80
  103cf8:	e35c0000 	cmp	ip, #0
  103cfc:	0afffff2 	beq	103ccc <_dtoa_r+0xc0>
  103d00:	e5d03003 	ldrb	r3, [r0, #3]
  103d04:	e3530000 	cmp	r3, #0
  103d08:	12803008 	addne	r3, r0, #8
  103d0c:	02803003 	addeq	r3, r0, #3
  103d10:	eaffffeb 	b	103cc4 <_dtoa_r+0xb8>
  103d14:	e28d203c 	add	r2, sp, #60	; 0x3c
  103d18:	e28d3038 	add	r3, sp, #56	; 0x38
  103d1c:	e58d2000 	str	r2, [sp]
  103d20:	e1a00004 	mov	r0, r4
  103d24:	e58d3004 	str	r3, [sp, #4]
  103d28:	e1a0200a 	mov	r2, sl
  103d2c:	e1a0300b 	mov	r3, fp
  103d30:	eb000d63 	bl	1072c4 <__d2b>
  103d34:	e1b07a26 	lsrs	r7, r6, #20
  103d38:	e1a09000 	mov	r9, r0
  103d3c:	1a00005b 	bne	103eb0 <_dtoa_r+0x2a4>
  103d40:	e59d2038 	ldr	r2, [sp, #56]	; 0x38
  103d44:	e3e01e41 	mvn	r1, #1040	; 0x410
  103d48:	e59d303c 	ldr	r3, [sp, #60]	; 0x3c
  103d4c:	e0823003 	add	r3, r2, r3
  103d50:	e1530001 	cmp	r3, r1
  103d54:	ba000172 	blt	104324 <_dtoa_r+0x718>
  103d58:	e2830e41 	add	r0, r3, #1040	; 0x410
  103d5c:	e30f1c0e 	movw	r1, #64526	; 0xfc0e
  103d60:	e2800002 	add	r0, r0, #2
  103d64:	e34f1fff 	movt	r1, #65535	; 0xffff
  103d68:	e1a0003a 	lsr	r0, sl, r0
  103d6c:	e0631001 	rsb	r1, r3, r1
  103d70:	e1800116 	orr	r0, r0, r6, lsl r1
  103d74:	ee080a10 	vmov	s16, r0
  103d78:	eef80b48 	vcvt.f64.u32	d16, s16
  103d7c:	e2437001 	sub	r7, r3, #1
  103d80:	e1a03002 	mov	r3, r2
  103d84:	e3a02001 	mov	r2, #1
  103d88:	e58d2020 	str	r2, [sp, #32]
  103d8c:	ec510b30 	vmov	r0, r1, d16
  103d90:	e241161f 	sub	r1, r1, #32505856	; 0x1f00000
  103d94:	eef73b08 	vmov.f64	d19, #120	; 0x78
  103d98:	eddf2bac 	vldr	d18, [pc, #688]	; 104050 <_dtoa_r+0x444>
  103d9c:	ec410b34 	vmov	d20, r0, r1
  103da0:	eddf0bac 	vldr	d16, [pc, #688]	; 104058 <_dtoa_r+0x44c>
  103da4:	eddf1bad 	vldr	d17, [pc, #692]	; 104060 <_dtoa_r+0x454>
  103da8:	ee077a90 	vmov	s15, r7
  103dac:	ee348be3 	vsub.f64	d8, d20, d19
  103db0:	ee480b22 	vmla.f64	d16, d8, d18
  103db4:	eef82be7 	vcvt.f64.s32	d18, s15
  103db8:	ee420ba1 	vmla.f64	d16, d18, d17
  103dbc:	eefd7be0 	vcvt.s32.f64	s15, d16
  103dc0:	eef50bc0 	vcmpe.f64	d16, #0.0
  103dc4:	edcd7a04 	vstr	s15, [sp, #16]
  103dc8:	eef1fa10 	vmrs	APSR_nzcv, fpscr
  103dcc:	4a00014d 	bmi	104308 <_dtoa_r+0x6fc>
  103dd0:	e59dc010 	ldr	ip, [sp, #16]
  103dd4:	e35c0016 	cmp	ip, #22
  103dd8:	83a0c001 	movhi	ip, #1
  103ddc:	858dc030 	strhi	ip, [sp, #48]	; 0x30
  103de0:	8a00000a 	bhi	103e10 <_dtoa_r+0x204>
  103de4:	ec4bab31 	vmov	d17, sl, fp
  103de8:	e30b2060 	movw	r2, #45152	; 0xb060
  103dec:	e3402010 	movt	r2, #16
  103df0:	e082218c 	add	r2, r2, ip, lsl #3
  103df4:	edd20b00 	vldr	d16, [r2]
  103df8:	eef40be1 	vcmpe.f64	d16, d17
  103dfc:	eef1fa10 	vmrs	APSR_nzcv, fpscr
  103e00:	c24cc001 	subgt	ip, ip, #1
  103e04:	c58dc010 	strgt	ip, [sp, #16]
  103e08:	e3a0c000 	mov	ip, #0
  103e0c:	e58dc030 	str	ip, [sp, #48]	; 0x30
  103e10:	e0677003 	rsb	r7, r7, r3
  103e14:	e59dc010 	ldr	ip, [sp, #16]
  103e18:	e2577001 	subs	r7, r7, #1
  103e1c:	42677000 	rsbmi	r7, r7, #0
  103e20:	458d701c 	strmi	r7, [sp, #28]
  103e24:	53a03000 	movpl	r3, #0
  103e28:	43a07000 	movmi	r7, #0
  103e2c:	558d301c 	strpl	r3, [sp, #28]
  103e30:	e35c0000 	cmp	ip, #0
  103e34:	ba00012a 	blt	1042e4 <_dtoa_r+0x6d8>
  103e38:	e087700c 	add	r7, r7, ip
  103e3c:	e3a03000 	mov	r3, #0
  103e40:	e58dc02c 	str	ip, [sp, #44]	; 0x2c
  103e44:	e58d3018 	str	r3, [sp, #24]
  103e48:	e59dc070 	ldr	ip, [sp, #112]	; 0x70
  103e4c:	e35c0009 	cmp	ip, #9
  103e50:	8a000024 	bhi	103ee8 <_dtoa_r+0x2dc>
  103e54:	e35c0005 	cmp	ip, #5
  103e58:	c24cc004 	subgt	ip, ip, #4
  103e5c:	c58dc070 	strgt	ip, [sp, #112]	; 0x70
  103e60:	e59dc070 	ldr	ip, [sp, #112]	; 0x70
  103e64:	c3a06000 	movgt	r6, #0
  103e68:	d3a06001 	movle	r6, #1
  103e6c:	e24c3002 	sub	r3, ip, #2
  103e70:	e3530003 	cmp	r3, #3
  103e74:	979ff103 	ldrls	pc, [pc, r3, lsl #2]
  103e78:	ea00001c 	b	103ef0 <_dtoa_r+0x2e4>
  103e7c:	001045dc 			; <UNDEFINED> instruction: 0x001045dc
  103e80:	001043b8 			; <UNDEFINED> instruction: 0x001043b8
  103e84:	0010460c 	andseq	r4, r0, ip, lsl #12
  103e88:	00104b50 	andseq	r4, r0, r0, asr fp
  103e8c:	e7f30056 	ubfx	r0, r6, #0, #20
  103e90:	e30b21f4 	movw	r2, #45556	; 0xb1f4
  103e94:	e3500000 	cmp	r0, #0
  103e98:	e30b3200 	movw	r3, #45568	; 0xb200
  103e9c:	e3402010 	movt	r2, #16
  103ea0:	e3403010 	movt	r3, #16
  103ea4:	01a00002 	moveq	r0, r2
  103ea8:	11a00003 	movne	r0, r3
  103eac:	eaffff90 	b	103cf4 <_dtoa_r+0xe8>
  103eb0:	e1a0100b 	mov	r1, fp
  103eb4:	e7f32051 	ubfx	r2, r1, #0, #20
  103eb8:	e2477fff 	sub	r7, r7, #1020	; 0x3fc
  103ebc:	e38225ff 	orr	r2, r2, #1069547520	; 0x3fc00000
  103ec0:	e3a0c000 	mov	ip, #0
  103ec4:	e1a0000a 	mov	r0, sl
  103ec8:	e2477003 	sub	r7, r7, #3
  103ecc:	e59d3038 	ldr	r3, [sp, #56]	; 0x38
  103ed0:	e58dc020 	str	ip, [sp, #32]
  103ed4:	e3821603 	orr	r1, r2, #3145728	; 0x300000
  103ed8:	eaffffad 	b	103d94 <_dtoa_r+0x188>
  103edc:	e30b01f0 	movw	r0, #45552	; 0xb1f0
  103ee0:	e3400010 	movt	r0, #16
  103ee4:	eaffff78 	b	103ccc <_dtoa_r+0xc0>
  103ee8:	e3a0c000 	mov	ip, #0
  103eec:	e58dc070 	str	ip, [sp, #112]	; 0x70
  103ef0:	e3a03000 	mov	r3, #0
  103ef4:	e1a00004 	mov	r0, r4
  103ef8:	e5843044 	str	r3, [r4, #68]	; 0x44
  103efc:	e1a01003 	mov	r1, r3
  103f00:	e3e0c000 	mvn	ip, #0
  103f04:	e58d3074 	str	r3, [sp, #116]	; 0x74
  103f08:	e58dc028 	str	ip, [sp, #40]	; 0x28
  103f0c:	eb000a6b 	bl	1068c0 <_Balloc>
  103f10:	e59d5028 	ldr	r5, [sp, #40]	; 0x28
  103f14:	e3a0c001 	mov	ip, #1
  103f18:	e58dc024 	str	ip, [sp, #36]	; 0x24
  103f1c:	e1a06000 	mov	r6, r0
  103f20:	e5840040 	str	r0, [r4, #64]	; 0x40
  103f24:	e59d303c 	ldr	r3, [sp, #60]	; 0x3c
  103f28:	e3530000 	cmp	r3, #0
  103f2c:	ba00004e 	blt	10406c <_dtoa_r+0x460>
  103f30:	e59dc010 	ldr	ip, [sp, #16]
  103f34:	e35c000e 	cmp	ip, #14
  103f38:	ca00004b 	bgt	10406c <_dtoa_r+0x460>
  103f3c:	e59de074 	ldr	lr, [sp, #116]	; 0x74
  103f40:	e30b3060 	movw	r3, #45152	; 0xb060
  103f44:	e3403010 	movt	r3, #16
  103f48:	e083318c 	add	r3, r3, ip, lsl #3
  103f4c:	edd31b00 	vldr	d17, [r3]
  103f50:	e1a02fae 	lsr	r2, lr, #31
  103f54:	e3550000 	cmp	r5, #0
  103f58:	c3a02000 	movgt	r2, #0
  103f5c:	d2022001 	andle	r2, r2, #1
  103f60:	e3520000 	cmp	r2, #0
  103f64:	1a000269 	bne	104910 <_dtoa_r+0xd04>
  103f68:	ec4bab30 	vmov	d16, sl, fp
  103f6c:	e286c001 	add	ip, r6, #1
  103f70:	e3550001 	cmp	r5, #1
  103f74:	e58dc034 	str	ip, [sp, #52]	; 0x34
  103f78:	eec02ba1 	vdiv.f64	d18, d16, d17
  103f7c:	e1a0300c 	mov	r3, ip
  103f80:	eefd7be2 	vcvt.s32.f64	s15, d18
  103f84:	ee17ea90 	vmov	lr, s15
  103f88:	eef82be7 	vcvt.f64.s32	d18, s15
  103f8c:	ee420be1 	vmls.f64	d16, d18, d17
  103f90:	e28e2030 	add	r2, lr, #48	; 0x30
  103f94:	e5c62000 	strb	r2, [r6]
  103f98:	0a000016 	beq	103ff8 <_dtoa_r+0x3ec>
  103f9c:	eef23b04 	vmov.f64	d19, #36	; 0x24
  103fa0:	ee600ba3 	vmul.f64	d16, d16, d19
  103fa4:	eef50b40 	vcmp.f64	d16, #0.0
  103fa8:	eef1fa10 	vmrs	APSR_nzcv, fpscr
  103fac:	0a00039d 	beq	104e28 <_dtoa_r+0x121c>
  103fb0:	e0865005 	add	r5, r6, r5
  103fb4:	e2862002 	add	r2, r6, #2
  103fb8:	ea000003 	b	103fcc <_dtoa_r+0x3c0>
  103fbc:	ee600ba3 	vmul.f64	d16, d16, d19
  103fc0:	eef50b40 	vcmp.f64	d16, #0.0
  103fc4:	eef1fa10 	vmrs	APSR_nzcv, fpscr
  103fc8:	0a00030e 	beq	104c08 <_dtoa_r+0xffc>
  103fcc:	eec02ba1 	vdiv.f64	d18, d16, d17
  103fd0:	e1520005 	cmp	r2, r5
  103fd4:	e1a03002 	mov	r3, r2
  103fd8:	e2822001 	add	r2, r2, #1
  103fdc:	eefd7be2 	vcvt.s32.f64	s15, d18
  103fe0:	ee17ca90 	vmov	ip, s15
  103fe4:	eef82be7 	vcvt.f64.s32	d18, s15
  103fe8:	ee420be1 	vmls.f64	d16, d18, d17
  103fec:	e28c1030 	add	r1, ip, #48	; 0x30
  103ff0:	e5421002 	strb	r1, [r2, #-2]
  103ff4:	1afffff0 	bne	103fbc <_dtoa_r+0x3b0>
  103ff8:	ee700ba0 	vadd.f64	d16, d16, d16
  103ffc:	eef41be0 	vcmpe.f64	d17, d16
  104000:	eef1fa10 	vmrs	APSR_nzcv, fpscr
  104004:	5a00035e 	bpl	104d84 <_dtoa_r+0x1178>
  104008:	e59d1010 	ldr	r1, [sp, #16]
  10400c:	e1a05006 	mov	r5, r6
  104010:	e5530001 	ldrb	r0, [r3, #-1]
  104014:	e59dc034 	ldr	ip, [sp, #52]	; 0x34
  104018:	ea000003 	b	10402c <_dtoa_r+0x420>
  10401c:	e153000c 	cmp	r3, ip
  104020:	0a0002df 	beq	104ba4 <_dtoa_r+0xf98>
  104024:	e5530002 	ldrb	r0, [r3, #-2]
  104028:	e1a03002 	mov	r3, r2
  10402c:	e3500039 	cmp	r0, #57	; 0x39
  104030:	e1a06003 	mov	r6, r3
  104034:	e2432001 	sub	r2, r3, #1
  104038:	0afffff7 	beq	10401c <_dtoa_r+0x410>
  10403c:	e2803001 	add	r3, r0, #1
  104040:	e58d1010 	str	r1, [sp, #16]
  104044:	e6ef3073 	uxtb	r3, r3
  104048:	e5c23000 	strb	r3, [r2]
  10404c:	ea000091 	b	104298 <_dtoa_r+0x68c>
  104050:	636f4361 	cmnvs	pc, #-2080374783	; 0x84000001
  104054:	3fd287a7 	svccc	0x00d287a7
  104058:	8b60c8b3 	blhi	193632c <__undef_stack+0x181f7ec>
  10405c:	3fc68a28 	svccc	0x00c68a28
  104060:	509f79fb 			; <UNDEFINED> instruction: 0x509f79fb
  104064:	3fd34413 	svccc	0x00d34413
  104068:	0010b1f1 			; <UNDEFINED> instruction: 0x0010b1f1
  10406c:	e59dc024 	ldr	ip, [sp, #36]	; 0x24
  104070:	e35c0000 	cmp	ip, #0
  104074:	1a0000b0 	bne	10433c <_dtoa_r+0x730>
  104078:	e59d0024 	ldr	r0, [sp, #36]	; 0x24
  10407c:	e59dc018 	ldr	ip, [sp, #24]
  104080:	e59d801c 	ldr	r8, [sp, #28]
  104084:	e58d0020 	str	r0, [sp, #32]
  104088:	e3570000 	cmp	r7, #0
  10408c:	c3580000 	cmpgt	r8, #0
  104090:	da000007 	ble	1040b4 <_dtoa_r+0x4a8>
  104094:	e1570008 	cmp	r7, r8
  104098:	b1a03007 	movlt	r3, r7
  10409c:	a1a03008 	movge	r3, r8
  1040a0:	e59d101c 	ldr	r1, [sp, #28]
  1040a4:	e0638008 	rsb	r8, r3, r8
  1040a8:	e0637007 	rsb	r7, r3, r7
  1040ac:	e0631001 	rsb	r1, r3, r1
  1040b0:	e58d101c 	str	r1, [sp, #28]
  1040b4:	e59d3018 	ldr	r3, [sp, #24]
  1040b8:	e3530000 	cmp	r3, #0
  1040bc:	da000019 	ble	104128 <_dtoa_r+0x51c>
  1040c0:	e59de024 	ldr	lr, [sp, #36]	; 0x24
  1040c4:	e35e0000 	cmp	lr, #0
  1040c8:	0a0002af 	beq	104b8c <_dtoa_r+0xf80>
  1040cc:	e35c0000 	cmp	ip, #0
  1040d0:	da000011 	ble	10411c <_dtoa_r+0x510>
  1040d4:	e1a0200c 	mov	r2, ip
  1040d8:	e59d1020 	ldr	r1, [sp, #32]
  1040dc:	e1a00004 	mov	r0, r4
  1040e0:	e58dc00c 	str	ip, [sp, #12]
  1040e4:	eb000b44 	bl	106dfc <__pow5mult>
  1040e8:	e1a02009 	mov	r2, r9
  1040ec:	e58d0020 	str	r0, [sp, #32]
  1040f0:	e1a00004 	mov	r0, r4
  1040f4:	e59d1020 	ldr	r1, [sp, #32]
  1040f8:	eb000acb 	bl	106c2c <__multiply>
  1040fc:	e1a01009 	mov	r1, r9
  104100:	e1a03000 	mov	r3, r0
  104104:	e1a00004 	mov	r0, r4
  104108:	e58d3008 	str	r3, [sp, #8]
  10410c:	eb000a0e 	bl	10694c <_Bfree>
  104110:	e59d3008 	ldr	r3, [sp, #8]
  104114:	e59dc00c 	ldr	ip, [sp, #12]
  104118:	e1a09003 	mov	r9, r3
  10411c:	e59d3018 	ldr	r3, [sp, #24]
  104120:	e053200c 	subs	r2, r3, ip
  104124:	1a0002c7 	bne	104c48 <_dtoa_r+0x103c>
  104128:	e1a00004 	mov	r0, r4
  10412c:	e3a01001 	mov	r1, #1
  104130:	eb000ab5 	bl	106c0c <__i2b>
  104134:	e59dc02c 	ldr	ip, [sp, #44]	; 0x2c
  104138:	e35c0000 	cmp	ip, #0
  10413c:	e58d0018 	str	r0, [sp, #24]
  104140:	da000004 	ble	104158 <_dtoa_r+0x54c>
  104144:	e1a01000 	mov	r1, r0
  104148:	e1a0200c 	mov	r2, ip
  10414c:	e1a00004 	mov	r0, r4
  104150:	eb000b29 	bl	106dfc <__pow5mult>
  104154:	e58d0018 	str	r0, [sp, #24]
  104158:	e59dc070 	ldr	ip, [sp, #112]	; 0x70
  10415c:	e35c0001 	cmp	ip, #1
  104160:	da0001f5 	ble	10493c <_dtoa_r+0xd30>
  104164:	e3a0c000 	mov	ip, #0
  104168:	e58dc034 	str	ip, [sp, #52]	; 0x34
  10416c:	e59d302c 	ldr	r3, [sp, #44]	; 0x2c
  104170:	e3530000 	cmp	r3, #0
  104174:	03a00001 	moveq	r0, #1
  104178:	1a0001dd 	bne	1048f4 <_dtoa_r+0xce8>
  10417c:	e0803007 	add	r3, r0, r7
  104180:	e213301f 	ands	r3, r3, #31
  104184:	0a00016f 	beq	104748 <_dtoa_r+0xb3c>
  104188:	e2632020 	rsb	r2, r3, #32
  10418c:	e3520004 	cmp	r2, #4
  104190:	da000331 	ble	104e5c <_dtoa_r+0x1250>
  104194:	e263301c 	rsb	r3, r3, #28
  104198:	e59dc01c 	ldr	ip, [sp, #28]
  10419c:	e0888003 	add	r8, r8, r3
  1041a0:	e0877003 	add	r7, r7, r3
  1041a4:	e08cc003 	add	ip, ip, r3
  1041a8:	e58dc01c 	str	ip, [sp, #28]
  1041ac:	e59d301c 	ldr	r3, [sp, #28]
  1041b0:	e3530000 	cmp	r3, #0
  1041b4:	da000004 	ble	1041cc <_dtoa_r+0x5c0>
  1041b8:	e1a01009 	mov	r1, r9
  1041bc:	e1a02003 	mov	r2, r3
  1041c0:	e1a00004 	mov	r0, r4
  1041c4:	eb000b4b 	bl	106ef8 <__lshift>
  1041c8:	e1a09000 	mov	r9, r0
  1041cc:	e3570000 	cmp	r7, #0
  1041d0:	da000004 	ble	1041e8 <_dtoa_r+0x5dc>
  1041d4:	e59d1018 	ldr	r1, [sp, #24]
  1041d8:	e1a02007 	mov	r2, r7
  1041dc:	e1a00004 	mov	r0, r4
  1041e0:	eb000b44 	bl	106ef8 <__lshift>
  1041e4:	e58d0018 	str	r0, [sp, #24]
  1041e8:	e59dc030 	ldr	ip, [sp, #48]	; 0x30
  1041ec:	e35c0000 	cmp	ip, #0
  1041f0:	1a0001a2 	bne	104880 <_dtoa_r+0xc74>
  1041f4:	e59dc070 	ldr	ip, [sp, #112]	; 0x70
  1041f8:	e35c0002 	cmp	ip, #2
  1041fc:	d3a03000 	movle	r3, #0
  104200:	c3a03001 	movgt	r3, #1
  104204:	e3550000 	cmp	r5, #0
  104208:	c3a03000 	movgt	r3, #0
  10420c:	e3530000 	cmp	r3, #0
  104210:	0a00011a 	beq	104680 <_dtoa_r+0xa74>
  104214:	e3550000 	cmp	r5, #0
  104218:	1a000112 	bne	104668 <_dtoa_r+0xa5c>
  10421c:	e59d1018 	ldr	r1, [sp, #24]
  104220:	e1a03005 	mov	r3, r5
  104224:	e3a02005 	mov	r2, #5
  104228:	e1a00004 	mov	r0, r4
  10422c:	eb0009cd 	bl	106968 <__multadd>
  104230:	e58d0018 	str	r0, [sp, #24]
  104234:	e1a00009 	mov	r0, r9
  104238:	e59d1018 	ldr	r1, [sp, #24]
  10423c:	eb000b71 	bl	107008 <__mcmp>
  104240:	e3500000 	cmp	r0, #0
  104244:	da000107 	ble	104668 <_dtoa_r+0xa5c>
  104248:	e59dc010 	ldr	ip, [sp, #16]
  10424c:	e3a03031 	mov	r3, #49	; 0x31
  104250:	e1a05006 	mov	r5, r6
  104254:	e5c63000 	strb	r3, [r6]
  104258:	e2866001 	add	r6, r6, #1
  10425c:	e3a0a000 	mov	sl, #0
  104260:	e28cc001 	add	ip, ip, #1
  104264:	e58dc010 	str	ip, [sp, #16]
  104268:	e59d1018 	ldr	r1, [sp, #24]
  10426c:	e1a00004 	mov	r0, r4
  104270:	eb0009b5 	bl	10694c <_Bfree>
  104274:	e59dc020 	ldr	ip, [sp, #32]
  104278:	e35c0000 	cmp	ip, #0
  10427c:	0a000005 	beq	104298 <_dtoa_r+0x68c>
  104280:	e15a000c 	cmp	sl, ip
  104284:	135a0000 	cmpne	sl, #0
  104288:	1a000130 	bne	104750 <_dtoa_r+0xb44>
  10428c:	e59d1020 	ldr	r1, [sp, #32]
  104290:	e1a00004 	mov	r0, r4
  104294:	eb0009ac 	bl	10694c <_Bfree>
  104298:	e1a00004 	mov	r0, r4
  10429c:	e1a01009 	mov	r1, r9
  1042a0:	eb0009a9 	bl	10694c <_Bfree>
  1042a4:	e59dc080 	ldr	ip, [sp, #128]	; 0x80
  1042a8:	e3a02000 	mov	r2, #0
  1042ac:	e5c62000 	strb	r2, [r6]
  1042b0:	e35c0000 	cmp	ip, #0
  1042b4:	e59dc010 	ldr	ip, [sp, #16]
  1042b8:	e28c3001 	add	r3, ip, #1
  1042bc:	e59dc078 	ldr	ip, [sp, #120]	; 0x78
  1042c0:	01a00005 	moveq	r0, r5
  1042c4:	e58c3000 	str	r3, [ip]
  1042c8:	0afffe7f 	beq	103ccc <_dtoa_r+0xc0>
  1042cc:	e59dc080 	ldr	ip, [sp, #128]	; 0x80
  1042d0:	e1a00005 	mov	r0, r5
  1042d4:	e58c6000 	str	r6, [ip]
  1042d8:	e28dd044 	add	sp, sp, #68	; 0x44
  1042dc:	ecbd8b02 	vpop	{d8}
  1042e0:	e8bd8ff0 	pop	{r4, r5, r6, r7, r8, r9, sl, fp, pc}
  1042e4:	e59dc01c 	ldr	ip, [sp, #28]
  1042e8:	e59de010 	ldr	lr, [sp, #16]
  1042ec:	e06ec00c 	rsb	ip, lr, ip
  1042f0:	e26e3000 	rsb	r3, lr, #0
  1042f4:	e58dc01c 	str	ip, [sp, #28]
  1042f8:	e3a0c000 	mov	ip, #0
  1042fc:	e58d3018 	str	r3, [sp, #24]
  104300:	e58dc02c 	str	ip, [sp, #44]	; 0x2c
  104304:	eafffecf 	b	103e48 <_dtoa_r+0x23c>
  104308:	eef81be7 	vcvt.f64.s32	d17, s15
  10430c:	eef41b60 	vcmp.f64	d17, d16
  104310:	eef1fa10 	vmrs	APSR_nzcv, fpscr
  104314:	1e17ca90 	vmovne	ip, s15
  104318:	124cc001 	subne	ip, ip, #1
  10431c:	158dc010 	strne	ip, [sp, #16]
  104320:	eafffeaa 	b	103dd0 <_dtoa_r+0x1c4>
  104324:	e30f1bee 	movw	r1, #64494	; 0xfbee
  104328:	e34f1fff 	movt	r1, #65535	; 0xffff
  10432c:	e0631001 	rsb	r1, r3, r1
  104330:	e1a0111a 	lsl	r1, sl, r1
  104334:	ee081a10 	vmov	s16, r1
  104338:	eafffe8e 	b	103d78 <_dtoa_r+0x16c>
  10433c:	e59dc070 	ldr	ip, [sp, #112]	; 0x70
  104340:	e35c0001 	cmp	ip, #1
  104344:	da00024c 	ble	104c7c <_dtoa_r+0x1070>
  104348:	e59d3018 	ldr	r3, [sp, #24]
  10434c:	e2452001 	sub	r2, r5, #1
  104350:	e1530002 	cmp	r3, r2
  104354:	a062c003 	rsbge	ip, r2, r3
  104358:	b59dc018 	ldrlt	ip, [sp, #24]
  10435c:	b58d2018 	strlt	r2, [sp, #24]
  104360:	b06c3002 	rsblt	r3, ip, r2
  104364:	b59dc02c 	ldrlt	ip, [sp, #44]	; 0x2c
  104368:	b08cc003 	addlt	ip, ip, r3
  10436c:	b58dc02c 	strlt	ip, [sp, #44]	; 0x2c
  104370:	b3a0c000 	movlt	ip, #0
  104374:	e3550000 	cmp	r5, #0
  104378:	b59d301c 	ldrlt	r3, [sp, #28]
  10437c:	a1a03005 	movge	r3, r5
  104380:	a59d801c 	ldrge	r8, [sp, #28]
  104384:	b0658003 	rsblt	r8, r5, r3
  104388:	b3a03000 	movlt	r3, #0
  10438c:	e59de01c 	ldr	lr, [sp, #28]
  104390:	e1a00004 	mov	r0, r4
  104394:	e3a01001 	mov	r1, #1
  104398:	e58dc00c 	str	ip, [sp, #12]
  10439c:	e08ee003 	add	lr, lr, r3
  1043a0:	e0877003 	add	r7, r7, r3
  1043a4:	e58de01c 	str	lr, [sp, #28]
  1043a8:	eb000a17 	bl	106c0c <__i2b>
  1043ac:	e59dc00c 	ldr	ip, [sp, #12]
  1043b0:	e58d0020 	str	r0, [sp, #32]
  1043b4:	eaffff33 	b	104088 <_dtoa_r+0x47c>
  1043b8:	e3a0c000 	mov	ip, #0
  1043bc:	e58dc024 	str	ip, [sp, #36]	; 0x24
  1043c0:	e59de074 	ldr	lr, [sp, #116]	; 0x74
  1043c4:	e59dc010 	ldr	ip, [sp, #16]
  1043c8:	e08ec00c 	add	ip, lr, ip
  1043cc:	e58dc028 	str	ip, [sp, #40]	; 0x28
  1043d0:	e28c5001 	add	r5, ip, #1
  1043d4:	e3550000 	cmp	r5, #0
  1043d8:	da0001df 	ble	104b5c <_dtoa_r+0xf50>
  1043dc:	e355000e 	cmp	r5, #14
  1043e0:	83a08000 	movhi	r8, #0
  1043e4:	92068001 	andls	r8, r6, #1
  1043e8:	e1a0c005 	mov	ip, r5
  1043ec:	e35c0017 	cmp	ip, #23
  1043f0:	e3a01000 	mov	r1, #0
  1043f4:	e5841044 	str	r1, [r4, #68]	; 0x44
  1043f8:	9a000008 	bls	104420 <_dtoa_r+0x814>
  1043fc:	e3a02001 	mov	r2, #1
  104400:	e3a03004 	mov	r3, #4
  104404:	e1a03083 	lsl	r3, r3, #1
  104408:	e1a01002 	mov	r1, r2
  10440c:	e2830014 	add	r0, r3, #20
  104410:	e2822001 	add	r2, r2, #1
  104414:	e150000c 	cmp	r0, ip
  104418:	9afffff9 	bls	104404 <_dtoa_r+0x7f8>
  10441c:	e5841044 	str	r1, [r4, #68]	; 0x44
  104420:	e1a00004 	mov	r0, r4
  104424:	eb000925 	bl	1068c0 <_Balloc>
  104428:	e3580000 	cmp	r8, #0
  10442c:	e1a06000 	mov	r6, r0
  104430:	e5840040 	str	r0, [r4, #64]	; 0x40
  104434:	0afffeba 	beq	103f24 <_dtoa_r+0x318>
  104438:	e59dc010 	ldr	ip, [sp, #16]
  10443c:	ec4bab35 	vmov	d21, sl, fp
  104440:	e35c0000 	cmp	ip, #0
  104444:	da0000c7 	ble	104768 <_dtoa_r+0xb5c>
  104448:	e1a0324c 	asr	r3, ip, #4
  10444c:	e20c100f 	and	r1, ip, #15
  104450:	e3130010 	tst	r3, #16
  104454:	e30b2060 	movw	r2, #45152	; 0xb060
  104458:	e3402010 	movt	r2, #16
  10445c:	1203300f 	andne	r3, r3, #15
  104460:	e0822181 	add	r2, r2, r1, lsl #3
  104464:	0ef02b65 	vmoveq.f64	d18, d21
  104468:	edd20b00 	vldr	d16, [r2]
  10446c:	13a01003 	movne	r1, #3
  104470:	130b2150 	movwne	r2, #45392	; 0xb150
  104474:	03a01002 	moveq	r1, #2
  104478:	13402010 	movtne	r2, #16
  10447c:	1dd21b08 	vldrne	d17, [r2, #32]
  104480:	1ec52ba1 	vdivne.f64	d18, d21, d17
  104484:	e3530000 	cmp	r3, #0
  104488:	0a000008 	beq	1044b0 <_dtoa_r+0x8a4>
  10448c:	e30b2150 	movw	r2, #45392	; 0xb150
  104490:	e3402010 	movt	r2, #16
  104494:	e3130001 	tst	r3, #1
  104498:	1dd21b00 	vldrne	d17, [r2]
  10449c:	12811001 	addne	r1, r1, #1
  1044a0:	e2822008 	add	r2, r2, #8
  1044a4:	1e600ba1 	vmulne.f64	d16, d16, d17
  1044a8:	e1b030c3 	asrs	r3, r3, #1
  1044ac:	1afffff8 	bne	104494 <_dtoa_r+0x888>
  1044b0:	eec20ba0 	vdiv.f64	d16, d18, d16
  1044b4:	e59d3030 	ldr	r3, [sp, #48]	; 0x30
  1044b8:	e3530000 	cmp	r3, #0
  1044bc:	0a000003 	beq	1044d0 <_dtoa_r+0x8c4>
  1044c0:	eef71b00 	vmov.f64	d17, #112	; 0x70
  1044c4:	eef40be1 	vcmpe.f64	d16, d17
  1044c8:	eef1fa10 	vmrs	APSR_nzcv, fpscr
  1044cc:	4a0001ba 	bmi	104bbc <_dtoa_r+0xfb0>
  1044d0:	eef11b0c 	vmov.f64	d17, #28
  1044d4:	e3550000 	cmp	r5, #0
  1044d8:	ee071a90 	vmov	s15, r1
  1044dc:	eef82be7 	vcvt.f64.s32	d18, s15
  1044e0:	eef03b61 	vmov.f64	d19, d17
  1044e4:	ee423ba0 	vmla.f64	d19, d18, d16
  1044e8:	ec5bab33 	vmov	sl, fp, d19
  1044ec:	e24bb50d 	sub	fp, fp, #54525952	; 0x3400000
  1044f0:	0a00004f 	beq	104634 <_dtoa_r+0xa28>
  1044f4:	e59d1010 	ldr	r1, [sp, #16]
  1044f8:	e1a02005 	mov	r2, r5
  1044fc:	e59dc024 	ldr	ip, [sp, #36]	; 0x24
  104500:	e35c0000 	cmp	ip, #0
  104504:	0a0000b4 	beq	1047dc <_dtoa_r+0xbd0>
  104508:	eef62b00 	vmov.f64	d18, #96	; 0x60
  10450c:	e30b3060 	movw	r3, #45152	; 0xb060
  104510:	e3403010 	movt	r3, #16
  104514:	e286c001 	add	ip, r6, #1
  104518:	e0833182 	add	r3, r3, r2, lsl #3
  10451c:	ed531b02 	vldr	d17, [r3, #-8]
  104520:	e58dc034 	str	ip, [sp, #52]	; 0x34
  104524:	e1a0300c 	mov	r3, ip
  104528:	ec4bab33 	vmov	d19, sl, fp
  10452c:	eec21ba1 	vdiv.f64	d17, d18, d17
  104530:	eefd7be0 	vcvt.s32.f64	s15, d16
  104534:	ee17ca90 	vmov	ip, s15
  104538:	eef82be7 	vcvt.f64.s32	d18, s15
  10453c:	ee711be3 	vsub.f64	d17, d17, d19
  104540:	ee700be2 	vsub.f64	d16, d16, d18
  104544:	e28c0030 	add	r0, ip, #48	; 0x30
  104548:	e6ef0070 	uxtb	r0, r0
  10454c:	e5c60000 	strb	r0, [r6]
  104550:	eef41be0 	vcmpe.f64	d17, d16
  104554:	eef1fa10 	vmrs	APSR_nzcv, fpscr
  104558:	ca00023b 	bgt	104e4c <_dtoa_r+0x1240>
  10455c:	eef74b00 	vmov.f64	d20, #112	; 0x70
  104560:	ee742be0 	vsub.f64	d18, d20, d16
  104564:	eef41be2 	vcmpe.f64	d17, d18
  104568:	eef1fa10 	vmrs	APSR_nzcv, fpscr
  10456c:	ca0001e5 	bgt	104d08 <_dtoa_r+0x10fc>
  104570:	e3520001 	cmp	r2, #1
  104574:	da000079 	ble	104760 <_dtoa_r+0xb54>
  104578:	e0862002 	add	r2, r6, r2
  10457c:	eef22b04 	vmov.f64	d18, #36	; 0x24
  104580:	ea000005 	b	10459c <_dtoa_r+0x990>
  104584:	ee743be0 	vsub.f64	d19, d20, d16
  104588:	eef43be1 	vcmpe.f64	d19, d17
  10458c:	eef1fa10 	vmrs	APSR_nzcv, fpscr
  104590:	4a0001dc 	bmi	104d08 <_dtoa_r+0x10fc>
  104594:	e1530002 	cmp	r3, r2
  104598:	0a000070 	beq	104760 <_dtoa_r+0xb54>
  10459c:	ee600ba2 	vmul.f64	d16, d16, d18
  1045a0:	eefd7be0 	vcvt.s32.f64	s15, d16
  1045a4:	ee17ea90 	vmov	lr, s15
  1045a8:	ee611ba2 	vmul.f64	d17, d17, d18
  1045ac:	eef83be7 	vcvt.f64.s32	d19, s15
  1045b0:	e28e0030 	add	r0, lr, #48	; 0x30
  1045b4:	e6ef0070 	uxtb	r0, r0
  1045b8:	e4c30001 	strb	r0, [r3], #1
  1045bc:	ee700be3 	vsub.f64	d16, d16, d19
  1045c0:	eef40be1 	vcmpe.f64	d16, d17
  1045c4:	eef1fa10 	vmrs	APSR_nzcv, fpscr
  1045c8:	5affffed 	bpl	104584 <_dtoa_r+0x978>
  1045cc:	e1a05006 	mov	r5, r6
  1045d0:	e58d1010 	str	r1, [sp, #16]
  1045d4:	e1a06003 	mov	r6, r3
  1045d8:	eaffff2e 	b	104298 <_dtoa_r+0x68c>
  1045dc:	e3a0c000 	mov	ip, #0
  1045e0:	e58dc024 	str	ip, [sp, #36]	; 0x24
  1045e4:	e59de074 	ldr	lr, [sp, #116]	; 0x74
  1045e8:	e35e0000 	cmp	lr, #0
  1045ec:	da000161 	ble	104b78 <_dtoa_r+0xf6c>
  1045f0:	e35e000e 	cmp	lr, #14
  1045f4:	83a08000 	movhi	r8, #0
  1045f8:	92068001 	andls	r8, r6, #1
  1045fc:	e1a0c00e 	mov	ip, lr
  104600:	e58de028 	str	lr, [sp, #40]	; 0x28
  104604:	e1a0500e 	mov	r5, lr
  104608:	eaffff77 	b	1043ec <_dtoa_r+0x7e0>
  10460c:	e3a0c001 	mov	ip, #1
  104610:	e58dc024 	str	ip, [sp, #36]	; 0x24
  104614:	eafffff2 	b	1045e4 <_dtoa_r+0x9d8>
  104618:	eef11b0c 	vmov.f64	d17, #28
  10461c:	ee071a90 	vmov	s15, r1
  104620:	eef82be7 	vcvt.f64.s32	d18, s15
  104624:	eef03b61 	vmov.f64	d19, d17
  104628:	ee403ba2 	vmla.f64	d19, d16, d18
  10462c:	ec5bab33 	vmov	sl, fp, d19
  104630:	e24bb50d 	sub	fp, fp, #54525952	; 0x3400000
  104634:	eef12b04 	vmov.f64	d18, #20
  104638:	ec4bab31 	vmov	d17, sl, fp
  10463c:	ee700be2 	vsub.f64	d16, d16, d18
  104640:	eef40be1 	vcmpe.f64	d16, d17
  104644:	eef1fa10 	vmrs	APSR_nzcv, fpscr
  104648:	ca00005f 	bgt	1047cc <_dtoa_r+0xbc0>
  10464c:	eef11b61 	vneg.f64	d17, d17
  104650:	eef40be1 	vcmpe.f64	d16, d17
  104654:	eef1fa10 	vmrs	APSR_nzcv, fpscr
  104658:	5a000040 	bpl	104760 <_dtoa_r+0xb54>
  10465c:	e3a0c000 	mov	ip, #0
  104660:	e58dc018 	str	ip, [sp, #24]
  104664:	e58dc020 	str	ip, [sp, #32]
  104668:	e59dc074 	ldr	ip, [sp, #116]	; 0x74
  10466c:	e1a05006 	mov	r5, r6
  104670:	e3a0a000 	mov	sl, #0
  104674:	e1e0c00c 	mvn	ip, ip
  104678:	e58dc010 	str	ip, [sp, #16]
  10467c:	eafffef9 	b	104268 <_dtoa_r+0x65c>
  104680:	e59dc024 	ldr	ip, [sp, #36]	; 0x24
  104684:	e35c0000 	cmp	ip, #0
  104688:	1a0000ce 	bne	1049c8 <_dtoa_r+0xdbc>
  10468c:	e3a08000 	mov	r8, #0
  104690:	e59da018 	ldr	sl, [sp, #24]
  104694:	ea000001 	b	1046a0 <_dtoa_r+0xa94>
  104698:	eb0008b2 	bl	106968 <__multadd>
  10469c:	e1a09000 	mov	r9, r0
  1046a0:	e1a0100a 	mov	r1, sl
  1046a4:	e1a00009 	mov	r0, r9
  1046a8:	ebfffce4 	bl	103a40 <quorem>
  1046ac:	e1a01009 	mov	r1, r9
  1046b0:	e3a0200a 	mov	r2, #10
  1046b4:	e3a03000 	mov	r3, #0
  1046b8:	e2807030 	add	r7, r0, #48	; 0x30
  1046bc:	e7c67008 	strb	r7, [r6, r8]
  1046c0:	e2888001 	add	r8, r8, #1
  1046c4:	e1a00004 	mov	r0, r4
  1046c8:	e1580005 	cmp	r8, r5
  1046cc:	bafffff1 	blt	104698 <_dtoa_r+0xa8c>
  1046d0:	e3550001 	cmp	r5, #1
  1046d4:	a086b005 	addge	fp, r6, r5
  1046d8:	b286b001 	addlt	fp, r6, #1
  1046dc:	e1a0a003 	mov	sl, r3
  1046e0:	e1a01009 	mov	r1, r9
  1046e4:	e3a02001 	mov	r2, #1
  1046e8:	e1a00004 	mov	r0, r4
  1046ec:	eb000a01 	bl	106ef8 <__lshift>
  1046f0:	e59d1018 	ldr	r1, [sp, #24]
  1046f4:	e1a09000 	mov	r9, r0
  1046f8:	eb000a42 	bl	107008 <__mcmp>
  1046fc:	e3500000 	cmp	r0, #0
  104700:	da000182 	ble	104d10 <_dtoa_r+0x1104>
  104704:	e55b3001 	ldrb	r3, [fp, #-1]
  104708:	e286c001 	add	ip, r6, #1
  10470c:	e58dc034 	str	ip, [sp, #52]	; 0x34
  104710:	e59d1034 	ldr	r1, [sp, #52]	; 0x34
  104714:	ea000003 	b	104728 <_dtoa_r+0xb1c>
  104718:	e15b0001 	cmp	fp, r1
  10471c:	0a00014e 	beq	104c5c <_dtoa_r+0x1050>
  104720:	e55b3002 	ldrb	r3, [fp, #-2]
  104724:	e1a0b002 	mov	fp, r2
  104728:	e3530039 	cmp	r3, #57	; 0x39
  10472c:	e24b2001 	sub	r2, fp, #1
  104730:	0afffff8 	beq	104718 <_dtoa_r+0xb0c>
  104734:	e2833001 	add	r3, r3, #1
  104738:	e1a05006 	mov	r5, r6
  10473c:	e5c23000 	strb	r3, [r2]
  104740:	e1a0600b 	mov	r6, fp
  104744:	eafffec7 	b	104268 <_dtoa_r+0x65c>
  104748:	e3a0301c 	mov	r3, #28
  10474c:	eafffe91 	b	104198 <_dtoa_r+0x58c>
  104750:	e1a0100a 	mov	r1, sl
  104754:	e1a00004 	mov	r0, r4
  104758:	eb00087b 	bl	10694c <_Bfree>
  10475c:	eafffeca 	b	10428c <_dtoa_r+0x680>
  104760:	ec5bab35 	vmov	sl, fp, d21
  104764:	eafffdee 	b	103f24 <_dtoa_r+0x318>
  104768:	e59dc010 	ldr	ip, [sp, #16]
  10476c:	e26c3000 	rsb	r3, ip, #0
  104770:	e3530000 	cmp	r3, #0
  104774:	0ef00b65 	vmoveq.f64	d16, d21
  104778:	03a01002 	moveq	r1, #2
  10477c:	0affff4c 	beq	1044b4 <_dtoa_r+0x8a8>
  104780:	e203100f 	and	r1, r3, #15
  104784:	e1b03243 	asrs	r3, r3, #4
  104788:	e30b2060 	movw	r2, #45152	; 0xb060
  10478c:	e3402010 	movt	r2, #16
  104790:	e0822181 	add	r2, r2, r1, lsl #3
  104794:	edd20b00 	vldr	d16, [r2]
  104798:	ee650ba0 	vmul.f64	d16, d21, d16
  10479c:	0a0001a8 	beq	104e44 <_dtoa_r+0x1238>
  1047a0:	e30b2150 	movw	r2, #45392	; 0xb150
  1047a4:	e3402010 	movt	r2, #16
  1047a8:	e3a01002 	mov	r1, #2
  1047ac:	e3130001 	tst	r3, #1
  1047b0:	1dd21b00 	vldrne	d17, [r2]
  1047b4:	12811001 	addne	r1, r1, #1
  1047b8:	e2822008 	add	r2, r2, #8
  1047bc:	1e600ba1 	vmulne.f64	d16, d16, d17
  1047c0:	e1b030c3 	asrs	r3, r3, #1
  1047c4:	1afffff8 	bne	1047ac <_dtoa_r+0xba0>
  1047c8:	eaffff39 	b	1044b4 <_dtoa_r+0x8a8>
  1047cc:	e3a0c000 	mov	ip, #0
  1047d0:	e58dc018 	str	ip, [sp, #24]
  1047d4:	e58dc020 	str	ip, [sp, #32]
  1047d8:	eafffe9a 	b	104248 <_dtoa_r+0x63c>
  1047dc:	eefd7be0 	vcvt.s32.f64	s15, d16
  1047e0:	e286c001 	add	ip, r6, #1
  1047e4:	e2420001 	sub	r0, r2, #1
  1047e8:	e3520001 	cmp	r2, #1
  1047ec:	ec4bab32 	vmov	d18, sl, fp
  1047f0:	e30b3060 	movw	r3, #45152	; 0xb060
  1047f4:	e3403010 	movt	r3, #16
  1047f8:	e58dc034 	str	ip, [sp, #52]	; 0x34
  1047fc:	e0833180 	add	r3, r3, r0, lsl #3
  104800:	edd33b00 	vldr	d19, [r3]
  104804:	e1a0300c 	mov	r3, ip
  104808:	12463001 	subne	r3, r6, #1
  10480c:	10832002 	addne	r2, r3, r2
  104810:	11a03006 	movne	r3, r6
  104814:	ee17ea90 	vmov	lr, s15
  104818:	eef81be7 	vcvt.f64.s32	d17, s15
  10481c:	ee633ba2 	vmul.f64	d19, d19, d18
  104820:	e28ec030 	add	ip, lr, #48	; 0x30
  104824:	e5c6c000 	strb	ip, [r6]
  104828:	ee700be1 	vsub.f64	d16, d16, d17
  10482c:	1ef22b04 	vmovne.f64	d18, #36	; 0x24
  104830:	0a00000a 	beq	104860 <_dtoa_r+0xc54>
  104834:	ee600ba2 	vmul.f64	d16, d16, d18
  104838:	eefd7be0 	vcvt.s32.f64	s15, d16
  10483c:	ee17ea90 	vmov	lr, s15
  104840:	eef81be7 	vcvt.f64.s32	d17, s15
  104844:	ee700be1 	vsub.f64	d16, d16, d17
  104848:	e28ec030 	add	ip, lr, #48	; 0x30
  10484c:	e5e3c001 	strb	ip, [r3, #1]!
  104850:	e1530002 	cmp	r3, r2
  104854:	1afffff6 	bne	104834 <_dtoa_r+0xc28>
  104858:	e59dc034 	ldr	ip, [sp, #52]	; 0x34
  10485c:	e08c3000 	add	r3, ip, r0
  104860:	eef61b00 	vmov.f64	d17, #96	; 0x60
  104864:	ee732ba1 	vadd.f64	d18, d19, d17
  104868:	eef42be0 	vcmpe.f64	d18, d16
  10486c:	eef1fa10 	vmrs	APSR_nzcv, fpscr
  104870:	5a0000e7 	bpl	104c14 <_dtoa_r+0x1008>
  104874:	e1a05006 	mov	r5, r6
  104878:	e5530001 	ldrb	r0, [r3, #-1]
  10487c:	eafffde4 	b	104014 <_dtoa_r+0x408>
  104880:	e1a00009 	mov	r0, r9
  104884:	e59d1018 	ldr	r1, [sp, #24]
  104888:	eb0009de 	bl	107008 <__mcmp>
  10488c:	e3500000 	cmp	r0, #0
  104890:	aafffe57 	bge	1041f4 <_dtoa_r+0x5e8>
  104894:	e1a01009 	mov	r1, r9
  104898:	e1a00004 	mov	r0, r4
  10489c:	e3a0200a 	mov	r2, #10
  1048a0:	e3a03000 	mov	r3, #0
  1048a4:	eb00082f 	bl	106968 <__multadd>
  1048a8:	e59dc024 	ldr	ip, [sp, #36]	; 0x24
  1048ac:	e35c0000 	cmp	ip, #0
  1048b0:	e59dc010 	ldr	ip, [sp, #16]
  1048b4:	e24cc001 	sub	ip, ip, #1
  1048b8:	e58dc010 	str	ip, [sp, #16]
  1048bc:	e1a09000 	mov	r9, r0
  1048c0:	1a000030 	bne	104988 <_dtoa_r+0xd7c>
  1048c4:	e59dc028 	ldr	ip, [sp, #40]	; 0x28
  1048c8:	e59de070 	ldr	lr, [sp, #112]	; 0x70
  1048cc:	e35c0000 	cmp	ip, #0
  1048d0:	c3a03000 	movgt	r3, #0
  1048d4:	d3a03001 	movle	r3, #1
  1048d8:	e35e0002 	cmp	lr, #2
  1048dc:	d3a03000 	movle	r3, #0
  1048e0:	e3530000 	cmp	r3, #0
  1048e4:	01a0500c 	moveq	r5, ip
  1048e8:	0affff67 	beq	10468c <_dtoa_r+0xa80>
  1048ec:	e59d5028 	ldr	r5, [sp, #40]	; 0x28
  1048f0:	eafffe47 	b	104214 <_dtoa_r+0x608>
  1048f4:	e59dc018 	ldr	ip, [sp, #24]
  1048f8:	e59c3010 	ldr	r3, [ip, #16]
  1048fc:	e08c3103 	add	r3, ip, r3, lsl #2
  104900:	e5930010 	ldr	r0, [r3, #16]
  104904:	eb000884 	bl	106b1c <__hi0bits>
  104908:	e2600020 	rsb	r0, r0, #32
  10490c:	eafffe1a 	b	10417c <_dtoa_r+0x570>
  104910:	e3550000 	cmp	r5, #0
  104914:	1affff50 	bne	10465c <_dtoa_r+0xa50>
  104918:	eef10b04 	vmov.f64	d16, #20
  10491c:	e58d5018 	str	r5, [sp, #24]
  104920:	e58d5020 	str	r5, [sp, #32]
  104924:	ee611ba0 	vmul.f64	d17, d17, d16
  104928:	ec4bab30 	vmov	d16, sl, fp
  10492c:	eef41be0 	vcmpe.f64	d17, d16
  104930:	eef1fa10 	vmrs	APSR_nzcv, fpscr
  104934:	aaffff4b 	bge	104668 <_dtoa_r+0xa5c>
  104938:	eafffe42 	b	104248 <_dtoa_r+0x63c>
  10493c:	e35a0000 	cmp	sl, #0
  104940:	1afffe07 	bne	104164 <_dtoa_r+0x558>
  104944:	e7f3305b 	ubfx	r3, fp, #0, #20
  104948:	e3530000 	cmp	r3, #0
  10494c:	158da034 	strne	sl, [sp, #52]	; 0x34
  104950:	1afffe05 	bne	10416c <_dtoa_r+0x560>
  104954:	e3cb3102 	bic	r3, fp, #-2147483648	; 0x80000000
  104958:	e1a03a23 	lsr	r3, r3, #20
  10495c:	e1a03a03 	lsl	r3, r3, #20
  104960:	e3530000 	cmp	r3, #0
  104964:	058d3034 	streq	r3, [sp, #52]	; 0x34
  104968:	0afffdff 	beq	10416c <_dtoa_r+0x560>
  10496c:	e59d301c 	ldr	r3, [sp, #28]
  104970:	e3a0c001 	mov	ip, #1
  104974:	e2877001 	add	r7, r7, #1
  104978:	e58dc034 	str	ip, [sp, #52]	; 0x34
  10497c:	e2833001 	add	r3, r3, #1
  104980:	e58d301c 	str	r3, [sp, #28]
  104984:	eafffdf8 	b	10416c <_dtoa_r+0x560>
  104988:	e3a03000 	mov	r3, #0
  10498c:	e59d1020 	ldr	r1, [sp, #32]
  104990:	e1a00004 	mov	r0, r4
  104994:	e3a0200a 	mov	r2, #10
  104998:	eb0007f2 	bl	106968 <__multadd>
  10499c:	e59dc028 	ldr	ip, [sp, #40]	; 0x28
  1049a0:	e59de070 	ldr	lr, [sp, #112]	; 0x70
  1049a4:	e35c0000 	cmp	ip, #0
  1049a8:	c3a03000 	movgt	r3, #0
  1049ac:	d3a03001 	movle	r3, #1
  1049b0:	e35e0002 	cmp	lr, #2
  1049b4:	d3a03000 	movle	r3, #0
  1049b8:	e3530000 	cmp	r3, #0
  1049bc:	e58d0020 	str	r0, [sp, #32]
  1049c0:	01a0500c 	moveq	r5, ip
  1049c4:	1affffc8 	bne	1048ec <_dtoa_r+0xce0>
  1049c8:	e3580000 	cmp	r8, #0
  1049cc:	da000004 	ble	1049e4 <_dtoa_r+0xdd8>
  1049d0:	e59d1020 	ldr	r1, [sp, #32]
  1049d4:	e1a02008 	mov	r2, r8
  1049d8:	e1a00004 	mov	r0, r4
  1049dc:	eb000945 	bl	106ef8 <__lshift>
  1049e0:	e58d0020 	str	r0, [sp, #32]
  1049e4:	e59dc034 	ldr	ip, [sp, #52]	; 0x34
  1049e8:	e35c0000 	cmp	ip, #0
  1049ec:	059d8020 	ldreq	r8, [sp, #32]
  1049f0:	1a0000d1 	bne	104d3c <_dtoa_r+0x1130>
  1049f4:	e286c001 	add	ip, r6, #1
  1049f8:	e58dc034 	str	ip, [sp, #52]	; 0x34
  1049fc:	e0865005 	add	r5, r6, r5
  104a00:	e20ac001 	and	ip, sl, #1
  104a04:	e58d5028 	str	r5, [sp, #40]	; 0x28
  104a08:	e58d602c 	str	r6, [sp, #44]	; 0x2c
  104a0c:	e58dc024 	str	ip, [sp, #36]	; 0x24
  104a10:	e59d5034 	ldr	r5, [sp, #52]	; 0x34
  104a14:	e59d6020 	ldr	r6, [sp, #32]
  104a18:	ea000008 	b	104a40 <_dtoa_r+0xe34>
  104a1c:	eb0007d1 	bl	106968 <__multadd>
  104a20:	e1a01008 	mov	r1, r8
  104a24:	e3a0200a 	mov	r2, #10
  104a28:	e3a03000 	mov	r3, #0
  104a2c:	e1a06000 	mov	r6, r0
  104a30:	e1a00004 	mov	r0, r4
  104a34:	eb0007cb 	bl	106968 <__multadd>
  104a38:	e1a08000 	mov	r8, r0
  104a3c:	e2855001 	add	r5, r5, #1
  104a40:	e59d1018 	ldr	r1, [sp, #24]
  104a44:	e1a00009 	mov	r0, r9
  104a48:	ebfffbfc 	bl	103a40 <quorem>
  104a4c:	e1a01006 	mov	r1, r6
  104a50:	e58d0014 	str	r0, [sp, #20]
  104a54:	e1a00009 	mov	r0, r9
  104a58:	eb00096a 	bl	107008 <__mcmp>
  104a5c:	e1a02008 	mov	r2, r8
  104a60:	e59d1018 	ldr	r1, [sp, #24]
  104a64:	e1a0a000 	mov	sl, r0
  104a68:	e1a00004 	mov	r0, r4
  104a6c:	eb00097d 	bl	107068 <__mdiff>
  104a70:	e59dc014 	ldr	ip, [sp, #20]
  104a74:	e28c7030 	add	r7, ip, #48	; 0x30
  104a78:	e245c001 	sub	ip, r5, #1
  104a7c:	e58dc01c 	str	ip, [sp, #28]
  104a80:	e590200c 	ldr	r2, [r0, #12]
  104a84:	e1a03000 	mov	r3, r0
  104a88:	e3520000 	cmp	r2, #0
  104a8c:	1a00002d 	bne	104b48 <_dtoa_r+0xf3c>
  104a90:	e1a01003 	mov	r1, r3
  104a94:	e1a00009 	mov	r0, r9
  104a98:	e58d3008 	str	r3, [sp, #8]
  104a9c:	eb000959 	bl	107008 <__mcmp>
  104aa0:	e59d3008 	ldr	r3, [sp, #8]
  104aa4:	e1a0b000 	mov	fp, r0
  104aa8:	e1a01003 	mov	r1, r3
  104aac:	e1a00004 	mov	r0, r4
  104ab0:	eb0007a5 	bl	10694c <_Bfree>
  104ab4:	e59dc070 	ldr	ip, [sp, #112]	; 0x70
  104ab8:	e19bc00c 	orrs	ip, fp, ip
  104abc:	1a000002 	bne	104acc <_dtoa_r+0xec0>
  104ac0:	e59dc024 	ldr	ip, [sp, #36]	; 0x24
  104ac4:	e35c0000 	cmp	ip, #0
  104ac8:	0a0000cf 	beq	104e0c <_dtoa_r+0x1200>
  104acc:	e35a0000 	cmp	sl, #0
  104ad0:	ba000074 	blt	104ca8 <_dtoa_r+0x109c>
  104ad4:	e59dc070 	ldr	ip, [sp, #112]	; 0x70
  104ad8:	e19ac00c 	orrs	ip, sl, ip
  104adc:	1a000002 	bne	104aec <_dtoa_r+0xee0>
  104ae0:	e59dc024 	ldr	ip, [sp, #36]	; 0x24
  104ae4:	e35c0000 	cmp	ip, #0
  104ae8:	0a00006e 	beq	104ca8 <_dtoa_r+0x109c>
  104aec:	e35b0000 	cmp	fp, #0
  104af0:	ca0000ad 	bgt	104dac <_dtoa_r+0x11a0>
  104af4:	e59dc028 	ldr	ip, [sp, #40]	; 0x28
  104af8:	e1a0b005 	mov	fp, r5
  104afc:	e5457001 	strb	r7, [r5, #-1]
  104b00:	e155000c 	cmp	r5, ip
  104b04:	0a0000b4 	beq	104ddc <_dtoa_r+0x11d0>
  104b08:	e1a01009 	mov	r1, r9
  104b0c:	e3a0200a 	mov	r2, #10
  104b10:	e3a03000 	mov	r3, #0
  104b14:	e1a00004 	mov	r0, r4
  104b18:	eb000792 	bl	106968 <__multadd>
  104b1c:	e1560008 	cmp	r6, r8
  104b20:	e1a01006 	mov	r1, r6
  104b24:	e3a0200a 	mov	r2, #10
  104b28:	e3a03000 	mov	r3, #0
  104b2c:	e1a09000 	mov	r9, r0
  104b30:	e1a00004 	mov	r0, r4
  104b34:	1affffb8 	bne	104a1c <_dtoa_r+0xe10>
  104b38:	eb00078a 	bl	106968 <__multadd>
  104b3c:	e1a06000 	mov	r6, r0
  104b40:	e1a08000 	mov	r8, r0
  104b44:	eaffffbc 	b	104a3c <_dtoa_r+0xe30>
  104b48:	e3a0b001 	mov	fp, #1
  104b4c:	eaffffd5 	b	104aa8 <_dtoa_r+0xe9c>
  104b50:	e3a0c001 	mov	ip, #1
  104b54:	e58dc024 	str	ip, [sp, #36]	; 0x24
  104b58:	eafffe18 	b	1043c0 <_dtoa_r+0x7b4>
  104b5c:	e355000e 	cmp	r5, #14
  104b60:	83a03000 	movhi	r3, #0
  104b64:	93a03001 	movls	r3, #1
  104b68:	e3a01000 	mov	r1, #0
  104b6c:	e0038006 	and	r8, r3, r6
  104b70:	e5841044 	str	r1, [r4, #68]	; 0x44
  104b74:	eafffe29 	b	104420 <_dtoa_r+0x814>
  104b78:	e3a03001 	mov	r3, #1
  104b7c:	e58d3074 	str	r3, [sp, #116]	; 0x74
  104b80:	e58d3028 	str	r3, [sp, #40]	; 0x28
  104b84:	e1a05003 	mov	r5, r3
  104b88:	eafffff6 	b	104b68 <_dtoa_r+0xf5c>
  104b8c:	e1a01009 	mov	r1, r9
  104b90:	e59d2018 	ldr	r2, [sp, #24]
  104b94:	e1a00004 	mov	r0, r4
  104b98:	eb000897 	bl	106dfc <__pow5mult>
  104b9c:	e1a09000 	mov	r9, r0
  104ba0:	eafffd60 	b	104128 <_dtoa_r+0x51c>
  104ba4:	e2811001 	add	r1, r1, #1
  104ba8:	e3a03031 	mov	r3, #49	; 0x31
  104bac:	e58d1010 	str	r1, [sp, #16]
  104bb0:	e3a01030 	mov	r1, #48	; 0x30
  104bb4:	e5c21000 	strb	r1, [r2]
  104bb8:	eafffd22 	b	104048 <_dtoa_r+0x43c>
  104bbc:	e3550000 	cmp	r5, #0
  104bc0:	0afffe94 	beq	104618 <_dtoa_r+0xa0c>
  104bc4:	e59dc028 	ldr	ip, [sp, #40]	; 0x28
  104bc8:	e35c0000 	cmp	ip, #0
  104bcc:	dafffee3 	ble	104760 <_dtoa_r+0xb54>
  104bd0:	eef21b04 	vmov.f64	d17, #36	; 0x24
  104bd4:	e2813001 	add	r3, r1, #1
  104bd8:	e59dc010 	ldr	ip, [sp, #16]
  104bdc:	ee073a90 	vmov	s15, r3
  104be0:	e59d2028 	ldr	r2, [sp, #40]	; 0x28
  104be4:	e24c1001 	sub	r1, ip, #1
  104be8:	ee600ba1 	vmul.f64	d16, d16, d17
  104bec:	eef11b0c 	vmov.f64	d17, #28
  104bf0:	eef82be7 	vcvt.f64.s32	d18, s15
  104bf4:	eef03b61 	vmov.f64	d19, d17
  104bf8:	ee403ba2 	vmla.f64	d19, d16, d18
  104bfc:	ec5bab33 	vmov	sl, fp, d19
  104c00:	e24bb50d 	sub	fp, fp, #54525952	; 0x3400000
  104c04:	eafffe3c 	b	1044fc <_dtoa_r+0x8f0>
  104c08:	e1a05006 	mov	r5, r6
  104c0c:	e1a06003 	mov	r6, r3
  104c10:	eafffda0 	b	104298 <_dtoa_r+0x68c>
  104c14:	ee711be3 	vsub.f64	d17, d17, d19
  104c18:	eef41be0 	vcmpe.f64	d17, d16
  104c1c:	eef1fa10 	vmrs	APSR_nzcv, fpscr
  104c20:	dafffece 	ble	104760 <_dtoa_r+0xb54>
  104c24:	e1a02003 	mov	r2, r3
  104c28:	e2433001 	sub	r3, r3, #1
  104c2c:	e5520001 	ldrb	r0, [r2, #-1]
  104c30:	e3500030 	cmp	r0, #48	; 0x30
  104c34:	0afffffa 	beq	104c24 <_dtoa_r+0x1018>
  104c38:	e1a05006 	mov	r5, r6
  104c3c:	e58d1010 	str	r1, [sp, #16]
  104c40:	e1a06002 	mov	r6, r2
  104c44:	eafffd93 	b	104298 <_dtoa_r+0x68c>
  104c48:	e1a01009 	mov	r1, r9
  104c4c:	e1a00004 	mov	r0, r4
  104c50:	eb000869 	bl	106dfc <__pow5mult>
  104c54:	e1a09000 	mov	r9, r0
  104c58:	eafffd32 	b	104128 <_dtoa_r+0x51c>
  104c5c:	e59dc010 	ldr	ip, [sp, #16]
  104c60:	e1a05006 	mov	r5, r6
  104c64:	e3a03031 	mov	r3, #49	; 0x31
  104c68:	e1a0600b 	mov	r6, fp
  104c6c:	e28cc001 	add	ip, ip, #1
  104c70:	e5c23000 	strb	r3, [r2]
  104c74:	e58dc010 	str	ip, [sp, #16]
  104c78:	eafffd7a 	b	104268 <_dtoa_r+0x65c>
  104c7c:	e59d2020 	ldr	r2, [sp, #32]
  104c80:	e3520000 	cmp	r2, #0
  104c84:	12833e43 	addne	r3, r3, #1072	; 0x430
  104c88:	059d3038 	ldreq	r3, [sp, #56]	; 0x38
  104c8c:	12833003 	addne	r3, r3, #3
  104c90:	159dc018 	ldrne	ip, [sp, #24]
  104c94:	159d801c 	ldrne	r8, [sp, #28]
  104c98:	02633036 	rsbeq	r3, r3, #54	; 0x36
  104c9c:	059dc018 	ldreq	ip, [sp, #24]
  104ca0:	059d801c 	ldreq	r8, [sp, #28]
  104ca4:	eafffdb8 	b	10438c <_dtoa_r+0x780>
  104ca8:	e35b0000 	cmp	fp, #0
  104cac:	e58d6020 	str	r6, [sp, #32]
  104cb0:	e59d602c 	ldr	r6, [sp, #44]	; 0x2c
  104cb4:	da00000c 	ble	104cec <_dtoa_r+0x10e0>
  104cb8:	e1a01009 	mov	r1, r9
  104cbc:	e3a02001 	mov	r2, #1
  104cc0:	e1a00004 	mov	r0, r4
  104cc4:	eb00088b 	bl	106ef8 <__lshift>
  104cc8:	e59d1018 	ldr	r1, [sp, #24]
  104ccc:	e1a09000 	mov	r9, r0
  104cd0:	eb0008cc 	bl	107008 <__mcmp>
  104cd4:	e3500000 	cmp	r0, #0
  104cd8:	da000055 	ble	104e34 <_dtoa_r+0x1228>
  104cdc:	e3570039 	cmp	r7, #57	; 0x39
  104ce0:	0a000042 	beq	104df0 <_dtoa_r+0x11e4>
  104ce4:	e59d3014 	ldr	r3, [sp, #20]
  104ce8:	e2837031 	add	r7, r3, #49	; 0x31
  104cec:	e59dc01c 	ldr	ip, [sp, #28]
  104cf0:	e1a05006 	mov	r5, r6
  104cf4:	e59da020 	ldr	sl, [sp, #32]
  104cf8:	e28c6001 	add	r6, ip, #1
  104cfc:	e5cc7000 	strb	r7, [ip]
  104d00:	e58d8020 	str	r8, [sp, #32]
  104d04:	eafffd57 	b	104268 <_dtoa_r+0x65c>
  104d08:	e1a05006 	mov	r5, r6
  104d0c:	eafffcc0 	b	104014 <_dtoa_r+0x408>
  104d10:	1a000001 	bne	104d1c <_dtoa_r+0x1110>
  104d14:	e3170001 	tst	r7, #1
  104d18:	1afffe79 	bne	104704 <_dtoa_r+0xaf8>
  104d1c:	e1a0300b 	mov	r3, fp
  104d20:	e24bb001 	sub	fp, fp, #1
  104d24:	e5532001 	ldrb	r2, [r3, #-1]
  104d28:	e3520030 	cmp	r2, #48	; 0x30
  104d2c:	0afffffa 	beq	104d1c <_dtoa_r+0x1110>
  104d30:	e1a05006 	mov	r5, r6
  104d34:	e1a06003 	mov	r6, r3
  104d38:	eafffd4a 	b	104268 <_dtoa_r+0x65c>
  104d3c:	e59dc020 	ldr	ip, [sp, #32]
  104d40:	e1a00004 	mov	r0, r4
  104d44:	e59c1004 	ldr	r1, [ip, #4]
  104d48:	eb0006dc 	bl	1068c0 <_Balloc>
  104d4c:	e59dc020 	ldr	ip, [sp, #32]
  104d50:	e28c100c 	add	r1, ip, #12
  104d54:	e59c2010 	ldr	r2, [ip, #16]
  104d58:	e2822002 	add	r2, r2, #2
  104d5c:	e1a02102 	lsl	r2, r2, #2
  104d60:	e1a07000 	mov	r7, r0
  104d64:	e280000c 	add	r0, r0, #12
  104d68:	eb000554 	bl	1062c0 <memcpy>
  104d6c:	e1a00004 	mov	r0, r4
  104d70:	e1a01007 	mov	r1, r7
  104d74:	e3a02001 	mov	r2, #1
  104d78:	eb00085e 	bl	106ef8 <__lshift>
  104d7c:	e1a08000 	mov	r8, r0
  104d80:	eaffff1b 	b	1049f4 <_dtoa_r+0xde8>
  104d84:	eef41b60 	vcmp.f64	d17, d16
  104d88:	eef1fa10 	vmrs	APSR_nzcv, fpscr
  104d8c:	1affff9d 	bne	104c08 <_dtoa_r+0xffc>
  104d90:	ee170a90 	vmov	r0, s15
  104d94:	e1a05006 	mov	r5, r6
  104d98:	e3100001 	tst	r0, #1
  104d9c:	0affff9a 	beq	104c0c <_dtoa_r+0x1000>
  104da0:	e59d1010 	ldr	r1, [sp, #16]
  104da4:	e5530001 	ldrb	r0, [r3, #-1]
  104da8:	eafffc99 	b	104014 <_dtoa_r+0x408>
  104dac:	e3570039 	cmp	r7, #57	; 0x39
  104db0:	e58d6020 	str	r6, [sp, #32]
  104db4:	e59d602c 	ldr	r6, [sp, #44]	; 0x2c
  104db8:	0a00000c 	beq	104df0 <_dtoa_r+0x11e4>
  104dbc:	e59d301c 	ldr	r3, [sp, #28]
  104dc0:	e2877001 	add	r7, r7, #1
  104dc4:	e1a05006 	mov	r5, r6
  104dc8:	e59da020 	ldr	sl, [sp, #32]
  104dcc:	e2836001 	add	r6, r3, #1
  104dd0:	e58d8020 	str	r8, [sp, #32]
  104dd4:	e5c37000 	strb	r7, [r3]
  104dd8:	eafffd22 	b	104268 <_dtoa_r+0x65c>
  104ddc:	e58d6020 	str	r6, [sp, #32]
  104de0:	e59da020 	ldr	sl, [sp, #32]
  104de4:	e59d602c 	ldr	r6, [sp, #44]	; 0x2c
  104de8:	e58d8020 	str	r8, [sp, #32]
  104dec:	eafffe3b 	b	1046e0 <_dtoa_r+0xad4>
  104df0:	e59dc01c 	ldr	ip, [sp, #28]
  104df4:	e3a03039 	mov	r3, #57	; 0x39
  104df8:	e59da020 	ldr	sl, [sp, #32]
  104dfc:	e28cb001 	add	fp, ip, #1
  104e00:	e58d8020 	str	r8, [sp, #32]
  104e04:	e5cc3000 	strb	r3, [ip]
  104e08:	eafffe40 	b	104710 <_dtoa_r+0xb04>
  104e0c:	e3570039 	cmp	r7, #57	; 0x39
  104e10:	e58d6020 	str	r6, [sp, #32]
  104e14:	e59d602c 	ldr	r6, [sp, #44]	; 0x2c
  104e18:	0afffff4 	beq	104df0 <_dtoa_r+0x11e4>
  104e1c:	e35a0000 	cmp	sl, #0
  104e20:	caffffaf 	bgt	104ce4 <_dtoa_r+0x10d8>
  104e24:	eaffffb0 	b	104cec <_dtoa_r+0x10e0>
  104e28:	e1a05006 	mov	r5, r6
  104e2c:	e59d6034 	ldr	r6, [sp, #52]	; 0x34
  104e30:	eafffd18 	b	104298 <_dtoa_r+0x68c>
  104e34:	1affffac 	bne	104cec <_dtoa_r+0x10e0>
  104e38:	e3170001 	tst	r7, #1
  104e3c:	0affffaa 	beq	104cec <_dtoa_r+0x10e0>
  104e40:	eaffffa5 	b	104cdc <_dtoa_r+0x10d0>
  104e44:	e3a01002 	mov	r1, #2
  104e48:	eafffd99 	b	1044b4 <_dtoa_r+0x8a8>
  104e4c:	e1a05006 	mov	r5, r6
  104e50:	e58d1010 	str	r1, [sp, #16]
  104e54:	e59d6034 	ldr	r6, [sp, #52]	; 0x34
  104e58:	eafffd0e 	b	104298 <_dtoa_r+0x68c>
  104e5c:	1263303c 	rsbne	r3, r3, #60	; 0x3c
  104e60:	0afffcd1 	beq	1041ac <_dtoa_r+0x5a0>
  104e64:	eafffccb 	b	104198 <_dtoa_r+0x58c>

00104e68 <__sflush_r>:
  104e68:	e92d40f8 	push	{r3, r4, r5, r6, r7, lr}
  104e6c:	e1a05001 	mov	r5, r1
  104e70:	e1d130bc 	ldrh	r3, [r1, #12]
  104e74:	e1a07000 	mov	r7, r0
  104e78:	e3130008 	tst	r3, #8
  104e7c:	1a000034 	bne	104f54 <__sflush_r+0xec>
  104e80:	e5912004 	ldr	r2, [r1, #4]
  104e84:	e3833b02 	orr	r3, r3, #2048	; 0x800
  104e88:	e1c130bc 	strh	r3, [r1, #12]
  104e8c:	e3520000 	cmp	r2, #0
  104e90:	da00004d 	ble	104fcc <__sflush_r+0x164>
  104e94:	e595c028 	ldr	ip, [r5, #40]	; 0x28
  104e98:	e35c0000 	cmp	ip, #0
  104e9c:	0a00004d 	beq	104fd8 <__sflush_r+0x170>
  104ea0:	e6ff3073 	uxth	r3, r3
  104ea4:	e3a02000 	mov	r2, #0
  104ea8:	e2034a01 	and	r4, r3, #4096	; 0x1000
  104eac:	e5976000 	ldr	r6, [r7]
  104eb0:	e5872000 	str	r2, [r7]
  104eb4:	e6ff4074 	uxth	r4, r4
  104eb8:	e1540002 	cmp	r4, r2
  104ebc:	0a000047 	beq	104fe0 <__sflush_r+0x178>
  104ec0:	e5952050 	ldr	r2, [r5, #80]	; 0x50
  104ec4:	e3130004 	tst	r3, #4
  104ec8:	0a000005 	beq	104ee4 <__sflush_r+0x7c>
  104ecc:	e5951030 	ldr	r1, [r5, #48]	; 0x30
  104ed0:	e5953004 	ldr	r3, [r5, #4]
  104ed4:	e3510000 	cmp	r1, #0
  104ed8:	e0632002 	rsb	r2, r3, r2
  104edc:	1595303c 	ldrne	r3, [r5, #60]	; 0x3c
  104ee0:	10632002 	rsbne	r2, r3, r2
  104ee4:	e1a00007 	mov	r0, r7
  104ee8:	e595101c 	ldr	r1, [r5, #28]
  104eec:	e3a03000 	mov	r3, #0
  104ef0:	e12fff3c 	blx	ip
  104ef4:	e3700001 	cmn	r0, #1
  104ef8:	0a000043 	beq	10500c <__sflush_r+0x1a4>
  104efc:	e1d530bc 	ldrh	r3, [r5, #12]
  104f00:	e3a01000 	mov	r1, #0
  104f04:	e5952010 	ldr	r2, [r5, #16]
  104f08:	e3c33b02 	bic	r3, r3, #2048	; 0x800
  104f0c:	e5851004 	str	r1, [r5, #4]
  104f10:	e6ff3073 	uxth	r3, r3
  104f14:	e5852000 	str	r2, [r5]
  104f18:	e3130a01 	tst	r3, #4096	; 0x1000
  104f1c:	e1c530bc 	strh	r3, [r5, #12]
  104f20:	1a000045 	bne	10503c <__sflush_r+0x1d4>
  104f24:	e5951030 	ldr	r1, [r5, #48]	; 0x30
  104f28:	e5876000 	str	r6, [r7]
  104f2c:	e3510000 	cmp	r1, #0
  104f30:	0a000028 	beq	104fd8 <__sflush_r+0x170>
  104f34:	e2853040 	add	r3, r5, #64	; 0x40
  104f38:	e1510003 	cmp	r1, r3
  104f3c:	0a000001 	beq	104f48 <__sflush_r+0xe0>
  104f40:	e1a00007 	mov	r0, r7
  104f44:	eb00017a 	bl	105534 <_free_r>
  104f48:	e3a00000 	mov	r0, #0
  104f4c:	e5850030 	str	r0, [r5, #48]	; 0x30
  104f50:	e8bd80f8 	pop	{r3, r4, r5, r6, r7, pc}
  104f54:	e5916010 	ldr	r6, [r1, #16]
  104f58:	e3560000 	cmp	r6, #0
  104f5c:	0a00001d 	beq	104fd8 <__sflush_r+0x170>
  104f60:	e3130003 	tst	r3, #3
  104f64:	e5914000 	ldr	r4, [r1]
  104f68:	e5816000 	str	r6, [r1]
  104f6c:	05913014 	ldreq	r3, [r1, #20]
  104f70:	e0664004 	rsb	r4, r6, r4
  104f74:	13a03000 	movne	r3, #0
  104f78:	e3540000 	cmp	r4, #0
  104f7c:	e5813008 	str	r3, [r1, #8]
  104f80:	ca000002 	bgt	104f90 <__sflush_r+0x128>
  104f84:	ea000013 	b	104fd8 <__sflush_r+0x170>
  104f88:	e3540000 	cmp	r4, #0
  104f8c:	da000011 	ble	104fd8 <__sflush_r+0x170>
  104f90:	e1a02006 	mov	r2, r6
  104f94:	e1a03004 	mov	r3, r4
  104f98:	e595c024 	ldr	ip, [r5, #36]	; 0x24
  104f9c:	e1a00007 	mov	r0, r7
  104fa0:	e595101c 	ldr	r1, [r5, #28]
  104fa4:	e12fff3c 	blx	ip
  104fa8:	e3500000 	cmp	r0, #0
  104fac:	e0604004 	rsb	r4, r0, r4
  104fb0:	e0866000 	add	r6, r6, r0
  104fb4:	cafffff3 	bgt	104f88 <__sflush_r+0x120>
  104fb8:	e1d530bc 	ldrh	r3, [r5, #12]
  104fbc:	e3e00000 	mvn	r0, #0
  104fc0:	e3833040 	orr	r3, r3, #64	; 0x40
  104fc4:	e1c530bc 	strh	r3, [r5, #12]
  104fc8:	e8bd80f8 	pop	{r3, r4, r5, r6, r7, pc}
  104fcc:	e591203c 	ldr	r2, [r1, #60]	; 0x3c
  104fd0:	e3520000 	cmp	r2, #0
  104fd4:	caffffae 	bgt	104e94 <__sflush_r+0x2c>
  104fd8:	e3a00000 	mov	r0, #0
  104fdc:	e8bd80f8 	pop	{r3, r4, r5, r6, r7, pc}
  104fe0:	e1a02004 	mov	r2, r4
  104fe4:	e1a00007 	mov	r0, r7
  104fe8:	e595101c 	ldr	r1, [r5, #28]
  104fec:	e3a03001 	mov	r3, #1
  104ff0:	e12fff3c 	blx	ip
  104ff4:	e3700001 	cmn	r0, #1
  104ff8:	e1a02000 	mov	r2, r0
  104ffc:	0a00001c 	beq	105074 <__sflush_r+0x20c>
  105000:	e1d530bc 	ldrh	r3, [r5, #12]
  105004:	e595c028 	ldr	ip, [r5, #40]	; 0x28
  105008:	eaffffad 	b	104ec4 <__sflush_r+0x5c>
  10500c:	e5973000 	ldr	r3, [r7]
  105010:	e3530000 	cmp	r3, #0
  105014:	1a00000a 	bne	105044 <__sflush_r+0x1dc>
  105018:	e1d510bc 	ldrh	r1, [r5, #12]
  10501c:	e5952010 	ldr	r2, [r5, #16]
  105020:	e3c11b02 	bic	r1, r1, #2048	; 0x800
  105024:	e5853004 	str	r3, [r5, #4]
  105028:	e6ff3071 	uxth	r3, r1
  10502c:	e5852000 	str	r2, [r5]
  105030:	e3130a01 	tst	r3, #4096	; 0x1000
  105034:	e1c530bc 	strh	r3, [r5, #12]
  105038:	0affffb9 	beq	104f24 <__sflush_r+0xbc>
  10503c:	e5850050 	str	r0, [r5, #80]	; 0x50
  105040:	eaffffb7 	b	104f24 <__sflush_r+0xbc>
  105044:	e353001d 	cmp	r3, #29
  105048:	0a000001 	beq	105054 <__sflush_r+0x1ec>
  10504c:	e3530016 	cmp	r3, #22
  105050:	1a000010 	bne	105098 <__sflush_r+0x230>
  105054:	e5952010 	ldr	r2, [r5, #16]
  105058:	e3a01000 	mov	r1, #0
  10505c:	e1d530bc 	ldrh	r3, [r5, #12]
  105060:	e5851004 	str	r1, [r5, #4]
  105064:	e3c33b02 	bic	r3, r3, #2048	; 0x800
  105068:	e5852000 	str	r2, [r5]
  10506c:	e1c530bc 	strh	r3, [r5, #12]
  105070:	eaffffab 	b	104f24 <__sflush_r+0xbc>
  105074:	e5973000 	ldr	r3, [r7]
  105078:	e3530000 	cmp	r3, #0
  10507c:	0affffdf 	beq	105000 <__sflush_r+0x198>
  105080:	e353001d 	cmp	r3, #29
  105084:	13530016 	cmpne	r3, #22
  105088:	1affffca 	bne	104fb8 <__sflush_r+0x150>
  10508c:	e5876000 	str	r6, [r7]
  105090:	e1a00004 	mov	r0, r4
  105094:	e8bd80f8 	pop	{r3, r4, r5, r6, r7, pc}
  105098:	e1d530bc 	ldrh	r3, [r5, #12]
  10509c:	e3833040 	orr	r3, r3, #64	; 0x40
  1050a0:	e1c530bc 	strh	r3, [r5, #12]
  1050a4:	e8bd80f8 	pop	{r3, r4, r5, r6, r7, pc}

001050a8 <_fflush_r>:
  1050a8:	e92d4010 	push	{r4, lr}
  1050ac:	e2504000 	subs	r4, r0, #0
  1050b0:	e24dd008 	sub	sp, sp, #8
  1050b4:	0a000002 	beq	1050c4 <_fflush_r+0x1c>
  1050b8:	e5943038 	ldr	r3, [r4, #56]	; 0x38
  1050bc:	e3530000 	cmp	r3, #0
  1050c0:	0a000008 	beq	1050e8 <_fflush_r+0x40>
  1050c4:	e1d100fc 	ldrsh	r0, [r1, #12]
  1050c8:	e3500000 	cmp	r0, #0
  1050cc:	1a000001 	bne	1050d8 <_fflush_r+0x30>
  1050d0:	e28dd008 	add	sp, sp, #8
  1050d4:	e8bd8010 	pop	{r4, pc}
  1050d8:	e1a00004 	mov	r0, r4
  1050dc:	e28dd008 	add	sp, sp, #8
  1050e0:	e8bd4010 	pop	{r4, lr}
  1050e4:	eaffff5f 	b	104e68 <__sflush_r>
  1050e8:	e58d1004 	str	r1, [sp, #4]
  1050ec:	eb00002c 	bl	1051a4 <__sinit>
  1050f0:	e59d1004 	ldr	r1, [sp, #4]
  1050f4:	eafffff2 	b	1050c4 <_fflush_r+0x1c>

001050f8 <fflush>:
  1050f8:	e2501000 	subs	r1, r0, #0
  1050fc:	0a000003 	beq	105110 <fflush+0x18>
  105100:	e30b3258 	movw	r3, #45656	; 0xb258
  105104:	e3403010 	movt	r3, #16
  105108:	e5930000 	ldr	r0, [r3]
  10510c:	eaffffe5 	b	1050a8 <_fflush_r>
  105110:	e30b3028 	movw	r3, #45096	; 0xb028
  105114:	e3403010 	movt	r3, #16
  105118:	e30510a8 	movw	r1, #20648	; 0x50a8
  10511c:	e3401010 	movt	r1, #16
  105120:	e5930000 	ldr	r0, [r3]
  105124:	ea0001bc 	b	10581c <_fwalk_reent>

00105128 <__fp_lock>:
  105128:	e3a00000 	mov	r0, #0
  10512c:	e12fff1e 	bx	lr

00105130 <__fp_unlock>:
  105130:	e3a00000 	mov	r0, #0
  105134:	e12fff1e 	bx	lr

00105138 <_cleanup_r>:
  105138:	e30911d4 	movw	r1, #37332	; 0x91d4
  10513c:	e3401010 	movt	r1, #16
  105140:	ea000197 	b	1057a4 <_fwalk>

00105144 <__sfmoreglue>:
  105144:	e2413001 	sub	r3, r1, #1
  105148:	e92d4070 	push	{r4, r5, r6, lr}
  10514c:	e3a05068 	mov	r5, #104	; 0x68
  105150:	e0050395 	mul	r5, r5, r3
  105154:	e1a06001 	mov	r6, r1
  105158:	e2851074 	add	r1, r5, #116	; 0x74
  10515c:	eb00025e 	bl	105adc <_malloc_r>
  105160:	e2504000 	subs	r4, r0, #0
  105164:	0a000006 	beq	105184 <__sfmoreglue+0x40>
  105168:	e284000c 	add	r0, r4, #12
  10516c:	e3a01000 	mov	r1, #0
  105170:	e5846004 	str	r6, [r4, #4]
  105174:	e2852068 	add	r2, r5, #104	; 0x68
  105178:	e5840008 	str	r0, [r4, #8]
  10517c:	e5841000 	str	r1, [r4]
  105180:	eb00058e 	bl	1067c0 <memset>
  105184:	e1a00004 	mov	r0, r4
  105188:	e8bd8070 	pop	{r4, r5, r6, pc}

0010518c <_cleanup>:
  10518c:	e30b3028 	movw	r3, #45096	; 0xb028
  105190:	e3403010 	movt	r3, #16
  105194:	e30911d4 	movw	r1, #37332	; 0x91d4
  105198:	e3401010 	movt	r1, #16
  10519c:	e5930000 	ldr	r0, [r3]
  1051a0:	ea00017f 	b	1057a4 <_fwalk>

001051a4 <__sinit>:
  1051a4:	e92d4ff0 	push	{r4, r5, r6, r7, r8, r9, sl, fp, lr}
  1051a8:	e1a07000 	mov	r7, r0
  1051ac:	e5904038 	ldr	r4, [r0, #56]	; 0x38
  1051b0:	e24dd00c 	sub	sp, sp, #12
  1051b4:	e3540000 	cmp	r4, #0
  1051b8:	1a000050 	bne	105300 <__sinit+0x15c>
  1051bc:	e5905004 	ldr	r5, [r0, #4]
  1051c0:	e3a02003 	mov	r2, #3
  1051c4:	e58042e0 	str	r4, [r0, #736]	; 0x2e0
  1051c8:	e1a01004 	mov	r1, r4
  1051cc:	e58022e4 	str	r2, [r0, #740]	; 0x2e4
  1051d0:	e3053138 	movw	r3, #20792	; 0x5138
  1051d4:	e2802fbb 	add	r2, r0, #748	; 0x2ec
  1051d8:	e3403010 	movt	r3, #16
  1051dc:	e58022e8 	str	r2, [r0, #744]	; 0x2e8
  1051e0:	e3a02008 	mov	r2, #8
  1051e4:	e580303c 	str	r3, [r0, #60]	; 0x3c
  1051e8:	e3a03004 	mov	r3, #4
  1051ec:	e285005c 	add	r0, r5, #92	; 0x5c
  1051f0:	e1c530bc 	strh	r3, [r5, #12]
  1051f4:	e5854000 	str	r4, [r5]
  1051f8:	e307b610 	movw	fp, #30224	; 0x7610
  1051fc:	e5854004 	str	r4, [r5, #4]
  105200:	e340b010 	movt	fp, #16
  105204:	e5854008 	str	r4, [r5, #8]
  105208:	e307a648 	movw	sl, #30280	; 0x7648
  10520c:	e5854064 	str	r4, [r5, #100]	; 0x64
  105210:	e340a010 	movt	sl, #16
  105214:	e1c540be 	strh	r4, [r5, #14]
  105218:	e307969c 	movw	r9, #30364	; 0x769c
  10521c:	e5854010 	str	r4, [r5, #16]
  105220:	e3409010 	movt	r9, #16
  105224:	e5854014 	str	r4, [r5, #20]
  105228:	e30786c8 	movw	r8, #30408	; 0x76c8
  10522c:	e5854018 	str	r4, [r5, #24]
  105230:	e3408010 	movt	r8, #16
  105234:	eb000561 	bl	1067c0 <memset>
  105238:	e5976008 	ldr	r6, [r7, #8]
  10523c:	e3a03001 	mov	r3, #1
  105240:	e585501c 	str	r5, [r5, #28]
  105244:	e585b020 	str	fp, [r5, #32]
  105248:	e3a0c009 	mov	ip, #9
  10524c:	e585a024 	str	sl, [r5, #36]	; 0x24
  105250:	e1a01004 	mov	r1, r4
  105254:	e5859028 	str	r9, [r5, #40]	; 0x28
  105258:	e3a02008 	mov	r2, #8
  10525c:	e585802c 	str	r8, [r5, #44]	; 0x2c
  105260:	e286005c 	add	r0, r6, #92	; 0x5c
  105264:	e1c630be 	strh	r3, [r6, #14]
  105268:	e1c6c0bc 	strh	ip, [r6, #12]
  10526c:	e5864000 	str	r4, [r6]
  105270:	e5864004 	str	r4, [r6, #4]
  105274:	e5864008 	str	r4, [r6, #8]
  105278:	e5864064 	str	r4, [r6, #100]	; 0x64
  10527c:	e5864010 	str	r4, [r6, #16]
  105280:	e5864014 	str	r4, [r6, #20]
  105284:	e5864018 	str	r4, [r6, #24]
  105288:	e58d3004 	str	r3, [sp, #4]
  10528c:	eb00054b 	bl	1067c0 <memset>
  105290:	e597500c 	ldr	r5, [r7, #12]
  105294:	e3a0e012 	mov	lr, #18
  105298:	e586b020 	str	fp, [r6, #32]
  10529c:	e3a0c002 	mov	ip, #2
  1052a0:	e586a024 	str	sl, [r6, #36]	; 0x24
  1052a4:	e1a01004 	mov	r1, r4
  1052a8:	e5869028 	str	r9, [r6, #40]	; 0x28
  1052ac:	e285005c 	add	r0, r5, #92	; 0x5c
  1052b0:	e586802c 	str	r8, [r6, #44]	; 0x2c
  1052b4:	e3a02008 	mov	r2, #8
  1052b8:	e586601c 	str	r6, [r6, #28]
  1052bc:	e5854000 	str	r4, [r5]
  1052c0:	e5854004 	str	r4, [r5, #4]
  1052c4:	e5854008 	str	r4, [r5, #8]
  1052c8:	e5854064 	str	r4, [r5, #100]	; 0x64
  1052cc:	e5854010 	str	r4, [r5, #16]
  1052d0:	e5854014 	str	r4, [r5, #20]
  1052d4:	e5854018 	str	r4, [r5, #24]
  1052d8:	e1c5e0bc 	strh	lr, [r5, #12]
  1052dc:	e1c5c0be 	strh	ip, [r5, #14]
  1052e0:	eb000536 	bl	1067c0 <memset>
  1052e4:	e59d3004 	ldr	r3, [sp, #4]
  1052e8:	e585b020 	str	fp, [r5, #32]
  1052ec:	e585a024 	str	sl, [r5, #36]	; 0x24
  1052f0:	e5859028 	str	r9, [r5, #40]	; 0x28
  1052f4:	e585802c 	str	r8, [r5, #44]	; 0x2c
  1052f8:	e585501c 	str	r5, [r5, #28]
  1052fc:	e5873038 	str	r3, [r7, #56]	; 0x38
  105300:	e28dd00c 	add	sp, sp, #12
  105304:	e8bd8ff0 	pop	{r4, r5, r6, r7, r8, r9, sl, fp, pc}

00105308 <__sfp>:
  105308:	e30b3028 	movw	r3, #45096	; 0xb028
  10530c:	e3403010 	movt	r3, #16
  105310:	e92d4070 	push	{r4, r5, r6, lr}
  105314:	e1a06000 	mov	r6, r0
  105318:	e5935000 	ldr	r5, [r3]
  10531c:	e5953038 	ldr	r3, [r5, #56]	; 0x38
  105320:	e3530000 	cmp	r3, #0
  105324:	0a00002d 	beq	1053e0 <__sfp+0xd8>
  105328:	e2855e2e 	add	r5, r5, #736	; 0x2e0
  10532c:	e9950018 	ldmib	r5, {r3, r4}
  105330:	e2533001 	subs	r3, r3, #1
  105334:	5a000004 	bpl	10534c <__sfp+0x44>
  105338:	ea00001c 	b	1053b0 <__sfp+0xa8>
  10533c:	e2433001 	sub	r3, r3, #1
  105340:	e2844068 	add	r4, r4, #104	; 0x68
  105344:	e3730001 	cmn	r3, #1
  105348:	0a000018 	beq	1053b0 <__sfp+0xa8>
  10534c:	e1d420fc 	ldrsh	r2, [r4, #12]
  105350:	e3520000 	cmp	r2, #0
  105354:	1afffff8 	bne	10533c <__sfp+0x34>
  105358:	e3a05000 	mov	r5, #0
  10535c:	e3e0c000 	mvn	ip, #0
  105360:	e3a03001 	mov	r3, #1
  105364:	e5845064 	str	r5, [r4, #100]	; 0x64
  105368:	e1a01005 	mov	r1, r5
  10536c:	e5845000 	str	r5, [r4]
  105370:	e5845008 	str	r5, [r4, #8]
  105374:	e284005c 	add	r0, r4, #92	; 0x5c
  105378:	e5845004 	str	r5, [r4, #4]
  10537c:	e3a02008 	mov	r2, #8
  105380:	e5845010 	str	r5, [r4, #16]
  105384:	e5845014 	str	r5, [r4, #20]
  105388:	e5845018 	str	r5, [r4, #24]
  10538c:	e1c4c0be 	strh	ip, [r4, #14]
  105390:	e1c430bc 	strh	r3, [r4, #12]
  105394:	eb000509 	bl	1067c0 <memset>
  105398:	e1a00004 	mov	r0, r4
  10539c:	e5845030 	str	r5, [r4, #48]	; 0x30
  1053a0:	e5845034 	str	r5, [r4, #52]	; 0x34
  1053a4:	e5845044 	str	r5, [r4, #68]	; 0x44
  1053a8:	e5845048 	str	r5, [r4, #72]	; 0x48
  1053ac:	e8bd8070 	pop	{r4, r5, r6, pc}
  1053b0:	e5953000 	ldr	r3, [r5]
  1053b4:	e3530000 	cmp	r3, #0
  1053b8:	11a05003 	movne	r5, r3
  1053bc:	1affffda 	bne	10532c <__sfp+0x24>
  1053c0:	e1a00006 	mov	r0, r6
  1053c4:	e3a01004 	mov	r1, #4
  1053c8:	ebffff5d 	bl	105144 <__sfmoreglue>
  1053cc:	e3500000 	cmp	r0, #0
  1053d0:	e5850000 	str	r0, [r5]
  1053d4:	0a000004 	beq	1053ec <__sfp+0xe4>
  1053d8:	e1a05000 	mov	r5, r0
  1053dc:	eaffffd2 	b	10532c <__sfp+0x24>
  1053e0:	e1a00005 	mov	r0, r5
  1053e4:	ebffff6e 	bl	1051a4 <__sinit>
  1053e8:	eaffffce 	b	105328 <__sfp+0x20>
  1053ec:	e3a0200c 	mov	r2, #12
  1053f0:	e5862000 	str	r2, [r6]
  1053f4:	e8bd8070 	pop	{r4, r5, r6, pc}

001053f8 <__sfp_lock_acquire>:
  1053f8:	e12fff1e 	bx	lr

001053fc <__sfp_lock_release>:
  1053fc:	e12fff1e 	bx	lr

00105400 <__sinit_lock_acquire>:
  105400:	e12fff1e 	bx	lr

00105404 <__sinit_lock_release>:
  105404:	e12fff1e 	bx	lr

00105408 <__fp_lock_all>:
  105408:	e30b3258 	movw	r3, #45656	; 0xb258
  10540c:	e3403010 	movt	r3, #16
  105410:	e3051128 	movw	r1, #20776	; 0x5128
  105414:	e3401010 	movt	r1, #16
  105418:	e5930000 	ldr	r0, [r3]
  10541c:	ea0000e0 	b	1057a4 <_fwalk>

00105420 <__fp_unlock_all>:
  105420:	e30b3258 	movw	r3, #45656	; 0xb258
  105424:	e3403010 	movt	r3, #16
  105428:	e3051130 	movw	r1, #20784	; 0x5130
  10542c:	e3401010 	movt	r1, #16
  105430:	e5930000 	ldr	r0, [r3]
  105434:	ea0000da 	b	1057a4 <_fwalk>

00105438 <_malloc_trim_r>:
  105438:	e92d40f8 	push	{r3, r4, r5, r6, r7, lr}
  10543c:	e30b4704 	movw	r4, #46852	; 0xb704
  105440:	e3404010 	movt	r4, #16
  105444:	e1a07001 	mov	r7, r1
  105448:	e1a05000 	mov	r5, r0
  10544c:	eb000519 	bl	1068b8 <__malloc_lock>
  105450:	e5943008 	ldr	r3, [r4, #8]
  105454:	e5936004 	ldr	r6, [r3, #4]
  105458:	e3c66003 	bic	r6, r6, #3
  10545c:	e0671006 	rsb	r1, r7, r6
  105460:	e2811efe 	add	r1, r1, #4064	; 0xfe0
  105464:	e281100f 	add	r1, r1, #15
  105468:	e1a07621 	lsr	r7, r1, #12
  10546c:	e2477001 	sub	r7, r7, #1
  105470:	e1a07607 	lsl	r7, r7, #12
  105474:	e3570a01 	cmp	r7, #4096	; 0x1000
  105478:	ba000006 	blt	105498 <_malloc_trim_r+0x60>
  10547c:	e1a00005 	mov	r0, r5
  105480:	e3a01000 	mov	r1, #0
  105484:	eb000853 	bl	1075d8 <_sbrk_r>
  105488:	e5943008 	ldr	r3, [r4, #8]
  10548c:	e0833006 	add	r3, r3, r6
  105490:	e1500003 	cmp	r0, r3
  105494:	0a000003 	beq	1054a8 <_malloc_trim_r+0x70>
  105498:	e1a00005 	mov	r0, r5
  10549c:	eb000506 	bl	1068bc <__malloc_unlock>
  1054a0:	e3a00000 	mov	r0, #0
  1054a4:	e8bd80f8 	pop	{r3, r4, r5, r6, r7, pc}
  1054a8:	e1a00005 	mov	r0, r5
  1054ac:	e2671000 	rsb	r1, r7, #0
  1054b0:	eb000848 	bl	1075d8 <_sbrk_r>
  1054b4:	e3700001 	cmn	r0, #1
  1054b8:	0a00000c 	beq	1054f0 <_malloc_trim_r+0xb8>
  1054bc:	e5941008 	ldr	r1, [r4, #8]
  1054c0:	e3003040 	movw	r3, #64	; 0x40
  1054c4:	e3403011 	movt	r3, #17
  1054c8:	e0676006 	rsb	r6, r7, r6
  1054cc:	e1a00005 	mov	r0, r5
  1054d0:	e3866001 	orr	r6, r6, #1
  1054d4:	e5932000 	ldr	r2, [r3]
  1054d8:	e5816004 	str	r6, [r1, #4]
  1054dc:	e0677002 	rsb	r7, r7, r2
  1054e0:	e5837000 	str	r7, [r3]
  1054e4:	eb0004f4 	bl	1068bc <__malloc_unlock>
  1054e8:	e3a00001 	mov	r0, #1
  1054ec:	e8bd80f8 	pop	{r3, r4, r5, r6, r7, pc}
  1054f0:	e1a00005 	mov	r0, r5
  1054f4:	e3a01000 	mov	r1, #0
  1054f8:	eb000836 	bl	1075d8 <_sbrk_r>
  1054fc:	e5943008 	ldr	r3, [r4, #8]
  105500:	e0632000 	rsb	r2, r3, r0
  105504:	e352000f 	cmp	r2, #15
  105508:	daffffe2 	ble	105498 <_malloc_trim_r+0x60>
  10550c:	e30bcb0c 	movw	ip, #47884	; 0xbb0c
  105510:	e340c010 	movt	ip, #16
  105514:	e3001040 	movw	r1, #64	; 0x40
  105518:	e3401011 	movt	r1, #17
  10551c:	e59cc000 	ldr	ip, [ip]
  105520:	e3822001 	orr	r2, r2, #1
  105524:	e5832004 	str	r2, [r3, #4]
  105528:	e06c0000 	rsb	r0, ip, r0
  10552c:	e5810000 	str	r0, [r1]
  105530:	eaffffd8 	b	105498 <_malloc_trim_r+0x60>

00105534 <_free_r>:
  105534:	e92d40f8 	push	{r3, r4, r5, r6, r7, lr}
  105538:	e2516000 	subs	r6, r1, #0
  10553c:	e1a07000 	mov	r7, r0
  105540:	08bd80f8 	popeq	{r3, r4, r5, r6, r7, pc}
  105544:	eb0004db 	bl	1068b8 <__malloc_lock>
  105548:	e5165004 	ldr	r5, [r6, #-4]
  10554c:	e30b4704 	movw	r4, #46852	; 0xb704
  105550:	e3404010 	movt	r4, #16
  105554:	e3c53001 	bic	r3, r5, #1
  105558:	e246c008 	sub	ip, r6, #8
  10555c:	e08c2003 	add	r2, ip, r3
  105560:	e5940008 	ldr	r0, [r4, #8]
  105564:	e5921004 	ldr	r1, [r2, #4]
  105568:	e1500002 	cmp	r0, r2
  10556c:	e3c11003 	bic	r1, r1, #3
  105570:	0a00004c 	beq	1056a8 <_free_r+0x174>
  105574:	e2155001 	ands	r5, r5, #1
  105578:	e5821004 	str	r1, [r2, #4]
  10557c:	13a05000 	movne	r5, #0
  105580:	1a000009 	bne	1055ac <_free_r+0x78>
  105584:	e5160008 	ldr	r0, [r6, #-8]
  105588:	e2846008 	add	r6, r4, #8
  10558c:	e060c00c 	rsb	ip, r0, ip
  105590:	e0833000 	add	r3, r3, r0
  105594:	e59c0008 	ldr	r0, [ip, #8]
  105598:	e1500006 	cmp	r0, r6
  10559c:	159c600c 	ldrne	r6, [ip, #12]
  1055a0:	03a05001 	moveq	r5, #1
  1055a4:	1580600c 	strne	r6, [r0, #12]
  1055a8:	15860008 	strne	r0, [r6, #8]
  1055ac:	e0820001 	add	r0, r2, r1
  1055b0:	e5900004 	ldr	r0, [r0, #4]
  1055b4:	e3100001 	tst	r0, #1
  1055b8:	1a000009 	bne	1055e4 <_free_r+0xb0>
  1055bc:	e3550000 	cmp	r5, #0
  1055c0:	e0833001 	add	r3, r3, r1
  1055c4:	e5921008 	ldr	r1, [r2, #8]
  1055c8:	1a000002 	bne	1055d8 <_free_r+0xa4>
  1055cc:	e59f01cc 	ldr	r0, [pc, #460]	; 1057a0 <_free_r+0x26c>
  1055d0:	e1510000 	cmp	r1, r0
  1055d4:	0a00004b 	beq	105708 <_free_r+0x1d4>
  1055d8:	e592200c 	ldr	r2, [r2, #12]
  1055dc:	e581200c 	str	r2, [r1, #12]
  1055e0:	e5821008 	str	r1, [r2, #8]
  1055e4:	e3550000 	cmp	r5, #0
  1055e8:	e3832001 	orr	r2, r3, #1
  1055ec:	e58c2004 	str	r2, [ip, #4]
  1055f0:	e78c3003 	str	r3, [ip, r3]
  1055f4:	1a000019 	bne	105660 <_free_r+0x12c>
  1055f8:	e3530c02 	cmp	r3, #512	; 0x200
  1055fc:	3a00001a 	bcc	10566c <_free_r+0x138>
  105600:	e1a024a3 	lsr	r2, r3, #9
  105604:	e3520004 	cmp	r2, #4
  105608:	8a000046 	bhi	105728 <_free_r+0x1f4>
  10560c:	e1a00323 	lsr	r0, r3, #6
  105610:	e2800038 	add	r0, r0, #56	; 0x38
  105614:	e1a01080 	lsl	r1, r0, #1
  105618:	e0844101 	add	r4, r4, r1, lsl #2
  10561c:	e30b1704 	movw	r1, #46852	; 0xb704
  105620:	e3401010 	movt	r1, #16
  105624:	e5942008 	ldr	r2, [r4, #8]
  105628:	e1520004 	cmp	r2, r4
  10562c:	0a000047 	beq	105750 <_free_r+0x21c>
  105630:	e5921004 	ldr	r1, [r2, #4]
  105634:	e3c11003 	bic	r1, r1, #3
  105638:	e1530001 	cmp	r3, r1
  10563c:	2a000002 	bcs	10564c <_free_r+0x118>
  105640:	e5922008 	ldr	r2, [r2, #8]
  105644:	e1540002 	cmp	r4, r2
  105648:	1afffff8 	bne	105630 <_free_r+0xfc>
  10564c:	e592300c 	ldr	r3, [r2, #12]
  105650:	e58c300c 	str	r3, [ip, #12]
  105654:	e58c2008 	str	r2, [ip, #8]
  105658:	e583c008 	str	ip, [r3, #8]
  10565c:	e582c00c 	str	ip, [r2, #12]
  105660:	e1a00007 	mov	r0, r7
  105664:	e8bd40f8 	pop	{r3, r4, r5, r6, r7, lr}
  105668:	ea000493 	b	1068bc <__malloc_unlock>
  10566c:	e1a031a3 	lsr	r3, r3, #3
  105670:	e5941004 	ldr	r1, [r4, #4]
  105674:	e3a00001 	mov	r0, #1
  105678:	e0842183 	add	r2, r4, r3, lsl #3
  10567c:	e1a03143 	asr	r3, r3, #2
  105680:	e1813310 	orr	r3, r1, r0, lsl r3
  105684:	e5843004 	str	r3, [r4, #4]
  105688:	e5923008 	ldr	r3, [r2, #8]
  10568c:	e1a00007 	mov	r0, r7
  105690:	e58c200c 	str	r2, [ip, #12]
  105694:	e58c3008 	str	r3, [ip, #8]
  105698:	e582c008 	str	ip, [r2, #8]
  10569c:	e583c00c 	str	ip, [r3, #12]
  1056a0:	e8bd40f8 	pop	{r3, r4, r5, r6, r7, lr}
  1056a4:	ea000484 	b	1068bc <__malloc_unlock>
  1056a8:	e3150001 	tst	r5, #1
  1056ac:	e0813003 	add	r3, r1, r3
  1056b0:	1a000006 	bne	1056d0 <_free_r+0x19c>
  1056b4:	e5162008 	ldr	r2, [r6, #-8]
  1056b8:	e062c00c 	rsb	ip, r2, ip
  1056bc:	e0833002 	add	r3, r3, r2
  1056c0:	e59c1008 	ldr	r1, [ip, #8]
  1056c4:	e59c200c 	ldr	r2, [ip, #12]
  1056c8:	e581200c 	str	r2, [r1, #12]
  1056cc:	e5821008 	str	r1, [r2, #8]
  1056d0:	e30b2b10 	movw	r2, #47888	; 0xbb10
  1056d4:	e3402010 	movt	r2, #16
  1056d8:	e3831001 	orr	r1, r3, #1
  1056dc:	e58c1004 	str	r1, [ip, #4]
  1056e0:	e5922000 	ldr	r2, [r2]
  1056e4:	e584c008 	str	ip, [r4, #8]
  1056e8:	e1530002 	cmp	r3, r2
  1056ec:	3affffdb 	bcc	105660 <_free_r+0x12c>
  1056f0:	e300303c 	movw	r3, #60	; 0x3c
  1056f4:	e3403011 	movt	r3, #17
  1056f8:	e1a00007 	mov	r0, r7
  1056fc:	e5931000 	ldr	r1, [r3]
  105700:	ebffff4c 	bl	105438 <_malloc_trim_r>
  105704:	eaffffd5 	b	105660 <_free_r+0x12c>
  105708:	e584c014 	str	ip, [r4, #20]
  10570c:	e3832001 	orr	r2, r3, #1
  105710:	e584c010 	str	ip, [r4, #16]
  105714:	e58c100c 	str	r1, [ip, #12]
  105718:	e58c1008 	str	r1, [ip, #8]
  10571c:	e58c2004 	str	r2, [ip, #4]
  105720:	e78c3003 	str	r3, [ip, r3]
  105724:	eaffffcd 	b	105660 <_free_r+0x12c>
  105728:	e3520014 	cmp	r2, #20
  10572c:	9282005b 	addls	r0, r2, #91	; 0x5b
  105730:	91a01080 	lslls	r1, r0, #1
  105734:	9affffb7 	bls	105618 <_free_r+0xe4>
  105738:	e3520054 	cmp	r2, #84	; 0x54
  10573c:	8a00000a 	bhi	10576c <_free_r+0x238>
  105740:	e1a00623 	lsr	r0, r3, #12
  105744:	e280006e 	add	r0, r0, #110	; 0x6e
  105748:	e1a01080 	lsl	r1, r0, #1
  10574c:	eaffffb1 	b	105618 <_free_r+0xe4>
  105750:	e5914004 	ldr	r4, [r1, #4]
  105754:	e1a00140 	asr	r0, r0, #2
  105758:	e3a05001 	mov	r5, #1
  10575c:	e1a03002 	mov	r3, r2
  105760:	e1840015 	orr	r0, r4, r5, lsl r0
  105764:	e5810004 	str	r0, [r1, #4]
  105768:	eaffffb8 	b	105650 <_free_r+0x11c>
  10576c:	e3520f55 	cmp	r2, #340	; 0x154
  105770:	91a007a3 	lsrls	r0, r3, #15
  105774:	92800077 	addls	r0, r0, #119	; 0x77
  105778:	91a01080 	lslls	r1, r0, #1
  10577c:	9affffa5 	bls	105618 <_free_r+0xe4>
  105780:	e3001554 	movw	r1, #1364	; 0x554
  105784:	e1520001 	cmp	r2, r1
  105788:	91a00923 	lsrls	r0, r3, #18
  10578c:	9280007c 	addls	r0, r0, #124	; 0x7c
  105790:	83a010fc 	movhi	r1, #252	; 0xfc
  105794:	83a0007e 	movhi	r0, #126	; 0x7e
  105798:	91a01080 	lslls	r1, r0, #1
  10579c:	eaffff9d 	b	105618 <_free_r+0xe4>
  1057a0:	0010b70c 	andseq	fp, r0, ip, lsl #14

001057a4 <_fwalk>:
  1057a4:	e92d41f0 	push	{r4, r5, r6, r7, r8, lr}
  1057a8:	e2906e2e 	adds	r6, r0, #736	; 0x2e0
  1057ac:	e1a08001 	mov	r8, r1
  1057b0:	0a000016 	beq	105810 <_fwalk+0x6c>
  1057b4:	e3a07000 	mov	r7, #0
  1057b8:	e5965004 	ldr	r5, [r6, #4]
  1057bc:	e5964008 	ldr	r4, [r6, #8]
  1057c0:	e2555001 	subs	r5, r5, #1
  1057c4:	4a00000c 	bmi	1057fc <_fwalk+0x58>
  1057c8:	e1d430bc 	ldrh	r3, [r4, #12]
  1057cc:	e2455001 	sub	r5, r5, #1
  1057d0:	e3530001 	cmp	r3, #1
  1057d4:	9a000005 	bls	1057f0 <_fwalk+0x4c>
  1057d8:	e1d430fe 	ldrsh	r3, [r4, #14]
  1057dc:	e1a00004 	mov	r0, r4
  1057e0:	e3730001 	cmn	r3, #1
  1057e4:	0a000001 	beq	1057f0 <_fwalk+0x4c>
  1057e8:	e12fff38 	blx	r8
  1057ec:	e1877000 	orr	r7, r7, r0
  1057f0:	e3750001 	cmn	r5, #1
  1057f4:	e2844068 	add	r4, r4, #104	; 0x68
  1057f8:	1afffff2 	bne	1057c8 <_fwalk+0x24>
  1057fc:	e5966000 	ldr	r6, [r6]
  105800:	e3560000 	cmp	r6, #0
  105804:	1affffeb 	bne	1057b8 <_fwalk+0x14>
  105808:	e1a00007 	mov	r0, r7
  10580c:	e8bd81f0 	pop	{r4, r5, r6, r7, r8, pc}
  105810:	e1a07006 	mov	r7, r6
  105814:	e1a00007 	mov	r0, r7
  105818:	e8bd81f0 	pop	{r4, r5, r6, r7, r8, pc}

0010581c <_fwalk_reent>:
  10581c:	e92d43f8 	push	{r3, r4, r5, r6, r7, r8, r9, lr}
  105820:	e2906e2e 	adds	r6, r0, #736	; 0x2e0
  105824:	e1a08000 	mov	r8, r0
  105828:	e1a09001 	mov	r9, r1
  10582c:	0a000017 	beq	105890 <_fwalk_reent+0x74>
  105830:	e3a07000 	mov	r7, #0
  105834:	e5965004 	ldr	r5, [r6, #4]
  105838:	e5964008 	ldr	r4, [r6, #8]
  10583c:	e2555001 	subs	r5, r5, #1
  105840:	4a00000d 	bmi	10587c <_fwalk_reent+0x60>
  105844:	e1d430bc 	ldrh	r3, [r4, #12]
  105848:	e2455001 	sub	r5, r5, #1
  10584c:	e3530001 	cmp	r3, #1
  105850:	9a000006 	bls	105870 <_fwalk_reent+0x54>
  105854:	e1d430fe 	ldrsh	r3, [r4, #14]
  105858:	e1a01004 	mov	r1, r4
  10585c:	e1a00008 	mov	r0, r8
  105860:	e3730001 	cmn	r3, #1
  105864:	0a000001 	beq	105870 <_fwalk_reent+0x54>
  105868:	e12fff39 	blx	r9
  10586c:	e1877000 	orr	r7, r7, r0
  105870:	e3750001 	cmn	r5, #1
  105874:	e2844068 	add	r4, r4, #104	; 0x68
  105878:	1afffff1 	bne	105844 <_fwalk_reent+0x28>
  10587c:	e5966000 	ldr	r6, [r6]
  105880:	e3560000 	cmp	r6, #0
  105884:	1affffea 	bne	105834 <_fwalk_reent+0x18>
  105888:	e1a00007 	mov	r0, r7
  10588c:	e8bd83f8 	pop	{r3, r4, r5, r6, r7, r8, r9, pc}
  105890:	e1a07006 	mov	r7, r6
  105894:	e1a00007 	mov	r0, r7
  105898:	e8bd83f8 	pop	{r3, r4, r5, r6, r7, r8, r9, pc}

0010589c <_setlocale_r>:
  10589c:	e92d4010 	push	{r4, lr}
  1058a0:	e2524000 	subs	r4, r2, #0
  1058a4:	0a000005 	beq	1058c0 <_setlocale_r+0x24>
  1058a8:	e30b1204 	movw	r1, #45572	; 0xb204
  1058ac:	e1a00004 	mov	r0, r4
  1058b0:	e3401010 	movt	r1, #16
  1058b4:	eb000785 	bl	1076d0 <strcmp>
  1058b8:	e3500000 	cmp	r0, #0
  1058bc:	1a000002 	bne	1058cc <_setlocale_r+0x30>
  1058c0:	e30b01ac 	movw	r0, #45484	; 0xb1ac
  1058c4:	e3400010 	movt	r0, #16
  1058c8:	e8bd8010 	pop	{r4, pc}
  1058cc:	e30b11ac 	movw	r1, #45484	; 0xb1ac
  1058d0:	e1a00004 	mov	r0, r4
  1058d4:	e3401010 	movt	r1, #16
  1058d8:	eb00077c 	bl	1076d0 <strcmp>
  1058dc:	e3500000 	cmp	r0, #0
  1058e0:	0afffff6 	beq	1058c0 <_setlocale_r+0x24>
  1058e4:	e1a00004 	mov	r0, r4
  1058e8:	e30b11d0 	movw	r1, #45520	; 0xb1d0
  1058ec:	e3401010 	movt	r1, #16
  1058f0:	eb000776 	bl	1076d0 <strcmp>
  1058f4:	e30b31ac 	movw	r3, #45484	; 0xb1ac
  1058f8:	e3403010 	movt	r3, #16
  1058fc:	e3500000 	cmp	r0, #0
  105900:	01a00003 	moveq	r0, r3
  105904:	13a00000 	movne	r0, #0
  105908:	e8bd8010 	pop	{r4, pc}

0010590c <__locale_charset>:
  10590c:	e30b0688 	movw	r0, #46728	; 0xb688
  105910:	e3400010 	movt	r0, #16
  105914:	e12fff1e 	bx	lr

00105918 <__locale_mb_cur_max>:
  105918:	e30b3688 	movw	r3, #46728	; 0xb688
  10591c:	e3403010 	movt	r3, #16
  105920:	e5930020 	ldr	r0, [r3, #32]
  105924:	e12fff1e 	bx	lr

00105928 <__locale_msgcharset>:
  105928:	e59f0000 	ldr	r0, [pc]	; 105930 <__locale_msgcharset+0x8>
  10592c:	e12fff1e 	bx	lr
  105930:	0010b6ac 	andseq	fp, r0, ip, lsr #13

00105934 <__locale_cjk_lang>:
  105934:	e3a00000 	mov	r0, #0
  105938:	e12fff1e 	bx	lr

0010593c <_localeconv_r>:
  10593c:	e59f0000 	ldr	r0, [pc]	; 105944 <_localeconv_r+0x8>
  105940:	e12fff1e 	bx	lr
  105944:	0010b6cc 	andseq	fp, r0, ip, asr #13

00105948 <setlocale>:
  105948:	e30b3258 	movw	r3, #45656	; 0xb258
  10594c:	e3403010 	movt	r3, #16
  105950:	e1a02001 	mov	r2, r1
  105954:	e1a01000 	mov	r1, r0
  105958:	e5930000 	ldr	r0, [r3]
  10595c:	eaffffce 	b	10589c <_setlocale_r>

00105960 <localeconv>:
  105960:	e59f0000 	ldr	r0, [pc]	; 105968 <localeconv+0x8>
  105964:	e12fff1e 	bx	lr
  105968:	0010b6cc 	andseq	fp, r0, ip, asr #13

0010596c <__smakebuf_r>:
  10596c:	e1d130bc 	ldrh	r3, [r1, #12]
  105970:	e92d40f0 	push	{r4, r5, r6, r7, lr}
  105974:	e1a04001 	mov	r4, r1
  105978:	e6ff2073 	uxth	r2, r3
  10597c:	e24dd044 	sub	sp, sp, #68	; 0x44
  105980:	e3120002 	tst	r2, #2
  105984:	e1a05000 	mov	r5, r0
  105988:	1a00002c 	bne	105a40 <__smakebuf_r+0xd4>
  10598c:	e1d110fe 	ldrsh	r1, [r1, #14]
  105990:	e3510000 	cmp	r1, #0
  105994:	ba000011 	blt	1059e0 <__smakebuf_r+0x74>
  105998:	e28d2004 	add	r2, sp, #4
  10599c:	eb000e74 	bl	109374 <_fstat_r>
  1059a0:	e3500000 	cmp	r0, #0
  1059a4:	ba00000b 	blt	1059d8 <__smakebuf_r+0x6c>
  1059a8:	e59d3008 	ldr	r3, [sp, #8]
  1059ac:	e2033a0f 	and	r3, r3, #61440	; 0xf000
  1059b0:	e2532a02 	subs	r2, r3, #8192	; 0x2000
  1059b4:	e2727000 	rsbs	r7, r2, #0
  1059b8:	e0b77002 	adcs	r7, r7, r2
  1059bc:	e3530902 	cmp	r3, #32768	; 0x8000
  1059c0:	0a000025 	beq	105a5c <__smakebuf_r+0xf0>
  1059c4:	e1d430bc 	ldrh	r3, [r4, #12]
  1059c8:	e3a06b01 	mov	r6, #1024	; 0x400
  1059cc:	e3833b02 	orr	r3, r3, #2048	; 0x800
  1059d0:	e1c430bc 	strh	r3, [r4, #12]
  1059d4:	ea000007 	b	1059f8 <__smakebuf_r+0x8c>
  1059d8:	e1d430bc 	ldrh	r3, [r4, #12]
  1059dc:	e6ff2073 	uxth	r2, r3
  1059e0:	e3120080 	tst	r2, #128	; 0x80
  1059e4:	e3a07000 	mov	r7, #0
  1059e8:	e3833b02 	orr	r3, r3, #2048	; 0x800
  1059ec:	e1c430bc 	strh	r3, [r4, #12]
  1059f0:	13a06040 	movne	r6, #64	; 0x40
  1059f4:	03a06b01 	moveq	r6, #1024	; 0x400
  1059f8:	e1a00005 	mov	r0, r5
  1059fc:	e1a01006 	mov	r1, r6
  105a00:	eb000035 	bl	105adc <_malloc_r>
  105a04:	e3500000 	cmp	r0, #0
  105a08:	0a000028 	beq	105ab0 <__smakebuf_r+0x144>
  105a0c:	e1d420bc 	ldrh	r2, [r4, #12]
  105a10:	e3570000 	cmp	r7, #0
  105a14:	e3053138 	movw	r3, #20792	; 0x5138
  105a18:	e3403010 	movt	r3, #16
  105a1c:	e3822080 	orr	r2, r2, #128	; 0x80
  105a20:	e585303c 	str	r3, [r5, #60]	; 0x3c
  105a24:	e5840000 	str	r0, [r4]
  105a28:	e5840010 	str	r0, [r4, #16]
  105a2c:	e5846014 	str	r6, [r4, #20]
  105a30:	e1c420bc 	strh	r2, [r4, #12]
  105a34:	1a000014 	bne	105a8c <__smakebuf_r+0x120>
  105a38:	e28dd044 	add	sp, sp, #68	; 0x44
  105a3c:	e8bd80f0 	pop	{r4, r5, r6, r7, pc}
  105a40:	e2813043 	add	r3, r1, #67	; 0x43
  105a44:	e3a02001 	mov	r2, #1
  105a48:	e5813000 	str	r3, [r1]
  105a4c:	e5813010 	str	r3, [r1, #16]
  105a50:	e5812014 	str	r2, [r1, #20]
  105a54:	e28dd044 	add	sp, sp, #68	; 0x44
  105a58:	e8bd80f0 	pop	{r4, r5, r6, r7, pc}
  105a5c:	e5942028 	ldr	r2, [r4, #40]	; 0x28
  105a60:	e307369c 	movw	r3, #30364	; 0x769c
  105a64:	e3403010 	movt	r3, #16
  105a68:	e1520003 	cmp	r2, r3
  105a6c:	1affffd4 	bne	1059c4 <__smakebuf_r+0x58>
  105a70:	e1d420bc 	ldrh	r2, [r4, #12]
  105a74:	e3a03b01 	mov	r3, #1024	; 0x400
  105a78:	e1a06003 	mov	r6, r3
  105a7c:	e584304c 	str	r3, [r4, #76]	; 0x4c
  105a80:	e1823003 	orr	r3, r2, r3
  105a84:	e1c430bc 	strh	r3, [r4, #12]
  105a88:	eaffffda 	b	1059f8 <__smakebuf_r+0x8c>
  105a8c:	e1a00005 	mov	r0, r5
  105a90:	e1d410fe 	ldrsh	r1, [r4, #14]
  105a94:	eb000f74 	bl	10986c <_isatty_r>
  105a98:	e3500000 	cmp	r0, #0
  105a9c:	11d430bc 	ldrhne	r3, [r4, #12]
  105aa0:	13833001 	orrne	r3, r3, #1
  105aa4:	11c430bc 	strhne	r3, [r4, #12]
  105aa8:	e28dd044 	add	sp, sp, #68	; 0x44
  105aac:	e8bd80f0 	pop	{r4, r5, r6, r7, pc}
  105ab0:	e1d430bc 	ldrh	r3, [r4, #12]
  105ab4:	e3130c02 	tst	r3, #512	; 0x200
  105ab8:	1affffde 	bne	105a38 <__smakebuf_r+0xcc>
  105abc:	e3833002 	orr	r3, r3, #2
  105ac0:	e2842043 	add	r2, r4, #67	; 0x43
  105ac4:	e1c430bc 	strh	r3, [r4, #12]
  105ac8:	e3a03001 	mov	r3, #1
  105acc:	e5842000 	str	r2, [r4]
  105ad0:	e5842010 	str	r2, [r4, #16]
  105ad4:	e5843014 	str	r3, [r4, #20]
  105ad8:	eaffffd6 	b	105a38 <__smakebuf_r+0xcc>

00105adc <_malloc_r>:
  105adc:	e92d4ff0 	push	{r4, r5, r6, r7, r8, r9, sl, fp, lr}
  105ae0:	e281400b 	add	r4, r1, #11
  105ae4:	e3540016 	cmp	r4, #22
  105ae8:	e24dd00c 	sub	sp, sp, #12
  105aec:	83c44007 	bichi	r4, r4, #7
  105af0:	e1a06000 	mov	r6, r0
  105af4:	93a03000 	movls	r3, #0
  105af8:	93a04010 	movls	r4, #16
  105afc:	81a03fa4 	lsrhi	r3, r4, #31
  105b00:	e1540001 	cmp	r4, r1
  105b04:	21a01003 	movcs	r1, r3
  105b08:	33831001 	orrcc	r1, r3, #1
  105b0c:	e3510000 	cmp	r1, #0
  105b10:	13a0300c 	movne	r3, #12
  105b14:	13a07000 	movne	r7, #0
  105b18:	15803000 	strne	r3, [r0]
  105b1c:	1a000016 	bne	105b7c <_malloc_r+0xa0>
  105b20:	eb000364 	bl	1068b8 <__malloc_lock>
  105b24:	e3540f7e 	cmp	r4, #504	; 0x1f8
  105b28:	2a000016 	bcs	105b88 <_malloc_r+0xac>
  105b2c:	e1a071a4 	lsr	r7, r4, #3
  105b30:	e30b5704 	movw	r5, #46852	; 0xb704
  105b34:	e3405010 	movt	r5, #16
  105b38:	e0852187 	add	r2, r5, r7, lsl #3
  105b3c:	e592300c 	ldr	r3, [r2, #12]
  105b40:	e1530002 	cmp	r3, r2
  105b44:	0a000146 	beq	106064 <_malloc_r+0x588>
  105b48:	e593c004 	ldr	ip, [r3, #4]
  105b4c:	e2837008 	add	r7, r3, #8
  105b50:	e593200c 	ldr	r2, [r3, #12]
  105b54:	e1a00006 	mov	r0, r6
  105b58:	e3ccc003 	bic	ip, ip, #3
  105b5c:	e5931008 	ldr	r1, [r3, #8]
  105b60:	e083300c 	add	r3, r3, ip
  105b64:	e593c004 	ldr	ip, [r3, #4]
  105b68:	e581200c 	str	r2, [r1, #12]
  105b6c:	e38cc001 	orr	ip, ip, #1
  105b70:	e5821008 	str	r1, [r2, #8]
  105b74:	e583c004 	str	ip, [r3, #4]
  105b78:	eb00034f 	bl	1068bc <__malloc_unlock>
  105b7c:	e1a00007 	mov	r0, r7
  105b80:	e28dd00c 	add	sp, sp, #12
  105b84:	e8bd8ff0 	pop	{r4, r5, r6, r7, r8, r9, sl, fp, pc}
  105b88:	e1b074a4 	lsrs	r7, r4, #9
  105b8c:	03a0c07e 	moveq	ip, #126	; 0x7e
  105b90:	03a0703f 	moveq	r7, #63	; 0x3f
  105b94:	1a000062 	bne	105d24 <_malloc_r+0x248>
  105b98:	e30b5704 	movw	r5, #46852	; 0xb704
  105b9c:	e3405010 	movt	r5, #16
  105ba0:	e085c10c 	add	ip, r5, ip, lsl #2
  105ba4:	e59c300c 	ldr	r3, [ip, #12]
  105ba8:	e15c0003 	cmp	ip, r3
  105bac:	1a000005 	bne	105bc8 <_malloc_r+0xec>
  105bb0:	ea00000a 	b	105be0 <_malloc_r+0x104>
  105bb4:	e3520000 	cmp	r2, #0
  105bb8:	aa0000df 	bge	105f3c <_malloc_r+0x460>
  105bbc:	e593300c 	ldr	r3, [r3, #12]
  105bc0:	e15c0003 	cmp	ip, r3
  105bc4:	0a000005 	beq	105be0 <_malloc_r+0x104>
  105bc8:	e5931004 	ldr	r1, [r3, #4]
  105bcc:	e3c11003 	bic	r1, r1, #3
  105bd0:	e0642001 	rsb	r2, r4, r1
  105bd4:	e352000f 	cmp	r2, #15
  105bd8:	dafffff5 	ble	105bb4 <_malloc_r+0xd8>
  105bdc:	e2477001 	sub	r7, r7, #1
  105be0:	e2877001 	add	r7, r7, #1
  105be4:	e30b2704 	movw	r2, #46852	; 0xb704
  105be8:	e5953010 	ldr	r3, [r5, #16]
  105bec:	e3402010 	movt	r2, #16
  105bf0:	e282e008 	add	lr, r2, #8
  105bf4:	e153000e 	cmp	r3, lr
  105bf8:	05921004 	ldreq	r1, [r2, #4]
  105bfc:	0a000016 	beq	105c5c <_malloc_r+0x180>
  105c00:	e5931004 	ldr	r1, [r3, #4]
  105c04:	e3c11003 	bic	r1, r1, #3
  105c08:	e064c001 	rsb	ip, r4, r1
  105c0c:	e35c000f 	cmp	ip, #15
  105c10:	ca000101 	bgt	10601c <_malloc_r+0x540>
  105c14:	e35c0000 	cmp	ip, #0
  105c18:	e582e014 	str	lr, [r2, #20]
  105c1c:	e582e010 	str	lr, [r2, #16]
  105c20:	aa000045 	bge	105d3c <_malloc_r+0x260>
  105c24:	e3510c02 	cmp	r1, #512	; 0x200
  105c28:	2a0000db 	bcs	105f9c <_malloc_r+0x4c0>
  105c2c:	e1a0c1a1 	lsr	ip, r1, #3
  105c30:	e5928004 	ldr	r8, [r2, #4]
  105c34:	e3a01001 	mov	r1, #1
  105c38:	e082018c 	add	r0, r2, ip, lsl #3
  105c3c:	e1a0c14c 	asr	ip, ip, #2
  105c40:	e1881c11 	orr	r1, r8, r1, lsl ip
  105c44:	e5821004 	str	r1, [r2, #4]
  105c48:	e5902008 	ldr	r2, [r0, #8]
  105c4c:	e583000c 	str	r0, [r3, #12]
  105c50:	e5832008 	str	r2, [r3, #8]
  105c54:	e5803008 	str	r3, [r0, #8]
  105c58:	e582300c 	str	r3, [r2, #12]
  105c5c:	e1a03147 	asr	r3, r7, #2
  105c60:	e3a00001 	mov	r0, #1
  105c64:	e1a00310 	lsl	r0, r0, r3
  105c68:	e1500001 	cmp	r0, r1
  105c6c:	8a00003c 	bhi	105d64 <_malloc_r+0x288>
  105c70:	e1110000 	tst	r1, r0
  105c74:	1a000008 	bne	105c9c <_malloc_r+0x1c0>
  105c78:	e1a00080 	lsl	r0, r0, #1
  105c7c:	e3c77003 	bic	r7, r7, #3
  105c80:	e1110000 	tst	r1, r0
  105c84:	e2877004 	add	r7, r7, #4
  105c88:	1a000003 	bne	105c9c <_malloc_r+0x1c0>
  105c8c:	e1a00080 	lsl	r0, r0, #1
  105c90:	e2877004 	add	r7, r7, #4
  105c94:	e1110000 	tst	r1, r0
  105c98:	0afffffb 	beq	105c8c <_malloc_r+0x1b0>
  105c9c:	e0858187 	add	r8, r5, r7, lsl #3
  105ca0:	e1a09007 	mov	r9, r7
  105ca4:	e1a0c008 	mov	ip, r8
  105ca8:	e59c200c 	ldr	r2, [ip, #12]
  105cac:	e15c0002 	cmp	ip, r2
  105cb0:	1a000005 	bne	105ccc <_malloc_r+0x1f0>
  105cb4:	ea0000e5 	b	106050 <_malloc_r+0x574>
  105cb8:	e3510000 	cmp	r1, #0
  105cbc:	aa0000ee 	bge	10607c <_malloc_r+0x5a0>
  105cc0:	e592200c 	ldr	r2, [r2, #12]
  105cc4:	e15c0002 	cmp	ip, r2
  105cc8:	0a0000e0 	beq	106050 <_malloc_r+0x574>
  105ccc:	e5923004 	ldr	r3, [r2, #4]
  105cd0:	e3c33003 	bic	r3, r3, #3
  105cd4:	e0641003 	rsb	r1, r4, r3
  105cd8:	e351000f 	cmp	r1, #15
  105cdc:	dafffff5 	ble	105cb8 <_malloc_r+0x1dc>
  105ce0:	e1a07002 	mov	r7, r2
  105ce4:	e592c00c 	ldr	ip, [r2, #12]
  105ce8:	e5b78008 	ldr	r8, [r7, #8]!
  105cec:	e0823004 	add	r3, r2, r4
  105cf0:	e1a00006 	mov	r0, r6
  105cf4:	e3844001 	orr	r4, r4, #1
  105cf8:	e3816001 	orr	r6, r1, #1
  105cfc:	e5824004 	str	r4, [r2, #4]
  105d00:	e588c00c 	str	ip, [r8, #12]
  105d04:	e58c8008 	str	r8, [ip, #8]
  105d08:	e5853014 	str	r3, [r5, #20]
  105d0c:	e5853010 	str	r3, [r5, #16]
  105d10:	e583e00c 	str	lr, [r3, #12]
  105d14:	e9834040 	stmib	r3, {r6, lr}
  105d18:	e7831001 	str	r1, [r3, r1]
  105d1c:	eb0002e6 	bl	1068bc <__malloc_unlock>
  105d20:	eaffff95 	b	105b7c <_malloc_r+0xa0>
  105d24:	e3570004 	cmp	r7, #4
  105d28:	8a000091 	bhi	105f74 <_malloc_r+0x498>
  105d2c:	e1a07324 	lsr	r7, r4, #6
  105d30:	e2877038 	add	r7, r7, #56	; 0x38
  105d34:	e1a0c087 	lsl	ip, r7, #1
  105d38:	eaffff96 	b	105b98 <_malloc_r+0xbc>
  105d3c:	e0831001 	add	r1, r3, r1
  105d40:	e2837008 	add	r7, r3, #8
  105d44:	e1a00006 	mov	r0, r6
  105d48:	e5913004 	ldr	r3, [r1, #4]
  105d4c:	e3833001 	orr	r3, r3, #1
  105d50:	e5813004 	str	r3, [r1, #4]
  105d54:	eb0002d8 	bl	1068bc <__malloc_unlock>
  105d58:	e1a00007 	mov	r0, r7
  105d5c:	e28dd00c 	add	sp, sp, #12
  105d60:	e8bd8ff0 	pop	{r4, r5, r6, r7, r8, r9, sl, fp, pc}
  105d64:	e5957008 	ldr	r7, [r5, #8]
  105d68:	e597a004 	ldr	sl, [r7, #4]
  105d6c:	e3caa003 	bic	sl, sl, #3
  105d70:	e154000a 	cmp	r4, sl
  105d74:	8a000002 	bhi	105d84 <_malloc_r+0x2a8>
  105d78:	e064300a 	rsb	r3, r4, sl
  105d7c:	e353000f 	cmp	r3, #15
  105d80:	ca000061 	bgt	105f0c <_malloc_r+0x430>
  105d84:	e5953408 	ldr	r3, [r5, #1032]	; 0x408
  105d88:	e300903c 	movw	r9, #60	; 0x3c
  105d8c:	e3409011 	movt	r9, #17
  105d90:	e1a00006 	mov	r0, r6
  105d94:	e3730001 	cmn	r3, #1
  105d98:	e087200a 	add	r2, r7, sl
  105d9c:	e5993000 	ldr	r3, [r9]
  105da0:	e58d2004 	str	r2, [sp, #4]
  105da4:	e0843003 	add	r3, r4, r3
  105da8:	12833a01 	addne	r3, r3, #4096	; 0x1000
  105dac:	0283b010 	addeq	fp, r3, #16
  105db0:	1283300f 	addne	r3, r3, #15
  105db4:	13c33eff 	bicne	r3, r3, #4080	; 0xff0
  105db8:	13c3b00f 	bicne	fp, r3, #15
  105dbc:	e1a0100b 	mov	r1, fp
  105dc0:	eb000604 	bl	1075d8 <_sbrk_r>
  105dc4:	e59d2004 	ldr	r2, [sp, #4]
  105dc8:	e3700001 	cmn	r0, #1
  105dcc:	e1a08000 	mov	r8, r0
  105dd0:	0a0000bb 	beq	1060c4 <_malloc_r+0x5e8>
  105dd4:	e1520000 	cmp	r2, r0
  105dd8:	8a0000b7 	bhi	1060bc <_malloc_r+0x5e0>
  105ddc:	e5993004 	ldr	r3, [r9, #4]
  105de0:	e1520008 	cmp	r2, r8
  105de4:	e08b3003 	add	r3, fp, r3
  105de8:	e5893004 	str	r3, [r9, #4]
  105dec:	0a0000e9 	beq	106198 <_malloc_r+0x6bc>
  105df0:	e5950408 	ldr	r0, [r5, #1032]	; 0x408
  105df4:	e30b1704 	movw	r1, #46852	; 0xb704
  105df8:	e3401010 	movt	r1, #16
  105dfc:	e3700001 	cmn	r0, #1
  105e00:	e1a00006 	mov	r0, r6
  105e04:	10622008 	rsbne	r2, r2, r8
  105e08:	05818408 	streq	r8, [r1, #1032]	; 0x408
  105e0c:	10833002 	addne	r3, r3, r2
  105e10:	15893004 	strne	r3, [r9, #4]
  105e14:	e2183007 	ands	r3, r8, #7
  105e18:	12632008 	rsbne	r2, r3, #8
  105e1c:	12633a01 	rsbne	r3, r3, #4096	; 0x1000
  105e20:	10888002 	addne	r8, r8, r2
  105e24:	12832008 	addne	r2, r3, #8
  105e28:	e088300b 	add	r3, r8, fp
  105e2c:	03a02a01 	moveq	r2, #4096	; 0x1000
  105e30:	e7eb3053 	ubfx	r3, r3, #0, #12
  105e34:	e063b002 	rsb	fp, r3, r2
  105e38:	e1a0100b 	mov	r1, fp
  105e3c:	eb0005e5 	bl	1075d8 <_sbrk_r>
  105e40:	e5993004 	ldr	r3, [r9, #4]
  105e44:	e5858008 	str	r8, [r5, #8]
  105e48:	e300203c 	movw	r2, #60	; 0x3c
  105e4c:	e3402011 	movt	r2, #17
  105e50:	e3700001 	cmn	r0, #1
  105e54:	10681000 	rsbne	r1, r8, r0
  105e58:	108b1001 	addne	r1, fp, r1
  105e5c:	03a01001 	moveq	r1, #1
  105e60:	13811001 	orrne	r1, r1, #1
  105e64:	03a0b000 	moveq	fp, #0
  105e68:	e1570005 	cmp	r7, r5
  105e6c:	e08b3003 	add	r3, fp, r3
  105e70:	e5881004 	str	r1, [r8, #4]
  105e74:	e5893004 	str	r3, [r9, #4]
  105e78:	0a00000d 	beq	105eb4 <_malloc_r+0x3d8>
  105e7c:	e35a000f 	cmp	sl, #15
  105e80:	9a0000b0 	bls	106148 <_malloc_r+0x66c>
  105e84:	e24a100c 	sub	r1, sl, #12
  105e88:	e597e004 	ldr	lr, [r7, #4]
  105e8c:	e3c11007 	bic	r1, r1, #7
  105e90:	e3a0c005 	mov	ip, #5
  105e94:	e0870001 	add	r0, r7, r1
  105e98:	e351000f 	cmp	r1, #15
  105e9c:	e20ee001 	and	lr, lr, #1
  105ea0:	e181100e 	orr	r1, r1, lr
  105ea4:	e5871004 	str	r1, [r7, #4]
  105ea8:	e580c004 	str	ip, [r0, #4]
  105eac:	e580c008 	str	ip, [r0, #8]
  105eb0:	8a0000c0 	bhi	1061b8 <_malloc_r+0x6dc>
  105eb4:	e599102c 	ldr	r1, [r9, #44]	; 0x2c
  105eb8:	e300203c 	movw	r2, #60	; 0x3c
  105ebc:	e3402011 	movt	r2, #17
  105ec0:	e5957008 	ldr	r7, [r5, #8]
  105ec4:	e1530001 	cmp	r3, r1
  105ec8:	e5991030 	ldr	r1, [r9, #48]	; 0x30
  105ecc:	8582302c 	strhi	r3, [r2, #44]	; 0x2c
  105ed0:	e300203c 	movw	r2, #60	; 0x3c
  105ed4:	e3402011 	movt	r2, #17
  105ed8:	e1530001 	cmp	r3, r1
  105edc:	85823030 	strhi	r3, [r2, #48]	; 0x30
  105ee0:	e5973004 	ldr	r3, [r7, #4]
  105ee4:	e3c33003 	bic	r3, r3, #3
  105ee8:	e1540003 	cmp	r4, r3
  105eec:	e0643003 	rsb	r3, r4, r3
  105ef0:	8a000001 	bhi	105efc <_malloc_r+0x420>
  105ef4:	e353000f 	cmp	r3, #15
  105ef8:	ca000003 	bgt	105f0c <_malloc_r+0x430>
  105efc:	e1a00006 	mov	r0, r6
  105f00:	e3a07000 	mov	r7, #0
  105f04:	eb00026c 	bl	1068bc <__malloc_unlock>
  105f08:	eaffff1b 	b	105b7c <_malloc_r+0xa0>
  105f0c:	e0872004 	add	r2, r7, r4
  105f10:	e3833001 	orr	r3, r3, #1
  105f14:	e1a00006 	mov	r0, r6
  105f18:	e3844001 	orr	r4, r4, #1
  105f1c:	e5874004 	str	r4, [r7, #4]
  105f20:	e2877008 	add	r7, r7, #8
  105f24:	e5852008 	str	r2, [r5, #8]
  105f28:	e5823004 	str	r3, [r2, #4]
  105f2c:	eb000262 	bl	1068bc <__malloc_unlock>
  105f30:	e1a00007 	mov	r0, r7
  105f34:	e28dd00c 	add	sp, sp, #12
  105f38:	e8bd8ff0 	pop	{r4, r5, r6, r7, r8, r9, sl, fp, pc}
  105f3c:	e0831001 	add	r1, r3, r1
  105f40:	e593200c 	ldr	r2, [r3, #12]
  105f44:	e593c008 	ldr	ip, [r3, #8]
  105f48:	e1a00006 	mov	r0, r6
  105f4c:	e591e004 	ldr	lr, [r1, #4]
  105f50:	e2837008 	add	r7, r3, #8
  105f54:	e58c200c 	str	r2, [ip, #12]
  105f58:	e38e3001 	orr	r3, lr, #1
  105f5c:	e582c008 	str	ip, [r2, #8]
  105f60:	e5813004 	str	r3, [r1, #4]
  105f64:	eb000254 	bl	1068bc <__malloc_unlock>
  105f68:	e1a00007 	mov	r0, r7
  105f6c:	e28dd00c 	add	sp, sp, #12
  105f70:	e8bd8ff0 	pop	{r4, r5, r6, r7, r8, r9, sl, fp, pc}
  105f74:	e3570014 	cmp	r7, #20
  105f78:	9287705b 	addls	r7, r7, #91	; 0x5b
  105f7c:	91a0c087 	lslls	ip, r7, #1
  105f80:	9affff04 	bls	105b98 <_malloc_r+0xbc>
  105f84:	e3570054 	cmp	r7, #84	; 0x54
  105f88:	8a000068 	bhi	106130 <_malloc_r+0x654>
  105f8c:	e1a07624 	lsr	r7, r4, #12
  105f90:	e287706e 	add	r7, r7, #110	; 0x6e
  105f94:	e1a0c087 	lsl	ip, r7, #1
  105f98:	eafffefe 	b	105b98 <_malloc_r+0xbc>
  105f9c:	e1a024a1 	lsr	r2, r1, #9
  105fa0:	e3520004 	cmp	r2, #4
  105fa4:	9a000040 	bls	1060ac <_malloc_r+0x5d0>
  105fa8:	e3520014 	cmp	r2, #20
  105fac:	9282805b 	addls	r8, r2, #91	; 0x5b
  105fb0:	91a0c088 	lslls	ip, r8, #1
  105fb4:	9a000004 	bls	105fcc <_malloc_r+0x4f0>
  105fb8:	e3520054 	cmp	r2, #84	; 0x54
  105fbc:	8a000084 	bhi	1061d4 <_malloc_r+0x6f8>
  105fc0:	e1a08621 	lsr	r8, r1, #12
  105fc4:	e288806e 	add	r8, r8, #110	; 0x6e
  105fc8:	e1a0c088 	lsl	ip, r8, #1
  105fcc:	e085c10c 	add	ip, r5, ip, lsl #2
  105fd0:	e30b0704 	movw	r0, #46852	; 0xb704
  105fd4:	e3400010 	movt	r0, #16
  105fd8:	e59c2008 	ldr	r2, [ip, #8]
  105fdc:	e152000c 	cmp	r2, ip
  105fe0:	0a00005d 	beq	10615c <_malloc_r+0x680>
  105fe4:	e5920004 	ldr	r0, [r2, #4]
  105fe8:	e3c00003 	bic	r0, r0, #3
  105fec:	e1510000 	cmp	r1, r0
  105ff0:	2a000002 	bcs	106000 <_malloc_r+0x524>
  105ff4:	e5922008 	ldr	r2, [r2, #8]
  105ff8:	e15c0002 	cmp	ip, r2
  105ffc:	1afffff8 	bne	105fe4 <_malloc_r+0x508>
  106000:	e592c00c 	ldr	ip, [r2, #12]
  106004:	e5951004 	ldr	r1, [r5, #4]
  106008:	e583c00c 	str	ip, [r3, #12]
  10600c:	e5832008 	str	r2, [r3, #8]
  106010:	e58c3008 	str	r3, [ip, #8]
  106014:	e582300c 	str	r3, [r2, #12]
  106018:	eaffff0f 	b	105c5c <_malloc_r+0x180>
  10601c:	e0831004 	add	r1, r3, r4
  106020:	e38c5001 	orr	r5, ip, #1
  106024:	e3844001 	orr	r4, r4, #1
  106028:	e1a00006 	mov	r0, r6
  10602c:	e5834004 	str	r4, [r3, #4]
  106030:	e2837008 	add	r7, r3, #8
  106034:	e5821014 	str	r1, [r2, #20]
  106038:	e5821010 	str	r1, [r2, #16]
  10603c:	e581e00c 	str	lr, [r1, #12]
  106040:	e9814020 	stmib	r1, {r5, lr}
  106044:	e781c00c 	str	ip, [r1, ip]
  106048:	eb00021b 	bl	1068bc <__malloc_unlock>
  10604c:	eafffeca 	b	105b7c <_malloc_r+0xa0>
  106050:	e2899001 	add	r9, r9, #1
  106054:	e28cc008 	add	ip, ip, #8
  106058:	e3190003 	tst	r9, #3
  10605c:	1affff11 	bne	105ca8 <_malloc_r+0x1cc>
  106060:	ea00001e 	b	1060e0 <_malloc_r+0x604>
  106064:	e2832008 	add	r2, r3, #8
  106068:	e5933014 	ldr	r3, [r3, #20]
  10606c:	e1520003 	cmp	r2, r3
  106070:	02877002 	addeq	r7, r7, #2
  106074:	0afffeda 	beq	105be4 <_malloc_r+0x108>
