
fft_clocks.elf:     file format elf32-littlearm


Disassembly of section .text:

00100000 <_vector_table>:
  100000:	ea00003d 	b	1000fc <_boot>
  100004:	ea000025 	b	1000a0 <Undefined>
  100008:	ea000028 	b	1000b0 <SVCHandler>
  10000c:	ea000035 	b	1000e8 <PrefetchAbortHandler>
  100010:	ea00002f 	b	1000d4 <DataAbortHandler>
  100014:	e320f000 	nop	{0}
  100018:	ea000000 	b	100020 <IRQHandler>
  10001c:	ea00000f 	b	100060 <FIQHandler>

00100020 <IRQHandler>:
  100020:	e92d500f 	push	{r0, r1, r2, r3, ip, lr}
  100024:	ed2d0b10 	vpush	{d0-d7}
  100028:	ed6d0b20 	vpush	{d16-d31}
  10002c:	eef11a10 	vmrs	r1, fpscr
  100030:	e52d1004 	push	{r1}		; (str r1, [sp, #-4]!)
  100034:	eef81a10 	vmrs	r1, fpexc
  100038:	e52d1004 	push	{r1}		; (str r1, [sp, #-4]!)
  10003c:	eb000708 	bl	101c64 <IRQInterrupt>
  100040:	e49d1004 	pop	{r1}		; (ldr r1, [sp], #4)
  100044:	eee81a10 	vmsr	fpexc, r1
  100048:	e49d1004 	pop	{r1}		; (ldr r1, [sp], #4)
  10004c:	eee11a10 	vmsr	fpscr, r1
  100050:	ecfd0b20 	vpop	{d16-d31}
  100054:	ecbd0b10 	vpop	{d0-d7}
  100058:	e8bd500f 	pop	{r0, r1, r2, r3, ip, lr}
  10005c:	e25ef004 	subs	pc, lr, #4

00100060 <FIQHandler>:
  100060:	e92d500f 	push	{r0, r1, r2, r3, ip, lr}
  100064:	ed2d0b10 	vpush	{d0-d7}
  100068:	ed6d0b20 	vpush	{d16-d31}
  10006c:	eef11a10 	vmrs	r1, fpscr
  100070:	e52d1004 	push	{r1}		; (str r1, [sp, #-4]!)
  100074:	eef81a10 	vmrs	r1, fpexc
  100078:	e52d1004 	push	{r1}		; (str r1, [sp, #-4]!)

0010007c <FIQLoop>:
  10007c:	eb0006f3 	bl	101c50 <FIQInterrupt>
  100080:	e49d1004 	pop	{r1}		; (ldr r1, [sp], #4)
  100084:	eee81a10 	vmsr	fpexc, r1
  100088:	e49d1004 	pop	{r1}		; (ldr r1, [sp], #4)
  10008c:	eee11a10 	vmsr	fpscr, r1
  100090:	ecfd0b20 	vpop	{d16-d31}
  100094:	ecbd0b10 	vpop	{d0-d7}
  100098:	e8bd500f 	pop	{r0, r1, r2, r3, ip, lr}
  10009c:	e25ef004 	subs	pc, lr, #4

001000a0 <Undefined>:
  1000a0:	e92d500f 	push	{r0, r1, r2, r3, ip, lr}
  1000a4:	e8bd500f 	pop	{r0, r1, r2, r3, ip, lr}
  1000a8:	ea000013 	b	1000fc <_boot>
  1000ac:	e1b0f00e 	movs	pc, lr

001000b0 <SVCHandler>:
  1000b0:	e92d500f 	push	{r0, r1, r2, r3, ip, lr}
  1000b4:	e3100020 	tst	r0, #32
  1000b8:	115e00b2 	ldrhne	r0, [lr, #-2]
  1000bc:	13c00cff 	bicne	r0, r0, #65280	; 0xff00
  1000c0:	051e0004 	ldreq	r0, [lr, #-4]
  1000c4:	03c004ff 	biceq	r0, r0, #-16777216	; 0xff000000
  1000c8:	eb0006ea 	bl	101c78 <SWInterrupt>
  1000cc:	e8bd500f 	pop	{r0, r1, r2, r3, ip, lr}
  1000d0:	e1b0f00e 	movs	pc, lr

001000d4 <DataAbortHandler>:
  1000d4:	f57ff04f 	dsb	sy
  1000d8:	e92d500f 	push	{r0, r1, r2, r3, ip, lr}
  1000dc:	eb0006ea 	bl	101c8c <DataAbortInterrupt>
  1000e0:	e8bd500f 	pop	{r0, r1, r2, r3, ip, lr}
  1000e4:	e25ef008 	subs	pc, lr, #8

001000e8 <PrefetchAbortHandler>:
  1000e8:	f57ff04f 	dsb	sy
  1000ec:	e92d500f 	push	{r0, r1, r2, r3, ip, lr}
  1000f0:	eb0006ea 	bl	101ca0 <PrefetchAbortInterrupt>
  1000f4:	e8bd500f 	pop	{r0, r1, r2, r3, ip, lr}
  1000f8:	e25ef004 	subs	pc, lr, #4

001000fc <_boot>:
  1000fc:	ee101fb0 	mrc	15, 0, r1, cr0, cr0, {5}
  100100:	e201100f 	and	r1, r1, #15
  100104:	e3510000 	cmp	r1, #0
  100108:	0a000001 	beq	100114 <OKToRun>

0010010c <EndlessLoop0>:
  10010c:	e320f002 	wfe
  100110:	eafffffd 	b	10010c <EndlessLoop0>

00100114 <OKToRun>:
  100114:	ee100f10 	mrc	15, 0, r0, cr0, cr0, {0}
  100118:	e200560f 	and	r5, r0, #15728640	; 0xf00000
  10011c:	e200600f 	and	r6, r0, #15
  100120:	e1866825 	orr	r6, r6, r5, lsr #16
  100124:	e3560022 	cmp	r6, #34	; 0x22
  100128:	de1faf30 	mrcle	15, 0, sl, cr15, cr0, {1}
  10012c:	d38aa010 	orrle	sl, sl, #16
  100130:	de0faf30 	mcrle	15, 0, sl, cr15, cr0, {1}
  100134:	e3350602 	teq	r5, #2097152	; 0x200000
  100138:	0e1faf30 	mrceq	15, 0, sl, cr15, cr0, {1}
  10013c:	038aa040 	orreq	sl, sl, #64	; 0x40
  100140:	0e0faf30 	mcreq	15, 0, sl, cr15, cr0, {1}
  100144:	e59f027c 	ldr	r0, [pc, #636]	; 1003c8 <finished+0x14>
  100148:	ee0c0f10 	mcr	15, 0, r0, cr12, cr0, {0}
  10014c:	e59f7278 	ldr	r7, [pc, #632]	; 1003cc <finished+0x18>
  100150:	e5970000 	ldr	r0, [r7]
  100154:	e3800001 	orr	r0, r0, #1
  100158:	e5870000 	str	r0, [r7]
  10015c:	e59f726c 	ldr	r7, [pc, #620]	; 1003d0 <finished+0x1c>
  100160:	e59f626c 	ldr	r6, [pc, #620]	; 1003d4 <finished+0x20>
  100164:	e5876000 	str	r6, [r7]
  100168:	ee110f30 	mrc	15, 0, r0, cr1, cr0, {1}
  10016c:	e3800040 	orr	r0, r0, #64	; 0x40
  100170:	e3800001 	orr	r0, r0, #1
  100174:	ee010f30 	mcr	15, 0, r0, cr1, cr0, {1}
  100178:	e3a00000 	mov	r0, #0
  10017c:	ee080f17 	mcr	15, 0, r0, cr8, cr7, {0}
  100180:	ee070f15 	mcr	15, 0, r0, cr7, cr5, {0}
  100184:	ee070fd5 	mcr	15, 0, r0, cr7, cr5, {6}
  100188:	eb00006a 	bl	100338 <invalidate_dcache>
  10018c:	e59f0244 	ldr	r0, [pc, #580]	; 1003d8 <finished+0x24>
  100190:	e3a01000 	mov	r1, #0
  100194:	e5801000 	str	r1, [r0]
  100198:	e59f023c 	ldr	r0, [pc, #572]	; 1003dc <finished+0x28>
  10019c:	e5901000 	ldr	r1, [r0]
  1001a0:	e59f2238 	ldr	r2, [pc, #568]	; 1003e0 <finished+0x2c>
  1001a4:	e1811002 	orr	r1, r1, r2
  1001a8:	e5801000 	str	r1, [r0]
  1001ac:	e59f0230 	ldr	r0, [pc, #560]	; 1003e4 <finished+0x30>
  1001b0:	e59f1230 	ldr	r1, [pc, #560]	; 1003e8 <finished+0x34>
  1001b4:	e5801000 	str	r1, [r0]
  1001b8:	e59f022c 	ldr	r0, [pc, #556]	; 1003ec <finished+0x38>
  1001bc:	e59f122c 	ldr	r1, [pc, #556]	; 1003f0 <finished+0x3c>
  1001c0:	e5801000 	str	r1, [r0]
  1001c4:	e59f0228 	ldr	r0, [pc, #552]	; 1003f4 <finished+0x40>
  1001c8:	e59f2204 	ldr	r2, [pc, #516]	; 1003d4 <finished+0x20>
  1001cc:	e5802000 	str	r2, [r0]
  1001d0:	e59f0220 	ldr	r0, [pc, #544]	; 1003f8 <finished+0x44>

001001d4 <Sync>:
  1001d4:	e5901000 	ldr	r1, [r0]
  1001d8:	e3510000 	cmp	r1, #0
  1001dc:	1afffffc 	bne	1001d4 <Sync>
  1001e0:	e59f0214 	ldr	r0, [pc, #532]	; 1003fc <finished+0x48>
  1001e4:	e5901000 	ldr	r1, [r0]
  1001e8:	e59f0210 	ldr	r0, [pc, #528]	; 100400 <finished+0x4c>
  1001ec:	e5801000 	str	r1, [r0]
  1001f0:	ee110f10 	mrc	15, 0, r0, cr1, cr0, {0}
  1001f4:	e3c00001 	bic	r0, r0, #1
  1001f8:	ee010f10 	mcr	15, 0, r0, cr1, cr0, {0}
  1001fc:	e10f0000 	mrs	r0, CPSR
  100200:	e3e0101f 	mvn	r1, #31
  100204:	e0012000 	and	r2, r1, r0
  100208:	e3822012 	orr	r2, r2, #18
  10020c:	e129f002 	msr	CPSR_fc, r2
  100210:	e59fd1ec 	ldr	sp, [pc, #492]	; 100404 <finished+0x50>
  100214:	e10f0000 	mrs	r0, CPSR
  100218:	e3e0101f 	mvn	r1, #31
  10021c:	e0012000 	and	r2, r1, r0
  100220:	e3822013 	orr	r2, r2, #19
  100224:	e129f002 	msr	CPSR_fc, r2
  100228:	e59fd1d8 	ldr	sp, [pc, #472]	; 100408 <finished+0x54>
  10022c:	e10f0000 	mrs	r0, CPSR
  100230:	e3e0101f 	mvn	r1, #31
  100234:	e0012000 	and	r2, r1, r0
  100238:	e3822017 	orr	r2, r2, #23
  10023c:	e129f002 	msr	CPSR_fc, r2
  100240:	e59fd1c4 	ldr	sp, [pc, #452]	; 10040c <finished+0x58>
  100244:	e10f0000 	mrs	r0, CPSR
  100248:	e3e0101f 	mvn	r1, #31
  10024c:	e0012000 	and	r2, r1, r0
  100250:	e3822011 	orr	r2, r2, #17
  100254:	e129f002 	msr	CPSR_fc, r2
  100258:	e59fd1b0 	ldr	sp, [pc, #432]	; 100410 <finished+0x5c>
  10025c:	e10f0000 	mrs	r0, CPSR
  100260:	e3e0101f 	mvn	r1, #31
  100264:	e0012000 	and	r2, r1, r0
  100268:	e382201b 	orr	r2, r2, #27
  10026c:	e129f002 	msr	CPSR_fc, r2
  100270:	e59fd19c 	ldr	sp, [pc, #412]	; 100414 <finished+0x60>
  100274:	e10f0000 	mrs	r0, CPSR
  100278:	e3e0101f 	mvn	r1, #31
  10027c:	e0012000 	and	r2, r1, r0
  100280:	e382201f 	orr	r2, r2, #31
  100284:	e129f002 	msr	CPSR_fc, r2
  100288:	e59fd188 	ldr	sp, [pc, #392]	; 100418 <finished+0x64>
  10028c:	e59f0188 	ldr	r0, [pc, #392]	; 10041c <finished+0x68>
  100290:	e380005b 	orr	r0, r0, #91	; 0x5b
  100294:	ee020f10 	mcr	15, 0, r0, cr2, cr0, {0}
  100298:	e3e00000 	mvn	r0, #0
  10029c:	ee030f10 	mcr	15, 0, r0, cr3, cr0, {0}
  1002a0:	e59f0178 	ldr	r0, [pc, #376]	; 100420 <finished+0x6c>
  1002a4:	ee010f10 	mcr	15, 0, r0, cr1, cr0, {0}
  1002a8:	f57ff04f 	dsb	sy
  1002ac:	f57ff06f 	isb	sy
  1002b0:	e59f016c 	ldr	r0, [pc, #364]	; 100424 <finished+0x70>
  1002b4:	e59f116c 	ldr	r1, [pc, #364]	; 100428 <finished+0x74>
  1002b8:	e5801000 	str	r1, [r0]
  1002bc:	e59f0168 	ldr	r0, [pc, #360]	; 10042c <finished+0x78>
  1002c0:	e59f1168 	ldr	r1, [pc, #360]	; 100430 <finished+0x7c>
  1002c4:	e5801000 	str	r1, [r0]
  1002c8:	e59f0164 	ldr	r0, [pc, #356]	; 100434 <finished+0x80>
  1002cc:	e59f1164 	ldr	r1, [pc, #356]	; 100438 <finished+0x84>
  1002d0:	e5801000 	str	r1, [r0]
  1002d4:	e59f00fc 	ldr	r0, [pc, #252]	; 1003d8 <finished+0x24>
  1002d8:	e5901000 	ldr	r1, [r0]
  1002dc:	e3a02001 	mov	r2, #1
  1002e0:	e1811002 	orr	r1, r1, r2
  1002e4:	e5801000 	str	r1, [r0]
  1002e8:	e1a00000 	nop			; (mov r0, r0)
  1002ec:	ee111f50 	mrc	15, 0, r1, cr1, cr0, {2}
  1002f0:	e381160f 	orr	r1, r1, #15728640	; 0xf00000
  1002f4:	ee011f50 	mcr	15, 0, r1, cr1, cr0, {2}
  1002f8:	eef81a10 	vmrs	r1, fpexc
  1002fc:	e3811101 	orr	r1, r1, #1073741824	; 0x40000000
  100300:	eee81a10 	vmsr	fpexc, r1
  100304:	ee110f10 	mrc	15, 0, r0, cr1, cr0, {0}
  100308:	e3800b02 	orr	r0, r0, #2048	; 0x800
  10030c:	ee010f10 	mcr	15, 0, r0, cr1, cr0, {0}
  100310:	ee110f30 	mrc	15, 0, r0, cr1, cr0, {1}
  100314:	e3800004 	orr	r0, r0, #4
  100318:	e3800002 	orr	r0, r0, #2
  10031c:	ee010f30 	mcr	15, 0, r0, cr1, cr0, {1}
  100320:	e10f0000 	mrs	r0, CPSR
  100324:	e3c00c01 	bic	r0, r0, #256	; 0x100
  100328:	e12ef000 	msr	CPSR_fsx, r0
  10032c:	ea000665 	b	101cc8 <_start>
  100330:	e0000000 	and	r0, r0, r0
  100334:	eafffffe 	b	100334 <Sync+0x160>

00100338 <invalidate_dcache>:
  100338:	ee300f30 	mrc	15, 1, r0, cr0, cr0, {1}
  10033c:	e2103407 	ands	r3, r0, #117440512	; 0x7000000
  100340:	e1a03ba3 	lsr	r3, r3, #23
  100344:	0a00001a 	beq	1003b4 <finished>
  100348:	e3a0a000 	mov	sl, #0

0010034c <loop1>:
  10034c:	e08a20aa 	add	r2, sl, sl, lsr #1
  100350:	e1a01230 	lsr	r1, r0, r2
  100354:	e2011007 	and	r1, r1, #7
  100358:	e3510002 	cmp	r1, #2
  10035c:	ba000011 	blt	1003a8 <skip>
  100360:	ee40af10 	mcr	15, 2, sl, cr0, cr0, {0}
  100364:	f57ff06f 	isb	sy
  100368:	ee301f10 	mrc	15, 1, r1, cr0, cr0, {0}
  10036c:	e2012007 	and	r2, r1, #7
  100370:	e2822004 	add	r2, r2, #4
  100374:	e59f40c0 	ldr	r4, [pc, #192]	; 10043c <finished+0x88>
  100378:	e01441a1 	ands	r4, r4, r1, lsr #3
  10037c:	e16f5f14 	clz	r5, r4
  100380:	e59f70b8 	ldr	r7, [pc, #184]	; 100440 <finished+0x8c>
  100384:	e01776a1 	ands	r7, r7, r1, lsr #13

00100388 <loop2>:
  100388:	e1a09004 	mov	r9, r4

0010038c <loop3>:
  10038c:	e18ab519 	orr	fp, sl, r9, lsl r5
  100390:	e18bb217 	orr	fp, fp, r7, lsl r2
  100394:	ee07bf56 	mcr	15, 0, fp, cr7, cr6, {2}
  100398:	e2599001 	subs	r9, r9, #1
  10039c:	aafffffa 	bge	10038c <loop3>
  1003a0:	e2577001 	subs	r7, r7, #1
  1003a4:	aafffff7 	bge	100388 <loop2>

001003a8 <skip>:
  1003a8:	e28aa002 	add	sl, sl, #2
  1003ac:	e153000a 	cmp	r3, sl
  1003b0:	caffffe5 	bgt	10034c <loop1>

001003b4 <finished>:
  1003b4:	e3a0a000 	mov	sl, #0
  1003b8:	ee40af10 	mcr	15, 2, sl, cr0, cr0, {0}
  1003bc:	f57ff04f 	dsb	sy
  1003c0:	f57ff06f 	isb	sy
  1003c4:	e12fff1e 	bx	lr
  1003c8:	00100000 	andseq	r0, r0, r0
  1003cc:	f8f00000 			; <UNDEFINED> instruction: 0xf8f00000
  1003d0:	f8f0000c 			; <UNDEFINED> instruction: 0xf8f0000c
  1003d4:	0000ffff 	strdeq	pc, [r0], -pc	; <UNPREDICTABLE>
  1003d8:	f8f02100 			; <UNDEFINED> instruction: 0xf8f02100
  1003dc:	f8f02104 			; <UNDEFINED> instruction: 0xf8f02104
  1003e0:	72360000 	eorsvc	r0, r6, #0
  1003e4:	f8f02108 			; <UNDEFINED> instruction: 0xf8f02108
  1003e8:	00000111 	andeq	r0, r0, r1, lsl r1
  1003ec:	f8f0210c 			; <UNDEFINED> instruction: 0xf8f0210c
  1003f0:	00000121 	andeq	r0, r0, r1, lsr #2
  1003f4:	f8f0277c 			; <UNDEFINED> instruction: 0xf8f0277c
  1003f8:	f8f02730 			; <UNDEFINED> instruction: 0xf8f02730
  1003fc:	f8f0221c 			; <UNDEFINED> instruction: 0xf8f0221c
  100400:	f8f02220 			; <UNDEFINED> instruction: 0xf8f02220
  100404:	001184a0 	andseq	r8, r1, r0, lsr #9
  100408:	00118ca0 	andseq	r8, r1, r0, lsr #25
  10040c:	001190a0 	andseq	r9, r1, r0, lsr #1
  100410:	001194a0 	andseq	r9, r1, r0, lsr #9
  100414:	001198a0 	andseq	r9, r1, r0, lsr #17
  100418:	001180a0 	andseq	r8, r1, r0, lsr #1
  10041c:	00110000 	andseq	r0, r1, r0
  100420:	00001005 	andeq	r1, r0, r5
  100424:	f8000008 			; <UNDEFINED> instruction: 0xf8000008
  100428:	0000df0d 	andeq	sp, r0, sp, lsl #30
  10042c:	f8000a1c 			; <UNDEFINED> instruction: 0xf8000a1c
  100430:	00020202 	andeq	r0, r2, r2, lsl #4
  100434:	f8000004 			; <UNDEFINED> instruction: 0xf8000004
  100438:	0000767b 	andeq	r7, r0, fp, ror r6
  10043c:	000003ff 	strdeq	r0, [r0], -pc	; <UNPREDICTABLE>
  100440:	00007fff 	strdeq	r7, [r0], -pc	; <UNPREDICTABLE>

00100444 <deregister_tm_clones>:
  100444:	e59f3024 	ldr	r3, [pc, #36]	; 100470 <deregister_tm_clones+0x2c>
  100448:	e30d008c 	movw	r0, #53388	; 0xd08c
  10044c:	e3400010 	movt	r0, #16
  100450:	e0603003 	rsb	r3, r0, r3
  100454:	e3530006 	cmp	r3, #6
  100458:	912fff1e 	bxls	lr
  10045c:	e3003000 	movw	r3, #0
  100460:	e3403000 	movt	r3, #0
  100464:	e3530000 	cmp	r3, #0
  100468:	012fff1e 	bxeq	lr
  10046c:	e12fff13 	bx	r3
  100470:	0010d08f 	andseq	sp, r0, pc, lsl #1

00100474 <register_tm_clones>:
  100474:	e30d308c 	movw	r3, #53388	; 0xd08c
  100478:	e30d008c 	movw	r0, #53388	; 0xd08c
  10047c:	e3403010 	movt	r3, #16
  100480:	e3400010 	movt	r0, #16
  100484:	e0601003 	rsb	r1, r0, r3
  100488:	e1a01141 	asr	r1, r1, #2
  10048c:	e0811fa1 	add	r1, r1, r1, lsr #31
  100490:	e1b010c1 	asrs	r1, r1, #1
  100494:	012fff1e 	bxeq	lr
  100498:	e3003000 	movw	r3, #0
  10049c:	e3403000 	movt	r3, #0
  1004a0:	e3530000 	cmp	r3, #0
  1004a4:	012fff1e 	bxeq	lr
  1004a8:	e12fff13 	bx	r3

001004ac <__do_global_dtors_aux>:
  1004ac:	e92d4010 	push	{r4, lr}
  1004b0:	e3044014 	movw	r4, #16404	; 0x4014
  1004b4:	e3404011 	movt	r4, #17
  1004b8:	e5d43000 	ldrb	r3, [r4]
  1004bc:	e3530000 	cmp	r3, #0
  1004c0:	18bd8010 	popne	{r4, pc}
  1004c4:	ebffffde 	bl	100444 <deregister_tm_clones>
  1004c8:	e3003000 	movw	r3, #0
  1004cc:	e3403000 	movt	r3, #0
  1004d0:	e3530000 	cmp	r3, #0
  1004d4:	0a000002 	beq	1004e4 <__do_global_dtors_aux+0x38>
  1004d8:	e30d008c 	movw	r0, #53388	; 0xd08c
  1004dc:	e3400010 	movt	r0, #16
  1004e0:	e320f000 	nop	{0}
  1004e4:	e3a03001 	mov	r3, #1
  1004e8:	e5c43000 	strb	r3, [r4]
  1004ec:	e8bd8010 	pop	{r4, pc}

001004f0 <frame_dummy>:
  1004f0:	e92d4008 	push	{r3, lr}
  1004f4:	e3003000 	movw	r3, #0
  1004f8:	e3403000 	movt	r3, #0
  1004fc:	e3530000 	cmp	r3, #0
  100500:	0a000004 	beq	100518 <frame_dummy+0x28>
  100504:	e30d008c 	movw	r0, #53388	; 0xd08c
  100508:	e3041018 	movw	r1, #16408	; 0x4018
  10050c:	e3400010 	movt	r0, #16
  100510:	e3401011 	movt	r1, #17
  100514:	e320f000 	nop	{0}
  100518:	e30d0088 	movw	r0, #53384	; 0xd088
  10051c:	e3400010 	movt	r0, #16
  100520:	e5903000 	ldr	r3, [r0]
  100524:	e3530000 	cmp	r3, #0
  100528:	1a000001 	bne	100534 <frame_dummy+0x44>
  10052c:	e8bd4008 	pop	{r3, lr}
  100530:	eaffffcf 	b	100474 <register_tm_clones>
  100534:	e3003000 	movw	r3, #0
  100538:	e3403000 	movt	r3, #0
  10053c:	e3530000 	cmp	r3, #0
  100540:	0afffff9 	beq	10052c <frame_dummy+0x3c>
  100544:	e12fff33 	blx	r3
  100548:	eafffff7 	b	10052c <frame_dummy+0x3c>
  10054c:	00000000 	andeq	r0, r0, r0

00100550 <IsPowerOfTwo>:
  100550:	e3500001 	cmp	r0, #1
  100554:	9a000004 	bls	10056c <IsPowerOfTwo+0x1c>
  100558:	e2403001 	sub	r3, r0, #1
  10055c:	e1130000 	tst	r3, r0
  100560:	03a00001 	moveq	r0, #1
  100564:	13a00000 	movne	r0, #0
  100568:	e12fff1e 	bx	lr
  10056c:	e3a00000 	mov	r0, #0
  100570:	e12fff1e 	bx	lr

00100574 <NumberOfBitsNeeded>:
  100574:	e3500001 	cmp	r0, #1
  100578:	e1a02000 	mov	r2, r0
  10057c:	e92d4008 	push	{r3, lr}
  100580:	9a000009 	bls	1005ac <NumberOfBitsNeeded+0x38>
  100584:	e2103001 	ands	r3, r0, #1
  100588:	1a000005 	bne	1005a4 <NumberOfBitsNeeded+0x30>
  10058c:	e1a00003 	mov	r0, r3
  100590:	e3a03001 	mov	r3, #1
  100594:	e2800001 	add	r0, r0, #1
  100598:	e0121013 	ands	r1, r2, r3, lsl r0
  10059c:	0afffffc 	beq	100594 <NumberOfBitsNeeded+0x20>
  1005a0:	e8bd8008 	pop	{r3, pc}
  1005a4:	e3a00000 	mov	r0, #0
  1005a8:	e8bd8008 	pop	{r3, pc}
  1005ac:	e30c37c8 	movw	r3, #51144	; 0xc7c8
  1005b0:	e30c1668 	movw	r1, #50792	; 0xc668
  1005b4:	e3403010 	movt	r3, #16
  1005b8:	e3401010 	movt	r1, #16
  1005bc:	e5933000 	ldr	r3, [r3]
  1005c0:	e593000c 	ldr	r0, [r3, #12]
  1005c4:	eb000970 	bl	102b8c <fprintf>
  1005c8:	e3a00001 	mov	r0, #1
  1005cc:	eb000946 	bl	102aec <exit>

001005d0 <ReverseBits>:
  1005d0:	e3510000 	cmp	r1, #0
  1005d4:	e1a03000 	mov	r3, r0
  1005d8:	0a000008 	beq	100600 <ReverseBits+0x30>
  1005dc:	e3a00000 	mov	r0, #0
  1005e0:	e1a02000 	mov	r2, r0
  1005e4:	e2822001 	add	r2, r2, #1
  1005e8:	e203c001 	and	ip, r3, #1
  1005ec:	e1520001 	cmp	r2, r1
  1005f0:	e18c0080 	orr	r0, ip, r0, lsl #1
  1005f4:	e1a030a3 	lsr	r3, r3, #1
  1005f8:	1afffff9 	bne	1005e4 <ReverseBits+0x14>
  1005fc:	e12fff1e 	bx	lr
  100600:	e1a00001 	mov	r0, r1
  100604:	e12fff1e 	bx	lr

00100608 <Index_to_frequency>:
  100608:	e1510000 	cmp	r1, r0
  10060c:	2a00000d 	bcs	100648 <Index_to_frequency+0x40>
  100610:	e15100a0 	cmp	r1, r0, lsr #1
  100614:	80611000 	rsbhi	r1, r1, r0
  100618:	8e070a90 	vmovhi	s15, r0
  10061c:	9e071a90 	vmovls	s15, r1
  100620:	8ef81b67 	vcvthi.f64.u32	d17, s15
  100624:	8e071a90 	vmovhi	s15, r1
  100628:	8ef80b67 	vcvthi.f64.u32	d16, s15
  10062c:	9ef80be7 	vcvtls.f64.s32	d16, s15
  100630:	9e070a90 	vmovls	s15, r0
  100634:	9ef81b67 	vcvtls.f64.u32	d17, s15
  100638:	8ef10b60 	vneghi.f64	d16, d16
  10063c:	eec00ba1 	vdiv.f64	d16, d16, d17
  100640:	ec510b30 	vmov	r0, r1, d16
  100644:	e12fff1e 	bx	lr
  100648:	eddf0b02 	vldr	d16, [pc, #8]	; 100658 <Index_to_frequency+0x50>
  10064c:	ec510b30 	vmov	r0, r1, d16
  100650:	e12fff1e 	bx	lr
  100654:	e320f000 	nop	{0}
	...

00100660 <fft_float>:
  100660:	e92d4ff0 	push	{r4, r5, r6, r7, r8, r9, sl, fp, lr}
  100664:	e1a04002 	mov	r4, r2
  100668:	ed2d8b08 	vpush	{d8-d11}
  10066c:	e1a05003 	mov	r5, r3
  100670:	e1a09000 	mov	r9, r0
  100674:	e24dd024 	sub	sp, sp, #36	; 0x24
  100678:	e58d101c 	str	r1, [sp, #28]
  10067c:	e59d8068 	ldr	r8, [sp, #104]	; 0x68
  100680:	e59db06c 	ldr	fp, [sp, #108]	; 0x6c
  100684:	ebffffb1 	bl	100550 <IsPowerOfTwo>
  100688:	e3500000 	cmp	r0, #0
  10068c:	0a000091 	beq	1008d8 <fft_float+0x278>
  100690:	ed9f8ba4 	vldr	d8, [pc, #656]	; 100928 <fft_float+0x2c8>
  100694:	e59d301c 	ldr	r3, [sp, #28]
  100698:	eddf0ba4 	vldr	d16, [pc, #656]	; 100930 <fft_float+0x2d0>
  10069c:	e3530000 	cmp	r3, #0
  1006a0:	1eb08b60 	vmovne.f64	d8, d16
  1006a4:	e3540000 	cmp	r4, #0
  1006a8:	0a000094 	beq	100900 <fft_float+0x2a0>
  1006ac:	e3580000 	cmp	r8, #0
  1006b0:	0a000095 	beq	10090c <fft_float+0x2ac>
  1006b4:	e35b0000 	cmp	fp, #0
  1006b8:	0a000096 	beq	100918 <fft_float+0x2b8>
  1006bc:	e1a00009 	mov	r0, r9
  1006c0:	ebffffab 	bl	100574 <NumberOfBitsNeeded>
  1006c4:	e3590000 	cmp	r9, #0
  1006c8:	e1a06000 	mov	r6, r0
  1006cc:	0a00007e 	beq	1008cc <fft_float+0x26c>
  1006d0:	e1a0a004 	mov	sl, r4
  1006d4:	e1a07005 	mov	r7, r5
  1006d8:	e3a04000 	mov	r4, #0
  1006dc:	e1a00004 	mov	r0, r4
  1006e0:	e1a01006 	mov	r1, r6
  1006e4:	ebffffb9 	bl	1005d0 <ReverseBits>
  1006e8:	e49a1004 	ldr	r1, [sl], #4
  1006ec:	e3550000 	cmp	r5, #0
  1006f0:	e2844001 	add	r4, r4, #1
  1006f4:	e2877004 	add	r7, r7, #4
  1006f8:	e1a00100 	lsl	r0, r0, #2
  1006fc:	e0882000 	add	r2, r8, r0
  100700:	e08b3000 	add	r3, fp, r0
  100704:	e5821000 	str	r1, [r2]
  100708:	03a02000 	moveq	r2, #0
  10070c:	15172004 	ldrne	r2, [r7, #-4]
  100710:	e1540009 	cmp	r4, r9
  100714:	e5832000 	str	r2, [r3]
  100718:	1affffef 	bne	1006dc <fft_float+0x7c>
  10071c:	e3590001 	cmp	r9, #1
  100720:	0a000055 	beq	10087c <fft_float+0x21c>
  100724:	eeb89b00 	vmov.f64	d9, #128	; 0x80
  100728:	e3a05001 	mov	r5, #1
  10072c:	e3a04002 	mov	r4, #2
  100730:	ee074a90 	vmov	s15, r4
  100734:	e1a07104 	lsl	r7, r4, #2
  100738:	e1a0a105 	lsl	sl, r5, #2
  10073c:	eeb8ab67 	vcvt.f64.u32	d10, s15
  100740:	ee88ab0a 	vdiv.f64	d10, d8, d10
  100744:	ee2abb09 	vmul.f64	d11, d10, d9
  100748:	ec510b1b 	vmov	r0, r1, d11
  10074c:	eb0000be 	bl	100a4c <sin>
  100750:	eef10b4a 	vneg.f64	d16, d10
  100754:	e1cd00f0 	strd	r0, [sp]
  100758:	ec510b30 	vmov	r0, r1, d16
  10075c:	eb0000ba 	bl	100a4c <sin>
  100760:	e1cd00f8 	strd	r0, [sp, #8]
  100764:	ec510b1b 	vmov	r0, r1, d11
  100768:	eb00007d 	bl	100964 <cos>
  10076c:	e1cd01f0 	strd	r0, [sp, #16]
  100770:	ec510b1a 	vmov	r0, r1, d10
  100774:	eb00007a 	bl	100964 <cos>
  100778:	e3a0e000 	mov	lr, #0
  10077c:	e1a0600e 	mov	r6, lr
  100780:	ec410b38 	vmov	d24, r0, r1
  100784:	ee787ba8 	vadd.f64	d23, d24, d24
  100788:	e3550000 	cmp	r5, #0
  10078c:	0a000031 	beq	100858 <fft_float+0x1f8>
  100790:	e08e100a 	add	r1, lr, sl
  100794:	e088200e 	add	r2, r8, lr
  100798:	e088c001 	add	ip, r8, r1
  10079c:	e08b300e 	add	r3, fp, lr
  1007a0:	e08b1001 	add	r1, fp, r1
  1007a4:	e3a00000 	mov	r0, #0
  1007a8:	eddd6b04 	vldr	d22, [sp, #16]
  1007ac:	eef01b68 	vmov.f64	d17, d24
  1007b0:	eddd0b02 	vldr	d16, [sp, #8]
  1007b4:	eddd5b00 	vldr	d21, [sp]
  1007b8:	ea000001 	b	1007c4 <fft_float+0x164>
  1007bc:	eef01b63 	vmov.f64	d17, d19
  1007c0:	eef00b64 	vmov.f64	d16, d20
  1007c4:	edd16a00 	vldr	s13, [r1]
  1007c8:	e2800001 	add	r0, r0, #1
  1007cc:	e1500005 	cmp	r0, r5
  1007d0:	eef04b65 	vmov.f64	d20, d21
  1007d4:	eddc7a00 	vldr	s15, [ip]
  1007d8:	ee574ba0 	vnmls.f64	d20, d23, d16
  1007dc:	ed927a00 	vldr	s14, [r2]
  1007e0:	eef03b66 	vmov.f64	d19, d22
  1007e4:	ee573ba1 	vnmls.f64	d19, d23, d17
  1007e8:	eef79ae6 	vcvt.f64.f32	d25, s13
  1007ec:	eef06b61 	vmov.f64	d22, d17
  1007f0:	ee641ba9 	vmul.f64	d17, d20, d25
  1007f4:	eef05b60 	vmov.f64	d21, d16
  1007f8:	eef70ae7 	vcvt.f64.f32	d16, s15
  1007fc:	ee531ba0 	vnmls.f64	d17, d19, d16
  100800:	ee640ba0 	vmul.f64	d16, d20, d16
  100804:	eef72ac7 	vcvt.f64.f32	d18, s14
  100808:	ee722be1 	vsub.f64	d18, d18, d17
  10080c:	ee430ba9 	vmla.f64	d16, d19, d25
  100810:	eef77be2 	vcvt.f32.f64	s15, d18
  100814:	ecec7a01 	vstmia	ip!, {s15}
  100818:	edd37a00 	vldr	s15, [r3]
  10081c:	eef72ae7 	vcvt.f64.f32	d18, s15
  100820:	ee722be0 	vsub.f64	d18, d18, d16
  100824:	eef77be2 	vcvt.f32.f64	s15, d18
  100828:	ece17a01 	vstmia	r1!, {s15}
  10082c:	edd27a00 	vldr	s15, [r2]
  100830:	eef72ae7 	vcvt.f64.f32	d18, s15
  100834:	ee721ba1 	vadd.f64	d17, d18, d17
  100838:	eef77be1 	vcvt.f32.f64	s15, d17
  10083c:	ece27a01 	vstmia	r2!, {s15}
  100840:	edd37a00 	vldr	s15, [r3]
  100844:	eef71ae7 	vcvt.f64.f32	d17, s15
  100848:	ee710ba0 	vadd.f64	d16, d17, d16
  10084c:	eef77be0 	vcvt.f32.f64	s15, d16
  100850:	ece37a01 	vstmia	r3!, {s15}
  100854:	1affffd8 	bne	1007bc <fft_float+0x15c>
  100858:	e0866004 	add	r6, r6, r4
  10085c:	e08ee007 	add	lr, lr, r7
  100860:	e1590006 	cmp	r9, r6
  100864:	8affffc7 	bhi	100788 <fft_float+0x128>
  100868:	e1a03084 	lsl	r3, r4, #1
  10086c:	e1a05004 	mov	r5, r4
  100870:	e1590003 	cmp	r9, r3
  100874:	21a04003 	movcs	r4, r3
  100878:	2affffac 	bcs	100730 <fft_float+0xd0>
  10087c:	e59d301c 	ldr	r3, [sp, #28]
  100880:	e3530000 	cmp	r3, #0
  100884:	0a000010 	beq	1008cc <fft_float+0x26c>
  100888:	ee079a90 	vmov	s15, r9
  10088c:	e0881109 	add	r1, r8, r9, lsl #2
  100890:	e1a03008 	mov	r3, r8
  100894:	e1a0200b 	mov	r2, fp
  100898:	eef81b67 	vcvt.f64.u32	d17, s15
  10089c:	edd37a00 	vldr	s15, [r3]
  1008a0:	eef70ae7 	vcvt.f64.f32	d16, s15
  1008a4:	eec00ba1 	vdiv.f64	d16, d16, d17
  1008a8:	eef77be0 	vcvt.f32.f64	s15, d16
  1008ac:	ece37a01 	vstmia	r3!, {s15}
  1008b0:	edd27a00 	vldr	s15, [r2]
  1008b4:	e1530001 	cmp	r3, r1
  1008b8:	eef70ae7 	vcvt.f64.f32	d16, s15
  1008bc:	eec00ba1 	vdiv.f64	d16, d16, d17
  1008c0:	eef77be0 	vcvt.f32.f64	s15, d16
  1008c4:	ece27a01 	vstmia	r2!, {s15}
  1008c8:	1afffff3 	bne	10089c <fft_float+0x23c>
  1008cc:	e28dd024 	add	sp, sp, #36	; 0x24
  1008d0:	ecbd8b08 	vpop	{d8-d11}
  1008d4:	e8bd8ff0 	pop	{r4, r5, r6, r7, r8, r9, sl, fp, pc}
  1008d8:	e30c37c8 	movw	r3, #51144	; 0xc7c8
  1008dc:	e30c16d8 	movw	r1, #50904	; 0xc6d8
  1008e0:	e3403010 	movt	r3, #16
  1008e4:	e1a02009 	mov	r2, r9
  1008e8:	e5933000 	ldr	r3, [r3]
  1008ec:	e3401010 	movt	r1, #16
  1008f0:	e593000c 	ldr	r0, [r3, #12]
  1008f4:	eb0008a4 	bl	102b8c <fprintf>
  1008f8:	e3a00001 	mov	r0, #1
  1008fc:	eb00087a 	bl	102aec <exit>
  100900:	e30c070c 	movw	r0, #50956	; 0xc70c
  100904:	e3400010 	movt	r0, #16
  100908:	eb002e08 	bl	10c130 <CheckPointer.part.0>
  10090c:	e30c0714 	movw	r0, #50964	; 0xc714
  100910:	e3400010 	movt	r0, #16
  100914:	eb002e05 	bl	10c130 <CheckPointer.part.0>
  100918:	e30c071c 	movw	r0, #50972	; 0xc71c
  10091c:	e3400010 	movt	r0, #16
  100920:	eb002e02 	bl	10c130 <CheckPointer.part.0>
  100924:	e320f000 	nop	{0}
  100928:	54442d18 	strbpl	r2, [r4], #-3352	; 0xfffff2e8
  10092c:	401921fb 			; <UNDEFINED> instruction: 0x401921fb
  100930:	54442d18 	strbpl	r2, [r4], #-3352	; 0xfffff2e8
  100934:	c01921fb 			; <UNDEFINED> instruction: 0xc01921fb

00100938 <enable_caches>:
  100938:	e12fff1e 	bx	lr

0010093c <disable_caches>:
  10093c:	e92d4008 	push	{r3, lr}
  100940:	eb0006c5 	bl	10245c <Xil_DCacheDisable>
  100944:	e8bd4008 	pop	{r3, lr}
  100948:	ea0006ca 	b	102478 <Xil_ICacheDisable>

0010094c <init_uart>:
  10094c:	e12fff1e 	bx	lr

00100950 <init_platform>:
  100950:	e12fff1e 	bx	lr

00100954 <cleanup_platform>:
  100954:	e92d4008 	push	{r3, lr}
  100958:	eb0006bf 	bl	10245c <Xil_DCacheDisable>
  10095c:	e8bd4008 	pop	{r3, lr}
  100960:	ea0006c4 	b	102478 <Xil_ICacheDisable>

00100964 <cos>:
  100964:	e92d4030 	push	{r4, r5, lr}
  100968:	e24dd024 	sub	sp, sp, #36	; 0x24
  10096c:	e30221fb 	movw	r2, #8699	; 0x21fb
  100970:	e1cd00f8 	strd	r0, [sp, #8]
  100974:	e3432fe9 	movt	r2, #16361	; 0x3fe9
  100978:	e59d300c 	ldr	r3, [sp, #12]
  10097c:	e3c33102 	bic	r3, r3, #-2147483648	; 0x80000000
  100980:	e1530002 	cmp	r3, r2
  100984:	da000018 	ble	1009ec <cos+0x88>
  100988:	e30f2fff 	movw	r2, #65535	; 0xffff
  10098c:	e3472fef 	movt	r2, #32751	; 0x7fef
  100990:	e1530002 	cmp	r3, r2
  100994:	da000004 	ble	1009ac <cos+0x48>
  100998:	eddd0b02 	vldr	d16, [sp, #8]
  10099c:	ee700be0 	vsub.f64	d16, d16, d16
  1009a0:	ec510b30 	vmov	r0, r1, d16
  1009a4:	e28dd024 	add	sp, sp, #36	; 0x24
  1009a8:	e8bd8030 	pop	{r4, r5, pc}
  1009ac:	e28d2010 	add	r2, sp, #16
  1009b0:	eb000062 	bl	100b40 <__ieee754_rem_pio2>
  1009b4:	e2003003 	and	r3, r0, #3
  1009b8:	e1cd01d0 	ldrd	r0, [sp, #16]
  1009bc:	e3530001 	cmp	r3, #1
  1009c0:	0a000015 	beq	100a1c <cos+0xb8>
  1009c4:	e3530002 	cmp	r3, #2
  1009c8:	0a00000e 	beq	100a08 <cos+0xa4>
  1009cc:	e3530000 	cmp	r3, #0
  1009d0:	0a000019 	beq	100a3c <cos+0xd8>
  1009d4:	e3a0c001 	mov	ip, #1
  1009d8:	e1cd21d8 	ldrd	r2, [sp, #24]
  1009dc:	e58dc000 	str	ip, [sp]
  1009e0:	eb0003a8 	bl	101888 <__kernel_sin>
  1009e4:	ec410b30 	vmov	d16, r0, r1
  1009e8:	eaffffec 	b	1009a0 <cos+0x3c>
  1009ec:	e3a02000 	mov	r2, #0
  1009f0:	e3a03000 	mov	r3, #0
  1009f4:	eb00011b 	bl	100e68 <__kernel_cos>
  1009f8:	ec410b30 	vmov	d16, r0, r1
  1009fc:	ec510b30 	vmov	r0, r1, d16
  100a00:	e28dd024 	add	sp, sp, #36	; 0x24
  100a04:	e8bd8030 	pop	{r4, r5, pc}
  100a08:	e1cd21d8 	ldrd	r2, [sp, #24]
  100a0c:	eb000115 	bl	100e68 <__kernel_cos>
  100a10:	ec410b30 	vmov	d16, r0, r1
  100a14:	eef10b60 	vneg.f64	d16, d16
  100a18:	eaffffe0 	b	1009a0 <cos+0x3c>
  100a1c:	e1cd41d8 	ldrd	r4, [sp, #24]
  100a20:	e58d3000 	str	r3, [sp]
  100a24:	e1a02004 	mov	r2, r4
  100a28:	e1a03005 	mov	r3, r5
  100a2c:	eb000395 	bl	101888 <__kernel_sin>
  100a30:	ec410b30 	vmov	d16, r0, r1
  100a34:	eef10b60 	vneg.f64	d16, d16
  100a38:	eaffffd8 	b	1009a0 <cos+0x3c>
  100a3c:	e1cd21d8 	ldrd	r2, [sp, #24]
  100a40:	eb000108 	bl	100e68 <__kernel_cos>
  100a44:	ec410b30 	vmov	d16, r0, r1
  100a48:	eaffffd4 	b	1009a0 <cos+0x3c>

00100a4c <sin>:
  100a4c:	e52de004 	push	{lr}		; (str lr, [sp, #-4]!)
  100a50:	e24dd024 	sub	sp, sp, #36	; 0x24
  100a54:	e30221fb 	movw	r2, #8699	; 0x21fb
  100a58:	e1cd00f8 	strd	r0, [sp, #8]
  100a5c:	e3432fe9 	movt	r2, #16361	; 0x3fe9
  100a60:	e59d300c 	ldr	r3, [sp, #12]
  100a64:	e3c33102 	bic	r3, r3, #-2147483648	; 0x80000000
  100a68:	e1530002 	cmp	r3, r2
  100a6c:	da000017 	ble	100ad0 <sin+0x84>
  100a70:	e30f2fff 	movw	r2, #65535	; 0xffff
  100a74:	e3472fef 	movt	r2, #32751	; 0x7fef
  100a78:	e1530002 	cmp	r3, r2
  100a7c:	da000004 	ble	100a94 <sin+0x48>
  100a80:	eddd0b02 	vldr	d16, [sp, #8]
  100a84:	ee700be0 	vsub.f64	d16, d16, d16
  100a88:	ec510b30 	vmov	r0, r1, d16
  100a8c:	e28dd024 	add	sp, sp, #36	; 0x24
  100a90:	e49df004 	pop	{pc}		; (ldr pc, [sp], #4)
  100a94:	e28d2010 	add	r2, sp, #16
  100a98:	eb000028 	bl	100b40 <__ieee754_rem_pio2>
  100a9c:	e2000003 	and	r0, r0, #3
  100aa0:	e3500001 	cmp	r0, #1
  100aa4:	0a00001a 	beq	100b14 <sin+0xc8>
  100aa8:	e3500002 	cmp	r0, #2
  100aac:	0a000010 	beq	100af4 <sin+0xa8>
  100ab0:	e3500000 	cmp	r0, #0
  100ab4:	e1cd01d0 	ldrd	r0, [sp, #16]
  100ab8:	0a00001a 	beq	100b28 <sin+0xdc>
  100abc:	e1cd21d8 	ldrd	r2, [sp, #24]
  100ac0:	eb0000e8 	bl	100e68 <__kernel_cos>
  100ac4:	ec410b30 	vmov	d16, r0, r1
  100ac8:	eef10b60 	vneg.f64	d16, d16
  100acc:	eaffffed 	b	100a88 <sin+0x3c>
  100ad0:	e3a0c000 	mov	ip, #0
  100ad4:	e3a02000 	mov	r2, #0
  100ad8:	e3a03000 	mov	r3, #0
  100adc:	e58dc000 	str	ip, [sp]
  100ae0:	eb000368 	bl	101888 <__kernel_sin>
  100ae4:	ec410b30 	vmov	d16, r0, r1
  100ae8:	ec510b30 	vmov	r0, r1, d16
  100aec:	e28dd024 	add	sp, sp, #36	; 0x24
  100af0:	e49df004 	pop	{pc}		; (ldr pc, [sp], #4)
  100af4:	e3a0c001 	mov	ip, #1
  100af8:	e1cd01d0 	ldrd	r0, [sp, #16]
  100afc:	e1cd21d8 	ldrd	r2, [sp, #24]
  100b00:	e58dc000 	str	ip, [sp]
  100b04:	eb00035f 	bl	101888 <__kernel_sin>
  100b08:	ec410b30 	vmov	d16, r0, r1
  100b0c:	eef10b60 	vneg.f64	d16, d16
  100b10:	eaffffdc 	b	100a88 <sin+0x3c>
  100b14:	e1cd01d0 	ldrd	r0, [sp, #16]
  100b18:	e1cd21d8 	ldrd	r2, [sp, #24]
  100b1c:	eb0000d1 	bl	100e68 <__kernel_cos>
  100b20:	ec410b30 	vmov	d16, r0, r1
  100b24:	eaffffd7 	b	100a88 <sin+0x3c>
  100b28:	e3a0c001 	mov	ip, #1
  100b2c:	e1cd21d8 	ldrd	r2, [sp, #24]
  100b30:	e58dc000 	str	ip, [sp]
  100b34:	eb000353 	bl	101888 <__kernel_sin>
  100b38:	ec410b30 	vmov	d16, r0, r1
  100b3c:	eaffffd1 	b	100a88 <sin+0x3c>

00100b40 <__ieee754_rem_pio2>:
  100b40:	e92d41f0 	push	{r4, r5, r6, r7, r8, lr}
  100b44:	e30231fb 	movw	r3, #8699	; 0x21fb
  100b48:	e3c14102 	bic	r4, r1, #-2147483648	; 0x80000000
  100b4c:	e3433fe9 	movt	r3, #16361	; 0x3fe9
  100b50:	e1540003 	cmp	r4, r3
  100b54:	e24dd028 	sub	sp, sp, #40	; 0x28
  100b58:	e1a06000 	mov	r6, r0
  100b5c:	e1a07001 	mov	r7, r1
  100b60:	e1a05002 	mov	r5, r2
  100b64:	e1a08001 	mov	r8, r1
  100b68:	da00004b 	ble	100c9c <__ieee754_rem_pio2+0x15c>
  100b6c:	e30d397b 	movw	r3, #55675	; 0xd97b
  100b70:	e3443002 	movt	r3, #16386	; 0x4002
  100b74:	e1540003 	cmp	r4, r3
  100b78:	ca000014 	bgt	100bd0 <__ieee754_rem_pio2+0x90>
  100b7c:	e3510000 	cmp	r1, #0
  100b80:	e30231fb 	movw	r3, #8699	; 0x21fb
  100b84:	eddf0ba5 	vldr	d16, [pc, #660]	; 100e20 <__ieee754_rem_pio2+0x2e0>
  100b88:	e3433ff9 	movt	r3, #16377	; 0x3ff9
  100b8c:	da000093 	ble	100de0 <__ieee754_rem_pio2+0x2a0>
  100b90:	ec476b31 	vmov	d17, r6, r7
  100b94:	e1540003 	cmp	r4, r3
  100b98:	ee710be0 	vsub.f64	d16, d17, d16
  100b9c:	13a00001 	movne	r0, #1
  100ba0:	0ddf2ba0 	vldreq	d18, [pc, #640]	; 100e28 <__ieee754_rem_pio2+0x2e8>
  100ba4:	03a00001 	moveq	r0, #1
  100ba8:	1ddf1ba0 	vldrne	d17, [pc, #640]	; 100e30 <__ieee754_rem_pio2+0x2f0>
  100bac:	0ddf1ba1 	vldreq	d17, [pc, #644]	; 100e38 <__ieee754_rem_pio2+0x2f8>
  100bb0:	0e700be2 	vsubeq.f64	d16, d16, d18
  100bb4:	ee702be1 	vsub.f64	d18, d16, d17
  100bb8:	ee700be2 	vsub.f64	d16, d16, d18
  100bbc:	edc22b00 	vstr	d18, [r2]
  100bc0:	ee700be1 	vsub.f64	d16, d16, d17
  100bc4:	edc20b02 	vstr	d16, [r2, #8]
  100bc8:	e28dd028 	add	sp, sp, #40	; 0x28
  100bcc:	e8bd81f0 	pop	{r4, r5, r6, r7, r8, pc}
  100bd0:	e30231fb 	movw	r3, #8699	; 0x21fb
  100bd4:	e3443139 	movt	r3, #16697	; 0x4139
  100bd8:	e1540003 	cmp	r4, r3
  100bdc:	da00003b 	ble	100cd0 <__ieee754_rem_pio2+0x190>
  100be0:	e30f3fff 	movw	r3, #65535	; 0xffff
  100be4:	e3473fef 	movt	r3, #32751	; 0x7fef
  100be8:	e1540003 	cmp	r4, r3
  100bec:	ca000031 	bgt	100cb8 <__ieee754_rem_pio2+0x178>
  100bf0:	e1a02a44 	asr	r2, r4, #20
  100bf4:	eddf0b91 	vldr	d16, [pc, #580]	; 100e40 <__ieee754_rem_pio2+0x300>
  100bf8:	e2422e41 	sub	r2, r2, #1040	; 0x410
  100bfc:	e3a03000 	mov	r3, #0
  100c00:	e2422006 	sub	r2, r2, #6
  100c04:	e0441a02 	sub	r1, r4, r2, lsl #20
  100c08:	ec410b31 	vmov	d17, r0, r1
  100c0c:	eefd7be1 	vcvt.s32.f64	s15, d17
  100c10:	eef82be7 	vcvt.f64.s32	d18, s15
  100c14:	ee711be2 	vsub.f64	d17, d17, d18
  100c18:	edcd2b04 	vstr	d18, [sp, #16]
  100c1c:	ee611ba0 	vmul.f64	d17, d17, d16
  100c20:	eefd7be1 	vcvt.s32.f64	s15, d17
  100c24:	eef82be7 	vcvt.f64.s32	d18, s15
  100c28:	ee711be2 	vsub.f64	d17, d17, d18
  100c2c:	edcd2b06 	vstr	d18, [sp, #24]
  100c30:	ee610ba0 	vmul.f64	d16, d17, d16
  100c34:	eef50b40 	vcmp.f64	d16, #0.0
  100c38:	edcd0b08 	vstr	d16, [sp, #32]
  100c3c:	eef1fa10 	vmrs	APSR_nzcv, fpscr
  100c40:	13a03003 	movne	r3, #3
  100c44:	1a000003 	bne	100c58 <__ieee754_rem_pio2+0x118>
  100c48:	eef52b40 	vcmp.f64	d18, #0.0
  100c4c:	eef1fa10 	vmrs	APSR_nzcv, fpscr
  100c50:	03a03001 	moveq	r3, #1
  100c54:	13a03002 	movne	r3, #2
  100c58:	e59f1200 	ldr	r1, [pc, #512]	; 100e60 <__ieee754_rem_pio2+0x320>
  100c5c:	e3a0c002 	mov	ip, #2
  100c60:	e28d0010 	add	r0, sp, #16
  100c64:	e58dc000 	str	ip, [sp]
  100c68:	e58d1004 	str	r1, [sp, #4]
  100c6c:	e1a01005 	mov	r1, r5
  100c70:	eb0000d4 	bl	100fc8 <__kernel_rem_pio2>
  100c74:	e3580000 	cmp	r8, #0
  100c78:	aaffffd2 	bge	100bc8 <__ieee754_rem_pio2+0x88>
  100c7c:	edd51b00 	vldr	d17, [r5]
  100c80:	e2600000 	rsb	r0, r0, #0
  100c84:	edd50b02 	vldr	d16, [r5, #8]
  100c88:	eef11b61 	vneg.f64	d17, d17
  100c8c:	eef10b60 	vneg.f64	d16, d16
  100c90:	edc51b00 	vstr	d17, [r5]
  100c94:	edc50b02 	vstr	d16, [r5, #8]
  100c98:	eaffffca 	b	100bc8 <__ieee754_rem_pio2+0x88>
  100c9c:	e3a02000 	mov	r2, #0
  100ca0:	e3a03000 	mov	r3, #0
  100ca4:	e3a00000 	mov	r0, #0
  100ca8:	e1c560f0 	strd	r6, [r5]
  100cac:	e1c520f8 	strd	r2, [r5, #8]
  100cb0:	e28dd028 	add	sp, sp, #40	; 0x28
  100cb4:	e8bd81f0 	pop	{r4, r5, r6, r7, r8, pc}
  100cb8:	ec476b30 	vmov	d16, r6, r7
  100cbc:	e3a00000 	mov	r0, #0
  100cc0:	ee700be0 	vsub.f64	d16, d16, d16
  100cc4:	edc20b02 	vstr	d16, [r2, #8]
  100cc8:	edc20b00 	vstr	d16, [r2]
  100ccc:	eaffffbd 	b	100bc8 <__ieee754_rem_pio2+0x88>
  100cd0:	eb000322 	bl	101960 <fabs>
  100cd4:	eef60b00 	vmov.f64	d16, #96	; 0x60
  100cd8:	eddf3b5a 	vldr	d19, [pc, #360]	; 100e48 <__ieee754_rem_pio2+0x308>
  100cdc:	eddf4b4f 	vldr	d20, [pc, #316]	; 100e20 <__ieee754_rem_pio2+0x2e0>
  100ce0:	eddf2b52 	vldr	d18, [pc, #328]	; 100e30 <__ieee754_rem_pio2+0x2f0>
  100ce4:	ec410b31 	vmov	d17, r0, r1
  100ce8:	ee410ba3 	vmla.f64	d16, d17, d19
  100cec:	eefd7be0 	vcvt.s32.f64	s15, d16
  100cf0:	ee170a90 	vmov	r0, s15
  100cf4:	eef83be7 	vcvt.f64.s32	d19, s15
  100cf8:	eef00b61 	vmov.f64	d16, d17
  100cfc:	ee631ba2 	vmul.f64	d17, d19, d18
  100d00:	e350001f 	cmp	r0, #31
  100d04:	ee430be4 	vmls.f64	d16, d19, d20
  100d08:	ca000012 	bgt	100d58 <__ieee754_rem_pio2+0x218>
  100d0c:	e30c3320 	movw	r3, #49952	; 0xc320
  100d10:	e2402001 	sub	r2, r0, #1
  100d14:	e3403010 	movt	r3, #16
  100d18:	e7933102 	ldr	r3, [r3, r2, lsl #2]
  100d1c:	e1530004 	cmp	r3, r4
  100d20:	0a00000c 	beq	100d58 <__ieee754_rem_pio2+0x218>
  100d24:	ee702be1 	vsub.f64	d18, d16, d17
  100d28:	edc52b00 	vstr	d18, [r5]
  100d2c:	e3580000 	cmp	r8, #0
  100d30:	ee700be2 	vsub.f64	d16, d16, d18
  100d34:	ee700be1 	vsub.f64	d16, d16, d17
  100d38:	edc50b02 	vstr	d16, [r5, #8]
  100d3c:	aaffffa1 	bge	100bc8 <__ieee754_rem_pio2+0x88>
  100d40:	e2600000 	rsb	r0, r0, #0
  100d44:	eef12b62 	vneg.f64	d18, d18
  100d48:	eef10b60 	vneg.f64	d16, d16
  100d4c:	edc52b00 	vstr	d18, [r5]
  100d50:	edc50b02 	vstr	d16, [r5, #8]
  100d54:	eaffff9b 	b	100bc8 <__ieee754_rem_pio2+0x88>
  100d58:	ee702be1 	vsub.f64	d18, d16, d17
  100d5c:	e1a04a44 	asr	r4, r4, #20
  100d60:	edcd2b02 	vstr	d18, [sp, #8]
  100d64:	e59d300c 	ldr	r3, [sp, #12]
  100d68:	e7ea3a53 	ubfx	r3, r3, #20, #11
  100d6c:	edc52b00 	vstr	d18, [r5]
  100d70:	e0633004 	rsb	r3, r3, r4
  100d74:	e3530010 	cmp	r3, #16
  100d78:	daffffeb 	ble	100d2c <__ieee754_rem_pio2+0x1ec>
  100d7c:	eddf1b29 	vldr	d17, [pc, #164]	; 100e28 <__ieee754_rem_pio2+0x2e8>
  100d80:	eddf2b2c 	vldr	d18, [pc, #176]	; 100e38 <__ieee754_rem_pio2+0x2f8>
  100d84:	ee631ba1 	vmul.f64	d17, d19, d17
  100d88:	ee704be1 	vsub.f64	d20, d16, d17
  100d8c:	ee700be4 	vsub.f64	d16, d16, d20
  100d90:	ee700be1 	vsub.f64	d16, d16, d17
  100d94:	ee530ba2 	vnmls.f64	d16, d19, d18
  100d98:	ee742be0 	vsub.f64	d18, d20, d16
  100d9c:	edcd2b02 	vstr	d18, [sp, #8]
  100da0:	e59d300c 	ldr	r3, [sp, #12]
  100da4:	e7ea3a53 	ubfx	r3, r3, #20, #11
  100da8:	eef01b60 	vmov.f64	d17, d16
  100dac:	e0634004 	rsb	r4, r3, r4
  100db0:	edc52b00 	vstr	d18, [r5]
  100db4:	e3540031 	cmp	r4, #49	; 0x31
  100db8:	def00b64 	vmovle.f64	d16, d20
  100dbc:	daffffda 	ble	100d2c <__ieee754_rem_pio2+0x1ec>
  100dc0:	eddf1b22 	vldr	d17, [pc, #136]	; 100e50 <__ieee754_rem_pio2+0x310>
  100dc4:	eddf2b23 	vldr	d18, [pc, #140]	; 100e58 <__ieee754_rem_pio2+0x318>
  100dc8:	ee631ba1 	vmul.f64	d17, d19, d17
  100dcc:	ee740be1 	vsub.f64	d16, d20, d17
  100dd0:	ee744be0 	vsub.f64	d20, d20, d16
  100dd4:	ee741be1 	vsub.f64	d17, d20, d17
  100dd8:	ee531ba2 	vnmls.f64	d17, d19, d18
  100ddc:	eaffffd0 	b	100d24 <__ieee754_rem_pio2+0x1e4>
  100de0:	ec476b31 	vmov	d17, r6, r7
  100de4:	e1540003 	cmp	r4, r3
  100de8:	ee710ba0 	vadd.f64	d16, d17, d16
  100dec:	13e00000 	mvnne	r0, #0
  100df0:	0ddf2b0c 	vldreq	d18, [pc, #48]	; 100e28 <__ieee754_rem_pio2+0x2e8>
  100df4:	03e00000 	mvneq	r0, #0
  100df8:	1ddf1b0c 	vldrne	d17, [pc, #48]	; 100e30 <__ieee754_rem_pio2+0x2f0>
  100dfc:	0ddf1b0d 	vldreq	d17, [pc, #52]	; 100e38 <__ieee754_rem_pio2+0x2f8>
  100e00:	0e700ba2 	vaddeq.f64	d16, d16, d18
  100e04:	ee702ba1 	vadd.f64	d18, d16, d17
  100e08:	ee700be2 	vsub.f64	d16, d16, d18
  100e0c:	edc22b00 	vstr	d18, [r2]
  100e10:	ee700ba1 	vadd.f64	d16, d16, d17
  100e14:	edc20b02 	vstr	d16, [r2, #8]
  100e18:	eaffff6a 	b	100bc8 <__ieee754_rem_pio2+0x88>
  100e1c:	e320f000 	nop	{0}
  100e20:	54400000 	strbpl	r0, [r0], #-0
  100e24:	3ff921fb 	svccc	0x00f921fb
  100e28:	1a600000 	bne	1900e30 <__undef_stack+0x17e7590>
  100e2c:	3dd0b461 	cfldrdcc	mvd11, [r0, #388]	; 0x184
  100e30:	1a626331 	bne	1999afc <__undef_stack+0x188025c>
  100e34:	3dd0b461 	cfldrdcc	mvd11, [r0, #388]	; 0x184
  100e38:	2e037073 	mcrcs	0, 0, r7, cr3, cr3, {3}
  100e3c:	3ba3198a 	blcc	fe9c746c <LRemap+0x9c745d>
  100e40:	00000000 	andeq	r0, r0, r0
  100e44:	41700000 	cmnmi	r0, r0
  100e48:	6dc9c883 	stclvs	8, cr12, [r9, #524]	; 0x20c
  100e4c:	3fe45f30 	svccc	0x00e45f30
  100e50:	2e000000 	cdpcs	0, 0, cr0, cr0, cr0, {0}
  100e54:	3ba3198a 	blcc	fe9c7484 <LRemap+0x9c7475>
  100e58:	252049c1 	strcs	r4, [r0, #-2497]!	; 0xfffff63f
  100e5c:	397b839a 	ldmdbcc	fp!, {r1, r3, r4, r7, r8, r9, pc}^
  100e60:	0010c3a0 	andseq	ip, r0, r0, lsr #7
  100e64:	e320f000 	nop	{0}

00100e68 <__kernel_cos>:
  100e68:	e24dd008 	sub	sp, sp, #8
  100e6c:	ec410b38 	vmov	d24, r0, r1
  100e70:	e1cd00f0 	strd	r0, [sp]
  100e74:	ec432b31 	vmov	d17, r2, r3
  100e78:	e59d1004 	ldr	r1, [sp, #4]
  100e7c:	e3c11102 	bic	r1, r1, #-2147483648	; 0x80000000
  100e80:	e35105f9 	cmp	r1, #1044381696	; 0x3e400000
  100e84:	aa000019 	bge	100ef0 <__kernel_cos+0x88>
  100e88:	eefd7be8 	vcvt.s32.f64	s15, d24
  100e8c:	ee173a90 	vmov	r3, s15
  100e90:	e3530000 	cmp	r3, #0
  100e94:	0a00003a 	beq	100f84 <__kernel_cos+0x11c>
  100e98:	ee680ba8 	vmul.f64	d16, d24, d24
  100e9c:	eddf7b3d 	vldr	d23, [pc, #244]	; 100f98 <__kernel_cos+0x130>
  100ea0:	eddf6b3e 	vldr	d22, [pc, #248]	; 100fa0 <__kernel_cos+0x138>
  100ea4:	eddf5b3f 	vldr	d21, [pc, #252]	; 100fa8 <__kernel_cos+0x140>
  100ea8:	eddf4b40 	vldr	d20, [pc, #256]	; 100fb0 <__kernel_cos+0x148>
  100eac:	eddf3b41 	vldr	d19, [pc, #260]	; 100fb8 <__kernel_cos+0x150>
  100eb0:	eddf2b42 	vldr	d18, [pc, #264]	; 100fc0 <__kernel_cos+0x158>
  100eb4:	ee406ba7 	vmla.f64	d22, d16, d23
  100eb8:	ee565ba0 	vnmls.f64	d21, d22, d16
  100ebc:	ee454ba0 	vmla.f64	d20, d21, d16
  100ec0:	ee543ba0 	vnmls.f64	d19, d20, d16
  100ec4:	ee432ba0 	vmla.f64	d18, d19, d16
  100ec8:	ee622ba0 	vmul.f64	d18, d18, d16
  100ecc:	ee683ba1 	vmul.f64	d19, d24, d17
  100ed0:	ee503ba2 	vnmls.f64	d19, d16, d18
  100ed4:	eef61b00 	vmov.f64	d17, #96	; 0x60
  100ed8:	ee503ba1 	vnmls.f64	d19, d16, d17
  100edc:	eef70b00 	vmov.f64	d16, #112	; 0x70
  100ee0:	ee703be3 	vsub.f64	d19, d16, d19
  100ee4:	ec510b33 	vmov	r0, r1, d19
  100ee8:	e28dd008 	add	sp, sp, #8
  100eec:	e12fff1e 	bx	lr
  100ef0:	ee680ba8 	vmul.f64	d16, d24, d24
  100ef4:	e3033332 	movw	r3, #13106	; 0x3332
  100ef8:	eddf3b26 	vldr	d19, [pc, #152]	; 100f98 <__kernel_cos+0x130>
  100efc:	e3433fd3 	movt	r3, #16339	; 0x3fd3
  100f00:	e1510003 	cmp	r1, r3
  100f04:	eddf7b25 	vldr	d23, [pc, #148]	; 100fa0 <__kernel_cos+0x138>
  100f08:	eddf6b26 	vldr	d22, [pc, #152]	; 100fa8 <__kernel_cos+0x140>
  100f0c:	eddf5b27 	vldr	d21, [pc, #156]	; 100fb0 <__kernel_cos+0x148>
  100f10:	eddf4b28 	vldr	d20, [pc, #160]	; 100fb8 <__kernel_cos+0x150>
  100f14:	eddf2b29 	vldr	d18, [pc, #164]	; 100fc0 <__kernel_cos+0x158>
  100f18:	ee407ba3 	vmla.f64	d23, d16, d19
  100f1c:	ee576ba0 	vnmls.f64	d22, d23, d16
  100f20:	ee465ba0 	vmla.f64	d21, d22, d16
  100f24:	ee554ba0 	vnmls.f64	d20, d21, d16
  100f28:	ee442ba0 	vmla.f64	d18, d20, d16
  100f2c:	ee622ba0 	vmul.f64	d18, d18, d16
  100f30:	daffffe5 	ble	100ecc <__kernel_cos+0x64>
  100f34:	e3a03000 	mov	r3, #0
  100f38:	e3433fe9 	movt	r3, #16361	; 0x3fe9
  100f3c:	e1510003 	cmp	r1, r3
  100f40:	d3a03000 	movle	r3, #0
  100f44:	d2413602 	suble	r3, r1, #2097152	; 0x200000
  100f48:	d3a02000 	movle	r2, #0
  100f4c:	dc432b33 	vmovle	d19, r2, r3
  100f50:	ee681ba1 	vmul.f64	d17, d24, d17
  100f54:	def74b00 	vmovle.f64	d20, #112	; 0x70
  100f58:	cef53b02 	vmovgt.f64	d19, #82	; 0x52
  100f5c:	eef65b00 	vmov.f64	d21, #96	; 0x60
  100f60:	de744be3 	vsuble.f64	d20, d20, d19
  100f64:	ee501ba2 	vnmls.f64	d17, d16, d18
  100f68:	ee503ba5 	vnmls.f64	d19, d16, d21
  100f6c:	cef64b07 	vmovgt.f64	d20, #103	; 0x67
  100f70:	ee733be1 	vsub.f64	d19, d19, d17
  100f74:	ee743be3 	vsub.f64	d19, d20, d19
  100f78:	ec510b33 	vmov	r0, r1, d19
  100f7c:	e28dd008 	add	sp, sp, #8
  100f80:	e12fff1e 	bx	lr
  100f84:	eef73b00 	vmov.f64	d19, #112	; 0x70
  100f88:	ec510b33 	vmov	r0, r1, d19
  100f8c:	e28dd008 	add	sp, sp, #8
  100f90:	e12fff1e 	bx	lr
  100f94:	e320f000 	nop	{0}
  100f98:	be8838d4 	mcrlt	8, 4, r3, cr8, cr4, {6}
  100f9c:	bda8fae9 	stclt	10, cr15, [r8, #932]!	; 0x3a4
  100fa0:	bdb4b1c4 	ldfltd	f3, [r4, #784]!	; 0x310
  100fa4:	3e21ee9e 	mcrcc	14, 1, lr, cr1, cr14, {4}
  100fa8:	809c52ad 	addshi	r5, ip, sp, lsr #5
  100fac:	3e927e4f 	cdpcc	14, 9, cr7, cr2, cr15, {2}
  100fb0:	19cb1590 	stmibne	fp, {r4, r7, r8, sl, ip}^
  100fb4:	3efa01a0 	cdpcc	1, 15, cr0, cr10, cr0, {5}
  100fb8:	16c15177 			; <UNDEFINED> instruction: 0x16c15177
  100fbc:	3f56c16c 	svccc	0x0056c16c
  100fc0:	5555554c 	ldrbpl	r5, [r5, #-1356]	; 0xfffffab4
  100fc4:	3fa55555 	svccc	0x00a55555

00100fc8 <__kernel_rem_pio2>:
  100fc8:	e92d4ff0 	push	{r4, r5, r6, r7, r8, r9, sl, fp, lr}
  100fcc:	e242c003 	sub	ip, r2, #3
  100fd0:	e30a4aab 	movw	r4, #43691	; 0xaaab
  100fd4:	ed2d8b08 	vpush	{d8-d11}
  100fd8:	e3424aaa 	movt	r4, #10922	; 0x2aaa
  100fdc:	e30ce4a8 	movw	lr, #50344	; 0xc4a8
  100fe0:	e0c5449c 	smull	r4, r5, ip, r4
  100fe4:	e24ddf93 	sub	sp, sp, #588	; 0x24c
  100fe8:	e1a0cfcc 	asr	ip, ip, #31
  100fec:	e340e010 	movt	lr, #16
  100ff0:	e59d6290 	ldr	r6, [sp, #656]	; 0x290
  100ff4:	e1a09000 	mov	r9, r0
  100ff8:	e58d300c 	str	r3, [sp, #12]
  100ffc:	e58d1008 	str	r1, [sp, #8]
  101000:	e06cc145 	rsb	ip, ip, r5, asr #2
  101004:	e79ee106 	ldr	lr, [lr, r6, lsl #2]
  101008:	e2436001 	sub	r6, r3, #1
  10100c:	e1cc3fcc 	bic	r3, ip, ip, asr #31
  101010:	e096100e 	adds	r1, r6, lr
  101014:	e58d3010 	str	r3, [sp, #16]
  101018:	e1a00003 	mov	r0, r3
  10101c:	e58de000 	str	lr, [sp]
  101020:	e1e00000 	mvn	r0, r0
  101024:	e0663003 	rsb	r3, r6, r3
  101028:	e0800080 	add	r0, r0, r0, lsl #1
  10102c:	e0822180 	add	r2, r2, r0, lsl #3
  101030:	e58d2004 	str	r2, [sp, #4]
  101034:	4a00000e 	bmi	101074 <__kernel_rem_pio2+0xac>
  101038:	e0832001 	add	r2, r3, r1
  10103c:	e59d4000 	ldr	r4, [sp]
  101040:	e59d0294 	ldr	r0, [sp, #660]	; 0x294
  101044:	e28d1068 	add	r1, sp, #104	; 0x68
  101048:	e2822001 	add	r2, r2, #1
  10104c:	e3530000 	cmp	r3, #0
  101050:	a790c103 	ldrge	ip, [r0, r3, lsl #2]
  101054:	e2833001 	add	r3, r3, #1
  101058:	bddf0bce 	vldrlt	d16, [pc, #824]	; 101398 <__kernel_rem_pio2+0x3d0>
  10105c:	ae07ca90 	vmovge	s15, ip
  101060:	aef80be7 	vcvtge.f64.s32	d16, s15
  101064:	e1530002 	cmp	r3, r2
  101068:	ece10b02 	vstmia	r1!, {d16}
  10106c:	1afffff6 	bne	10104c <__kernel_rem_pio2+0x84>
  101070:	e58d4000 	str	r4, [sp]
  101074:	e59d3000 	ldr	r3, [sp]
  101078:	e3530000 	cmp	r3, #0
  10107c:	ba000015 	blt	1010d8 <__kernel_rem_pio2+0x110>
  101080:	e59d4000 	ldr	r4, [sp]
  101084:	e28d1068 	add	r1, sp, #104	; 0x68
  101088:	e59d300c 	ldr	r3, [sp, #12]
  10108c:	e28dcf6a 	add	ip, sp, #424	; 0x1a8
  101090:	e2840001 	add	r0, r4, #1
  101094:	e1a0e183 	lsl	lr, r3, #3
  101098:	e0810180 	add	r0, r1, r0, lsl #3
  10109c:	e3560000 	cmp	r6, #0
  1010a0:	ba000143 	blt	1015b4 <__kernel_rem_pio2+0x5ec>
  1010a4:	eddf0bbb 	vldr	d16, [pc, #748]	; 101398 <__kernel_rem_pio2+0x3d0>
  1010a8:	e081300e 	add	r3, r1, lr
  1010ac:	e1a02009 	mov	r2, r9
  1010b0:	ed731b02 	vldmdb	r3!, {d17}
  1010b4:	ecf22b02 	vldmia	r2!, {d18}
  1010b8:	e1510003 	cmp	r1, r3
  1010bc:	ee420ba1 	vmla.f64	d16, d18, d17
  1010c0:	1afffffa 	bne	1010b0 <__kernel_rem_pio2+0xe8>
  1010c4:	e2811008 	add	r1, r1, #8
  1010c8:	ecec0b02 	vstmia	ip!, {d16}
  1010cc:	e1510000 	cmp	r1, r0
  1010d0:	1afffff1 	bne	10109c <__kernel_rem_pio2+0xd4>
  1010d4:	e58d4000 	str	r4, [sp]
  1010d8:	e59db000 	ldr	fp, [sp]
  1010dc:	e28d5f6a 	add	r5, sp, #424	; 0x1a8
  1010e0:	e59d200c 	ldr	r2, [sp, #12]
  1010e4:	e24b3107 	sub	r3, fp, #-1073741823	; 0xc0000001
  1010e8:	ed9f9bae 	vldr	d9, [pc, #696]	; 1013a8 <__kernel_rem_pio2+0x3e0>
  1010ec:	e59d4004 	ldr	r4, [sp, #4]
  1010f0:	e0628e82 	rsb	r8, r2, r2, lsl #29
  1010f4:	e1a03103 	lsl	r3, r3, #2
  1010f8:	ed9f8ba8 	vldr	d8, [pc, #672]	; 1013a0 <__kernel_rem_pio2+0x3d8>
  1010fc:	e2837004 	add	r7, r3, #4
  101100:	e28d2018 	add	r2, sp, #24
  101104:	e1a08188 	lsl	r8, r8, #3
  101108:	e0827007 	add	r7, r2, r7
  10110c:	e0823003 	add	r3, r2, r3
  101110:	e58d3014 	str	r3, [sp, #20]
  101114:	e1a0218b 	lsl	r2, fp, #3
  101118:	e28d3f92 	add	r3, sp, #584	; 0x248
  10111c:	e0833002 	add	r3, r3, r2
  101120:	e35b0000 	cmp	fp, #0
  101124:	ed530b28 	vldr	d16, [r3, #-160]	; 0xffffff60
  101128:	da00000c 	ble	101160 <__kernel_rem_pio2+0x198>
  10112c:	e0852002 	add	r2, r5, r2
  101130:	e28d1014 	add	r1, sp, #20
  101134:	ee601b89 	vmul.f64	d17, d16, d9
  101138:	ed722b02 	vldmdb	r2!, {d18}
  10113c:	e1520005 	cmp	r2, r5
  101140:	eefd7be1 	vcvt.s32.f64	s15, d17
  101144:	eef81be7 	vcvt.f64.s32	d17, s15
  101148:	ee410bc8 	vmls.f64	d16, d17, d8
  10114c:	eefd7be0 	vcvt.s32.f64	s15, d16
  101150:	ee173a90 	vmov	r3, s15
  101154:	ee710ba2 	vadd.f64	d16, d17, d18
  101158:	e5a13004 	str	r3, [r1, #4]!
  10115c:	1afffff4 	bne	101134 <__kernel_rem_pio2+0x16c>
  101160:	ec510b30 	vmov	r0, r1, d16
  101164:	e1a02004 	mov	r2, r4
  101168:	eb000256 	bl	101ac8 <scalbn>
  10116c:	eef40b00 	vmov.f64	d16, #64	; 0x40
  101170:	ec410b1a 	vmov	d10, r0, r1
  101174:	ee6a0b20 	vmul.f64	d16, d10, d16
  101178:	ec510b30 	vmov	r0, r1, d16
  10117c:	eb0001fb 	bl	101970 <floor>
  101180:	e3540000 	cmp	r4, #0
  101184:	eef20b00 	vmov.f64	d16, #32
  101188:	ec410b31 	vmov	d17, r0, r1
  10118c:	ee01abe0 	vmls.f64	d10, d17, d16
  101190:	eebdbbca 	vcvt.s32.f64	s22, d10
  101194:	eef80bcb 	vcvt.f64.s32	d16, s22
  101198:	ee3aab60 	vsub.f64	d10, d10, d16
  10119c:	da0000e8 	ble	101544 <__kernel_rem_pio2+0x57c>
  1011a0:	ee1bea10 	vmov	lr, s22
  1011a4:	e24b3001 	sub	r3, fp, #1
  1011a8:	e28d2f92 	add	r2, sp, #584	; 0x248
  1011ac:	e2641018 	rsb	r1, r4, #24
  1011b0:	e0823103 	add	r3, r2, r3, lsl #2
  1011b4:	e2640017 	rsb	r0, r4, #23
  1011b8:	e5132230 	ldr	r2, [r3, #-560]	; 0xfffffdd0
  1011bc:	e1a0c152 	asr	ip, r2, r1
  1011c0:	e042211c 	sub	r2, r2, ip, lsl r1
  1011c4:	e5032230 	str	r2, [r3, #-560]	; 0xfffffdd0
  1011c8:	e1a0a052 	asr	sl, r2, r0
  1011cc:	e08ee00c 	add	lr, lr, ip
  1011d0:	ee0bea10 	vmov	s22, lr
  1011d4:	e35a0000 	cmp	sl, #0
  1011d8:	da000028 	ble	101280 <__kernel_rem_pio2+0x2b8>
  1011dc:	ee1b3a10 	vmov	r3, s22
  1011e0:	e35b0000 	cmp	fp, #0
  1011e4:	e2833001 	add	r3, r3, #1
  1011e8:	ee0b3a10 	vmov	s22, r3
  1011ec:	da0000f6 	ble	1015cc <__kernel_rem_pio2+0x604>
  1011f0:	e3a01000 	mov	r1, #0
  1011f4:	e28d0014 	add	r0, sp, #20
  1011f8:	e1a0c001 	mov	ip, r1
  1011fc:	ea000006 	b	10121c <__kernel_rem_pio2+0x254>
  101200:	e3520000 	cmp	r2, #0
  101204:	e2811001 	add	r1, r1, #1
  101208:	e2622401 	rsb	r2, r2, #16777216	; 0x1000000
  10120c:	15802000 	strne	r2, [r0]
  101210:	13a0c001 	movne	ip, #1
  101214:	e15b0001 	cmp	fp, r1
  101218:	da00000a 	ble	101248 <__kernel_rem_pio2+0x280>
  10121c:	e35c0000 	cmp	ip, #0
  101220:	e30f3fff 	movw	r3, #65535	; 0xffff
  101224:	e5b02004 	ldr	r2, [r0, #4]!
  101228:	e34030ff 	movt	r3, #255	; 0xff
  10122c:	0afffff3 	beq	101200 <__kernel_rem_pio2+0x238>
  101230:	e2811001 	add	r1, r1, #1
  101234:	e0623003 	rsb	r3, r2, r3
  101238:	e15b0001 	cmp	fp, r1
  10123c:	e3a0c001 	mov	ip, #1
  101240:	e5803000 	str	r3, [r0]
  101244:	cafffff4 	bgt	10121c <__kernel_rem_pio2+0x254>
  101248:	e3540000 	cmp	r4, #0
  10124c:	da000009 	ble	101278 <__kernel_rem_pio2+0x2b0>
  101250:	e3540001 	cmp	r4, #1
  101254:	0a0000c0 	beq	10155c <__kernel_rem_pio2+0x594>
  101258:	e3540002 	cmp	r4, #2
  10125c:	1a000005 	bne	101278 <__kernel_rem_pio2+0x2b0>
  101260:	e24b3001 	sub	r3, fp, #1
  101264:	e28d2f92 	add	r2, sp, #584	; 0x248
  101268:	e0823103 	add	r3, r2, r3, lsl #2
  10126c:	e5132230 	ldr	r2, [r3, #-560]	; 0xfffffdd0
  101270:	e7f52052 	ubfx	r2, r2, #0, #22
  101274:	e5032230 	str	r2, [r3, #-560]	; 0xfffffdd0
  101278:	e35a0002 	cmp	sl, #2
  10127c:	0a00004c 	beq	1013b4 <__kernel_rem_pio2+0x3ec>
  101280:	eeb5ab40 	vcmp.f64	d10, #0.0
  101284:	eef1fa10 	vmrs	APSR_nzcv, fpscr
  101288:	1a000055 	bne	1013e4 <__kernel_rem_pio2+0x41c>
  10128c:	e59d3000 	ldr	r3, [sp]
  101290:	e24b0001 	sub	r0, fp, #1
  101294:	e1530000 	cmp	r3, r0
  101298:	ca000008 	bgt	1012c0 <__kernel_rem_pio2+0x2f8>
  10129c:	e28d3018 	add	r3, sp, #24
  1012a0:	e3a02000 	mov	r2, #0
  1012a4:	e083310b 	add	r3, r3, fp, lsl #2
  1012a8:	e5331004 	ldr	r1, [r3, #-4]!
  1012ac:	e1530007 	cmp	r3, r7
  1012b0:	e1822001 	orr	r2, r2, r1
  1012b4:	1afffffb 	bne	1012a8 <__kernel_rem_pio2+0x2e0>
  1012b8:	e3520000 	cmp	r2, #0
  1012bc:	1a00010c 	bne	1016f4 <__kernel_rem_pio2+0x72c>
  1012c0:	e59d2000 	ldr	r2, [sp]
  1012c4:	e28d3f92 	add	r3, sp, #584	; 0x248
  1012c8:	e0833102 	add	r3, r3, r2, lsl #2
  1012cc:	e5133234 	ldr	r3, [r3, #-564]	; 0xfffffdcc
  1012d0:	e3530000 	cmp	r3, #0
  1012d4:	1a0000be 	bne	1015d4 <__kernel_rem_pio2+0x60c>
  1012d8:	e59d3014 	ldr	r3, [sp, #20]
  1012dc:	e3a0a001 	mov	sl, #1
  1012e0:	e5332004 	ldr	r2, [r3, #-4]!
  1012e4:	e28aa001 	add	sl, sl, #1
  1012e8:	e3520000 	cmp	r2, #0
  1012ec:	0afffffb 	beq	1012e0 <__kernel_rem_pio2+0x318>
  1012f0:	e08ba00a 	add	sl, fp, sl
  1012f4:	e28be001 	add	lr, fp, #1
  1012f8:	e15e000a 	cmp	lr, sl
  1012fc:	ca00001d 	bgt	101378 <__kernel_rem_pio2+0x3b0>
  101300:	e59d3010 	ldr	r3, [sp, #16]
  101304:	e08ec003 	add	ip, lr, r3
  101308:	e59d300c 	ldr	r3, [sp, #12]
  10130c:	e24cc107 	sub	ip, ip, #-1073741823	; 0xc0000001
  101310:	e085e18e 	add	lr, r5, lr, lsl #3
  101314:	e08b0003 	add	r0, fp, r3
  101318:	e08ab003 	add	fp, sl, r3
  10131c:	e59d3294 	ldr	r3, [sp, #660]	; 0x294
  101320:	e083c10c 	add	ip, r3, ip, lsl #2
  101324:	e28d3068 	add	r3, sp, #104	; 0x68
  101328:	e0830180 	add	r0, r3, r0, lsl #3
  10132c:	e083b18b 	add	fp, r3, fp, lsl #3
  101330:	e5bc3004 	ldr	r3, [ip, #4]!
  101334:	e3560000 	cmp	r6, #0
  101338:	ee073a90 	vmov	s15, r3
  10133c:	eef80be7 	vcvt.f64.s32	d16, s15
  101340:	ece00b02 	vstmia	r0!, {d16}
  101344:	ba00000d 	blt	101380 <__kernel_rem_pio2+0x3b8>
  101348:	e0801008 	add	r1, r0, r8
  10134c:	e1a02009 	mov	r2, r9
  101350:	eddf0b10 	vldr	d16, [pc, #64]	; 101398 <__kernel_rem_pio2+0x3d0>
  101354:	e1a03000 	mov	r3, r0
  101358:	ed731b02 	vldmdb	r3!, {d17}
  10135c:	ecf22b02 	vldmia	r2!, {d18}
  101360:	e1530001 	cmp	r3, r1
  101364:	ee420ba1 	vmla.f64	d16, d18, d17
  101368:	1afffffa 	bne	101358 <__kernel_rem_pio2+0x390>
  10136c:	e150000b 	cmp	r0, fp
  101370:	ecee0b02 	vstmia	lr!, {d16}
  101374:	1affffed 	bne	101330 <__kernel_rem_pio2+0x368>
  101378:	e1a0b00a 	mov	fp, sl
  10137c:	eaffff64 	b	101114 <__kernel_rem_pio2+0x14c>
  101380:	eddf0b04 	vldr	d16, [pc, #16]	; 101398 <__kernel_rem_pio2+0x3d0>
  101384:	e150000b 	cmp	r0, fp
  101388:	ecee0b02 	vstmia	lr!, {d16}
  10138c:	1affffe7 	bne	101330 <__kernel_rem_pio2+0x368>
  101390:	eafffff8 	b	101378 <__kernel_rem_pio2+0x3b0>
  101394:	e320f000 	nop	{0}
	...
  1013a4:	41700000 	cmnmi	r0, r0
  1013a8:	00000000 	andeq	r0, r0, r0
  1013ac:	3e700000 	cdpcc	0, 7, cr0, cr0, cr0, {0}
  1013b0:	0010c4b8 			; <UNDEFINED> instruction: 0x0010c4b8
  1013b4:	eef70b00 	vmov.f64	d16, #112	; 0x70
  1013b8:	e35c0000 	cmp	ip, #0
  1013bc:	ee30abca 	vsub.f64	d10, d16, d10
  1013c0:	0affffae 	beq	101280 <__kernel_rem_pio2+0x2b8>
  1013c4:	ec510b30 	vmov	r0, r1, d16
  1013c8:	e1a02004 	mov	r2, r4
  1013cc:	eb0001bd 	bl	101ac8 <scalbn>
  1013d0:	ec410b30 	vmov	d16, r0, r1
  1013d4:	ee3aab60 	vsub.f64	d10, d10, d16
  1013d8:	eeb5ab40 	vcmp.f64	d10, #0.0
  1013dc:	eef1fa10 	vmrs	APSR_nzcv, fpscr
  1013e0:	0affffa9 	beq	10128c <__kernel_rem_pio2+0x2c4>
  1013e4:	e59d3004 	ldr	r3, [sp, #4]
  1013e8:	ec510b1a 	vmov	r0, r1, d10
  1013ec:	e2632000 	rsb	r2, r3, #0
  1013f0:	e58da00c 	str	sl, [sp, #12]
  1013f4:	eb0001b3 	bl	101ac8 <scalbn>
  1013f8:	ed5f2b18 	vldr	d18, [pc, #-96]	; 1013a0 <__kernel_rem_pio2+0x3d8>
  1013fc:	e59d300c 	ldr	r3, [sp, #12]
  101400:	ec410b30 	vmov	d16, r0, r1
  101404:	eef40be2 	vcmpe.f64	d16, d18
  101408:	eef1fa10 	vmrs	APSR_nzcv, fpscr
  10140c:	ba000115 	blt	101868 <__kernel_rem_pio2+0x8a0>
  101410:	ed5f1b1c 	vldr	d17, [pc, #-112]	; 1013a8 <__kernel_rem_pio2+0x3e0>
  101414:	e28d2f92 	add	r2, sp, #584	; 0x248
  101418:	e28ba001 	add	sl, fp, #1
  10141c:	e082b10b 	add	fp, r2, fp, lsl #2
  101420:	e59d2004 	ldr	r2, [sp, #4]
  101424:	ee601ba1 	vmul.f64	d17, d16, d17
  101428:	e2822018 	add	r2, r2, #24
  10142c:	e58d2004 	str	r2, [sp, #4]
  101430:	e28d2f92 	add	r2, sp, #584	; 0x248
  101434:	e082110a 	add	r1, r2, sl, lsl #2
  101438:	eefd7be1 	vcvt.s32.f64	s15, d17
  10143c:	eef81be7 	vcvt.f64.s32	d17, s15
  101440:	ee410be2 	vmls.f64	d16, d17, d18
  101444:	eebd7be0 	vcvt.s32.f64	s14, d16
  101448:	ed0b7a8c 	vstr	s14, [fp, #-560]	; 0xfffffdd0
  10144c:	ed417a8c 	vstr	s15, [r1, #-560]	; 0xfffffdd0
  101450:	e3a01000 	mov	r1, #0
  101454:	e59d2004 	ldr	r2, [sp, #4]
  101458:	e3a00000 	mov	r0, #0
  10145c:	e3431ff0 	movt	r1, #16368	; 0x3ff0
  101460:	e58d300c 	str	r3, [sp, #12]
  101464:	eb000197 	bl	101ac8 <scalbn>
  101468:	e35a0000 	cmp	sl, #0
  10146c:	e59d300c 	ldr	r3, [sp, #12]
  101470:	ec410b31 	vmov	d17, r0, r1
  101474:	ba000088 	blt	10169c <__kernel_rem_pio2+0x6d4>
  101478:	e28a0001 	add	r0, sl, #1
  10147c:	ed5f2b37 	vldr	d18, [pc, #-220]	; 1013a8 <__kernel_rem_pio2+0x3e0>
  101480:	e28d2018 	add	r2, sp, #24
  101484:	e28def6a 	add	lr, sp, #424	; 0x1a8
  101488:	e1a05180 	lsl	r5, r0, #3
  10148c:	e59d4000 	ldr	r4, [sp]
  101490:	e082c100 	add	ip, r2, r0, lsl #2
  101494:	e08e2005 	add	r2, lr, r5
  101498:	e53c1004 	ldr	r1, [ip, #-4]!
  10149c:	ee071a90 	vmov	s15, r1
  1014a0:	eef80be7 	vcvt.f64.s32	d16, s15
  1014a4:	ee600ba1 	vmul.f64	d16, d16, d17
  1014a8:	ed620b02 	vstmdb	r2!, {d16}
  1014ac:	ee611ba2 	vmul.f64	d17, d17, d18
  1014b0:	e152000e 	cmp	r2, lr
  1014b4:	1afffff7 	bne	101498 <__kernel_rem_pio2+0x4d0>
  1014b8:	e2455008 	sub	r5, r5, #8
  1014bc:	e3a0e000 	mov	lr, #0
  1014c0:	e0825005 	add	r5, r2, r5
  1014c4:	e3540000 	cmp	r4, #0
  1014c8:	ba000071 	blt	101694 <__kernel_rem_pio2+0x6cc>
  1014cc:	e35e0000 	cmp	lr, #0
  1014d0:	ba00006f 	blt	101694 <__kernel_rem_pio2+0x6cc>
  1014d4:	e51fc12c 	ldr	ip, [pc, #-300]	; 1013b0 <__kernel_rem_pio2+0x3e8>
  1014d8:	e1a01005 	mov	r1, r5
  1014dc:	eddf0be7 	vldr	d16, [pc, #924]	; 101880 <__kernel_rem_pio2+0x8b8>
  1014e0:	e3a02000 	mov	r2, #0
  1014e4:	ea000001 	b	1014f0 <__kernel_rem_pio2+0x528>
  1014e8:	e152000e 	cmp	r2, lr
  1014ec:	ca000005 	bgt	101508 <__kernel_rem_pio2+0x540>
  1014f0:	ecfc2b02 	vldmia	ip!, {d18}
  1014f4:	e2822001 	add	r2, r2, #1
  1014f8:	e1540002 	cmp	r4, r2
  1014fc:	ecf11b02 	vldmia	r1!, {d17}
  101500:	ee420ba1 	vmla.f64	d16, d18, d17
  101504:	aafffff7 	bge	1014e8 <__kernel_rem_pio2+0x520>
  101508:	e28d2f92 	add	r2, sp, #584	; 0x248
  10150c:	e2455008 	sub	r5, r5, #8
  101510:	e082218e 	add	r2, r2, lr, lsl #3
  101514:	e28ee001 	add	lr, lr, #1
  101518:	e15e0000 	cmp	lr, r0
  10151c:	ed420b50 	vstr	d16, [r2, #-320]	; 0xfffffec0
  101520:	1affffe7 	bne	1014c4 <__kernel_rem_pio2+0x4fc>
  101524:	e59d2290 	ldr	r2, [sp, #656]	; 0x290
  101528:	e3520003 	cmp	r2, #3
  10152c:	979ff102 	ldrls	pc, [pc, r2, lsl #2]
  101530:	ea000052 	b	101680 <__kernel_rem_pio2+0x6b8>
  101534:	00101650 	andseq	r1, r0, r0, asr r6
  101538:	001015dc 			; <UNDEFINED> instruction: 0x001015dc
  10153c:	001015dc 			; <UNDEFINED> instruction: 0x001015dc
  101540:	00101754 	andseq	r1, r0, r4, asr r7
  101544:	1a00000b 	bne	101578 <__kernel_rem_pio2+0x5b0>
  101548:	e28d3f92 	add	r3, sp, #584	; 0x248
  10154c:	e083310b 	add	r3, r3, fp, lsl #2
  101550:	e513a234 	ldr	sl, [r3, #-564]	; 0xfffffdcc
  101554:	e1a0abca 	asr	sl, sl, #23
  101558:	eaffff1d 	b	1011d4 <__kernel_rem_pio2+0x20c>
  10155c:	e24b3001 	sub	r3, fp, #1
  101560:	e28d2f92 	add	r2, sp, #584	; 0x248
  101564:	e0823103 	add	r3, r2, r3, lsl #2
  101568:	e5132230 	ldr	r2, [r3, #-560]	; 0xfffffdd0
  10156c:	e7f62052 	ubfx	r2, r2, #0, #23
  101570:	e5032230 	str	r2, [r3, #-560]	; 0xfffffdd0
  101574:	eaffff3f 	b	101278 <__kernel_rem_pio2+0x2b0>
  101578:	eef60b00 	vmov.f64	d16, #96	; 0x60
  10157c:	eeb4abe0 	vcmpe.f64	d10, d16
  101580:	eef1fa10 	vmrs	APSR_nzcv, fpscr
  101584:	b3a0a000 	movlt	sl, #0
  101588:	baffff3c 	blt	101280 <__kernel_rem_pio2+0x2b8>
  10158c:	ee1b3a10 	vmov	r3, s22
  101590:	e35b0000 	cmp	fp, #0
  101594:	c3a0a002 	movgt	sl, #2
  101598:	e2833001 	add	r3, r3, #1
  10159c:	ee0b3a10 	vmov	s22, r3
  1015a0:	caffff12 	bgt	1011f0 <__kernel_rem_pio2+0x228>
  1015a4:	eef70b00 	vmov.f64	d16, #112	; 0x70
  1015a8:	e3a0a002 	mov	sl, #2
  1015ac:	ee30abca 	vsub.f64	d10, d16, d10
  1015b0:	eaffff32 	b	101280 <__kernel_rem_pio2+0x2b8>
  1015b4:	eddf0bb1 	vldr	d16, [pc, #708]	; 101880 <__kernel_rem_pio2+0x8b8>
  1015b8:	e2811008 	add	r1, r1, #8
  1015bc:	e1510000 	cmp	r1, r0
  1015c0:	ecec0b02 	vstmia	ip!, {d16}
  1015c4:	1afffeb4 	bne	10109c <__kernel_rem_pio2+0xd4>
  1015c8:	eafffec1 	b	1010d4 <__kernel_rem_pio2+0x10c>
  1015cc:	e3a0c000 	mov	ip, #0
  1015d0:	eaffff1c 	b	101248 <__kernel_rem_pio2+0x280>
  1015d4:	e3a0a001 	mov	sl, #1
  1015d8:	eaffff44 	b	1012f0 <__kernel_rem_pio2+0x328>
  1015dc:	eddf0ba7 	vldr	d16, [pc, #668]	; 101880 <__kernel_rem_pio2+0x8b8>
  1015e0:	e28d1f42 	add	r1, sp, #264	; 0x108
  1015e4:	e0812180 	add	r2, r1, r0, lsl #3
  1015e8:	ed721b02 	vldmdb	r2!, {d17}
  1015ec:	e1520001 	cmp	r2, r1
  1015f0:	ee700ba1 	vadd.f64	d16, d16, d17
  1015f4:	1afffffb 	bne	1015e8 <__kernel_rem_pio2+0x620>
  1015f8:	e3530000 	cmp	r3, #0
  1015fc:	0a000031 	beq	1016c8 <__kernel_rem_pio2+0x700>
  101600:	eef12b60 	vneg.f64	d18, d16
  101604:	e59d2008 	ldr	r2, [sp, #8]
  101608:	eddd1b42 	vldr	d17, [sp, #264]	; 0x108
  10160c:	e35a0000 	cmp	sl, #0
  101610:	edc22b00 	vstr	d18, [r2]
  101614:	ee710be0 	vsub.f64	d16, d17, d16
  101618:	da000008 	ble	101640 <__kernel_rem_pio2+0x678>
  10161c:	e28d1e11 	add	r1, sp, #272	; 0x110
  101620:	e3a02001 	mov	r2, #1
  101624:	ecf11b02 	vldmia	r1!, {d17}
  101628:	e2822001 	add	r2, r2, #1
  10162c:	e15a0002 	cmp	sl, r2
  101630:	ee700ba1 	vadd.f64	d16, d16, d17
  101634:	aafffffa 	bge	101624 <__kernel_rem_pio2+0x65c>
  101638:	e3530000 	cmp	r3, #0
  10163c:	0a000000 	beq	101644 <__kernel_rem_pio2+0x67c>
  101640:	eef10b60 	vneg.f64	d16, d16
  101644:	e59d3008 	ldr	r3, [sp, #8]
  101648:	edc30b02 	vstr	d16, [r3, #8]
  10164c:	ea00000b 	b	101680 <__kernel_rem_pio2+0x6b8>
  101650:	eddf0b8a 	vldr	d16, [pc, #552]	; 101880 <__kernel_rem_pio2+0x8b8>
  101654:	e28d2f42 	add	r2, sp, #264	; 0x108
  101658:	e0822180 	add	r2, r2, r0, lsl #3
  10165c:	ed721b02 	vldmdb	r2!, {d17}
  101660:	e24aa001 	sub	sl, sl, #1
  101664:	e37a0001 	cmn	sl, #1
  101668:	ee700ba1 	vadd.f64	d16, d16, d17
  10166c:	1afffffa 	bne	10165c <__kernel_rem_pio2+0x694>
  101670:	e3530000 	cmp	r3, #0
  101674:	e59d3008 	ldr	r3, [sp, #8]
  101678:	1ef10b60 	vnegne.f64	d16, d16
  10167c:	edc30b00 	vstr	d16, [r3]
  101680:	ee1b3a10 	vmov	r3, s22
  101684:	e2030007 	and	r0, r3, #7
  101688:	e28ddf93 	add	sp, sp, #588	; 0x24c
  10168c:	ecbd8b08 	vpop	{d8-d11}
  101690:	e8bd8ff0 	pop	{r4, r5, r6, r7, r8, r9, sl, fp, pc}
  101694:	eddf0b79 	vldr	d16, [pc, #484]	; 101880 <__kernel_rem_pio2+0x8b8>
  101698:	eaffff9a 	b	101508 <__kernel_rem_pio2+0x540>
  10169c:	e59d2290 	ldr	r2, [sp, #656]	; 0x290
  1016a0:	e3520003 	cmp	r2, #3
  1016a4:	979ff102 	ldrls	pc, [pc, r2, lsl #2]
  1016a8:	eafffff4 	b	101680 <__kernel_rem_pio2+0x6b8>
  1016ac:	001016ec 	andseq	r1, r0, ip, ror #13
  1016b0:	001016bc 			; <UNDEFINED> instruction: 0x001016bc
  1016b4:	001016bc 			; <UNDEFINED> instruction: 0x001016bc
  1016b8:	00101838 	andseq	r1, r0, r8, lsr r8
  1016bc:	e3530000 	cmp	r3, #0
  1016c0:	eddf0b6e 	vldr	d16, [pc, #440]	; 101880 <__kernel_rem_pio2+0x8b8>
  1016c4:	1affffcd 	bne	101600 <__kernel_rem_pio2+0x638>
  1016c8:	eddd1b42 	vldr	d17, [sp, #264]	; 0x108
  1016cc:	e35a0000 	cmp	sl, #0
  1016d0:	e59d2008 	ldr	r2, [sp, #8]
  1016d4:	edc20b00 	vstr	d16, [r2]
  1016d8:	ee710be0 	vsub.f64	d16, d17, d16
  1016dc:	caffffce 	bgt	10161c <__kernel_rem_pio2+0x654>
  1016e0:	e59d3008 	ldr	r3, [sp, #8]
  1016e4:	edc30b02 	vstr	d16, [r3, #8]
  1016e8:	eaffffe4 	b	101680 <__kernel_rem_pio2+0x6b8>
  1016ec:	eddf0b63 	vldr	d16, [pc, #396]	; 101880 <__kernel_rem_pio2+0x8b8>
  1016f0:	eaffffde 	b	101670 <__kernel_rem_pio2+0x6a8>
  1016f4:	e59d1004 	ldr	r1, [sp, #4]
  1016f8:	e1a02100 	lsl	r2, r0, #2
  1016fc:	e1a0300a 	mov	r3, sl
  101700:	e1a0a000 	mov	sl, r0
  101704:	e2411018 	sub	r1, r1, #24
  101708:	e58d1004 	str	r1, [sp, #4]
  10170c:	e1a00001 	mov	r0, r1
  101710:	e28d1f92 	add	r1, sp, #584	; 0x248
  101714:	e0811002 	add	r1, r1, r2
  101718:	e5111230 	ldr	r1, [r1, #-560]	; 0xfffffdd0
  10171c:	e3510000 	cmp	r1, #0
  101720:	1affff4a 	bne	101450 <__kernel_rem_pio2+0x488>
  101724:	e59d4000 	ldr	r4, [sp]
  101728:	e28d1018 	add	r1, sp, #24
  10172c:	e0812002 	add	r2, r1, r2
  101730:	e1a01000 	mov	r1, r0
  101734:	e5320004 	ldr	r0, [r2, #-4]!
  101738:	e24aa001 	sub	sl, sl, #1
  10173c:	e2411018 	sub	r1, r1, #24
  101740:	e3500000 	cmp	r0, #0
  101744:	0afffffa 	beq	101734 <__kernel_rem_pio2+0x76c>
  101748:	e58d4000 	str	r4, [sp]
  10174c:	e58d1004 	str	r1, [sp, #4]
  101750:	eaffff3e 	b	101450 <__kernel_rem_pio2+0x488>
  101754:	e35a0000 	cmp	sl, #0
  101758:	da000036 	ble	101838 <__kernel_rem_pio2+0x870>
  10175c:	e1a0218a 	lsl	r2, sl, #3
  101760:	e28d1f92 	add	r1, sp, #584	; 0x248
  101764:	e081c002 	add	ip, r1, r2
  101768:	e28d0f42 	add	r0, sp, #264	; 0x108
  10176c:	e2821008 	add	r1, r2, #8
  101770:	e0801001 	add	r1, r0, r1
  101774:	ed5c1b50 	vldr	d17, [ip, #-320]	; 0xfffffec0
  101778:	e0800002 	add	r0, r0, r2
  10177c:	e28dce11 	add	ip, sp, #272	; 0x110
  101780:	ed700b02 	vldmdb	r0!, {d16}
  101784:	ee712ba0 	vadd.f64	d18, d17, d16
  101788:	ee700be2 	vsub.f64	d16, d16, d18
  10178c:	ee710ba0 	vadd.f64	d16, d17, d16
  101790:	ed610b02 	vstmdb	r1!, {d16}
  101794:	eef01b62 	vmov.f64	d17, d18
  101798:	e151000c 	cmp	r1, ip
  10179c:	edc02b00 	vstr	d18, [r0]
  1017a0:	1afffff6 	bne	101780 <__kernel_rem_pio2+0x7b8>
  1017a4:	e35a0001 	cmp	sl, #1
  1017a8:	da000022 	ble	101838 <__kernel_rem_pio2+0x870>
  1017ac:	e28d1f92 	add	r1, sp, #584	; 0x248
  1017b0:	e28dcf42 	add	ip, sp, #264	; 0x108
  1017b4:	e0810002 	add	r0, r1, r2
  1017b8:	e2821008 	add	r1, r2, #8
  1017bc:	e08c1001 	add	r1, ip, r1
  1017c0:	e08c2002 	add	r2, ip, r2
  1017c4:	e28dcf46 	add	ip, sp, #280	; 0x118
  1017c8:	ed501b50 	vldr	d17, [r0, #-320]	; 0xfffffec0
  1017cc:	e1a00001 	mov	r0, r1
  1017d0:	ed720b02 	vldmdb	r2!, {d16}
  1017d4:	ee702ba1 	vadd.f64	d18, d16, d17
  1017d8:	ee700be2 	vsub.f64	d16, d16, d18
  1017dc:	ee700ba1 	vadd.f64	d16, d16, d17
  1017e0:	ed600b02 	vstmdb	r0!, {d16}
  1017e4:	eef01b62 	vmov.f64	d17, d18
  1017e8:	e150000c 	cmp	r0, ip
  1017ec:	edc22b00 	vstr	d18, [r2]
  1017f0:	1afffff6 	bne	1017d0 <__kernel_rem_pio2+0x808>
  1017f4:	eddf0b21 	vldr	d16, [pc, #132]	; 101880 <__kernel_rem_pio2+0x8b8>
  1017f8:	ed711b02 	vldmdb	r1!, {d17}
  1017fc:	e15c0001 	cmp	ip, r1
  101800:	ee700ba1 	vadd.f64	d16, d16, d17
  101804:	1afffffb 	bne	1017f8 <__kernel_rem_pio2+0x830>
  101808:	e3530000 	cmp	r3, #0
  10180c:	0a00000c 	beq	101844 <__kernel_rem_pio2+0x87c>
  101810:	eddd2b42 	vldr	d18, [sp, #264]	; 0x108
  101814:	e59d3008 	ldr	r3, [sp, #8]
  101818:	eddd1b44 	vldr	d17, [sp, #272]	; 0x110
  10181c:	eef10b60 	vneg.f64	d16, d16
  101820:	eef12b62 	vneg.f64	d18, d18
  101824:	edc30b04 	vstr	d16, [r3, #16]
  101828:	eef11b61 	vneg.f64	d17, d17
  10182c:	edc32b00 	vstr	d18, [r3]
  101830:	edc31b02 	vstr	d17, [r3, #8]
  101834:	eaffff91 	b	101680 <__kernel_rem_pio2+0x6b8>
  101838:	e3530000 	cmp	r3, #0
  10183c:	eddf0b0f 	vldr	d16, [pc, #60]	; 101880 <__kernel_rem_pio2+0x8b8>
  101840:	1afffff2 	bne	101810 <__kernel_rem_pio2+0x848>
  101844:	e59dc008 	ldr	ip, [sp, #8]
  101848:	e28d1f42 	add	r1, sp, #264	; 0x108
  10184c:	e1c100d0 	ldrd	r0, [r1]
  101850:	e28d3e11 	add	r3, sp, #272	; 0x110
  101854:	e1c320d0 	ldrd	r2, [r3]
  101858:	edcc0b04 	vstr	d16, [ip, #16]
  10185c:	e1cc00f0 	strd	r0, [ip]
  101860:	e1cc20f8 	strd	r2, [ip, #8]
  101864:	eaffff85 	b	101680 <__kernel_rem_pio2+0x6b8>
  101868:	eefd7be0 	vcvt.s32.f64	s15, d16
  10186c:	e28d1f92 	add	r1, sp, #584	; 0x248
  101870:	e081110b 	add	r1, r1, fp, lsl #2
  101874:	e1a0a00b 	mov	sl, fp
  101878:	ed417a8c 	vstr	s15, [r1, #-560]	; 0xfffffdd0
  10187c:	eafffef3 	b	101450 <__kernel_rem_pio2+0x488>
	...

00101888 <__kernel_sin>:
  101888:	e24dd008 	sub	sp, sp, #8
  10188c:	ec410b30 	vmov	d16, r0, r1
  101890:	e1cd00f0 	strd	r0, [sp]
  101894:	ec432b33 	vmov	d19, r2, r3
  101898:	e59d1004 	ldr	r1, [sp, #4]
  10189c:	e3c11102 	bic	r1, r1, #-2147483648	; 0x80000000
  1018a0:	e35105f9 	cmp	r1, #1044381696	; 0x3e400000
  1018a4:	aa000003 	bge	1018b8 <__kernel_sin+0x30>
  1018a8:	eefd7be0 	vcvt.s32.f64	s15, d16
  1018ac:	ee173a90 	vmov	r3, s15
  1018b0:	e3530000 	cmp	r3, #0
  1018b4:	0a000014 	beq	10190c <__kernel_sin+0x84>
  1018b8:	ee601ba0 	vmul.f64	d17, d16, d16
  1018bc:	e59d3008 	ldr	r3, [sp, #8]
  1018c0:	eddf7b1a 	vldr	d23, [pc, #104]	; 101930 <__kernel_sin+0xa8>
  1018c4:	e3530000 	cmp	r3, #0
  1018c8:	eddf6b1a 	vldr	d22, [pc, #104]	; 101938 <__kernel_sin+0xb0>
  1018cc:	eddf5b1b 	vldr	d21, [pc, #108]	; 101940 <__kernel_sin+0xb8>
  1018d0:	eddf4b1c 	vldr	d20, [pc, #112]	; 101948 <__kernel_sin+0xc0>
  1018d4:	eddf2b1d 	vldr	d18, [pc, #116]	; 101950 <__kernel_sin+0xc8>
  1018d8:	ee516ba7 	vnmls.f64	d22, d17, d23
  1018dc:	ee465ba1 	vmla.f64	d21, d22, d17
  1018e0:	ee554ba1 	vnmls.f64	d20, d21, d17
  1018e4:	ee615ba0 	vmul.f64	d21, d17, d16
  1018e8:	ee442ba1 	vmla.f64	d18, d20, d17
  1018ec:	0a000009 	beq	101918 <__kernel_sin+0x90>
  1018f0:	eddf4b18 	vldr	d20, [pc, #96]	; 101958 <__kernel_sin+0xd0>
  1018f4:	ee652ba2 	vmul.f64	d18, d21, d18
  1018f8:	eef66b00 	vmov.f64	d22, #96	; 0x60
  1018fc:	ee532ba6 	vnmls.f64	d18, d19, d22
  101900:	ee523ba1 	vnmls.f64	d19, d18, d17
  101904:	ee453ba4 	vmla.f64	d19, d21, d20
  101908:	ee700be3 	vsub.f64	d16, d16, d19
  10190c:	ec510b30 	vmov	r0, r1, d16
  101910:	e28dd008 	add	sp, sp, #8
  101914:	e12fff1e 	bx	lr
  101918:	eddf3b0e 	vldr	d19, [pc, #56]	; 101958 <__kernel_sin+0xd0>
  10191c:	ee513ba2 	vnmls.f64	d19, d17, d18
  101920:	ee430ba5 	vmla.f64	d16, d19, d21
  101924:	ec510b30 	vmov	r0, r1, d16
  101928:	e28dd008 	add	sp, sp, #8
  10192c:	e12fff1e 	bx	lr
  101930:	5acfd57c 	bpl	ff4f6f28 <LRemap+0x14f6f19>
  101934:	3de5d93a 	stclcc	9, cr13, [r5, #232]!	; 0xe8
  101938:	8a2b9ceb 	bhi	be8cec <__undef_stack+0xacf44c>
  10193c:	3e5ae5e6 	cdpcc	5, 5, cr14, cr10, cr6, {7}
  101940:	57b1fe7d 			; <UNDEFINED> instruction: 0x57b1fe7d
  101944:	3ec71de3 	cdpcc	13, 12, cr1, cr7, cr3, {7}
  101948:	19c161d5 	stmibne	r1, {r0, r2, r4, r6, r7, r8, sp, lr}^
  10194c:	3f2a01a0 	svccc	0x002a01a0
  101950:	1110f8a6 	tstne	r0, r6, lsr #17
  101954:	3f811111 	svccc	0x00811111
  101958:	55555549 	ldrbpl	r5, [r5, #-1353]	; 0xfffffab7
  10195c:	3fc55555 	svccc	0x00c55555

00101960 <fabs>:
  101960:	e3c13102 	bic	r3, r1, #-2147483648	; 0x80000000
  101964:	e1a01003 	mov	r1, r3
  101968:	e12fff1e 	bx	lr
  10196c:	00000000 	andeq	r0, r0, r0

00101970 <floor>:
  101970:	e92d4070 	push	{r4, r5, r6, lr}
  101974:	e7ea4a51 	ubfx	r4, r1, #20, #11
  101978:	e2443fff 	sub	r3, r4, #1020	; 0x3fc
  10197c:	e1a02001 	mov	r2, r1
  101980:	e2433003 	sub	r3, r3, #3
  101984:	e1a0e000 	mov	lr, r0
  101988:	e3530013 	cmp	r3, #19
  10198c:	e1a05001 	mov	r5, r1
  101990:	e1a0c000 	mov	ip, r0
  101994:	ca000015 	bgt	1019f0 <floor+0x80>
  101998:	e3530000 	cmp	r3, #0
  10199c:	ba00002b 	blt	101a50 <floor+0xe0>
  1019a0:	e30f4fff 	movw	r4, #65535	; 0xffff
  1019a4:	e340400f 	movt	r4, #15
  1019a8:	e1a04354 	asr	r4, r4, r3
  1019ac:	e0046001 	and	r6, r4, r1
  1019b0:	e196e00e 	orrs	lr, r6, lr
  1019b4:	08bd8070 	popeq	{r4, r5, r6, pc}
  1019b8:	eddf0b40 	vldr	d16, [pc, #256]	; 101ac0 <floor+0x150>
  1019bc:	ec410b31 	vmov	d17, r0, r1
  1019c0:	ee710ba0 	vadd.f64	d16, d17, d16
  1019c4:	eef50bc0 	vcmpe.f64	d16, #0.0
  1019c8:	eef1fa10 	vmrs	APSR_nzcv, fpscr
  1019cc:	da000004 	ble	1019e4 <floor+0x74>
  1019d0:	e3510000 	cmp	r1, #0
  1019d4:	e3a0c000 	mov	ip, #0
  1019d8:	b3a02601 	movlt	r2, #1048576	; 0x100000
  1019dc:	b0815352 	addlt	r5, r1, r2, asr r3
  1019e0:	e1c52004 	bic	r2, r5, r4
  1019e4:	e1a01002 	mov	r1, r2
  1019e8:	e1a0000c 	mov	r0, ip
  1019ec:	e8bd8070 	pop	{r4, r5, r6, pc}
  1019f0:	e3530033 	cmp	r3, #51	; 0x33
  1019f4:	da000004 	ble	101a0c <floor+0x9c>
  1019f8:	e3530b01 	cmp	r3, #1024	; 0x400
  1019fc:	0c410b30 	vmoveq	d16, r0, r1
  101a00:	0e700ba0 	vaddeq.f64	d16, d16, d16
  101a04:	0c510b30 	vmoveq	r0, r1, d16
  101a08:	e8bd8070 	pop	{r4, r5, r6, pc}
  101a0c:	e2446e41 	sub	r6, r4, #1040	; 0x410
  101a10:	e3e0e000 	mvn	lr, #0
  101a14:	e2466003 	sub	r6, r6, #3
  101a18:	e1a0e63e 	lsr	lr, lr, r6
  101a1c:	e11e0000 	tst	lr, r0
  101a20:	08bd8070 	popeq	{r4, r5, r6, pc}
  101a24:	eddf0b25 	vldr	d16, [pc, #148]	; 101ac0 <floor+0x150>
  101a28:	ec410b31 	vmov	d17, r0, r1
  101a2c:	ee710ba0 	vadd.f64	d16, d17, d16
  101a30:	eef50bc0 	vcmpe.f64	d16, #0.0
  101a34:	eef1fa10 	vmrs	APSR_nzcv, fpscr
  101a38:	daffffe9 	ble	1019e4 <floor+0x74>
  101a3c:	e3510000 	cmp	r1, #0
  101a40:	ba000013 	blt	101a94 <floor+0x124>
  101a44:	e1a02005 	mov	r2, r5
  101a48:	e1ccc00e 	bic	ip, ip, lr
  101a4c:	eaffffe4 	b	1019e4 <floor+0x74>
  101a50:	eddf0b1a 	vldr	d16, [pc, #104]	; 101ac0 <floor+0x150>
  101a54:	ec410b31 	vmov	d17, r0, r1
  101a58:	ee710ba0 	vadd.f64	d16, d17, d16
  101a5c:	eef50bc0 	vcmpe.f64	d16, #0.0
  101a60:	eef1fa10 	vmrs	APSR_nzcv, fpscr
  101a64:	daffffde 	ble	1019e4 <floor+0x74>
  101a68:	e3510000 	cmp	r1, #0
  101a6c:	a3a0c000 	movge	ip, #0
  101a70:	a1a0200c 	movge	r2, ip
  101a74:	aaffffda 	bge	1019e4 <floor+0x74>
  101a78:	e3c21102 	bic	r1, r2, #-2147483648	; 0x80000000
  101a7c:	e3a03000 	mov	r3, #0
  101a80:	e191100c 	orrs	r1, r1, ip
  101a84:	e34b3ff0 	movt	r3, #49136	; 0xbff0
  101a88:	e3a0c000 	mov	ip, #0
  101a8c:	11a02003 	movne	r2, r3
  101a90:	eaffffd3 	b	1019e4 <floor+0x74>
  101a94:	e3530014 	cmp	r3, #20
  101a98:	02815001 	addeq	r5, r1, #1
  101a9c:	0affffe8 	beq	101a44 <floor+0xd4>
  101aa0:	e2644e43 	rsb	r4, r4, #1072	; 0x430
  101aa4:	e3a03001 	mov	r3, #1
  101aa8:	e2844003 	add	r4, r4, #3
  101aac:	e0804413 	add	r4, r0, r3, lsl r4
  101ab0:	e1500004 	cmp	r0, r4
  101ab4:	80855003 	addhi	r5, r5, r3
  101ab8:	e1a0c004 	mov	ip, r4
  101abc:	eaffffe0 	b	101a44 <floor+0xd4>
  101ac0:	8800759c 	stmdahi	r0, {r2, r3, r4, r7, r8, sl, ip, sp, lr}
  101ac4:	7e37e43c 	mrcvc	4, 1, lr, cr7, cr12, {1}

00101ac8 <scalbn>:
  101ac8:	e52de004 	push	{lr}		; (str lr, [sp, #-4]!)
  101acc:	ed2d8b02 	vpush	{d8}
  101ad0:	e24dd00c 	sub	sp, sp, #12
  101ad4:	e1cd00f0 	strd	r0, [sp]
  101ad8:	e59d3004 	ldr	r3, [sp, #4]
  101adc:	e59d0000 	ldr	r0, [sp]
  101ae0:	e7ea1a53 	ubfx	r1, r3, #20, #11
  101ae4:	e3510000 	cmp	r1, #0
  101ae8:	1a00001c 	bne	101b60 <scalbn+0x98>
  101aec:	e3c33102 	bic	r3, r3, #-2147483648	; 0x80000000
  101af0:	e1933000 	orrs	r3, r3, r0
  101af4:	0a000022 	beq	101b84 <scalbn+0xbc>
  101af8:	eddd1b00 	vldr	d17, [sp]
  101afc:	e3033cb0 	movw	r3, #15536	; 0x3cb0
  101b00:	e34f3fff 	movt	r3, #65535	; 0xffff
  101b04:	e1520003 	cmp	r2, r3
  101b08:	eddf0b44 	vldr	d16, [pc, #272]	; 101c20 <scalbn+0x158>
  101b0c:	ee610ba0 	vmul.f64	d16, d17, d16
  101b10:	edcd0b00 	vstr	d16, [sp]
  101b14:	e59d3004 	ldr	r3, [sp, #4]
  101b18:	a7ea1a53 	ubfxge	r1, r3, #20, #11
  101b1c:	a2411036 	subge	r1, r1, #54	; 0x36
  101b20:	ba00001c 	blt	101b98 <scalbn+0xd0>
  101b24:	e0810002 	add	r0, r1, r2
  101b28:	e30017fe 	movw	r1, #2046	; 0x7fe
  101b2c:	e1500001 	cmp	r0, r1
  101b30:	ca000024 	bgt	101bc8 <scalbn+0x100>
  101b34:	e3500000 	cmp	r0, #0
  101b38:	da00001d 	ble	101bb4 <scalbn+0xec>
  101b3c:	e3c3147f 	bic	r1, r3, #2130706432	; 0x7f000000
  101b40:	e1cd20d0 	ldrd	r2, [sp]
  101b44:	e3c1160f 	bic	r1, r1, #15728640	; 0xf00000
  101b48:	e1813a00 	orr	r3, r1, r0, lsl #20
  101b4c:	ec432b30 	vmov	d16, r2, r3
  101b50:	ec510b30 	vmov	r0, r1, d16
  101b54:	e28dd00c 	add	sp, sp, #12
  101b58:	ecbd8b02 	vpop	{d8}
  101b5c:	e49df004 	pop	{pc}		; (ldr pc, [sp], #4)
  101b60:	e30007ff 	movw	r0, #2047	; 0x7ff
  101b64:	e1510000 	cmp	r1, r0
  101b68:	1affffed 	bne	101b24 <scalbn+0x5c>
  101b6c:	eddd0b00 	vldr	d16, [sp]
  101b70:	ee700ba0 	vadd.f64	d16, d16, d16
  101b74:	ec510b30 	vmov	r0, r1, d16
  101b78:	e28dd00c 	add	sp, sp, #12
  101b7c:	ecbd8b02 	vpop	{d8}
  101b80:	e49df004 	pop	{pc}		; (ldr pc, [sp], #4)
  101b84:	eddd0b00 	vldr	d16, [sp]
  101b88:	ec510b30 	vmov	r0, r1, d16
  101b8c:	e28dd00c 	add	sp, sp, #12
  101b90:	ecbd8b02 	vpop	{d8}
  101b94:	e49df004 	pop	{pc}		; (ldr pc, [sp], #4)
  101b98:	eddd1b00 	vldr	d17, [sp]
  101b9c:	eddf0b21 	vldr	d16, [pc, #132]	; 101c28 <scalbn+0x160>
  101ba0:	ee610ba0 	vmul.f64	d16, d17, d16
  101ba4:	ec510b30 	vmov	r0, r1, d16
  101ba8:	e28dd00c 	add	sp, sp, #12
  101bac:	ecbd8b02 	vpop	{d8}
  101bb0:	e49df004 	pop	{pc}		; (ldr pc, [sp], #4)
  101bb4:	e3700035 	cmn	r0, #53	; 0x35
  101bb8:	aa00000c 	bge	101bf0 <scalbn+0x128>
  101bbc:	e30c3350 	movw	r3, #50000	; 0xc350
  101bc0:	e1520003 	cmp	r2, r3
  101bc4:	da000012 	ble	101c14 <scalbn+0x14c>
  101bc8:	ed9f8b18 	vldr	d8, [pc, #96]	; 101c30 <scalbn+0x168>
  101bcc:	e1cd20d0 	ldrd	r2, [sp]
  101bd0:	ec510b18 	vmov	r0, r1, d8
  101bd4:	eb000019 	bl	101c40 <copysign>
  101bd8:	ec410b30 	vmov	d16, r0, r1
  101bdc:	ee600b88 	vmul.f64	d16, d16, d8
  101be0:	ec510b30 	vmov	r0, r1, d16
  101be4:	e28dd00c 	add	sp, sp, #12
  101be8:	ecbd8b02 	vpop	{d8}
  101bec:	e49df004 	pop	{pc}		; (ldr pc, [sp], #4)
  101bf0:	e3c3147f 	bic	r1, r3, #2130706432	; 0x7f000000
  101bf4:	e2800036 	add	r0, r0, #54	; 0x36
  101bf8:	e1cd20d0 	ldrd	r2, [sp]
  101bfc:	e3c1160f 	bic	r1, r1, #15728640	; 0xf00000
  101c00:	e1813a00 	orr	r3, r1, r0, lsl #20
  101c04:	eddf1b0b 	vldr	d17, [pc, #44]	; 101c38 <scalbn+0x170>
  101c08:	ec432b30 	vmov	d16, r2, r3
  101c0c:	ee600ba1 	vmul.f64	d16, d16, d17
  101c10:	eaffffce 	b	101b50 <scalbn+0x88>
  101c14:	ed9f8b03 	vldr	d8, [pc, #12]	; 101c28 <scalbn+0x160>
  101c18:	eaffffeb 	b	101bcc <scalbn+0x104>
  101c1c:	e320f000 	nop	{0}
  101c20:	00000000 	andeq	r0, r0, r0
  101c24:	43500000 	cmpmi	r0, #0
  101c28:	c2f8f359 	rscsgt	pc, r8, #1677721601	; 0x64000001
  101c2c:	01a56e1f 			; <UNDEFINED> instruction: 0x01a56e1f
  101c30:	8800759c 	stmdahi	r0, {r2, r3, r4, r7, r8, sl, ip, sp, lr}
  101c34:	7e37e43c 	mrcvc	4, 1, lr, cr7, cr12, {1}
  101c38:	00000000 	andeq	r0, r0, r0
  101c3c:	3c900000 	ldccc	0, cr0, [r0], {0}

00101c40 <copysign>:
  101c40:	e2033102 	and	r3, r3, #-2147483648	; 0x80000000
  101c44:	e3c12102 	bic	r2, r1, #-2147483648	; 0x80000000
  101c48:	e1831002 	orr	r1, r3, r2
  101c4c:	e12fff1e 	bx	lr

00101c50 <FIQInterrupt>:
  101c50:	e30c378c 	movw	r3, #51084	; 0xc78c
  101c54:	e3403010 	movt	r3, #16
  101c58:	e5932030 	ldr	r2, [r3, #48]	; 0x30
  101c5c:	e5930034 	ldr	r0, [r3, #52]	; 0x34
  101c60:	e12fff12 	bx	r2

00101c64 <IRQInterrupt>:
  101c64:	e30c378c 	movw	r3, #51084	; 0xc78c
  101c68:	e3403010 	movt	r3, #16
  101c6c:	e5932028 	ldr	r2, [r3, #40]	; 0x28
  101c70:	e593002c 	ldr	r0, [r3, #44]	; 0x2c
  101c74:	e12fff12 	bx	r2

00101c78 <SWInterrupt>:
  101c78:	e30c378c 	movw	r3, #51084	; 0xc78c
  101c7c:	e3403010 	movt	r3, #16
  101c80:	e5932010 	ldr	r2, [r3, #16]
  101c84:	e5930014 	ldr	r0, [r3, #20]
  101c88:	e12fff12 	bx	r2

00101c8c <DataAbortInterrupt>:
  101c8c:	e30c378c 	movw	r3, #51084	; 0xc78c
  101c90:	e3403010 	movt	r3, #16
  101c94:	e5932020 	ldr	r2, [r3, #32]
  101c98:	e5930024 	ldr	r0, [r3, #36]	; 0x24
  101c9c:	e12fff12 	bx	r2

00101ca0 <PrefetchAbortInterrupt>:
  101ca0:	e30c378c 	movw	r3, #51084	; 0xc78c
  101ca4:	e3403010 	movt	r3, #16
  101ca8:	e5932018 	ldr	r2, [r3, #24]
  101cac:	e593001c 	ldr	r0, [r3, #28]
  101cb0:	e12fff12 	bx	r2
  101cb4:	00114014 	andseq	r4, r1, r4, lsl r0
  101cb8:	00114014 	andseq	r4, r1, r4, lsl r0
  101cbc:	00114014 	andseq	r4, r1, r4, lsl r0
  101cc0:	00114094 	mulseq	r1, r4, r0
  101cc4:	001180a0 	andseq	r8, r1, r0, lsr #1

00101cc8 <_start>:
  101cc8:	eb0002f3 	bl	10289c <__cpu_init>
  101ccc:	e3a00000 	mov	r0, #0
  101cd0:	e51f1024 	ldr	r1, [pc, #-36]	; 101cb4 <PrefetchAbortInterrupt+0x14>
  101cd4:	e51f2024 	ldr	r2, [pc, #-36]	; 101cb8 <PrefetchAbortInterrupt+0x18>
  101cd8:	e1510002 	cmp	r1, r2
  101cdc:	aa000001 	bge	101ce8 <_start+0x20>
  101ce0:	e4810004 	str	r0, [r1], #4
  101ce4:	eafffffb 	b	101cd8 <_start+0x10>
  101ce8:	e51f1034 	ldr	r1, [pc, #-52]	; 101cbc <PrefetchAbortInterrupt+0x1c>
  101cec:	e51f2034 	ldr	r2, [pc, #-52]	; 101cc0 <PrefetchAbortInterrupt+0x20>
  101cf0:	e1510002 	cmp	r1, r2
  101cf4:	aa000001 	bge	101d00 <_start+0x38>
  101cf8:	e4810004 	str	r0, [r1], #4
  101cfc:	eafffffb 	b	101cf0 <_start+0x28>
  101d00:	e51fd044 	ldr	sp, [pc, #-68]	; 101cc4 <PrefetchAbortInterrupt+0x24>
  101d04:	e3a00000 	mov	r0, #0
  101d08:	e3a01000 	mov	r1, #0
  101d0c:	eb0002ba 	bl	1027fc <XTime_SetTime>
  101d10:	eb0003ad 	bl	102bcc <__libc_init_array>
  101d14:	e3a00000 	mov	r0, #0
  101d18:	e3a01000 	mov	r1, #0
  101d1c:	eb00290e 	bl	10c15c <main>
  101d20:	eb00037e 	bl	102b20 <__libc_fini_array>
  101d24:	eb000370 	bl	102aec <exit>
  101d28:	eafffffe 	b	101d28 <_start+0x60>

00101d2c <Xil_DCacheInvalidateLine>:
  101d2c:	e92d4038 	push	{r3, r4, r5, lr}
  101d30:	e1a04000 	mov	r4, r0
  101d34:	e10f5000 	mrs	r5, CPSR
  101d38:	e38530c0 	orr	r3, r5, #192	; 0xc0
  101d3c:	e129f003 	msr	CPSR_fc, r3
  101d40:	e3020770 	movw	r0, #10096	; 0x2770
  101d44:	e1a01004 	mov	r1, r4
  101d48:	e34f08f0 	movt	r0, #63728	; 0xf8f0
  101d4c:	eb000284 	bl	102764 <Xil_Out32>
  101d50:	f57ff04f 	dsb	sy
  101d54:	e3a03000 	mov	r3, #0
  101d58:	ee403f10 	mcr	15, 2, r3, cr0, cr0, {0}
  101d5c:	e3c4401f 	bic	r4, r4, #31
  101d60:	ee074f36 	mcr	15, 0, r4, cr7, cr6, {1}
  101d64:	f57ff04f 	dsb	sy
  101d68:	e129f005 	msr	CPSR_fc, r5
  101d6c:	e8bd8038 	pop	{r3, r4, r5, pc}

00101d70 <Xil_DCacheFlushRange>:
  101d70:	e10f2000 	mrs	r2, CPSR
  101d74:	e38230c0 	orr	r3, r2, #192	; 0xc0
  101d78:	e129f003 	msr	CPSR_fc, r3
  101d7c:	e3510000 	cmp	r1, #0
  101d80:	0a00000b 	beq	101db4 <Xil_DCacheFlushRange+0x44>
  101d84:	e0811000 	add	r1, r1, r0
  101d88:	e3c0001f 	bic	r0, r0, #31
  101d8c:	e1510000 	cmp	r1, r0
  101d90:	9a000007 	bls	101db4 <Xil_DCacheFlushRange+0x44>
  101d94:	e3a03a02 	mov	r3, #8192	; 0x2000
  101d98:	e34f38f0 	movt	r3, #63728	; 0xf8f0
  101d9c:	ee070f3e 	mcr	15, 0, r0, cr7, cr14, {1}
  101da0:	e58307f0 	str	r0, [r3, #2032]	; 0x7f0
  101da4:	f57ff04f 	dsb	sy
  101da8:	e2800020 	add	r0, r0, #32
  101dac:	e1510000 	cmp	r1, r0
  101db0:	8afffff9 	bhi	101d9c <Xil_DCacheFlushRange+0x2c>
  101db4:	f57ff04f 	dsb	sy
  101db8:	e129f002 	msr	CPSR_fc, r2
  101dbc:	e12fff1e 	bx	lr

00101dc0 <Xil_DCacheStoreLine>:
  101dc0:	e92d4010 	push	{r4, lr}
  101dc4:	e1a01000 	mov	r1, r0
  101dc8:	e10f4000 	mrs	r4, CPSR
  101dcc:	e38430c0 	orr	r3, r4, #192	; 0xc0
  101dd0:	e129f003 	msr	CPSR_fc, r3
  101dd4:	e3a03000 	mov	r3, #0
  101dd8:	ee403f10 	mcr	15, 2, r3, cr0, cr0, {0}
  101ddc:	e3c0301f 	bic	r3, r0, #31
  101de0:	ee073f3a 	mcr	15, 0, r3, cr7, cr10, {1}
  101de4:	f57ff04f 	dsb	sy
  101de8:	e30207b0 	movw	r0, #10160	; 0x27b0
  101dec:	e34f08f0 	movt	r0, #63728	; 0xf8f0
  101df0:	eb00025b 	bl	102764 <Xil_Out32>
  101df4:	f57ff04f 	dsb	sy
  101df8:	e129f004 	msr	CPSR_fc, r4
  101dfc:	e8bd8010 	pop	{r4, pc}

00101e00 <Xil_ICacheInvalidateLine>:
  101e00:	e92d4038 	push	{r3, r4, r5, lr}
  101e04:	e1a04000 	mov	r4, r0
  101e08:	e10f5000 	mrs	r5, CPSR
  101e0c:	e38530c0 	orr	r3, r5, #192	; 0xc0
  101e10:	e129f003 	msr	CPSR_fc, r3
  101e14:	e3020770 	movw	r0, #10096	; 0x2770
  101e18:	e1a01004 	mov	r1, r4
  101e1c:	e34f08f0 	movt	r0, #63728	; 0xf8f0
  101e20:	eb00024f 	bl	102764 <Xil_Out32>
  101e24:	f57ff04f 	dsb	sy
  101e28:	e3a03001 	mov	r3, #1
  101e2c:	ee403f10 	mcr	15, 2, r3, cr0, cr0, {0}
  101e30:	e3c4401f 	bic	r4, r4, #31
  101e34:	ee074f35 	mcr	15, 0, r4, cr7, cr5, {1}
  101e38:	f57ff04f 	dsb	sy
  101e3c:	e129f005 	msr	CPSR_fc, r5
  101e40:	e8bd8038 	pop	{r3, r4, r5, pc}

00101e44 <Xil_ICacheInvalidateRange>:
  101e44:	e10f2000 	mrs	r2, CPSR
  101e48:	e38230c0 	orr	r3, r2, #192	; 0xc0
  101e4c:	e129f003 	msr	CPSR_fc, r3
  101e50:	e3510000 	cmp	r1, #0
  101e54:	0a00000d 	beq	101e90 <Xil_ICacheInvalidateRange+0x4c>
  101e58:	e0811000 	add	r1, r1, r0
  101e5c:	e3a03001 	mov	r3, #1
  101e60:	e3c0001f 	bic	r0, r0, #31
  101e64:	ee403f10 	mcr	15, 2, r3, cr0, cr0, {0}
  101e68:	e1510000 	cmp	r1, r0
  101e6c:	9a000007 	bls	101e90 <Xil_ICacheInvalidateRange+0x4c>
  101e70:	e3a03a02 	mov	r3, #8192	; 0x2000
  101e74:	e34f38f0 	movt	r3, #63728	; 0xf8f0
  101e78:	e5830770 	str	r0, [r3, #1904]	; 0x770
  101e7c:	f57ff04f 	dsb	sy
  101e80:	ee070f35 	mcr	15, 0, r0, cr7, cr5, {1}
  101e84:	e2800020 	add	r0, r0, #32
  101e88:	e1510000 	cmp	r1, r0
  101e8c:	8afffff9 	bhi	101e78 <Xil_ICacheInvalidateRange+0x34>
  101e90:	f57ff04f 	dsb	sy
  101e94:	e129f002 	msr	CPSR_fc, r2
  101e98:	e12fff1e 	bx	lr

00101e9c <Xil_L1DCacheInvalidate>:
  101e9c:	e92d40f8 	push	{r3, r4, r5, r6, r7, lr}
  101ea0:	e10f6000 	mrs	r6, CPSR
  101ea4:	e38630c0 	orr	r3, r6, #192	; 0xc0
  101ea8:	e129f003 	msr	CPSR_fc, r3
  101eac:	e30600a0 	movw	r0, #24736	; 0x60a0
  101eb0:	e30810a0 	movw	r1, #32928	; 0x80a0
  101eb4:	e3400011 	movt	r0, #17
  101eb8:	e3401011 	movt	r1, #17
  101ebc:	e0601001 	rsb	r1, r0, r1
  101ec0:	e3a07000 	mov	r7, #0
  101ec4:	ebffffa9 	bl	101d70 <Xil_DCacheFlushRange>
  101ec8:	ee407f10 	mcr	15, 2, r7, cr0, cr0, {0}
  101ecc:	ee304f10 	mrc	15, 1, r4, cr0, cr0, {0}
  101ed0:	e7e806d4 	ubfx	r0, r4, #13, #9
  101ed4:	e7e651d4 	ubfx	r5, r4, #3, #7
  101ed8:	e2800001 	add	r0, r0, #1
  101edc:	e2855001 	add	r5, r5, #1
  101ee0:	e1a00380 	lsl	r0, r0, #7
  101ee4:	e1a01005 	mov	r1, r5
  101ee8:	eb00027b 	bl	1028dc <__aeabi_uidiv>
  101eec:	e2043007 	and	r3, r4, #7
  101ef0:	e2833004 	add	r3, r3, #4
  101ef4:	e3a01001 	mov	r1, #1
  101ef8:	e1a01311 	lsl	r1, r1, r3
  101efc:	e1a04007 	mov	r4, r7
  101f00:	e1a00330 	lsr	r0, r0, r3
  101f04:	e3500000 	cmp	r0, #0
  101f08:	e1a0ef04 	lsl	lr, r4, #30
  101f0c:	13a03000 	movne	r3, #0
  101f10:	11a02003 	movne	r2, r3
  101f14:	0a000005 	beq	101f30 <Xil_L1DCacheInvalidate+0x94>
  101f18:	e182c00e 	orr	ip, r2, lr
  101f1c:	ee07cf56 	mcr	15, 0, ip, cr7, cr6, {2}
  101f20:	e2833001 	add	r3, r3, #1
  101f24:	e0822001 	add	r2, r2, r1
  101f28:	e1530000 	cmp	r3, r0
  101f2c:	1afffff9 	bne	101f18 <Xil_L1DCacheInvalidate+0x7c>
  101f30:	e2844001 	add	r4, r4, #1
  101f34:	e1550004 	cmp	r5, r4
  101f38:	1afffff1 	bne	101f04 <Xil_L1DCacheInvalidate+0x68>
  101f3c:	f57ff04f 	dsb	sy
  101f40:	e129f006 	msr	CPSR_fc, r6
  101f44:	e8bd80f8 	pop	{r3, r4, r5, r6, r7, pc}

00101f48 <Xil_L1DCacheEnable>:
  101f48:	e92d4010 	push	{r4, lr}
  101f4c:	ee114f10 	mrc	15, 0, r4, cr1, cr0, {0}
  101f50:	e3140004 	tst	r4, #4
  101f54:	18bd8010 	popne	{r4, pc}
  101f58:	ebffffcf 	bl	101e9c <Xil_L1DCacheInvalidate>
  101f5c:	e3844004 	orr	r4, r4, #4
  101f60:	ee014f10 	mcr	15, 0, r4, cr1, cr0, {0}
  101f64:	e8bd8010 	pop	{r4, pc}

00101f68 <Xil_L1DCacheInvalidateLine>:
  101f68:	e3a03000 	mov	r3, #0
  101f6c:	ee403f10 	mcr	15, 2, r3, cr0, cr0, {0}
  101f70:	e3c0001f 	bic	r0, r0, #31
  101f74:	ee070f36 	mcr	15, 0, r0, cr7, cr6, {1}
  101f78:	f57ff04f 	dsb	sy
  101f7c:	e12fff1e 	bx	lr

00101f80 <Xil_L1DCacheInvalidateRange>:
  101f80:	e10f3000 	mrs	r3, CPSR
  101f84:	e38320c0 	orr	r2, r3, #192	; 0xc0
  101f88:	e129f002 	msr	CPSR_fc, r2
  101f8c:	e3510000 	cmp	r1, #0
  101f90:	0a000009 	beq	101fbc <Xil_L1DCacheInvalidateRange+0x3c>
  101f94:	e0811000 	add	r1, r1, r0
  101f98:	e3a02000 	mov	r2, #0
  101f9c:	e3c0001f 	bic	r0, r0, #31
  101fa0:	ee402f10 	mcr	15, 2, r2, cr0, cr0, {0}
  101fa4:	e1510000 	cmp	r1, r0
  101fa8:	9a000003 	bls	101fbc <Xil_L1DCacheInvalidateRange+0x3c>
  101fac:	ee070f36 	mcr	15, 0, r0, cr7, cr6, {1}
  101fb0:	e2800020 	add	r0, r0, #32
  101fb4:	e1510000 	cmp	r1, r0
  101fb8:	8afffffb 	bhi	101fac <Xil_L1DCacheInvalidateRange+0x2c>
  101fbc:	f57ff04f 	dsb	sy
  101fc0:	e129f003 	msr	CPSR_fc, r3
  101fc4:	e12fff1e 	bx	lr

00101fc8 <Xil_L1DCacheFlush>:
  101fc8:	e92d40f8 	push	{r3, r4, r5, r6, r7, lr}
  101fcc:	e10f6000 	mrs	r6, CPSR
  101fd0:	e38630c0 	orr	r3, r6, #192	; 0xc0
  101fd4:	e129f003 	msr	CPSR_fc, r3
  101fd8:	e3a07000 	mov	r7, #0
  101fdc:	ee407f10 	mcr	15, 2, r7, cr0, cr0, {0}
  101fe0:	ee304f10 	mrc	15, 1, r4, cr0, cr0, {0}
  101fe4:	e7e806d4 	ubfx	r0, r4, #13, #9
  101fe8:	e7e651d4 	ubfx	r5, r4, #3, #7
  101fec:	e2800001 	add	r0, r0, #1
  101ff0:	e2855001 	add	r5, r5, #1
  101ff4:	e1a00380 	lsl	r0, r0, #7
  101ff8:	e1a01005 	mov	r1, r5
  101ffc:	eb000236 	bl	1028dc <__aeabi_uidiv>
  102000:	e2043007 	and	r3, r4, #7
  102004:	e2833004 	add	r3, r3, #4
  102008:	e3a01001 	mov	r1, #1
  10200c:	e1a01311 	lsl	r1, r1, r3
  102010:	e1a04007 	mov	r4, r7
  102014:	e1a00330 	lsr	r0, r0, r3
  102018:	e3500000 	cmp	r0, #0
  10201c:	e1a0ef04 	lsl	lr, r4, #30
  102020:	13a03000 	movne	r3, #0
  102024:	11a02003 	movne	r2, r3
  102028:	0a000005 	beq	102044 <Xil_L1DCacheFlush+0x7c>
  10202c:	e182c00e 	orr	ip, r2, lr
  102030:	ee07cf5e 	mcr	15, 0, ip, cr7, cr14, {2}
  102034:	e2833001 	add	r3, r3, #1
  102038:	e0822001 	add	r2, r2, r1
  10203c:	e1530000 	cmp	r3, r0
  102040:	1afffff9 	bne	10202c <Xil_L1DCacheFlush+0x64>
  102044:	e2844001 	add	r4, r4, #1
  102048:	e1550004 	cmp	r5, r4
  10204c:	1afffff1 	bne	102018 <Xil_L1DCacheFlush+0x50>
  102050:	f57ff04f 	dsb	sy
  102054:	e129f006 	msr	CPSR_fc, r6
  102058:	e8bd80f8 	pop	{r3, r4, r5, r6, r7, pc}

0010205c <Xil_L1DCacheDisable>:
  10205c:	e92d4008 	push	{r3, lr}
  102060:	ebffffd8 	bl	101fc8 <Xil_L1DCacheFlush>
  102064:	ee113f10 	mrc	15, 0, r3, cr1, cr0, {0}
  102068:	e3c33004 	bic	r3, r3, #4
  10206c:	ee013f10 	mcr	15, 0, r3, cr1, cr0, {0}
  102070:	e8bd8008 	pop	{r3, pc}

00102074 <Xil_L1DCacheFlushLine>:
  102074:	e3a03000 	mov	r3, #0
  102078:	ee403f10 	mcr	15, 2, r3, cr0, cr0, {0}
  10207c:	e3c0001f 	bic	r0, r0, #31
  102080:	ee070f3e 	mcr	15, 0, r0, cr7, cr14, {1}
  102084:	f57ff04f 	dsb	sy
  102088:	e12fff1e 	bx	lr

0010208c <Xil_L1DCacheFlushRange>:
  10208c:	e10f3000 	mrs	r3, CPSR
  102090:	e38320c0 	orr	r2, r3, #192	; 0xc0
  102094:	e129f002 	msr	CPSR_fc, r2
  102098:	e3510000 	cmp	r1, #0
  10209c:	0a000009 	beq	1020c8 <Xil_L1DCacheFlushRange+0x3c>
  1020a0:	e0811000 	add	r1, r1, r0
  1020a4:	e3a02000 	mov	r2, #0
  1020a8:	e3c0001f 	bic	r0, r0, #31
  1020ac:	ee402f10 	mcr	15, 2, r2, cr0, cr0, {0}
  1020b0:	e1510000 	cmp	r1, r0
  1020b4:	9a000003 	bls	1020c8 <Xil_L1DCacheFlushRange+0x3c>
  1020b8:	ee070f3e 	mcr	15, 0, r0, cr7, cr14, {1}
  1020bc:	e2800020 	add	r0, r0, #32
  1020c0:	e1510000 	cmp	r1, r0
  1020c4:	8afffffb 	bhi	1020b8 <Xil_L1DCacheFlushRange+0x2c>
  1020c8:	f57ff04f 	dsb	sy
  1020cc:	e129f003 	msr	CPSR_fc, r3
  1020d0:	e12fff1e 	bx	lr

001020d4 <Xil_L1DCacheStoreLine>:
  1020d4:	e3a03000 	mov	r3, #0
  1020d8:	ee403f10 	mcr	15, 2, r3, cr0, cr0, {0}
  1020dc:	e3c0001f 	bic	r0, r0, #31
  1020e0:	ee070f3a 	mcr	15, 0, r0, cr7, cr10, {1}
  1020e4:	f57ff04f 	dsb	sy
  1020e8:	e12fff1e 	bx	lr

001020ec <Xil_L1ICacheEnable>:
  1020ec:	ee113f10 	mrc	15, 0, r3, cr1, cr0, {0}
  1020f0:	e2132a01 	ands	r2, r3, #4096	; 0x1000
  1020f4:	112fff1e 	bxne	lr
  1020f8:	ee072f15 	mcr	15, 0, r2, cr7, cr5, {0}
  1020fc:	e3833a01 	orr	r3, r3, #4096	; 0x1000
  102100:	ee013f10 	mcr	15, 0, r3, cr1, cr0, {0}
  102104:	e12fff1e 	bx	lr

00102108 <Xil_L1ICacheDisable>:
  102108:	f57ff04f 	dsb	sy
  10210c:	e3a03000 	mov	r3, #0
  102110:	ee073f15 	mcr	15, 0, r3, cr7, cr5, {0}
  102114:	ee113f10 	mrc	15, 0, r3, cr1, cr0, {0}
  102118:	e3c33a01 	bic	r3, r3, #4096	; 0x1000
  10211c:	ee013f10 	mcr	15, 0, r3, cr1, cr0, {0}
  102120:	e12fff1e 	bx	lr

00102124 <Xil_L1ICacheInvalidate>:
  102124:	e3a03001 	mov	r3, #1
  102128:	ee403f10 	mcr	15, 2, r3, cr0, cr0, {0}
  10212c:	e3a03000 	mov	r3, #0
  102130:	ee073f15 	mcr	15, 0, r3, cr7, cr5, {0}
  102134:	f57ff04f 	dsb	sy
  102138:	e12fff1e 	bx	lr

0010213c <Xil_L1ICacheInvalidateLine>:
  10213c:	e3a03001 	mov	r3, #1
  102140:	ee403f10 	mcr	15, 2, r3, cr0, cr0, {0}
  102144:	e3c0001f 	bic	r0, r0, #31
  102148:	ee070f35 	mcr	15, 0, r0, cr7, cr5, {1}
  10214c:	f57ff04f 	dsb	sy
  102150:	e12fff1e 	bx	lr

00102154 <Xil_L1ICacheInvalidateRange>:
  102154:	e10f3000 	mrs	r3, CPSR
  102158:	e38320c0 	orr	r2, r3, #192	; 0xc0
  10215c:	e129f002 	msr	CPSR_fc, r2
  102160:	e3510000 	cmp	r1, #0
  102164:	0a000009 	beq	102190 <Xil_L1ICacheInvalidateRange+0x3c>
  102168:	e0811000 	add	r1, r1, r0
  10216c:	e3a02001 	mov	r2, #1
  102170:	e3c0001f 	bic	r0, r0, #31
  102174:	ee402f10 	mcr	15, 2, r2, cr0, cr0, {0}
  102178:	e1510000 	cmp	r1, r0
  10217c:	9a000003 	bls	102190 <Xil_L1ICacheInvalidateRange+0x3c>
  102180:	ee070f35 	mcr	15, 0, r0, cr7, cr5, {1}
  102184:	e2800020 	add	r0, r0, #32
  102188:	e1510000 	cmp	r1, r0
  10218c:	8afffffb 	bhi	102180 <Xil_L1ICacheInvalidateRange+0x2c>
  102190:	f57ff04f 	dsb	sy
  102194:	e129f003 	msr	CPSR_fc, r3
  102198:	e12fff1e 	bx	lr

0010219c <Xil_L2CacheInvalidate>:
  10219c:	e302077c 	movw	r0, #10108	; 0x277c
  1021a0:	e30f1fff 	movw	r1, #65535	; 0xffff
  1021a4:	e92d4008 	push	{r3, lr}
  1021a8:	e34f08f0 	movt	r0, #63728	; 0xf8f0
  1021ac:	eb00016c 	bl	102764 <Xil_Out32>
  1021b0:	e302077c 	movw	r0, #10108	; 0x277c
  1021b4:	e34f08f0 	movt	r0, #63728	; 0xf8f0
  1021b8:	eb000163 	bl	10274c <Xil_In32>
  1021bc:	e6ff1070 	uxth	r1, r0
  1021c0:	e3510000 	cmp	r1, #0
  1021c4:	1afffff9 	bne	1021b0 <Xil_L2CacheInvalidate+0x14>
  1021c8:	e3a00d9d 	mov	r0, #10048	; 0x2740
  1021cc:	e34f08f0 	movt	r0, #63728	; 0xf8f0
  1021d0:	eb000163 	bl	102764 <Xil_Out32>
  1021d4:	f57ff04f 	dsb	sy
  1021d8:	e8bd8008 	pop	{r3, pc}

001021dc <Xil_DCacheInvalidate>:
  1021dc:	e92d4010 	push	{r4, lr}
  1021e0:	e10f4000 	mrs	r4, CPSR
  1021e4:	e38430c0 	orr	r3, r4, #192	; 0xc0
  1021e8:	e129f003 	msr	CPSR_fc, r3
  1021ec:	ebffffea 	bl	10219c <Xil_L2CacheInvalidate>
  1021f0:	ebffff29 	bl	101e9c <Xil_L1DCacheInvalidate>
  1021f4:	e129f004 	msr	CPSR_fc, r4
  1021f8:	e8bd8010 	pop	{r4, pc}

001021fc <Xil_ICacheInvalidate>:
  1021fc:	e92d4010 	push	{r4, lr}
  102200:	e10f4000 	mrs	r4, CPSR
  102204:	e38430c0 	orr	r3, r4, #192	; 0xc0
  102208:	e129f003 	msr	CPSR_fc, r3
  10220c:	ebffffe2 	bl	10219c <Xil_L2CacheInvalidate>
  102210:	e3a03001 	mov	r3, #1
  102214:	ee403f10 	mcr	15, 2, r3, cr0, cr0, {0}
  102218:	e3a03000 	mov	r3, #0
  10221c:	ee073f15 	mcr	15, 0, r3, cr7, cr5, {0}
  102220:	f57ff04f 	dsb	sy
  102224:	e129f004 	msr	CPSR_fc, r4
  102228:	e8bd8010 	pop	{r4, pc}

0010222c <Xil_L2CacheEnable>:
  10222c:	e3a00c21 	mov	r0, #8448	; 0x2100
  102230:	e92d4010 	push	{r4, lr}
  102234:	e34f08f0 	movt	r0, #63728	; 0xf8f0
  102238:	eb000143 	bl	10274c <Xil_In32>
  10223c:	e2104001 	ands	r4, r0, #1
  102240:	18bd8010 	popne	{r4, pc}
  102244:	e3020104 	movw	r0, #8452	; 0x2104
  102248:	e34f08f0 	movt	r0, #63728	; 0xf8f0
  10224c:	eb00013e 	bl	10274c <Xil_In32>
  102250:	e3c0180e 	bic	r1, r0, #917504	; 0xe0000
  102254:	e3020104 	movw	r0, #8452	; 0x2104
  102258:	e3811472 	orr	r1, r1, #1912602624	; 0x72000000
  10225c:	e34f08f0 	movt	r0, #63728	; 0xf8f0
  102260:	e3811836 	orr	r1, r1, #3538944	; 0x360000
  102264:	eb00013e 	bl	102764 <Xil_Out32>
  102268:	e3020108 	movw	r0, #8456	; 0x2108
  10226c:	e34f08f0 	movt	r0, #63728	; 0xf8f0
  102270:	e3001111 	movw	r1, #273	; 0x111
  102274:	eb00013a 	bl	102764 <Xil_Out32>
  102278:	e302010c 	movw	r0, #8460	; 0x210c
  10227c:	e3001121 	movw	r1, #289	; 0x121
  102280:	e34f08f0 	movt	r0, #63728	; 0xf8f0
  102284:	eb000136 	bl	102764 <Xil_Out32>
  102288:	e302021c 	movw	r0, #8732	; 0x221c
  10228c:	e34f08f0 	movt	r0, #63728	; 0xf8f0
  102290:	eb00012d 	bl	10274c <Xil_In32>
  102294:	e1a01000 	mov	r1, r0
  102298:	e3020220 	movw	r0, #8736	; 0x2220
  10229c:	e34f08f0 	movt	r0, #63728	; 0xf8f0
  1022a0:	eb00012f 	bl	102764 <Xil_Out32>
  1022a4:	ebffffbc 	bl	10219c <Xil_L2CacheInvalidate>
  1022a8:	e3a00c21 	mov	r0, #8448	; 0x2100
  1022ac:	e34f08f0 	movt	r0, #63728	; 0xf8f0
  1022b0:	eb000125 	bl	10274c <Xil_In32>
  1022b4:	e3801001 	orr	r1, r0, #1
  1022b8:	e3a00c21 	mov	r0, #8448	; 0x2100
  1022bc:	e34f08f0 	movt	r0, #63728	; 0xf8f0
  1022c0:	eb000127 	bl	102764 <Xil_Out32>
  1022c4:	e3a00d9d 	mov	r0, #10048	; 0x2740
  1022c8:	e1a01004 	mov	r1, r4
  1022cc:	e34f08f0 	movt	r0, #63728	; 0xf8f0
  1022d0:	eb000123 	bl	102764 <Xil_Out32>
  1022d4:	f57ff04f 	dsb	sy
  1022d8:	e8bd8010 	pop	{r4, pc}

001022dc <Xil_DCacheEnable>:
  1022dc:	e92d4008 	push	{r3, lr}
  1022e0:	ebffff18 	bl	101f48 <Xil_L1DCacheEnable>
  1022e4:	e8bd4008 	pop	{r3, lr}
  1022e8:	eaffffcf 	b	10222c <Xil_L2CacheEnable>

001022ec <Xil_ICacheEnable>:
  1022ec:	ee113f10 	mrc	15, 0, r3, cr1, cr0, {0}
  1022f0:	e2132a01 	ands	r2, r3, #4096	; 0x1000
  1022f4:	1a000002 	bne	102304 <Xil_ICacheEnable+0x18>
  1022f8:	ee072f15 	mcr	15, 0, r2, cr7, cr5, {0}
  1022fc:	e3833a01 	orr	r3, r3, #4096	; 0x1000
  102300:	ee013f10 	mcr	15, 0, r3, cr1, cr0, {0}
  102304:	eaffffc8 	b	10222c <Xil_L2CacheEnable>

00102308 <Xil_L2CacheInvalidateLine>:
  102308:	e1a01000 	mov	r1, r0
  10230c:	e3020770 	movw	r0, #10096	; 0x2770
  102310:	e92d4008 	push	{r3, lr}
  102314:	e34f08f0 	movt	r0, #63728	; 0xf8f0
  102318:	eb000111 	bl	102764 <Xil_Out32>
  10231c:	f57ff04f 	dsb	sy
  102320:	e8bd8008 	pop	{r3, pc}

00102324 <Xil_L2CacheInvalidateRange>:
  102324:	e92d4070 	push	{r4, r5, r6, lr}
  102328:	e10f6000 	mrs	r6, CPSR
  10232c:	e38630c0 	orr	r3, r6, #192	; 0xc0
  102330:	e129f003 	msr	CPSR_fc, r3
  102334:	e3510000 	cmp	r1, #0
  102338:	1a000002 	bne	102348 <Xil_L2CacheInvalidateRange+0x24>
  10233c:	f57ff04f 	dsb	sy
  102340:	e129f006 	msr	CPSR_fc, r6
  102344:	e8bd8070 	pop	{r4, r5, r6, pc}
  102348:	e1a04000 	mov	r4, r0
  10234c:	e3a00dbd 	mov	r0, #12096	; 0x2f40
  102350:	e0815004 	add	r5, r1, r4
  102354:	e34f08f0 	movt	r0, #63728	; 0xf8f0
  102358:	e3a01003 	mov	r1, #3
  10235c:	e3c4401f 	bic	r4, r4, #31
  102360:	eb0000ff 	bl	102764 <Xil_Out32>
  102364:	e1550004 	cmp	r5, r4
  102368:	83a03a02 	movhi	r3, #8192	; 0x2000
  10236c:	834f38f0 	movthi	r3, #63728	; 0xf8f0
  102370:	9a000003 	bls	102384 <Xil_L2CacheInvalidateRange+0x60>
  102374:	e5834770 	str	r4, [r3, #1904]	; 0x770
  102378:	e2844020 	add	r4, r4, #32
  10237c:	e1550004 	cmp	r5, r4
  102380:	8afffffb 	bhi	102374 <Xil_L2CacheInvalidateRange+0x50>
  102384:	e3a00dbd 	mov	r0, #12096	; 0x2f40
  102388:	e3a01000 	mov	r1, #0
  10238c:	e34f08f0 	movt	r0, #63728	; 0xf8f0
  102390:	eb0000f3 	bl	102764 <Xil_Out32>
  102394:	eaffffe8 	b	10233c <Xil_L2CacheInvalidateRange+0x18>

00102398 <Xil_L2CacheFlush>:
  102398:	e3a00dbd 	mov	r0, #12096	; 0x2f40
  10239c:	e3a01003 	mov	r1, #3
  1023a0:	e34f08f0 	movt	r0, #63728	; 0xf8f0
  1023a4:	e92d4010 	push	{r4, lr}
  1023a8:	eb0000ed 	bl	102764 <Xil_Out32>
  1023ac:	e30207fc 	movw	r0, #10236	; 0x27fc
  1023b0:	e34f08f0 	movt	r0, #63728	; 0xf8f0
  1023b4:	e30f1fff 	movw	r1, #65535	; 0xffff
  1023b8:	eb0000e9 	bl	102764 <Xil_Out32>
  1023bc:	e30207fc 	movw	r0, #10236	; 0x27fc
  1023c0:	e34f08f0 	movt	r0, #63728	; 0xf8f0
  1023c4:	eb0000e0 	bl	10274c <Xil_In32>
  1023c8:	e6ff4070 	uxth	r4, r0
  1023cc:	e3540000 	cmp	r4, #0
  1023d0:	1afffff9 	bne	1023bc <Xil_L2CacheFlush+0x24>
  1023d4:	e3a00d9d 	mov	r0, #10048	; 0x2740
  1023d8:	e1a01004 	mov	r1, r4
  1023dc:	e34f08f0 	movt	r0, #63728	; 0xf8f0
  1023e0:	eb0000df 	bl	102764 <Xil_Out32>
  1023e4:	e3a00dbd 	mov	r0, #12096	; 0x2f40
  1023e8:	e1a01004 	mov	r1, r4
  1023ec:	e34f08f0 	movt	r0, #63728	; 0xf8f0
  1023f0:	eb0000db 	bl	102764 <Xil_Out32>
  1023f4:	f57ff04f 	dsb	sy
  1023f8:	e8bd8010 	pop	{r4, pc}

001023fc <Xil_DCacheFlush>:
  1023fc:	e92d4010 	push	{r4, lr}
  102400:	e10f4000 	mrs	r4, CPSR
  102404:	e38430c0 	orr	r3, r4, #192	; 0xc0
  102408:	e129f003 	msr	CPSR_fc, r3
  10240c:	ebfffeed 	bl	101fc8 <Xil_L1DCacheFlush>
  102410:	ebffffe0 	bl	102398 <Xil_L2CacheFlush>
  102414:	e129f004 	msr	CPSR_fc, r4
  102418:	e8bd8010 	pop	{r4, pc}

0010241c <Xil_L2CacheDisable>:
  10241c:	e3a00c21 	mov	r0, #8448	; 0x2100
  102420:	e92d4008 	push	{r3, lr}
  102424:	e34f08f0 	movt	r0, #63728	; 0xf8f0
  102428:	eb0000c7 	bl	10274c <Xil_In32>
  10242c:	e3100001 	tst	r0, #1
  102430:	08bd8008 	popeq	{r3, pc}
  102434:	ebffffd7 	bl	102398 <Xil_L2CacheFlush>
  102438:	e3a00c21 	mov	r0, #8448	; 0x2100
  10243c:	e34f08f0 	movt	r0, #63728	; 0xf8f0
  102440:	eb0000c1 	bl	10274c <Xil_In32>
  102444:	e3c01001 	bic	r1, r0, #1
  102448:	e3a00c21 	mov	r0, #8448	; 0x2100
  10244c:	e34f08f0 	movt	r0, #63728	; 0xf8f0
  102450:	eb0000c3 	bl	102764 <Xil_Out32>
  102454:	f57ff04f 	dsb	sy
  102458:	e8bd8008 	pop	{r3, pc}

0010245c <Xil_DCacheDisable>:
  10245c:	e92d4008 	push	{r3, lr}
  102460:	ebffffed 	bl	10241c <Xil_L2CacheDisable>
  102464:	ebfffed7 	bl	101fc8 <Xil_L1DCacheFlush>
  102468:	ee113f10 	mrc	15, 0, r3, cr1, cr0, {0}
  10246c:	e3c33004 	bic	r3, r3, #4
  102470:	ee013f10 	mcr	15, 0, r3, cr1, cr0, {0}
  102474:	e8bd8008 	pop	{r3, pc}

00102478 <Xil_ICacheDisable>:
  102478:	e92d4008 	push	{r3, lr}
  10247c:	ebffffe6 	bl	10241c <Xil_L2CacheDisable>
  102480:	f57ff04f 	dsb	sy
  102484:	e3a03000 	mov	r3, #0
  102488:	ee073f15 	mcr	15, 0, r3, cr7, cr5, {0}
  10248c:	ee113f10 	mrc	15, 0, r3, cr1, cr0, {0}
  102490:	e3c33a01 	bic	r3, r3, #4096	; 0x1000
  102494:	ee013f10 	mcr	15, 0, r3, cr1, cr0, {0}
  102498:	e8bd8008 	pop	{r3, pc}

0010249c <Xil_L2CacheFlushLine>:
  10249c:	e92d4010 	push	{r4, lr}
  1024a0:	e1a04000 	mov	r4, r0
  1024a4:	e30207b0 	movw	r0, #10160	; 0x27b0
  1024a8:	e1a01004 	mov	r1, r4
  1024ac:	e34f08f0 	movt	r0, #63728	; 0xf8f0
  1024b0:	eb0000ab 	bl	102764 <Xil_Out32>
  1024b4:	e3020770 	movw	r0, #10096	; 0x2770
  1024b8:	e1a01004 	mov	r1, r4
  1024bc:	e34f08f0 	movt	r0, #63728	; 0xf8f0
  1024c0:	eb0000a7 	bl	102764 <Xil_Out32>
  1024c4:	f57ff04f 	dsb	sy
  1024c8:	e8bd8010 	pop	{r4, pc}

001024cc <Xil_DCacheInvalidateRange>:
  1024cc:	e92d41f0 	push	{r4, r5, r6, r7, r8, lr}
  1024d0:	e10f6000 	mrs	r6, CPSR
  1024d4:	e38630c0 	orr	r3, r6, #192	; 0xc0
  1024d8:	e129f003 	msr	CPSR_fc, r3
  1024dc:	e3510000 	cmp	r1, #0
  1024e0:	0a000011 	beq	10252c <Xil_DCacheInvalidateRange+0x60>
  1024e4:	e1a04000 	mov	r4, r0
  1024e8:	e0805001 	add	r5, r0, r1
  1024ec:	e3a07000 	mov	r7, #0
  1024f0:	ee407f10 	mcr	15, 2, r7, cr0, cr0, {0}
  1024f4:	e310001f 	tst	r0, #31
  1024f8:	1a000022 	bne	102588 <Xil_DCacheInvalidateRange+0xbc>
  1024fc:	e315001f 	tst	r5, #31
  102500:	1a00000c 	bne	102538 <Xil_DCacheInvalidateRange+0x6c>
  102504:	e1540005 	cmp	r4, r5
  102508:	2a000007 	bcs	10252c <Xil_DCacheInvalidateRange+0x60>
  10250c:	e3a03a02 	mov	r3, #8192	; 0x2000
  102510:	e34f38f0 	movt	r3, #63728	; 0xf8f0
  102514:	e5834770 	str	r4, [r3, #1904]	; 0x770
  102518:	f57ff04f 	dsb	sy
  10251c:	ee074f36 	mcr	15, 0, r4, cr7, cr6, {1}
  102520:	e2844020 	add	r4, r4, #32
  102524:	e1540005 	cmp	r4, r5
  102528:	3afffff9 	bcc	102514 <Xil_DCacheInvalidateRange+0x48>
  10252c:	f57ff04f 	dsb	sy
  102530:	e129f006 	msr	CPSR_fc, r6
  102534:	e8bd81f0 	pop	{r4, r5, r6, r7, r8, pc}
  102538:	e3c5501f 	bic	r5, r5, #31
  10253c:	e3a07000 	mov	r7, #0
  102540:	ee407f10 	mcr	15, 2, r7, cr0, cr0, {0}
  102544:	ee075f3e 	mcr	15, 0, r5, cr7, cr14, {1}
  102548:	f57ff04f 	dsb	sy
  10254c:	e3a00dbd 	mov	r0, #12096	; 0x2f40
  102550:	e3a01003 	mov	r1, #3
  102554:	e34f08f0 	movt	r0, #63728	; 0xf8f0
  102558:	eb000081 	bl	102764 <Xil_Out32>
  10255c:	e1a00005 	mov	r0, r5
  102560:	ebffffcd 	bl	10249c <Xil_L2CacheFlushLine>
  102564:	e3a00dbd 	mov	r0, #12096	; 0x2f40
  102568:	e1a01007 	mov	r1, r7
  10256c:	e34f08f0 	movt	r0, #63728	; 0xf8f0
  102570:	eb00007b 	bl	102764 <Xil_Out32>
  102574:	e3a00d9d 	mov	r0, #10048	; 0x2740
  102578:	e1a01007 	mov	r1, r7
  10257c:	e34f08f0 	movt	r0, #63728	; 0xf8f0
  102580:	eb000077 	bl	102764 <Xil_Out32>
  102584:	eaffffde 	b	102504 <Xil_DCacheInvalidateRange+0x38>
  102588:	e3c0801f 	bic	r8, r0, #31
  10258c:	ee407f10 	mcr	15, 2, r7, cr0, cr0, {0}
  102590:	ee078f3e 	mcr	15, 0, r8, cr7, cr14, {1}
  102594:	f57ff04f 	dsb	sy
  102598:	e3a00dbd 	mov	r0, #12096	; 0x2f40
  10259c:	e3a01003 	mov	r1, #3
  1025a0:	e34f08f0 	movt	r0, #63728	; 0xf8f0
  1025a4:	e2884020 	add	r4, r8, #32
  1025a8:	eb00006d 	bl	102764 <Xil_Out32>
  1025ac:	e1a00008 	mov	r0, r8
  1025b0:	ebffffb9 	bl	10249c <Xil_L2CacheFlushLine>
  1025b4:	e3a00dbd 	mov	r0, #12096	; 0x2f40
  1025b8:	e1a01007 	mov	r1, r7
  1025bc:	e34f08f0 	movt	r0, #63728	; 0xf8f0
  1025c0:	eb000067 	bl	102764 <Xil_Out32>
  1025c4:	e3a00d9d 	mov	r0, #10048	; 0x2740
  1025c8:	e1a01007 	mov	r1, r7
  1025cc:	e34f08f0 	movt	r0, #63728	; 0xf8f0
  1025d0:	eb000063 	bl	102764 <Xil_Out32>
  1025d4:	e315001f 	tst	r5, #31
  1025d8:	0affffc9 	beq	102504 <Xil_DCacheInvalidateRange+0x38>
  1025dc:	eaffffd5 	b	102538 <Xil_DCacheInvalidateRange+0x6c>

001025e0 <Xil_DCacheFlushLine>:
  1025e0:	e92d40f8 	push	{r3, r4, r5, r6, r7, lr}
  1025e4:	e1a07000 	mov	r7, r0
  1025e8:	e10f6000 	mrs	r6, CPSR
  1025ec:	e38630c0 	orr	r3, r6, #192	; 0xc0
  1025f0:	e129f003 	msr	CPSR_fc, r3
  1025f4:	e3a04000 	mov	r4, #0
  1025f8:	ee404f10 	mcr	15, 2, r4, cr0, cr0, {0}
  1025fc:	e3c0301f 	bic	r3, r0, #31
  102600:	ee073f3e 	mcr	15, 0, r3, cr7, cr14, {1}
  102604:	f57ff04f 	dsb	sy
  102608:	e3a05dbd 	mov	r5, #12096	; 0x2f40
  10260c:	e3a01003 	mov	r1, #3
  102610:	e34f58f0 	movt	r5, #63728	; 0xf8f0
  102614:	e1a00005 	mov	r0, r5
  102618:	eb000051 	bl	102764 <Xil_Out32>
  10261c:	e1a00007 	mov	r0, r7
  102620:	ebffff9d 	bl	10249c <Xil_L2CacheFlushLine>
  102624:	e1a00005 	mov	r0, r5
  102628:	e1a01004 	mov	r1, r4
  10262c:	eb00004c 	bl	102764 <Xil_Out32>
  102630:	e3a00d9d 	mov	r0, #10048	; 0x2740
  102634:	e1a01004 	mov	r1, r4
  102638:	e34f08f0 	movt	r0, #63728	; 0xf8f0
  10263c:	eb000048 	bl	102764 <Xil_Out32>
  102640:	e129f006 	msr	CPSR_fc, r6
  102644:	e8bd80f8 	pop	{r3, r4, r5, r6, r7, pc}

00102648 <Xil_L2CacheFlushRange>:
  102648:	e92d40f8 	push	{r3, r4, r5, r6, r7, lr}
  10264c:	e10f7000 	mrs	r7, CPSR
  102650:	e38730c0 	orr	r3, r7, #192	; 0xc0
  102654:	e129f003 	msr	CPSR_fc, r3
  102658:	e3510000 	cmp	r1, #0
  10265c:	1a000002 	bne	10266c <Xil_L2CacheFlushRange+0x24>
  102660:	f57ff04f 	dsb	sy
  102664:	e129f007 	msr	CPSR_fc, r7
  102668:	e8bd80f8 	pop	{r3, r4, r5, r6, r7, pc}
  10266c:	e1a04000 	mov	r4, r0
  102670:	e3a00dbd 	mov	r0, #12096	; 0x2f40
  102674:	e0815004 	add	r5, r1, r4
  102678:	e34f08f0 	movt	r0, #63728	; 0xf8f0
  10267c:	e3c4401f 	bic	r4, r4, #31
  102680:	e3a01003 	mov	r1, #3
  102684:	eb000036 	bl	102764 <Xil_Out32>
  102688:	e1550004 	cmp	r5, r4
  10268c:	83a06a02 	movhi	r6, #8192	; 0x2000
  102690:	834f68f0 	movthi	r6, #63728	; 0xf8f0
  102694:	9a000007 	bls	1026b8 <Xil_L2CacheFlushRange+0x70>
  102698:	e3a00d9d 	mov	r0, #10048	; 0x2740
  10269c:	e58647f0 	str	r4, [r6, #2032]	; 0x7f0
  1026a0:	e34f08f0 	movt	r0, #63728	; 0xf8f0
  1026a4:	e2844020 	add	r4, r4, #32
  1026a8:	e3a01000 	mov	r1, #0
  1026ac:	eb00002c 	bl	102764 <Xil_Out32>
  1026b0:	e1550004 	cmp	r5, r4
  1026b4:	8afffff7 	bhi	102698 <Xil_L2CacheFlushRange+0x50>
  1026b8:	e3a00dbd 	mov	r0, #12096	; 0x2f40
  1026bc:	e3a01000 	mov	r1, #0
  1026c0:	e34f08f0 	movt	r0, #63728	; 0xf8f0
  1026c4:	eb000026 	bl	102764 <Xil_Out32>
  1026c8:	eaffffe4 	b	102660 <Xil_L2CacheFlushRange+0x18>

001026cc <Xil_L2CacheStoreLine>:
  1026cc:	e1a01000 	mov	r1, r0
  1026d0:	e30207b0 	movw	r0, #10160	; 0x27b0
  1026d4:	e92d4008 	push	{r3, lr}
  1026d8:	e34f08f0 	movt	r0, #63728	; 0xf8f0
  1026dc:	eb000020 	bl	102764 <Xil_Out32>
  1026e0:	f57ff04f 	dsb	sy
  1026e4:	e8bd8008 	pop	{r3, pc}

001026e8 <Xil_ExceptionNullHandler>:
  1026e8:	eafffffe 	b	1026e8 <Xil_ExceptionNullHandler>

001026ec <Xil_DataAbortHandler>:
  1026ec:	ee153f10 	mrc	15, 0, r3, cr5, cr0, {0}
  1026f0:	eafffffe 	b	1026f0 <Xil_DataAbortHandler+0x4>

001026f4 <Xil_PrefetchAbortHandler>:
  1026f4:	ee153f30 	mrc	15, 0, r3, cr5, cr0, {1}
  1026f8:	eafffffe 	b	1026f8 <Xil_PrefetchAbortHandler+0x4>

001026fc <Xil_ExceptionInit>:
  1026fc:	e12fff1e 	bx	lr

00102700 <Xil_ExceptionRegisterHandler>:
  102700:	e30c378c 	movw	r3, #51084	; 0xc78c
  102704:	e3403010 	movt	r3, #16
  102708:	e083c180 	add	ip, r3, r0, lsl #3
  10270c:	e7831180 	str	r1, [r3, r0, lsl #3]
  102710:	e58c2004 	str	r2, [ip, #4]
  102714:	e12fff1e 	bx	lr

00102718 <Xil_ExceptionRemoveHandler>:
  102718:	e30c378c 	movw	r3, #51084	; 0xc78c
  10271c:	e30226e8 	movw	r2, #9960	; 0x26e8
  102720:	e3403010 	movt	r3, #16
  102724:	e0831180 	add	r1, r3, r0, lsl #3
  102728:	e3a0c000 	mov	ip, #0
  10272c:	e3402010 	movt	r2, #16
  102730:	e581c004 	str	ip, [r1, #4]
  102734:	e7832180 	str	r2, [r3, r0, lsl #3]
  102738:	e12fff1e 	bx	lr

0010273c <Xil_In8>:
  10273c:	e5d00000 	ldrb	r0, [r0]
  102740:	e12fff1e 	bx	lr

00102744 <Xil_In16>:
  102744:	e1d000b0 	ldrh	r0, [r0]
  102748:	e12fff1e 	bx	lr

0010274c <Xil_In32>:
  10274c:	e5900000 	ldr	r0, [r0]
  102750:	e12fff1e 	bx	lr

00102754 <Xil_Out8>:
  102754:	e5c01000 	strb	r1, [r0]
  102758:	e12fff1e 	bx	lr

0010275c <Xil_Out16>:
  10275c:	e1c010b0 	strh	r1, [r0]
  102760:	e12fff1e 	bx	lr

00102764 <Xil_Out32>:
  102764:	e5801000 	str	r1, [r0]
  102768:	e12fff1e 	bx	lr

0010276c <Xil_In16BE>:
  10276c:	e1d000b0 	ldrh	r0, [r0]
  102770:	e6bf0fb0 	rev16	r0, r0
  102774:	e6ff0070 	uxth	r0, r0
  102778:	e12fff1e 	bx	lr

0010277c <Xil_In32BE>:
  10277c:	e5903000 	ldr	r3, [r0]
  102780:	e6ff0073 	uxth	r0, r3
  102784:	e1a03823 	lsr	r3, r3, #16
  102788:	e6bf3fb3 	rev16	r3, r3
  10278c:	e1a02420 	lsr	r2, r0, #8
  102790:	e1820400 	orr	r0, r2, r0, lsl #8
  102794:	e6ff3073 	uxth	r3, r3
  102798:	e1830800 	orr	r0, r3, r0, lsl #16
  10279c:	e12fff1e 	bx	lr

001027a0 <Xil_Out16BE>:
  1027a0:	e6bf1fb1 	rev16	r1, r1
  1027a4:	e1c010b0 	strh	r1, [r0]
  1027a8:	e12fff1e 	bx	lr

001027ac <Xil_Out32BE>:
  1027ac:	e6ff2071 	uxth	r2, r1
  1027b0:	e1a01821 	lsr	r1, r1, #16
  1027b4:	e6bf1fb1 	rev16	r1, r1
  1027b8:	e1a03422 	lsr	r3, r2, #8
  1027bc:	e1833402 	orr	r3, r3, r2, lsl #8
  1027c0:	e6ff1071 	uxth	r1, r1
  1027c4:	e1811803 	orr	r1, r1, r3, lsl #16
  1027c8:	e5801000 	str	r1, [r0]
  1027cc:	e12fff1e 	bx	lr

001027d0 <Xil_EndianSwap16>:
  1027d0:	e6bf0fb0 	rev16	r0, r0
  1027d4:	e6ff0070 	uxth	r0, r0
  1027d8:	e12fff1e 	bx	lr

001027dc <Xil_EndianSwap32>:
  1027dc:	e6ff2070 	uxth	r2, r0
  1027e0:	e1a00820 	lsr	r0, r0, #16
  1027e4:	e6bf0fb0 	rev16	r0, r0
  1027e8:	e1a03422 	lsr	r3, r2, #8
  1027ec:	e1833402 	orr	r3, r3, r2, lsl #8
  1027f0:	e6ff0070 	uxth	r0, r0
  1027f4:	e1800803 	orr	r0, r0, r3, lsl #16
  1027f8:	e12fff1e 	bx	lr

001027fc <XTime_SetTime>:
  1027fc:	e92d4070 	push	{r4, r5, r6, lr}
  102800:	e3a04f82 	mov	r4, #520	; 0x208
  102804:	e34f48f0 	movt	r4, #63728	; 0xf8f0
  102808:	e1a06000 	mov	r6, r0
  10280c:	e1a05001 	mov	r5, r1
  102810:	e1a00004 	mov	r0, r4
  102814:	e3a01000 	mov	r1, #0
  102818:	ebffffd1 	bl	102764 <Xil_Out32>
  10281c:	e3a00c02 	mov	r0, #512	; 0x200
  102820:	e1a01006 	mov	r1, r6
  102824:	e34f08f0 	movt	r0, #63728	; 0xf8f0
  102828:	ebffffcd 	bl	102764 <Xil_Out32>
  10282c:	e3a00f81 	mov	r0, #516	; 0x204
  102830:	e1a01005 	mov	r1, r5
  102834:	e34f08f0 	movt	r0, #63728	; 0xf8f0
  102838:	ebffffc9 	bl	102764 <Xil_Out32>
  10283c:	e1a00004 	mov	r0, r4
  102840:	e3a01001 	mov	r1, #1
  102844:	e8bd4070 	pop	{r4, r5, r6, lr}
  102848:	eaffffc5 	b	102764 <Xil_Out32>

0010284c <XTime_GetTime>:
  10284c:	e92d41f0 	push	{r4, r5, r6, r7, r8, lr}
  102850:	e1a08000 	mov	r8, r0
  102854:	e3a00f81 	mov	r0, #516	; 0x204
  102858:	e34f08f0 	movt	r0, #63728	; 0xf8f0
  10285c:	ebffffba 	bl	10274c <Xil_In32>
  102860:	e1a04000 	mov	r4, r0
  102864:	e3a00c02 	mov	r0, #512	; 0x200
  102868:	e34f08f0 	movt	r0, #63728	; 0xf8f0
  10286c:	ebffffb6 	bl	10274c <Xil_In32>
  102870:	e1a05000 	mov	r5, r0
  102874:	e3a00f81 	mov	r0, #516	; 0x204
  102878:	e34f08f0 	movt	r0, #63728	; 0xf8f0
  10287c:	ebffffb2 	bl	10274c <Xil_In32>
  102880:	e1500004 	cmp	r0, r4
  102884:	1afffff2 	bne	102854 <XTime_GetTime+0x8>
  102888:	e3a06000 	mov	r6, #0
  10288c:	e1a07000 	mov	r7, r0
  102890:	e1866005 	orr	r6, r6, r5
  102894:	e1c860f0 	strd	r6, [r8]
  102898:	e8bd81f0 	pop	{r4, r5, r6, r7, r8, pc}

0010289c <__cpu_init>:
  10289c:	e3a00000 	mov	r0, #0
  1028a0:	ee050f10 	mcr	15, 0, r0, cr5, cr0, {0}
  1028a4:	ee050f30 	mcr	15, 0, r0, cr5, cr0, {1}
  1028a8:	ee060f10 	mcr	15, 0, r0, cr6, cr0, {0}
  1028ac:	ee060f50 	mcr	15, 0, r0, cr6, cr0, {2}
  1028b0:	ee090f5d 	mcr	15, 0, r0, cr9, cr13, {2}
  1028b4:	ee0d0f50 	mcr	15, 0, r0, cr13, cr0, {2}
  1028b8:	ee0d0f70 	mcr	15, 0, r0, cr13, cr0, {3}
  1028bc:	eeaf0f55 	mcr	15, 5, r0, cr15, cr5, {2}
  1028c0:	e3a02102 	mov	r2, #-2147483648	; 0x80000000
  1028c4:	ee092f7c 	mcr	15, 0, r2, cr9, cr12, {3}
  1028c8:	e3a0200d 	mov	r2, #13
  1028cc:	ee092f1c 	mcr	15, 0, r2, cr9, cr12, {0}
  1028d0:	e3a02102 	mov	r2, #-2147483648	; 0x80000000
  1028d4:	ee092f3c 	mcr	15, 0, r2, cr9, cr12, {1}
  1028d8:	e12fff1e 	bx	lr

001028dc <__aeabi_uidiv>:
  1028dc:	e2512001 	subs	r2, r1, #1
  1028e0:	012fff1e 	bxeq	lr
  1028e4:	3a000074 	bcc	102abc <__aeabi_uidiv+0x1e0>
  1028e8:	e1500001 	cmp	r0, r1
  1028ec:	9a00006b 	bls	102aa0 <__aeabi_uidiv+0x1c4>
  1028f0:	e1110002 	tst	r1, r2
  1028f4:	0a00006c 	beq	102aac <__aeabi_uidiv+0x1d0>
  1028f8:	e16f3f10 	clz	r3, r0
  1028fc:	e16f2f11 	clz	r2, r1
  102900:	e0423003 	sub	r3, r2, r3
  102904:	e273301f 	rsbs	r3, r3, #31
  102908:	10833083 	addne	r3, r3, r3, lsl #1
  10290c:	e3a02000 	mov	r2, #0
  102910:	108ff103 	addne	pc, pc, r3, lsl #2
  102914:	e320f000 	nop	{0}
  102918:	e1500f81 	cmp	r0, r1, lsl #31
  10291c:	e0a22002 	adc	r2, r2, r2
  102920:	20400f81 	subcs	r0, r0, r1, lsl #31
  102924:	e1500f01 	cmp	r0, r1, lsl #30
  102928:	e0a22002 	adc	r2, r2, r2
  10292c:	20400f01 	subcs	r0, r0, r1, lsl #30
  102930:	e1500e81 	cmp	r0, r1, lsl #29
  102934:	e0a22002 	adc	r2, r2, r2
  102938:	20400e81 	subcs	r0, r0, r1, lsl #29
  10293c:	e1500e01 	cmp	r0, r1, lsl #28
  102940:	e0a22002 	adc	r2, r2, r2
  102944:	20400e01 	subcs	r0, r0, r1, lsl #28
  102948:	e1500d81 	cmp	r0, r1, lsl #27
  10294c:	e0a22002 	adc	r2, r2, r2
  102950:	20400d81 	subcs	r0, r0, r1, lsl #27
  102954:	e1500d01 	cmp	r0, r1, lsl #26
  102958:	e0a22002 	adc	r2, r2, r2
  10295c:	20400d01 	subcs	r0, r0, r1, lsl #26
  102960:	e1500c81 	cmp	r0, r1, lsl #25
  102964:	e0a22002 	adc	r2, r2, r2
  102968:	20400c81 	subcs	r0, r0, r1, lsl #25
  10296c:	e1500c01 	cmp	r0, r1, lsl #24
  102970:	e0a22002 	adc	r2, r2, r2
  102974:	20400c01 	subcs	r0, r0, r1, lsl #24
  102978:	e1500b81 	cmp	r0, r1, lsl #23
  10297c:	e0a22002 	adc	r2, r2, r2
  102980:	20400b81 	subcs	r0, r0, r1, lsl #23
  102984:	e1500b01 	cmp	r0, r1, lsl #22
  102988:	e0a22002 	adc	r2, r2, r2
  10298c:	20400b01 	subcs	r0, r0, r1, lsl #22
  102990:	e1500a81 	cmp	r0, r1, lsl #21
  102994:	e0a22002 	adc	r2, r2, r2
  102998:	20400a81 	subcs	r0, r0, r1, lsl #21
  10299c:	e1500a01 	cmp	r0, r1, lsl #20
  1029a0:	e0a22002 	adc	r2, r2, r2
  1029a4:	20400a01 	subcs	r0, r0, r1, lsl #20
  1029a8:	e1500981 	cmp	r0, r1, lsl #19
  1029ac:	e0a22002 	adc	r2, r2, r2
  1029b0:	20400981 	subcs	r0, r0, r1, lsl #19
  1029b4:	e1500901 	cmp	r0, r1, lsl #18
  1029b8:	e0a22002 	adc	r2, r2, r2
  1029bc:	20400901 	subcs	r0, r0, r1, lsl #18
  1029c0:	e1500881 	cmp	r0, r1, lsl #17
  1029c4:	e0a22002 	adc	r2, r2, r2
  1029c8:	20400881 	subcs	r0, r0, r1, lsl #17
  1029cc:	e1500801 	cmp	r0, r1, lsl #16
  1029d0:	e0a22002 	adc	r2, r2, r2
  1029d4:	20400801 	subcs	r0, r0, r1, lsl #16
  1029d8:	e1500781 	cmp	r0, r1, lsl #15
  1029dc:	e0a22002 	adc	r2, r2, r2
  1029e0:	20400781 	subcs	r0, r0, r1, lsl #15
  1029e4:	e1500701 	cmp	r0, r1, lsl #14
  1029e8:	e0a22002 	adc	r2, r2, r2
  1029ec:	20400701 	subcs	r0, r0, r1, lsl #14
  1029f0:	e1500681 	cmp	r0, r1, lsl #13
  1029f4:	e0a22002 	adc	r2, r2, r2
  1029f8:	20400681 	subcs	r0, r0, r1, lsl #13
  1029fc:	e1500601 	cmp	r0, r1, lsl #12
  102a00:	e0a22002 	adc	r2, r2, r2
  102a04:	20400601 	subcs	r0, r0, r1, lsl #12
  102a08:	e1500581 	cmp	r0, r1, lsl #11
  102a0c:	e0a22002 	adc	r2, r2, r2
  102a10:	20400581 	subcs	r0, r0, r1, lsl #11
  102a14:	e1500501 	cmp	r0, r1, lsl #10
  102a18:	e0a22002 	adc	r2, r2, r2
  102a1c:	20400501 	subcs	r0, r0, r1, lsl #10
  102a20:	e1500481 	cmp	r0, r1, lsl #9
  102a24:	e0a22002 	adc	r2, r2, r2
  102a28:	20400481 	subcs	r0, r0, r1, lsl #9
  102a2c:	e1500401 	cmp	r0, r1, lsl #8
  102a30:	e0a22002 	adc	r2, r2, r2
  102a34:	20400401 	subcs	r0, r0, r1, lsl #8
  102a38:	e1500381 	cmp	r0, r1, lsl #7
  102a3c:	e0a22002 	adc	r2, r2, r2
  102a40:	20400381 	subcs	r0, r0, r1, lsl #7
  102a44:	e1500301 	cmp	r0, r1, lsl #6
  102a48:	e0a22002 	adc	r2, r2, r2
  102a4c:	20400301 	subcs	r0, r0, r1, lsl #6
  102a50:	e1500281 	cmp	r0, r1, lsl #5
  102a54:	e0a22002 	adc	r2, r2, r2
  102a58:	20400281 	subcs	r0, r0, r1, lsl #5
  102a5c:	e1500201 	cmp	r0, r1, lsl #4
  102a60:	e0a22002 	adc	r2, r2, r2
  102a64:	20400201 	subcs	r0, r0, r1, lsl #4
  102a68:	e1500181 	cmp	r0, r1, lsl #3
  102a6c:	e0a22002 	adc	r2, r2, r2
  102a70:	20400181 	subcs	r0, r0, r1, lsl #3
  102a74:	e1500101 	cmp	r0, r1, lsl #2
  102a78:	e0a22002 	adc	r2, r2, r2
  102a7c:	20400101 	subcs	r0, r0, r1, lsl #2
  102a80:	e1500081 	cmp	r0, r1, lsl #1
  102a84:	e0a22002 	adc	r2, r2, r2
  102a88:	20400081 	subcs	r0, r0, r1, lsl #1
  102a8c:	e1500001 	cmp	r0, r1
  102a90:	e0a22002 	adc	r2, r2, r2
  102a94:	20400001 	subcs	r0, r0, r1
  102a98:	e1a00002 	mov	r0, r2
  102a9c:	e12fff1e 	bx	lr
  102aa0:	03a00001 	moveq	r0, #1
  102aa4:	13a00000 	movne	r0, #0
  102aa8:	e12fff1e 	bx	lr
  102aac:	e16f2f11 	clz	r2, r1
  102ab0:	e262201f 	rsb	r2, r2, #31
  102ab4:	e1a00230 	lsr	r0, r0, r2
  102ab8:	e12fff1e 	bx	lr
  102abc:	e3500000 	cmp	r0, #0
  102ac0:	13e00000 	mvnne	r0, #0
  102ac4:	ea000007 	b	102ae8 <__aeabi_idiv0>

00102ac8 <__aeabi_uidivmod>:
  102ac8:	e3510000 	cmp	r1, #0
  102acc:	0afffffa 	beq	102abc <__aeabi_uidiv+0x1e0>
  102ad0:	e92d4003 	push	{r0, r1, lr}
  102ad4:	ebffff80 	bl	1028dc <__aeabi_uidiv>
  102ad8:	e8bd4006 	pop	{r1, r2, lr}
  102adc:	e0030092 	mul	r3, r2, r0
  102ae0:	e0411003 	sub	r1, r1, r3
  102ae4:	e12fff1e 	bx	lr

00102ae8 <__aeabi_idiv0>:
  102ae8:	e12fff1e 	bx	lr

00102aec <exit>:
  102aec:	e92d4008 	push	{r3, lr}
  102af0:	e3a01000 	mov	r1, #0
  102af4:	e1a04000 	mov	r4, r0
  102af8:	eb000a9e 	bl	105578 <__call_exitprocs>
  102afc:	e30c34f8 	movw	r3, #50424	; 0xc4f8
  102b00:	e3403010 	movt	r3, #16
  102b04:	e5930000 	ldr	r0, [r3]
  102b08:	e590303c 	ldr	r3, [r0, #60]	; 0x3c
  102b0c:	e3530000 	cmp	r3, #0
  102b10:	0a000000 	beq	102b18 <exit+0x2c>
  102b14:	e12fff33 	blx	r3
  102b18:	e1a00004 	mov	r0, r4
  102b1c:	eb00235a 	bl	10b88c <_exit>

00102b20 <__libc_fini_array>:
  102b20:	e92d4038 	push	{r3, r4, r5, lr}
  102b24:	e3043014 	movw	r3, #16404	; 0x4014
  102b28:	e3045010 	movw	r5, #16400	; 0x4010
  102b2c:	e3403011 	movt	r3, #17
  102b30:	e3405011 	movt	r5, #17
  102b34:	e0653003 	rsb	r3, r5, r3
  102b38:	e1b04143 	asrs	r4, r3, #2
  102b3c:	10835005 	addne	r5, r3, r5
  102b40:	0a000004 	beq	102b58 <__libc_fini_array+0x38>
  102b44:	e2444001 	sub	r4, r4, #1
  102b48:	e5353004 	ldr	r3, [r5, #-4]!
  102b4c:	e12fff33 	blx	r3
  102b50:	e3540000 	cmp	r4, #0
  102b54:	1afffffa 	bne	102b44 <__libc_fini_array+0x24>
  102b58:	e8bd4038 	pop	{r3, r4, r5, lr}
  102b5c:	ea0025e8 	b	10c304 <_fini>

00102b60 <_fprintf_r>:
  102b60:	e92d000c 	push	{r2, r3}
  102b64:	e52de004 	push	{lr}		; (str lr, [sp, #-4]!)
  102b68:	e24dd00c 	sub	sp, sp, #12
  102b6c:	e28d3014 	add	r3, sp, #20
  102b70:	e59d2010 	ldr	r2, [sp, #16]
  102b74:	e58d3004 	str	r3, [sp, #4]
  102b78:	eb000242 	bl	103488 <_vfprintf_r>
  102b7c:	e28dd00c 	add	sp, sp, #12
  102b80:	e49de004 	pop	{lr}		; (ldr lr, [sp], #4)
  102b84:	e28dd008 	add	sp, sp, #8
  102b88:	e12fff1e 	bx	lr

00102b8c <fprintf>:
  102b8c:	e92d000e 	push	{r1, r2, r3}
  102b90:	e30c27c8 	movw	r2, #51144	; 0xc7c8
  102b94:	e52de004 	push	{lr}		; (str lr, [sp, #-4]!)
  102b98:	e24dd008 	sub	sp, sp, #8
  102b9c:	e28dc010 	add	ip, sp, #16
  102ba0:	e3402010 	movt	r2, #16
  102ba4:	e1a01000 	mov	r1, r0
  102ba8:	e5920000 	ldr	r0, [r2]
  102bac:	e1a0300c 	mov	r3, ip
  102bb0:	e59d200c 	ldr	r2, [sp, #12]
  102bb4:	e58dc004 	str	ip, [sp, #4]
  102bb8:	eb000232 	bl	103488 <_vfprintf_r>
  102bbc:	e28dd008 	add	sp, sp, #8
  102bc0:	e49de004 	pop	{lr}		; (ldr lr, [sp], #4)
  102bc4:	e28dd00c 	add	sp, sp, #12
  102bc8:	e12fff1e 	bx	lr

00102bcc <__libc_init_array>:
  102bcc:	e92d4070 	push	{r4, r5, r6, lr}
  102bd0:	e3046008 	movw	r6, #16392	; 0x4008
  102bd4:	e3045008 	movw	r5, #16392	; 0x4008
  102bd8:	e3406011 	movt	r6, #17
  102bdc:	e3405011 	movt	r5, #17
  102be0:	e0656006 	rsb	r6, r5, r6
  102be4:	e1b06146 	asrs	r6, r6, #2
  102be8:	13a04000 	movne	r4, #0
  102bec:	0a000004 	beq	102c04 <__libc_init_array+0x38>
  102bf0:	e2844001 	add	r4, r4, #1
  102bf4:	e4953004 	ldr	r3, [r5], #4
  102bf8:	e12fff33 	blx	r3
  102bfc:	e1560004 	cmp	r6, r4
  102c00:	1afffffa 	bne	102bf0 <__libc_init_array+0x24>
  102c04:	e3046010 	movw	r6, #16400	; 0x4010
  102c08:	e3045008 	movw	r5, #16392	; 0x4008
  102c0c:	e3406011 	movt	r6, #17
  102c10:	e3405011 	movt	r5, #17
  102c14:	e0656006 	rsb	r6, r5, r6
  102c18:	eb0025b3 	bl	10c2ec <_init>
  102c1c:	e1b06146 	asrs	r6, r6, #2
  102c20:	0a000006 	beq	102c40 <__libc_init_array+0x74>
  102c24:	e3a04000 	mov	r4, #0
  102c28:	e2844001 	add	r4, r4, #1
  102c2c:	e4953004 	ldr	r3, [r5], #4
  102c30:	e12fff33 	blx	r3
  102c34:	e1560004 	cmp	r6, r4
  102c38:	1afffffa 	bne	102c28 <__libc_init_array+0x5c>
  102c3c:	e8bd8070 	pop	{r4, r5, r6, pc}
  102c40:	e8bd8070 	pop	{r4, r5, r6, pc}

00102c44 <malloc>:
  102c44:	e30c37c8 	movw	r3, #51144	; 0xc7c8
  102c48:	e1a01000 	mov	r1, r0
  102c4c:	e3403010 	movt	r3, #16
  102c50:	e5930000 	ldr	r0, [r3]
  102c54:	ea000004 	b	102c6c <_malloc_r>

00102c58 <free>:
  102c58:	e30c37c8 	movw	r3, #51144	; 0xc7c8
  102c5c:	e1a01000 	mov	r1, r0
  102c60:	e3403010 	movt	r3, #16
  102c64:	e5930000 	ldr	r0, [r3]
  102c68:	ea00115f 	b	1071ec <_free_r>

00102c6c <_malloc_r>:
  102c6c:	e92d4ff0 	push	{r4, r5, r6, r7, r8, r9, sl, fp, lr}
  102c70:	e281400b 	add	r4, r1, #11
  102c74:	e3540016 	cmp	r4, #22
  102c78:	e24dd00c 	sub	sp, sp, #12
  102c7c:	e1a05000 	mov	r5, r0
  102c80:	9a00001f 	bls	102d04 <_malloc_r+0x98>
  102c84:	e3c44007 	bic	r4, r4, #7
  102c88:	e1510004 	cmp	r1, r4
  102c8c:	93a01000 	movls	r1, #0
  102c90:	83a01001 	movhi	r1, #1
  102c94:	e1913fa4 	orrs	r3, r1, r4, lsr #31
  102c98:	1a000085 	bne	102eb4 <_malloc_r+0x248>
  102c9c:	eb0001d0 	bl	1033e4 <__malloc_lock>
  102ca0:	e3540f7e 	cmp	r4, #504	; 0x1f8
  102ca4:	2a00001b 	bcs	102d18 <_malloc_r+0xac>
  102ca8:	e1a011a4 	lsr	r1, r4, #3
  102cac:	e30c6bf8 	movw	r6, #52216	; 0xcbf8
  102cb0:	e3406010 	movt	r6, #16
  102cb4:	e0863181 	add	r3, r6, r1, lsl #3
  102cb8:	e593200c 	ldr	r2, [r3, #12]
  102cbc:	e1520003 	cmp	r2, r3
  102cc0:	0a000117 	beq	103124 <_malloc_r+0x4b8>
  102cc4:	e5923004 	ldr	r3, [r2, #4]
  102cc8:	e2828008 	add	r8, r2, #8
  102ccc:	e592100c 	ldr	r1, [r2, #12]
  102cd0:	e1a00005 	mov	r0, r5
  102cd4:	e3c33003 	bic	r3, r3, #3
  102cd8:	e592c008 	ldr	ip, [r2, #8]
  102cdc:	e0822003 	add	r2, r2, r3
  102ce0:	e5923004 	ldr	r3, [r2, #4]
  102ce4:	e58c100c 	str	r1, [ip, #12]
  102ce8:	e3833001 	orr	r3, r3, #1
  102cec:	e581c008 	str	ip, [r1, #8]
  102cf0:	e5823004 	str	r3, [r2, #4]
  102cf4:	eb0001bb 	bl	1033e8 <__malloc_unlock>
  102cf8:	e1a00008 	mov	r0, r8
  102cfc:	e28dd00c 	add	sp, sp, #12
  102d00:	e8bd8ff0 	pop	{r4, r5, r6, r7, r8, r9, sl, fp, pc}
  102d04:	e3510010 	cmp	r1, #16
  102d08:	8a000069 	bhi	102eb4 <_malloc_r+0x248>
  102d0c:	eb0001b4 	bl	1033e4 <__malloc_lock>
  102d10:	e3a04010 	mov	r4, #16
  102d14:	eaffffe3 	b	102ca8 <_malloc_r+0x3c>
  102d18:	e1b014a4 	lsrs	r1, r4, #9
  102d1c:	03a0007e 	moveq	r0, #126	; 0x7e
  102d20:	03a0c03f 	moveq	ip, #63	; 0x3f
  102d24:	1a000068 	bne	102ecc <_malloc_r+0x260>
  102d28:	e30c6bf8 	movw	r6, #52216	; 0xcbf8
  102d2c:	e3406010 	movt	r6, #16
  102d30:	e0860100 	add	r0, r6, r0, lsl #2
  102d34:	e590300c 	ldr	r3, [r0, #12]
  102d38:	e1500003 	cmp	r0, r3
  102d3c:	1a000005 	bne	102d58 <_malloc_r+0xec>
  102d40:	ea00000a 	b	102d70 <_malloc_r+0x104>
  102d44:	e3510000 	cmp	r1, #0
  102d48:	aa0000a5 	bge	102fe4 <_malloc_r+0x378>
  102d4c:	e593300c 	ldr	r3, [r3, #12]
  102d50:	e1500003 	cmp	r0, r3
  102d54:	0a000005 	beq	102d70 <_malloc_r+0x104>
  102d58:	e5932004 	ldr	r2, [r3, #4]
  102d5c:	e3c22003 	bic	r2, r2, #3
  102d60:	e0641002 	rsb	r1, r4, r2
  102d64:	e351000f 	cmp	r1, #15
  102d68:	dafffff5 	ble	102d44 <_malloc_r+0xd8>
  102d6c:	e24cc001 	sub	ip, ip, #1
  102d70:	e28c1001 	add	r1, ip, #1
  102d74:	e30cebf8 	movw	lr, #52216	; 0xcbf8
  102d78:	e5963010 	ldr	r3, [r6, #16]
  102d7c:	e340e010 	movt	lr, #16
  102d80:	e28e7008 	add	r7, lr, #8
  102d84:	e1530007 	cmp	r3, r7
  102d88:	059e2004 	ldreq	r2, [lr, #4]
  102d8c:	0a000016 	beq	102dec <_malloc_r+0x180>
  102d90:	e5932004 	ldr	r2, [r3, #4]
  102d94:	e3c22003 	bic	r2, r2, #3
  102d98:	e064c002 	rsb	ip, r4, r2
  102d9c:	e35c000f 	cmp	ip, #15
  102da0:	ca0000cd 	bgt	1030dc <_malloc_r+0x470>
  102da4:	e35c0000 	cmp	ip, #0
  102da8:	e58e7014 	str	r7, [lr, #20]
  102dac:	e58e7010 	str	r7, [lr, #16]
  102db0:	aa00004b 	bge	102ee4 <_malloc_r+0x278>
  102db4:	e3520c02 	cmp	r2, #512	; 0x200
  102db8:	2a0000ad 	bcs	103074 <_malloc_r+0x408>
  102dbc:	e1a0c1a2 	lsr	ip, r2, #3
  102dc0:	e59e0004 	ldr	r0, [lr, #4]
  102dc4:	e3a09001 	mov	r9, #1
  102dc8:	e08e818c 	add	r8, lr, ip, lsl #3
  102dcc:	e1a0214c 	asr	r2, ip, #2
  102dd0:	e1802219 	orr	r2, r0, r9, lsl r2
  102dd4:	e58e2004 	str	r2, [lr, #4]
  102dd8:	e5980008 	ldr	r0, [r8, #8]
  102ddc:	e583800c 	str	r8, [r3, #12]
  102de0:	e5830008 	str	r0, [r3, #8]
  102de4:	e5883008 	str	r3, [r8, #8]
  102de8:	e580300c 	str	r3, [r0, #12]
  102dec:	e1a03141 	asr	r3, r1, #2
  102df0:	e3a00001 	mov	r0, #1
  102df4:	e1a00310 	lsl	r0, r0, r3
  102df8:	e1500002 	cmp	r0, r2
  102dfc:	8a000042 	bhi	102f0c <_malloc_r+0x2a0>
  102e00:	e1120000 	tst	r2, r0
  102e04:	1a000008 	bne	102e2c <_malloc_r+0x1c0>
  102e08:	e1a00080 	lsl	r0, r0, #1
  102e0c:	e3c11003 	bic	r1, r1, #3
  102e10:	e1120000 	tst	r2, r0
  102e14:	e2811004 	add	r1, r1, #4
  102e18:	1a000003 	bne	102e2c <_malloc_r+0x1c0>
  102e1c:	e1a00080 	lsl	r0, r0, #1
  102e20:	e2811004 	add	r1, r1, #4
  102e24:	e1120000 	tst	r2, r0
  102e28:	0afffffb 	beq	102e1c <_malloc_r+0x1b0>
  102e2c:	e0868181 	add	r8, r6, r1, lsl #3
  102e30:	e1a09001 	mov	r9, r1
  102e34:	e1a0c008 	mov	ip, r8
  102e38:	e59ce00c 	ldr	lr, [ip, #12]
  102e3c:	e15c000e 	cmp	ip, lr
  102e40:	1a000005 	bne	102e5c <_malloc_r+0x1f0>
  102e44:	ea0000b1 	b	103110 <_malloc_r+0x4a4>
  102e48:	e3520000 	cmp	r2, #0
  102e4c:	aa0000ba 	bge	10313c <_malloc_r+0x4d0>
  102e50:	e59ee00c 	ldr	lr, [lr, #12]
  102e54:	e15c000e 	cmp	ip, lr
  102e58:	0a0000ac 	beq	103110 <_malloc_r+0x4a4>
  102e5c:	e59e3004 	ldr	r3, [lr, #4]
  102e60:	e3c33003 	bic	r3, r3, #3
  102e64:	e0642003 	rsb	r2, r4, r3
  102e68:	e352000f 	cmp	r2, #15
  102e6c:	dafffff5 	ble	102e48 <_malloc_r+0x1dc>
  102e70:	e1a0800e 	mov	r8, lr
  102e74:	e59e100c 	ldr	r1, [lr, #12]
  102e78:	e5b8c008 	ldr	ip, [r8, #8]!
  102e7c:	e08e3004 	add	r3, lr, r4
  102e80:	e1a00005 	mov	r0, r5
  102e84:	e3844001 	orr	r4, r4, #1
  102e88:	e3825001 	orr	r5, r2, #1
  102e8c:	e58e4004 	str	r4, [lr, #4]
  102e90:	e58c100c 	str	r1, [ip, #12]
  102e94:	e581c008 	str	ip, [r1, #8]
  102e98:	e5863014 	str	r3, [r6, #20]
  102e9c:	e5863010 	str	r3, [r6, #16]
  102ea0:	e583700c 	str	r7, [r3, #12]
  102ea4:	e98300a0 	stmib	r3, {r5, r7}
  102ea8:	e7832002 	str	r2, [r3, r2]
  102eac:	eb00014d 	bl	1033e8 <__malloc_unlock>
  102eb0:	eaffff90 	b	102cf8 <_malloc_r+0x8c>
  102eb4:	e3a08000 	mov	r8, #0
  102eb8:	e3a0300c 	mov	r3, #12
  102ebc:	e1a00008 	mov	r0, r8
  102ec0:	e5853000 	str	r3, [r5]
  102ec4:	e28dd00c 	add	sp, sp, #12
  102ec8:	e8bd8ff0 	pop	{r4, r5, r6, r7, r8, r9, sl, fp, pc}
  102ecc:	e3510004 	cmp	r1, #4
  102ed0:	8a00005d 	bhi	10304c <_malloc_r+0x3e0>
  102ed4:	e1a01324 	lsr	r1, r4, #6
  102ed8:	e281c038 	add	ip, r1, #56	; 0x38
  102edc:	e1a0008c 	lsl	r0, ip, #1
  102ee0:	eaffff90 	b	102d28 <_malloc_r+0xbc>
  102ee4:	e0832002 	add	r2, r3, r2
  102ee8:	e2838008 	add	r8, r3, #8
  102eec:	e1a00005 	mov	r0, r5
  102ef0:	e5923004 	ldr	r3, [r2, #4]
  102ef4:	e3833001 	orr	r3, r3, #1
  102ef8:	e5823004 	str	r3, [r2, #4]
  102efc:	eb000139 	bl	1033e8 <__malloc_unlock>
  102f00:	e1a00008 	mov	r0, r8
  102f04:	e28dd00c 	add	sp, sp, #12
  102f08:	e8bd8ff0 	pop	{r4, r5, r6, r7, r8, r9, sl, fp, pc}
  102f0c:	e5968008 	ldr	r8, [r6, #8]
  102f10:	e30c1bf8 	movw	r1, #52216	; 0xcbf8
  102f14:	e3401010 	movt	r1, #16
  102f18:	e5987004 	ldr	r7, [r8, #4]
  102f1c:	e3c77003 	bic	r7, r7, #3
  102f20:	e1570004 	cmp	r7, r4
  102f24:	e0642007 	rsb	r2, r4, r7
  102f28:	23a03000 	movcs	r3, #0
  102f2c:	33a03001 	movcc	r3, #1
  102f30:	e352000f 	cmp	r2, #15
  102f34:	d3833001 	orrle	r3, r3, #1
  102f38:	e3530000 	cmp	r3, #0
  102f3c:	0a000036 	beq	10301c <_malloc_r+0x3b0>
  102f40:	e3049030 	movw	r9, #16432	; 0x4030
  102f44:	e5913408 	ldr	r3, [r1, #1032]	; 0x408
  102f48:	e3409011 	movt	r9, #17
  102f4c:	e1a00005 	mov	r0, r5
  102f50:	e5992000 	ldr	r2, [r9]
  102f54:	e3730001 	cmn	r3, #1
  102f58:	e0842002 	add	r2, r4, r2
  102f5c:	12822a01 	addne	r2, r2, #4096	; 0x1000
  102f60:	0282a010 	addeq	sl, r2, #16
  102f64:	1282200f 	addne	r2, r2, #15
  102f68:	13c2aeff 	bicne	sl, r2, #4080	; 0xff0
  102f6c:	13caa00f 	bicne	sl, sl, #15
  102f70:	e1a0100a 	mov	r1, sl
  102f74:	eb000135 	bl	103450 <_sbrk_r>
  102f78:	e3700001 	cmn	r0, #1
  102f7c:	e1a0b000 	mov	fp, r0
  102f80:	0a000008 	beq	102fa8 <_malloc_r+0x33c>
  102f84:	e0582006 	subs	r2, r8, r6
  102f88:	e0883007 	add	r3, r8, r7
  102f8c:	13a02001 	movne	r2, #1
  102f90:	e1580006 	cmp	r8, r6
  102f94:	11530000 	cmpne	r3, r0
  102f98:	e30c0bf8 	movw	r0, #52216	; 0xcbf8
  102f9c:	e58d2000 	str	r2, [sp]
  102fa0:	e3400010 	movt	r0, #16
  102fa4:	9a000094 	bls	1031fc <_malloc_r+0x590>
  102fa8:	e5968008 	ldr	r8, [r6, #8]
  102fac:	e5983004 	ldr	r3, [r8, #4]
  102fb0:	e3c33003 	bic	r3, r3, #3
  102fb4:	e1540003 	cmp	r4, r3
  102fb8:	e0642003 	rsb	r2, r4, r3
  102fbc:	93a03000 	movls	r3, #0
  102fc0:	83a03001 	movhi	r3, #1
  102fc4:	e352000f 	cmp	r2, #15
  102fc8:	d3833001 	orrle	r3, r3, #1
  102fcc:	e3530000 	cmp	r3, #0
  102fd0:	0a000011 	beq	10301c <_malloc_r+0x3b0>
  102fd4:	e1a00005 	mov	r0, r5
  102fd8:	e3a08000 	mov	r8, #0
  102fdc:	eb000101 	bl	1033e8 <__malloc_unlock>
  102fe0:	eaffff44 	b	102cf8 <_malloc_r+0x8c>
  102fe4:	e0832002 	add	r2, r3, r2
  102fe8:	e593c00c 	ldr	ip, [r3, #12]
  102fec:	e593e008 	ldr	lr, [r3, #8]
  102ff0:	e1a00005 	mov	r0, r5
  102ff4:	e5921004 	ldr	r1, [r2, #4]
  102ff8:	e2838008 	add	r8, r3, #8
  102ffc:	e58ec00c 	str	ip, [lr, #12]
  103000:	e3813001 	orr	r3, r1, #1
  103004:	e58ce008 	str	lr, [ip, #8]
  103008:	e5823004 	str	r3, [r2, #4]
  10300c:	eb0000f5 	bl	1033e8 <__malloc_unlock>
  103010:	e1a00008 	mov	r0, r8
  103014:	e28dd00c 	add	sp, sp, #12
  103018:	e8bd8ff0 	pop	{r4, r5, r6, r7, r8, r9, sl, fp, pc}
  10301c:	e0883004 	add	r3, r8, r4
  103020:	e3822001 	orr	r2, r2, #1
  103024:	e1a00005 	mov	r0, r5
  103028:	e3844001 	orr	r4, r4, #1
  10302c:	e5884004 	str	r4, [r8, #4]
  103030:	e2888008 	add	r8, r8, #8
  103034:	e5863008 	str	r3, [r6, #8]
  103038:	e5832004 	str	r2, [r3, #4]
  10303c:	eb0000e9 	bl	1033e8 <__malloc_unlock>
  103040:	e1a00008 	mov	r0, r8
  103044:	e28dd00c 	add	sp, sp, #12
  103048:	e8bd8ff0 	pop	{r4, r5, r6, r7, r8, r9, sl, fp, pc}
  10304c:	e3510014 	cmp	r1, #20
  103050:	9281c05b 	addls	ip, r1, #91	; 0x5b
  103054:	91a0008c 	lslls	r0, ip, #1
  103058:	9affff32 	bls	102d28 <_malloc_r+0xbc>
  10305c:	e3510054 	cmp	r1, #84	; 0x54
  103060:	8a0000ae 	bhi	103320 <_malloc_r+0x6b4>
  103064:	e1a01624 	lsr	r1, r4, #12
  103068:	e281c06e 	add	ip, r1, #110	; 0x6e
  10306c:	e1a0008c 	lsl	r0, ip, #1
  103070:	eaffff2c 	b	102d28 <_malloc_r+0xbc>
  103074:	e1a004a2 	lsr	r0, r2, #9
  103078:	e3500004 	cmp	r0, #4
  10307c:	8a00003a 	bhi	10316c <_malloc_r+0x500>
  103080:	e1a00322 	lsr	r0, r2, #6
  103084:	e280e038 	add	lr, r0, #56	; 0x38
  103088:	e1a0008e 	lsl	r0, lr, #1
  10308c:	e0860100 	add	r0, r6, r0, lsl #2
  103090:	e30c8bf8 	movw	r8, #52216	; 0xcbf8
  103094:	e3408010 	movt	r8, #16
  103098:	e590c008 	ldr	ip, [r0, #8]
  10309c:	e15c0000 	cmp	ip, r0
  1030a0:	0a0000a4 	beq	103338 <_malloc_r+0x6cc>
  1030a4:	e59ce004 	ldr	lr, [ip, #4]
  1030a8:	e3cee003 	bic	lr, lr, #3
  1030ac:	e152000e 	cmp	r2, lr
  1030b0:	2a000002 	bcs	1030c0 <_malloc_r+0x454>
  1030b4:	e59cc008 	ldr	ip, [ip, #8]
  1030b8:	e150000c 	cmp	r0, ip
  1030bc:	1afffff8 	bne	1030a4 <_malloc_r+0x438>
  1030c0:	e59c900c 	ldr	r9, [ip, #12]
  1030c4:	e5962004 	ldr	r2, [r6, #4]
  1030c8:	e583900c 	str	r9, [r3, #12]
  1030cc:	e583c008 	str	ip, [r3, #8]
  1030d0:	e5893008 	str	r3, [r9, #8]
  1030d4:	e58c300c 	str	r3, [ip, #12]
  1030d8:	eaffff43 	b	102dec <_malloc_r+0x180>
  1030dc:	e0832004 	add	r2, r3, r4
  1030e0:	e38c1001 	orr	r1, ip, #1
  1030e4:	e3844001 	orr	r4, r4, #1
  1030e8:	e1a00005 	mov	r0, r5
  1030ec:	e5834004 	str	r4, [r3, #4]
  1030f0:	e2838008 	add	r8, r3, #8
  1030f4:	e58e2014 	str	r2, [lr, #20]
  1030f8:	e58e2010 	str	r2, [lr, #16]
  1030fc:	e582700c 	str	r7, [r2, #12]
  103100:	e9820082 	stmib	r2, {r1, r7}
  103104:	e782c00c 	str	ip, [r2, ip]
  103108:	eb0000b6 	bl	1033e8 <__malloc_unlock>
  10310c:	eafffef9 	b	102cf8 <_malloc_r+0x8c>
  103110:	e2899001 	add	r9, r9, #1
  103114:	e28cc008 	add	ip, ip, #8
  103118:	e3190003 	tst	r9, #3
  10311c:	1affff45 	bne	102e38 <_malloc_r+0x1cc>
  103120:	ea00001e 	b	1031a0 <_malloc_r+0x534>
  103124:	e2823008 	add	r3, r2, #8
  103128:	e5922014 	ldr	r2, [r2, #20]
  10312c:	e1530002 	cmp	r3, r2
  103130:	02811002 	addeq	r1, r1, #2
  103134:	0affff0e 	beq	102d74 <_malloc_r+0x108>
  103138:	eafffee1 	b	102cc4 <_malloc_r+0x58>
  10313c:	e08e2003 	add	r2, lr, r3
  103140:	e1a0800e 	mov	r8, lr
  103144:	e59e100c 	ldr	r1, [lr, #12]
  103148:	e1a00005 	mov	r0, r5
  10314c:	e5b8c008 	ldr	ip, [r8, #8]!
  103150:	e5923004 	ldr	r3, [r2, #4]
  103154:	e3833001 	orr	r3, r3, #1
  103158:	e5823004 	str	r3, [r2, #4]
  10315c:	e58c100c 	str	r1, [ip, #12]
  103160:	e581c008 	str	ip, [r1, #8]
  103164:	eb00009f 	bl	1033e8 <__malloc_unlock>
  103168:	eafffee2 	b	102cf8 <_malloc_r+0x8c>
  10316c:	e3500014 	cmp	r0, #20
  103170:	9280e05b 	addls	lr, r0, #91	; 0x5b
  103174:	91a0008e 	lslls	r0, lr, #1
  103178:	9affffc3 	bls	10308c <_malloc_r+0x420>
  10317c:	e3500054 	cmp	r0, #84	; 0x54
  103180:	8a000088 	bhi	1033a8 <_malloc_r+0x73c>
  103184:	e1a00622 	lsr	r0, r2, #12
  103188:	e280e06e 	add	lr, r0, #110	; 0x6e
  10318c:	e1a0008e 	lsl	r0, lr, #1
  103190:	eaffffbd 	b	10308c <_malloc_r+0x420>
  103194:	e5988000 	ldr	r8, [r8]
  103198:	e1580003 	cmp	r8, r3
  10319c:	1a00008e 	bne	1033dc <_malloc_r+0x770>
  1031a0:	e3110003 	tst	r1, #3
  1031a4:	e2483008 	sub	r3, r8, #8
  1031a8:	e2411001 	sub	r1, r1, #1
  1031ac:	1afffff8 	bne	103194 <_malloc_r+0x528>
  1031b0:	e5963004 	ldr	r3, [r6, #4]
  1031b4:	e1c33000 	bic	r3, r3, r0
  1031b8:	e5863004 	str	r3, [r6, #4]
  1031bc:	e1a00080 	lsl	r0, r0, #1
  1031c0:	e1500003 	cmp	r0, r3
  1031c4:	83a02000 	movhi	r2, #0
  1031c8:	93a02001 	movls	r2, #1
  1031cc:	e3500000 	cmp	r0, #0
  1031d0:	03a02000 	moveq	r2, #0
  1031d4:	e3520000 	cmp	r2, #0
  1031d8:	0affff4b 	beq	102f0c <_malloc_r+0x2a0>
  1031dc:	e1130000 	tst	r3, r0
  1031e0:	e1a01009 	mov	r1, r9
  1031e4:	1affff10 	bne	102e2c <_malloc_r+0x1c0>
  1031e8:	e1a00080 	lsl	r0, r0, #1
  1031ec:	e2811004 	add	r1, r1, #4
  1031f0:	e1130000 	tst	r3, r0
  1031f4:	0afffffb 	beq	1031e8 <_malloc_r+0x57c>
  1031f8:	eaffff0b 	b	102e2c <_malloc_r+0x1c0>
  1031fc:	e5991004 	ldr	r1, [r9, #4]
  103200:	e153000b 	cmp	r3, fp
  103204:	e08a1001 	add	r1, sl, r1
  103208:	e5891004 	str	r1, [r9, #4]
  10320c:	0a000058 	beq	103374 <_malloc_r+0x708>
  103210:	e596c408 	ldr	ip, [r6, #1032]	; 0x408
  103214:	e30c0bf8 	movw	r0, #52216	; 0xcbf8
  103218:	e3400010 	movt	r0, #16
  10321c:	e37c0001 	cmn	ip, #1
  103220:	0580b408 	streq	fp, [r0, #1032]	; 0x408
  103224:	1063300b 	rsbne	r3, r3, fp
  103228:	10811003 	addne	r1, r1, r3
  10322c:	15891004 	strne	r1, [r9, #4]
  103230:	e21b3007 	ands	r3, fp, #7
  103234:	12630008 	rsbne	r0, r3, #8
  103238:	12631a01 	rsbne	r1, r3, #4096	; 0x1000
  10323c:	108bb000 	addne	fp, fp, r0
  103240:	12811008 	addne	r1, r1, #8
  103244:	e08b300a 	add	r3, fp, sl
  103248:	03a01a01 	moveq	r1, #4096	; 0x1000
  10324c:	e7eb3053 	ubfx	r3, r3, #0, #12
  103250:	e1a00005 	mov	r0, r5
  103254:	e0633001 	rsb	r3, r3, r1
  103258:	e58d3004 	str	r3, [sp, #4]
  10325c:	e304a030 	movw	sl, #16432	; 0x4030
  103260:	e1a01003 	mov	r1, r3
  103264:	e340a011 	movt	sl, #17
  103268:	eb000078 	bl	103450 <_sbrk_r>
  10326c:	e59d1000 	ldr	r1, [sp]
  103270:	e586b008 	str	fp, [r6, #8]
  103274:	e3700001 	cmn	r0, #1
  103278:	106b2000 	rsbne	r2, fp, r0
  10327c:	159d3004 	ldrne	r3, [sp, #4]
  103280:	03a02001 	moveq	r2, #1
  103284:	03a03000 	moveq	r3, #0
  103288:	10832002 	addne	r2, r3, r2
  10328c:	13822001 	orrne	r2, r2, #1
  103290:	e3510000 	cmp	r1, #0
  103294:	e5991004 	ldr	r1, [r9, #4]
  103298:	e58b2004 	str	r2, [fp, #4]
  10329c:	e0831001 	add	r1, r3, r1
  1032a0:	e5891004 	str	r1, [r9, #4]
  1032a4:	0a00000f 	beq	1032e8 <_malloc_r+0x67c>
  1032a8:	e357000f 	cmp	r7, #15
  1032ac:	93a03001 	movls	r3, #1
  1032b0:	958b3004 	strls	r3, [fp, #4]
  1032b4:	9affff46 	bls	102fd4 <_malloc_r+0x368>
  1032b8:	e247300c 	sub	r3, r7, #12
  1032bc:	e5982004 	ldr	r2, [r8, #4]
  1032c0:	e3c33007 	bic	r3, r3, #7
  1032c4:	e3a0c005 	mov	ip, #5
  1032c8:	e0880003 	add	r0, r8, r3
  1032cc:	e353000f 	cmp	r3, #15
  1032d0:	e2022001 	and	r2, r2, #1
  1032d4:	e1833002 	orr	r3, r3, r2
  1032d8:	e5883004 	str	r3, [r8, #4]
  1032dc:	e580c004 	str	ip, [r0, #4]
  1032e0:	e580c008 	str	ip, [r0, #8]
  1032e4:	8a00002a 	bhi	103394 <_malloc_r+0x728>
  1032e8:	e599202c 	ldr	r2, [r9, #44]	; 0x2c
  1032ec:	e3043030 	movw	r3, #16432	; 0x4030
  1032f0:	e3403011 	movt	r3, #17
  1032f4:	e5968008 	ldr	r8, [r6, #8]
  1032f8:	e1510002 	cmp	r1, r2
  1032fc:	e5992030 	ldr	r2, [r9, #48]	; 0x30
  103300:	8583102c 	strhi	r1, [r3, #44]	; 0x2c
  103304:	e3043030 	movw	r3, #16432	; 0x4030
  103308:	e3403011 	movt	r3, #17
  10330c:	e1510002 	cmp	r1, r2
  103310:	85831030 	strhi	r1, [r3, #48]	; 0x30
  103314:	e5983004 	ldr	r3, [r8, #4]
  103318:	e3c33003 	bic	r3, r3, #3
  10331c:	eaffff24 	b	102fb4 <_malloc_r+0x348>
  103320:	e3510f55 	cmp	r1, #340	; 0x154
  103324:	8a00000a 	bhi	103354 <_malloc_r+0x6e8>
  103328:	e1a017a4 	lsr	r1, r4, #15
  10332c:	e281c077 	add	ip, r1, #119	; 0x77
  103330:	e1a0008c 	lsl	r0, ip, #1
  103334:	eafffe7b 	b	102d28 <_malloc_r+0xbc>
  103338:	e5982004 	ldr	r2, [r8, #4]
  10333c:	e1a0014e 	asr	r0, lr, #2
  103340:	e3a0e001 	mov	lr, #1
  103344:	e1a0900c 	mov	r9, ip
  103348:	e182201e 	orr	r2, r2, lr, lsl r0
  10334c:	e5882004 	str	r2, [r8, #4]
  103350:	eaffff5c 	b	1030c8 <_malloc_r+0x45c>
  103354:	e3003554 	movw	r3, #1364	; 0x554
  103358:	e1510003 	cmp	r1, r3
  10335c:	91a01924 	lsrls	r1, r4, #18
  103360:	9281c07c 	addls	ip, r1, #124	; 0x7c
  103364:	83a000fc 	movhi	r0, #252	; 0xfc
  103368:	83a0c07e 	movhi	ip, #126	; 0x7e
  10336c:	91a0008c 	lslls	r0, ip, #1
  103370:	eafffe6c 	b	102d28 <_malloc_r+0xbc>
  103374:	e7ebc053 	ubfx	ip, r3, #0, #12
  103378:	e35c0000 	cmp	ip, #0
  10337c:	1affffa3 	bne	103210 <_malloc_r+0x5a4>
  103380:	e5900008 	ldr	r0, [r0, #8]
  103384:	e08a2007 	add	r2, sl, r7
  103388:	e3823001 	orr	r3, r2, #1
  10338c:	e5803004 	str	r3, [r0, #4]
  103390:	eaffffd4 	b	1032e8 <_malloc_r+0x67c>
  103394:	e2881008 	add	r1, r8, #8
  103398:	e1a00005 	mov	r0, r5
  10339c:	eb000f92 	bl	1071ec <_free_r>
  1033a0:	e59a1004 	ldr	r1, [sl, #4]
  1033a4:	eaffffcf 	b	1032e8 <_malloc_r+0x67c>
  1033a8:	e3500f55 	cmp	r0, #340	; 0x154
  1033ac:	91a007a2 	lsrls	r0, r2, #15
  1033b0:	9280e077 	addls	lr, r0, #119	; 0x77
  1033b4:	91a0008e 	lslls	r0, lr, #1
  1033b8:	9affff33 	bls	10308c <_malloc_r+0x420>
  1033bc:	e300c554 	movw	ip, #1364	; 0x554
  1033c0:	e150000c 	cmp	r0, ip
  1033c4:	91a00922 	lsrls	r0, r2, #18
  1033c8:	9280e07c 	addls	lr, r0, #124	; 0x7c
  1033cc:	83a000fc 	movhi	r0, #252	; 0xfc
  1033d0:	83a0e07e 	movhi	lr, #126	; 0x7e
  1033d4:	91a0008e 	lslls	r0, lr, #1
  1033d8:	eaffff2b 	b	10308c <_malloc_r+0x420>
  1033dc:	e5963004 	ldr	r3, [r6, #4]
  1033e0:	eaffff75 	b	1031bc <_malloc_r+0x550>

001033e4 <__malloc_lock>:
  1033e4:	e12fff1e 	bx	lr

001033e8 <__malloc_unlock>:
  1033e8:	e12fff1e 	bx	lr

001033ec <srand>:
  1033ec:	e30c37c8 	movw	r3, #51144	; 0xc7c8
  1033f0:	e3a02000 	mov	r2, #0
  1033f4:	e3403010 	movt	r3, #16
  1033f8:	e5933000 	ldr	r3, [r3]
  1033fc:	e58300a8 	str	r0, [r3, #168]	; 0xa8
  103400:	e58320ac 	str	r2, [r3, #172]	; 0xac
  103404:	e12fff1e 	bx	lr

00103408 <rand>:
  103408:	e30c37c8 	movw	r3, #51144	; 0xc7c8
  10340c:	e30f142d 	movw	r1, #62509	; 0xf42d
  103410:	e3403010 	movt	r3, #16
  103414:	e3451851 	movt	r1, #22609	; 0x5851
  103418:	e5930000 	ldr	r0, [r3]
  10341c:	e3072f2d 	movw	r2, #32557	; 0x7f2d
  103420:	e3442c95 	movt	r2, #19605	; 0x4c95
  103424:	e59030a8 	ldr	r3, [r0, #168]	; 0xa8
  103428:	e590c0ac 	ldr	ip, [r0, #172]	; 0xac
  10342c:	e0010391 	mul	r1, r1, r3
  103430:	e0211c92 	mla	r1, r2, ip, r1
  103434:	e0832293 	umull	r2, r3, r3, r2
  103438:	e2922001 	adds	r2, r2, #1
  10343c:	e0813003 	add	r3, r1, r3
  103440:	e2a33000 	adc	r3, r3, #0
  103444:	e1c02af8 	strd	r2, [r0, #168]	; 0xa8
  103448:	e3c30102 	bic	r0, r3, #-2147483648	; 0x80000000
  10344c:	e12fff1e 	bx	lr

00103450 <_sbrk_r>:
  103450:	e92d4038 	push	{r3, r4, r5, lr}
  103454:	e3044090 	movw	r4, #16528	; 0x4090
  103458:	e1a05000 	mov	r5, r0
  10345c:	e3404011 	movt	r4, #17
  103460:	e1a00001 	mov	r0, r1
  103464:	e3a03000 	mov	r3, #0
  103468:	e5843000 	str	r3, [r4]
  10346c:	eb002107 	bl	10b890 <_sbrk>
  103470:	e3700001 	cmn	r0, #1
  103474:	18bd8038 	popne	{r3, r4, r5, pc}
  103478:	e5943000 	ldr	r3, [r4]
  10347c:	e3530000 	cmp	r3, #0
  103480:	15853000 	strne	r3, [r5]
  103484:	e8bd8038 	pop	{r3, r4, r5, pc}

00103488 <_vfprintf_r>:
  103488:	e92d4ff0 	push	{r4, r5, r6, r7, r8, r9, sl, fp, lr}
  10348c:	e1a04003 	mov	r4, r3
  103490:	ed2d8b04 	vpush	{d8-d9}
  103494:	e1a0b001 	mov	fp, r1
  103498:	e1a05000 	mov	r5, r0
  10349c:	e24ddf43 	sub	sp, sp, #268	; 0x10c
  1034a0:	e58d2024 	str	r2, [sp, #36]	; 0x24
  1034a4:	e58d0028 	str	r0, [sp, #40]	; 0x28
  1034a8:	eb001065 	bl	107644 <_localeconv_r>
  1034ac:	e58d4034 	str	r4, [sp, #52]	; 0x34
  1034b0:	e5903000 	ldr	r3, [r0]
  1034b4:	e1a00003 	mov	r0, r3
  1034b8:	e58d3054 	str	r3, [sp, #84]	; 0x54
  1034bc:	fa0016ff 	blx	1090c0 <strlen>
  1034c0:	e3550000 	cmp	r5, #0
  1034c4:	e58d0058 	str	r0, [sp, #88]	; 0x58
  1034c8:	0a000002 	beq	1034d8 <_vfprintf_r+0x50>
  1034cc:	e5953038 	ldr	r3, [r5, #56]	; 0x38
  1034d0:	e3530000 	cmp	r3, #0
  1034d4:	0a0000d0 	beq	10381c <_vfprintf_r+0x394>
  1034d8:	e1db30bc 	ldrh	r3, [fp, #12]
  1034dc:	e6ff2073 	uxth	r2, r3
  1034e0:	e3120a02 	tst	r2, #8192	; 0x2000
  1034e4:	1a000005 	bne	103500 <_vfprintf_r+0x78>
  1034e8:	e3832a02 	orr	r2, r3, #8192	; 0x2000
  1034ec:	e59b3064 	ldr	r3, [fp, #100]	; 0x64
  1034f0:	e1cb20bc 	strh	r2, [fp, #12]
  1034f4:	e6ff2072 	uxth	r2, r2
  1034f8:	e3c33a02 	bic	r3, r3, #8192	; 0x2000
  1034fc:	e58b3064 	str	r3, [fp, #100]	; 0x64
  103500:	e3120008 	tst	r2, #8
  103504:	0a000099 	beq	103770 <_vfprintf_r+0x2e8>
  103508:	e59b3010 	ldr	r3, [fp, #16]
  10350c:	e3530000 	cmp	r3, #0
  103510:	0a000096 	beq	103770 <_vfprintf_r+0x2e8>
  103514:	e202201a 	and	r2, r2, #26
  103518:	e352000a 	cmp	r2, #10
  10351c:	0a0000b3 	beq	1037f0 <_vfprintf_r+0x368>
  103520:	ed9f8bee 	vldr	d8, [pc, #952]	; 1038e0 <_vfprintf_r+0x458>
  103524:	e28d80c8 	add	r8, sp, #200	; 0xc8
  103528:	e30c14fc 	movw	r1, #50428	; 0xc4fc
  10352c:	e3060667 	movw	r0, #26215	; 0x6667
  103530:	e1a09008 	mov	r9, r8
  103534:	e3a03000 	mov	r3, #0
  103538:	e3401010 	movt	r1, #16
  10353c:	e3460666 	movt	r0, #26214	; 0x6666
  103540:	e58d304c 	str	r3, [sp, #76]	; 0x4c
  103544:	e58d305c 	str	r3, [sp, #92]	; 0x5c
  103548:	e58d3068 	str	r3, [sp, #104]	; 0x68
  10354c:	e58d302c 	str	r3, [sp, #44]	; 0x2c
  103550:	e58d1050 	str	r1, [sp, #80]	; 0x50
  103554:	e58d006c 	str	r0, [sp, #108]	; 0x6c
  103558:	e58d309c 	str	r3, [sp, #156]	; 0x9c
  10355c:	e58d3098 	str	r3, [sp, #152]	; 0x98
  103560:	e58d8094 	str	r8, [sp, #148]	; 0x94
  103564:	e59d4024 	ldr	r4, [sp, #36]	; 0x24
  103568:	e5d43000 	ldrb	r3, [r4]
  10356c:	e3530025 	cmp	r3, #37	; 0x25
  103570:	13530000 	cmpne	r3, #0
  103574:	0a0000ab 	beq	103828 <_vfprintf_r+0x3a0>
  103578:	e5f43001 	ldrb	r3, [r4, #1]!
  10357c:	e3530025 	cmp	r3, #37	; 0x25
  103580:	13530000 	cmpne	r3, #0
  103584:	1afffffb 	bne	103578 <_vfprintf_r+0xf0>
  103588:	e59d2024 	ldr	r2, [sp, #36]	; 0x24
  10358c:	e0545002 	subs	r5, r4, r2
  103590:	0a00000d 	beq	1035cc <_vfprintf_r+0x144>
  103594:	e59d3098 	ldr	r3, [sp, #152]	; 0x98
  103598:	e5892000 	str	r2, [r9]
  10359c:	e2833001 	add	r3, r3, #1
  1035a0:	e59d209c 	ldr	r2, [sp, #156]	; 0x9c
  1035a4:	e3530007 	cmp	r3, #7
  1035a8:	e5895004 	str	r5, [r9, #4]
  1035ac:	e58d3098 	str	r3, [sp, #152]	; 0x98
  1035b0:	d2899008 	addle	r9, r9, #8
  1035b4:	e0823005 	add	r3, r2, r5
  1035b8:	e58d309c 	str	r3, [sp, #156]	; 0x9c
  1035bc:	ca000075 	bgt	103798 <_vfprintf_r+0x310>
  1035c0:	e59d302c 	ldr	r3, [sp, #44]	; 0x2c
  1035c4:	e0833005 	add	r3, r3, r5
  1035c8:	e58d302c 	str	r3, [sp, #44]	; 0x2c
  1035cc:	e5d43000 	ldrb	r3, [r4]
  1035d0:	e3530000 	cmp	r3, #0
  1035d4:	0a000077 	beq	1037b8 <_vfprintf_r+0x330>
  1035d8:	e5d46001 	ldrb	r6, [r4, #1]
  1035dc:	e3a03000 	mov	r3, #0
  1035e0:	e2841001 	add	r1, r4, #1
  1035e4:	e1a02003 	mov	r2, r3
  1035e8:	e5cd3077 	strb	r3, [sp, #119]	; 0x77
  1035ec:	e58d3030 	str	r3, [sp, #48]	; 0x30
  1035f0:	e58d301c 	str	r3, [sp, #28]
  1035f4:	e3e07000 	mvn	r7, #0
  1035f8:	e2813001 	add	r3, r1, #1
  1035fc:	e2461020 	sub	r1, r6, #32
  103600:	e3510058 	cmp	r1, #88	; 0x58
  103604:	979ff101 	ldrls	pc, [pc, r1, lsl #2]
  103608:	ea000266 	b	103fa8 <_vfprintf_r+0xb20>
  10360c:	00103b98 	mulseq	r0, r8, fp
  103610:	00103fa8 	andseq	r3, r0, r8, lsr #31
  103614:	00103fa8 	andseq	r3, r0, r8, lsr #31
  103618:	00103bac 	andseq	r3, r0, ip, lsr #23
  10361c:	00103fa8 	andseq	r3, r0, r8, lsr #31
  103620:	00103fa8 	andseq	r3, r0, r8, lsr #31
  103624:	00103fa8 	andseq	r3, r0, r8, lsr #31
  103628:	00103fa8 	andseq	r3, r0, r8, lsr #31
  10362c:	00103fa8 	andseq	r3, r0, r8, lsr #31
  103630:	00103fa8 	andseq	r3, r0, r8, lsr #31
  103634:	00103bc4 	andseq	r3, r0, r4, asr #23
  103638:	00103bec 	andseq	r3, r0, ip, ror #23
  10363c:	00103fa8 	andseq	r3, r0, r8, lsr #31
  103640:	00103a70 	andseq	r3, r0, r0, ror sl
  103644:	00103e54 	andseq	r3, r0, r4, asr lr
  103648:	00103fa8 	andseq	r3, r0, r8, lsr #31
  10364c:	00103bfc 			; <UNDEFINED> instruction: 0x00103bfc
  103650:	00103c14 	andseq	r3, r0, r4, lsl ip
  103654:	00103c14 	andseq	r3, r0, r4, lsl ip
  103658:	00103c14 	andseq	r3, r0, r4, lsl ip
  10365c:	00103c14 	andseq	r3, r0, r4, lsl ip
  103660:	00103c14 	andseq	r3, r0, r4, lsl ip
  103664:	00103c14 	andseq	r3, r0, r4, lsl ip
  103668:	00103c14 	andseq	r3, r0, r4, lsl ip
  10366c:	00103c14 	andseq	r3, r0, r4, lsl ip
  103670:	00103c14 	andseq	r3, r0, r4, lsl ip
  103674:	00103fa8 	andseq	r3, r0, r8, lsr #31
  103678:	00103fa8 	andseq	r3, r0, r8, lsr #31
  10367c:	00103fa8 	andseq	r3, r0, r8, lsr #31
  103680:	00103fa8 	andseq	r3, r0, r8, lsr #31
  103684:	00103fa8 	andseq	r3, r0, r8, lsr #31
  103688:	00103fa8 	andseq	r3, r0, r8, lsr #31
  10368c:	00103fa8 	andseq	r3, r0, r8, lsr #31
  103690:	00103fa8 	andseq	r3, r0, r8, lsr #31
  103694:	00103fa8 	andseq	r3, r0, r8, lsr #31
  103698:	00103fa8 	andseq	r3, r0, r8, lsr #31
  10369c:	00103c9c 	mulseq	r0, ip, ip
  1036a0:	00103cf8 			; <UNDEFINED> instruction: 0x00103cf8
  1036a4:	00103fa8 	andseq	r3, r0, r8, lsr #31
  1036a8:	00103cf8 			; <UNDEFINED> instruction: 0x00103cf8
  1036ac:	00103fa8 	andseq	r3, r0, r8, lsr #31
  1036b0:	00103fa8 	andseq	r3, r0, r8, lsr #31
  1036b4:	00103fa8 	andseq	r3, r0, r8, lsr #31
  1036b8:	00103fa8 	andseq	r3, r0, r8, lsr #31
  1036bc:	00103d80 	andseq	r3, r0, r0, lsl #27
  1036c0:	00103fa8 	andseq	r3, r0, r8, lsr #31
  1036c4:	00103fa8 	andseq	r3, r0, r8, lsr #31
  1036c8:	00103e98 	mulseq	r0, r8, lr
  1036cc:	00103fa8 	andseq	r3, r0, r8, lsr #31
  1036d0:	00103fa8 	andseq	r3, r0, r8, lsr #31
  1036d4:	00103fa8 	andseq	r3, r0, r8, lsr #31
  1036d8:	00103fa8 	andseq	r3, r0, r8, lsr #31
  1036dc:	00103fa8 	andseq	r3, r0, r8, lsr #31
  1036e0:	00103f64 	andseq	r3, r0, r4, ror #30
  1036e4:	00103fa8 	andseq	r3, r0, r8, lsr #31
  1036e8:	00103fa8 	andseq	r3, r0, r8, lsr #31
  1036ec:	00103edc 			; <UNDEFINED> instruction: 0x00103edc
  1036f0:	00103fa8 	andseq	r3, r0, r8, lsr #31
  1036f4:	00103fa8 	andseq	r3, r0, r8, lsr #31
  1036f8:	00103fa8 	andseq	r3, r0, r8, lsr #31
  1036fc:	00103fa8 	andseq	r3, r0, r8, lsr #31
  103700:	00103fa8 	andseq	r3, r0, r8, lsr #31
  103704:	00103fa8 	andseq	r3, r0, r8, lsr #31
  103708:	00103fa8 	andseq	r3, r0, r8, lsr #31
  10370c:	00103fa8 	andseq	r3, r0, r8, lsr #31
  103710:	00103fa8 	andseq	r3, r0, r8, lsr #31
  103714:	00103fa8 	andseq	r3, r0, r8, lsr #31
  103718:	00103f20 	andseq	r3, r0, r0, lsr #30
  10371c:	00103d98 	mulseq	r0, r8, sp
  103720:	00103cf8 			; <UNDEFINED> instruction: 0x00103cf8
  103724:	00103cf8 			; <UNDEFINED> instruction: 0x00103cf8
  103728:	00103cf8 			; <UNDEFINED> instruction: 0x00103cf8
  10372c:	00103dd8 			; <UNDEFINED> instruction: 0x00103dd8
  103730:	00103d98 	mulseq	r0, r8, sp
  103734:	00103fa8 	andseq	r3, r0, r8, lsr #31
  103738:	00103fa8 	andseq	r3, r0, r8, lsr #31
  10373c:	00103df0 			; <UNDEFINED> instruction: 0x00103df0
  103740:	00103fa8 	andseq	r3, r0, r8, lsr #31
  103744:	00103e1c 	andseq	r3, r0, ip, lsl lr
  103748:	00103a88 	andseq	r3, r0, r8, lsl #21
  10374c:	00103c3c 	andseq	r3, r0, ip, lsr ip
  103750:	00103c84 	andseq	r3, r0, r4, lsl #25
  103754:	00103fa8 	andseq	r3, r0, r8, lsr #31
  103758:	00103ab8 			; <UNDEFINED> instruction: 0x00103ab8
  10375c:	00103fa8 	andseq	r3, r0, r8, lsr #31
  103760:	00103830 	andseq	r3, r0, r0, lsr r8
  103764:	00103fa8 	andseq	r3, r0, r8, lsr #31
  103768:	00103fa8 	andseq	r3, r0, r8, lsr #31
  10376c:	00103b2c 	andseq	r3, r0, ip, lsr #22
  103770:	e59d0028 	ldr	r0, [sp, #40]	; 0x28
  103774:	e1a0100b 	mov	r1, fp
  103778:	eb000728 	bl	105420 <__swsetup_r>
  10377c:	e3500000 	cmp	r0, #0
  103780:	01db20bc 	ldrheq	r2, [fp, #12]
  103784:	0affff62 	beq	103514 <_vfprintf_r+0x8c>
  103788:	e3e00000 	mvn	r0, #0
  10378c:	e28ddf43 	add	sp, sp, #268	; 0x10c
  103790:	ecbd8b04 	vpop	{d8-d9}
  103794:	e8bd8ff0 	pop	{r4, r5, r6, r7, r8, r9, sl, fp, pc}
  103798:	e59d0028 	ldr	r0, [sp, #40]	; 0x28
  10379c:	e1a0100b 	mov	r1, fp
  1037a0:	e28d2094 	add	r2, sp, #148	; 0x94
  1037a4:	eb0016ae 	bl	109264 <__sprint_r>
  1037a8:	e3500000 	cmp	r0, #0
  1037ac:	1a000008 	bne	1037d4 <_vfprintf_r+0x34c>
  1037b0:	e1a09008 	mov	r9, r8
  1037b4:	eaffff81 	b	1035c0 <_vfprintf_r+0x138>
  1037b8:	e59d309c 	ldr	r3, [sp, #156]	; 0x9c
  1037bc:	e3530000 	cmp	r3, #0
  1037c0:	0a000003 	beq	1037d4 <_vfprintf_r+0x34c>
  1037c4:	e59d0028 	ldr	r0, [sp, #40]	; 0x28
  1037c8:	e1a0100b 	mov	r1, fp
  1037cc:	e28d2094 	add	r2, sp, #148	; 0x94
  1037d0:	eb0016a3 	bl	109264 <__sprint_r>
  1037d4:	e1db30bc 	ldrh	r3, [fp, #12]
  1037d8:	e3130040 	tst	r3, #64	; 0x40
  1037dc:	1affffe9 	bne	103788 <_vfprintf_r+0x300>
  1037e0:	e59d002c 	ldr	r0, [sp, #44]	; 0x2c
  1037e4:	e28ddf43 	add	sp, sp, #268	; 0x10c
  1037e8:	ecbd8b04 	vpop	{d8-d9}
  1037ec:	e8bd8ff0 	pop	{r4, r5, r6, r7, r8, r9, sl, fp, pc}
  1037f0:	e1db30fe 	ldrsh	r3, [fp, #14]
  1037f4:	e3530000 	cmp	r3, #0
  1037f8:	baffff48 	blt	103520 <_vfprintf_r+0x98>
  1037fc:	e59d0028 	ldr	r0, [sp, #40]	; 0x28
  103800:	e1a0100b 	mov	r1, fp
  103804:	e59d2024 	ldr	r2, [sp, #36]	; 0x24
  103808:	e1a03004 	mov	r3, r4
  10380c:	eb0006d9 	bl	105378 <__sbprintf>
  103810:	e28ddf43 	add	sp, sp, #268	; 0x10c
  103814:	ecbd8b04 	vpop	{d8-d9}
  103818:	e8bd8ff0 	pop	{r4, r5, r6, r7, r8, r9, sl, fp, pc}
  10381c:	e59d0028 	ldr	r0, [sp, #40]	; 0x28
  103820:	eb000e1e 	bl	1070a0 <__sinit>
  103824:	eaffff2b 	b	1034d8 <_vfprintf_r+0x50>
  103828:	e59d4024 	ldr	r4, [sp, #36]	; 0x24
  10382c:	eaffff66 	b	1035cc <_vfprintf_r+0x144>
  103830:	e58d3024 	str	r3, [sp, #36]	; 0x24
  103834:	e59d301c 	ldr	r3, [sp, #28]
  103838:	e3130020 	tst	r3, #32
  10383c:	0a0001cf 	beq	103f80 <_vfprintf_r+0xaf8>
  103840:	e59d3034 	ldr	r3, [sp, #52]	; 0x34
  103844:	e3a02001 	mov	r2, #1
  103848:	e2833007 	add	r3, r3, #7
  10384c:	e3c33007 	bic	r3, r3, #7
  103850:	e2831008 	add	r1, r3, #8
  103854:	e58d1034 	str	r1, [sp, #52]	; 0x34
  103858:	e1c340d0 	ldrd	r4, [r3]
  10385c:	e3a03000 	mov	r3, #0
  103860:	e58d7044 	str	r7, [sp, #68]	; 0x44
  103864:	e1a0a003 	mov	sl, r3
  103868:	e5cd3077 	strb	r3, [sp, #119]	; 0x77
  10386c:	e3570000 	cmp	r7, #0
  103870:	a59d301c 	ldrge	r3, [sp, #28]
  103874:	a3c33080 	bicge	r3, r3, #128	; 0x80
  103878:	a58d301c 	strge	r3, [sp, #28]
  10387c:	e1943005 	orrs	r3, r4, r5
  103880:	13a03001 	movne	r3, #1
  103884:	03a03000 	moveq	r3, #0
  103888:	e3570000 	cmp	r7, #0
  10388c:	13833001 	orrne	r3, r3, #1
  103890:	e3530000 	cmp	r3, #0
  103894:	0a0002cc 	beq	1043cc <_vfprintf_r+0xf44>
  103898:	e3520001 	cmp	r2, #1
  10389c:	0a0003a1 	beq	104728 <_vfprintf_r+0x12a0>
  1038a0:	e3520002 	cmp	r2, #2
  1038a4:	e1a02008 	mov	r2, r8
  1038a8:	1a00000f 	bne	1038ec <_vfprintf_r+0x464>
  1038ac:	e59d105c 	ldr	r1, [sp, #92]	; 0x5c
  1038b0:	e204300f 	and	r3, r4, #15
  1038b4:	e1a04224 	lsr	r4, r4, #4
  1038b8:	e1844e05 	orr	r4, r4, r5, lsl #28
  1038bc:	e1a05225 	lsr	r5, r5, #4
  1038c0:	e7d13003 	ldrb	r3, [r1, r3]
  1038c4:	e1940005 	orrs	r0, r4, r5
  1038c8:	e5623001 	strb	r3, [r2, #-1]!
  1038cc:	1afffff7 	bne	1038b0 <_vfprintf_r+0x428>
  1038d0:	e1a03002 	mov	r3, r2
  1038d4:	e58d2040 	str	r2, [sp, #64]	; 0x40
  1038d8:	e0635008 	rsb	r5, r3, r8
  1038dc:	ea000019 	b	103948 <_vfprintf_r+0x4c0>
	...
  1038e8:	0010c50c 	andseq	ip, r0, ip, lsl #10
  1038ec:	e2043007 	and	r3, r4, #7
  1038f0:	e1a041a4 	lsr	r4, r4, #3
  1038f4:	e1844e85 	orr	r4, r4, r5, lsl #29
  1038f8:	e1a051a5 	lsr	r5, r5, #3
  1038fc:	e1941005 	orrs	r1, r4, r5
  103900:	e2833030 	add	r3, r3, #48	; 0x30
  103904:	e5623001 	strb	r3, [r2, #-1]!
  103908:	1afffff7 	bne	1038ec <_vfprintf_r+0x464>
  10390c:	e59d101c 	ldr	r1, [sp, #28]
  103910:	e58d2040 	str	r2, [sp, #64]	; 0x40
  103914:	e3110001 	tst	r1, #1
  103918:	01a03002 	moveq	r3, r2
  10391c:	00635008 	rsbeq	r5, r3, r8
  103920:	0a000008 	beq	103948 <_vfprintf_r+0x4c0>
  103924:	e3530030 	cmp	r3, #48	; 0x30
  103928:	e59d3040 	ldr	r3, [sp, #64]	; 0x40
  10392c:	0affffe9 	beq	1038d8 <_vfprintf_r+0x450>
  103930:	e2433001 	sub	r3, r3, #1
  103934:	e58d3040 	str	r3, [sp, #64]	; 0x40
  103938:	e1a01003 	mov	r1, r3
  10393c:	e0615008 	rsb	r5, r1, r8
  103940:	e3a03030 	mov	r3, #48	; 0x30
  103944:	e5423001 	strb	r3, [r2, #-1]
  103948:	e1550007 	cmp	r5, r7
  10394c:	e3a03000 	mov	r3, #0
  103950:	e58d3048 	str	r3, [sp, #72]	; 0x48
  103954:	a1a03005 	movge	r3, r5
  103958:	b1a03007 	movlt	r3, r7
  10395c:	e58d3020 	str	r3, [sp, #32]
  103960:	e35a0000 	cmp	sl, #0
  103964:	0a000002 	beq	103974 <_vfprintf_r+0x4ec>
  103968:	e59d3020 	ldr	r3, [sp, #32]
  10396c:	e2833001 	add	r3, r3, #1
  103970:	e58d3020 	str	r3, [sp, #32]
  103974:	e59d301c 	ldr	r3, [sp, #28]
  103978:	e2133002 	ands	r3, r3, #2
  10397c:	e58d3038 	str	r3, [sp, #56]	; 0x38
  103980:	159d3020 	ldrne	r3, [sp, #32]
  103984:	12833002 	addne	r3, r3, #2
  103988:	158d3020 	strne	r3, [sp, #32]
  10398c:	e59d301c 	ldr	r3, [sp, #28]
  103990:	e2133084 	ands	r3, r3, #132	; 0x84
  103994:	e58d303c 	str	r3, [sp, #60]	; 0x3c
  103998:	1a00019a 	bne	104008 <_vfprintf_r+0xb80>
  10399c:	e59d3030 	ldr	r3, [sp, #48]	; 0x30
  1039a0:	e59d2020 	ldr	r2, [sp, #32]
  1039a4:	e0624003 	rsb	r4, r2, r3
  1039a8:	e3540000 	cmp	r4, #0
  1039ac:	da000195 	ble	104008 <_vfprintf_r+0xb80>
  1039b0:	e3540010 	cmp	r4, #16
  1039b4:	da00058f 	ble	104ff8 <_vfprintf_r+0x1b70>
  1039b8:	e30ca4fc 	movw	sl, #50428	; 0xc4fc
  1039bc:	e58d6060 	str	r6, [sp, #96]	; 0x60
  1039c0:	e58d5064 	str	r5, [sp, #100]	; 0x64
  1039c4:	e340a010 	movt	sl, #16
  1039c8:	e59d109c 	ldr	r1, [sp, #156]	; 0x9c
  1039cc:	e3a07010 	mov	r7, #16
  1039d0:	e59d2098 	ldr	r2, [sp, #152]	; 0x98
  1039d4:	e59d5028 	ldr	r5, [sp, #40]	; 0x28
  1039d8:	e59d6050 	ldr	r6, [sp, #80]	; 0x50
  1039dc:	ea000002 	b	1039ec <_vfprintf_r+0x564>
  1039e0:	e2444010 	sub	r4, r4, #16
  1039e4:	e3540010 	cmp	r4, #16
  1039e8:	da000013 	ble	103a3c <_vfprintf_r+0x5b4>
  1039ec:	e2822001 	add	r2, r2, #1
  1039f0:	e2811010 	add	r1, r1, #16
  1039f4:	e3520007 	cmp	r2, #7
  1039f8:	e88900c0 	stm	r9, {r6, r7}
  1039fc:	e58d2098 	str	r2, [sp, #152]	; 0x98
  103a00:	d2899008 	addle	r9, r9, #8
  103a04:	e58d109c 	str	r1, [sp, #156]	; 0x9c
  103a08:	dafffff4 	ble	1039e0 <_vfprintf_r+0x558>
  103a0c:	e1a00005 	mov	r0, r5
  103a10:	e1a0100b 	mov	r1, fp
  103a14:	e28d2094 	add	r2, sp, #148	; 0x94
  103a18:	e1a09008 	mov	r9, r8
  103a1c:	eb001610 	bl	109264 <__sprint_r>
  103a20:	e3500000 	cmp	r0, #0
  103a24:	1affff6a 	bne	1037d4 <_vfprintf_r+0x34c>
  103a28:	e2444010 	sub	r4, r4, #16
  103a2c:	e59d109c 	ldr	r1, [sp, #156]	; 0x9c
  103a30:	e3540010 	cmp	r4, #16
  103a34:	e59d2098 	ldr	r2, [sp, #152]	; 0x98
  103a38:	caffffeb 	bgt	1039ec <_vfprintf_r+0x564>
  103a3c:	e59d6060 	ldr	r6, [sp, #96]	; 0x60
  103a40:	e59d5064 	ldr	r5, [sp, #100]	; 0x64
  103a44:	e2822001 	add	r2, r2, #1
  103a48:	e0843001 	add	r3, r4, r1
  103a4c:	e3520007 	cmp	r2, #7
  103a50:	e58d2098 	str	r2, [sp, #152]	; 0x98
  103a54:	e58d309c 	str	r3, [sp, #156]	; 0x9c
  103a58:	e589a000 	str	sl, [r9]
  103a5c:	e5894004 	str	r4, [r9, #4]
  103a60:	ca000160 	bgt	103fe8 <_vfprintf_r+0xb60>
  103a64:	e2899008 	add	r9, r9, #8
  103a68:	e5dda077 	ldrb	sl, [sp, #119]	; 0x77
  103a6c:	ea000166 	b	10400c <_vfprintf_r+0xb84>
  103a70:	e1a01003 	mov	r1, r3
  103a74:	e59d001c 	ldr	r0, [sp, #28]
  103a78:	e5d36000 	ldrb	r6, [r3]
  103a7c:	e3800004 	orr	r0, r0, #4
  103a80:	e58d001c 	str	r0, [sp, #28]
  103a84:	eafffedb 	b	1035f8 <_vfprintf_r+0x170>
  103a88:	e58d3024 	str	r3, [sp, #36]	; 0x24
  103a8c:	e59d301c 	ldr	r3, [sp, #28]
  103a90:	e2135020 	ands	r5, r3, #32
  103a94:	0a000106 	beq	103eb4 <_vfprintf_r+0xa2c>
  103a98:	e59d3034 	ldr	r3, [sp, #52]	; 0x34
  103a9c:	e3a02000 	mov	r2, #0
  103aa0:	e2833007 	add	r3, r3, #7
  103aa4:	e3c33007 	bic	r3, r3, #7
  103aa8:	e2831008 	add	r1, r3, #8
  103aac:	e58d1034 	str	r1, [sp, #52]	; 0x34
  103ab0:	e1c340d0 	ldrd	r4, [r3]
  103ab4:	eaffff68 	b	10385c <_vfprintf_r+0x3d4>
  103ab8:	e58d3024 	str	r3, [sp, #36]	; 0x24
  103abc:	e3a04000 	mov	r4, #0
  103ac0:	e59d3034 	ldr	r3, [sp, #52]	; 0x34
  103ac4:	e1a05007 	mov	r5, r7
  103ac8:	e5cd4077 	strb	r4, [sp, #119]	; 0x77
  103acc:	e2837004 	add	r7, r3, #4
  103ad0:	e5932000 	ldr	r2, [r3]
  103ad4:	e1520004 	cmp	r2, r4
  103ad8:	e58d2040 	str	r2, [sp, #64]	; 0x40
  103adc:	0a000563 	beq	105070 <_vfprintf_r+0x1be8>
  103ae0:	e3550000 	cmp	r5, #0
  103ae4:	e59d0040 	ldr	r0, [sp, #64]	; 0x40
  103ae8:	ba000539 	blt	104fd4 <_vfprintf_r+0x1b4c>
  103aec:	e1a01004 	mov	r1, r4
  103af0:	e1a02005 	mov	r2, r5
  103af4:	fa000f3d 	blx	1077f0 <memchr>
  103af8:	e3500000 	cmp	r0, #0
  103afc:	0a00059a 	beq	10516c <_vfprintf_r+0x1ce4>
  103b00:	e59d3040 	ldr	r3, [sp, #64]	; 0x40
  103b04:	e58d4044 	str	r4, [sp, #68]	; 0x44
  103b08:	e0633000 	rsb	r3, r3, r0
  103b0c:	e58d7034 	str	r7, [sp, #52]	; 0x34
  103b10:	e1530005 	cmp	r3, r5
  103b14:	e58d4048 	str	r4, [sp, #72]	; 0x48
  103b18:	e5dda077 	ldrb	sl, [sp, #119]	; 0x77
  103b1c:	b1a05003 	movlt	r5, r3
  103b20:	e1c53fc5 	bic	r3, r5, r5, asr #31
  103b24:	e58d3020 	str	r3, [sp, #32]
  103b28:	eaffff8c 	b	103960 <_vfprintf_r+0x4d8>
  103b2c:	e58d3024 	str	r3, [sp, #36]	; 0x24
  103b30:	e30c374c 	movw	r3, #51020	; 0xc74c
  103b34:	e3403010 	movt	r3, #16
  103b38:	e58d305c 	str	r3, [sp, #92]	; 0x5c
  103b3c:	e59d301c 	ldr	r3, [sp, #28]
  103b40:	e5cd2077 	strb	r2, [sp, #119]	; 0x77
  103b44:	e3130020 	tst	r3, #32
  103b48:	0a0000eb 	beq	103efc <_vfprintf_r+0xa74>
  103b4c:	e59d3034 	ldr	r3, [sp, #52]	; 0x34
  103b50:	e2833007 	add	r3, r3, #7
  103b54:	e3c33007 	bic	r3, r3, #7
  103b58:	e2832008 	add	r2, r3, #8
  103b5c:	e58d2034 	str	r2, [sp, #52]	; 0x34
  103b60:	e1c340d0 	ldrd	r4, [r3]
  103b64:	e59d301c 	ldr	r3, [sp, #28]
  103b68:	e3130001 	tst	r3, #1
  103b6c:	0a0002b3 	beq	104640 <_vfprintf_r+0x11b8>
  103b70:	e1943005 	orrs	r3, r4, r5
  103b74:	0a0002b1 	beq	104640 <_vfprintf_r+0x11b8>
  103b78:	e59d301c 	ldr	r3, [sp, #28]
  103b7c:	e3a02002 	mov	r2, #2
  103b80:	e5cd6079 	strb	r6, [sp, #121]	; 0x79
  103b84:	e3833002 	orr	r3, r3, #2
  103b88:	e58d301c 	str	r3, [sp, #28]
  103b8c:	e3a03030 	mov	r3, #48	; 0x30
  103b90:	e5cd3078 	strb	r3, [sp, #120]	; 0x78
  103b94:	eaffff30 	b	10385c <_vfprintf_r+0x3d4>
  103b98:	e3520000 	cmp	r2, #0
  103b9c:	e5d36000 	ldrb	r6, [r3]
  103ba0:	e1a01003 	mov	r1, r3
  103ba4:	03a02020 	moveq	r2, #32
  103ba8:	eafffe92 	b	1035f8 <_vfprintf_r+0x170>
  103bac:	e59d101c 	ldr	r1, [sp, #28]
  103bb0:	e3811001 	orr	r1, r1, #1
  103bb4:	e58d101c 	str	r1, [sp, #28]
  103bb8:	e1a01003 	mov	r1, r3
  103bbc:	e5d36000 	ldrb	r6, [r3]
  103bc0:	eafffe8c 	b	1035f8 <_vfprintf_r+0x170>
  103bc4:	e59d1034 	ldr	r1, [sp, #52]	; 0x34
  103bc8:	e2811004 	add	r1, r1, #4
  103bcc:	e5110004 	ldr	r0, [r1, #-4]
  103bd0:	e3500000 	cmp	r0, #0
  103bd4:	e58d0030 	str	r0, [sp, #48]	; 0x30
  103bd8:	ba0004b5 	blt	104eb4 <_vfprintf_r+0x1a2c>
  103bdc:	e58d1034 	str	r1, [sp, #52]	; 0x34
  103be0:	e1a01003 	mov	r1, r3
  103be4:	e5d36000 	ldrb	r6, [r3]
  103be8:	eafffe82 	b	1035f8 <_vfprintf_r+0x170>
  103bec:	e5d36000 	ldrb	r6, [r3]
  103bf0:	e1a01003 	mov	r1, r3
  103bf4:	e3a0202b 	mov	r2, #43	; 0x2b
  103bf8:	eafffe7e 	b	1035f8 <_vfprintf_r+0x170>
  103bfc:	e59d101c 	ldr	r1, [sp, #28]
  103c00:	e3811080 	orr	r1, r1, #128	; 0x80
  103c04:	e58d101c 	str	r1, [sp, #28]
  103c08:	e1a01003 	mov	r1, r3
  103c0c:	e5d36000 	ldrb	r6, [r3]
  103c10:	eafffe78 	b	1035f8 <_vfprintf_r+0x170>
  103c14:	e2460030 	sub	r0, r6, #48	; 0x30
  103c18:	e3a01000 	mov	r1, #0
  103c1c:	e0811101 	add	r1, r1, r1, lsl #2
  103c20:	e4d36001 	ldrb	r6, [r3], #1
  103c24:	e0801081 	add	r1, r0, r1, lsl #1
  103c28:	e2460030 	sub	r0, r6, #48	; 0x30
  103c2c:	e3500009 	cmp	r0, #9
  103c30:	9afffff9 	bls	103c1c <_vfprintf_r+0x794>
  103c34:	e58d1030 	str	r1, [sp, #48]	; 0x30
  103c38:	eafffe6f 	b	1035fc <_vfprintf_r+0x174>
  103c3c:	e59d2034 	ldr	r2, [sp, #52]	; 0x34
  103c40:	e3a06078 	mov	r6, #120	; 0x78
  103c44:	e59d101c 	ldr	r1, [sp, #28]
  103c48:	e3a05000 	mov	r5, #0
  103c4c:	e58d3024 	str	r3, [sp, #36]	; 0x24
  103c50:	e30c374c 	movw	r3, #51020	; 0xc74c
  103c54:	e5924000 	ldr	r4, [r2]
  103c58:	e3403010 	movt	r3, #16
  103c5c:	e2822004 	add	r2, r2, #4
  103c60:	e3811002 	orr	r1, r1, #2
  103c64:	e58d2034 	str	r2, [sp, #52]	; 0x34
  103c68:	e3a02002 	mov	r2, #2
  103c6c:	e58d305c 	str	r3, [sp, #92]	; 0x5c
  103c70:	e3a03030 	mov	r3, #48	; 0x30
  103c74:	e58d101c 	str	r1, [sp, #28]
  103c78:	e5cd6079 	strb	r6, [sp, #121]	; 0x79
  103c7c:	e5cd3078 	strb	r3, [sp, #120]	; 0x78
  103c80:	eafffef5 	b	10385c <_vfprintf_r+0x3d4>
  103c84:	e59d101c 	ldr	r1, [sp, #28]
  103c88:	e3811020 	orr	r1, r1, #32
  103c8c:	e58d101c 	str	r1, [sp, #28]
  103c90:	e1a01003 	mov	r1, r3
  103c94:	e5d36000 	ldrb	r6, [r3]
  103c98:	eafffe56 	b	1035f8 <_vfprintf_r+0x170>
  103c9c:	e58d3024 	str	r3, [sp, #36]	; 0x24
  103ca0:	e59d301c 	ldr	r3, [sp, #28]
  103ca4:	e5cd2077 	strb	r2, [sp, #119]	; 0x77
  103ca8:	e3833010 	orr	r3, r3, #16
  103cac:	e58d301c 	str	r3, [sp, #28]
  103cb0:	e59d301c 	ldr	r3, [sp, #28]
  103cb4:	e3130020 	tst	r3, #32
  103cb8:	0a00003b 	beq	103dac <_vfprintf_r+0x924>
  103cbc:	e59d3034 	ldr	r3, [sp, #52]	; 0x34
  103cc0:	e2833007 	add	r3, r3, #7
  103cc4:	e3c33007 	bic	r3, r3, #7
  103cc8:	e2832008 	add	r2, r3, #8
  103ccc:	e58d2034 	str	r2, [sp, #52]	; 0x34
  103cd0:	e1c320d0 	ldrd	r2, [r3]
  103cd4:	e1a04002 	mov	r4, r2
  103cd8:	e1a05003 	mov	r5, r3
  103cdc:	e3520000 	cmp	r2, #0
  103ce0:	e2d33000 	sbcs	r3, r3, #0
  103ce4:	ba00036c 	blt	104a9c <_vfprintf_r+0x1614>
  103ce8:	e5dda077 	ldrb	sl, [sp, #119]	; 0x77
  103cec:	e3a02001 	mov	r2, #1
  103cf0:	e58d7044 	str	r7, [sp, #68]	; 0x44
  103cf4:	eafffedc 	b	10386c <_vfprintf_r+0x3e4>
  103cf8:	e58d3024 	str	r3, [sp, #36]	; 0x24
  103cfc:	e59d3034 	ldr	r3, [sp, #52]	; 0x34
  103d00:	e5cd2077 	strb	r2, [sp, #119]	; 0x77
  103d04:	e2833007 	add	r3, r3, #7
  103d08:	e3c33007 	bic	r3, r3, #7
  103d0c:	e2832008 	add	r2, r3, #8
  103d10:	e58d2034 	str	r2, [sp, #52]	; 0x34
  103d14:	ed938b00 	vldr	d8, [r3]
  103d18:	ec510b18 	vmov	r0, r1, d8
  103d1c:	eb0013dc 	bl	108c94 <__fpclassifyd>
  103d20:	e3500001 	cmp	r0, #1
  103d24:	1a000363 	bne	104ab8 <_vfprintf_r+0x1630>
  103d28:	eeb58bc0 	vcmpe.f64	d8, #0.0
  103d2c:	e59dc01c 	ldr	ip, [sp, #28]
  103d30:	e30c3728 	movw	r3, #50984	; 0xc728
  103d34:	e3a01003 	mov	r1, #3
  103d38:	e30c272c 	movw	r2, #50988	; 0xc72c
  103d3c:	e3403010 	movt	r3, #16
  103d40:	e3a00000 	mov	r0, #0
  103d44:	e3402010 	movt	r2, #16
  103d48:	eef1fa10 	vmrs	APSR_nzcv, fpscr
  103d4c:	43a0a02d 	movmi	sl, #45	; 0x2d
  103d50:	55dda077 	ldrbpl	sl, [sp, #119]	; 0x77
  103d54:	e3ccc080 	bic	ip, ip, #128	; 0x80
  103d58:	45cda077 	strbmi	sl, [sp, #119]	; 0x77
  103d5c:	e3560047 	cmp	r6, #71	; 0x47
  103d60:	e58d1020 	str	r1, [sp, #32]
  103d64:	e1a05001 	mov	r5, r1
  103d68:	d1a02003 	movle	r2, r3
  103d6c:	e58d0044 	str	r0, [sp, #68]	; 0x44
  103d70:	e58dc01c 	str	ip, [sp, #28]
  103d74:	e58d2040 	str	r2, [sp, #64]	; 0x40
  103d78:	e58d0048 	str	r0, [sp, #72]	; 0x48
  103d7c:	eafffef7 	b	103960 <_vfprintf_r+0x4d8>
  103d80:	e59d101c 	ldr	r1, [sp, #28]
  103d84:	e3811008 	orr	r1, r1, #8
  103d88:	e58d101c 	str	r1, [sp, #28]
  103d8c:	e1a01003 	mov	r1, r3
  103d90:	e5d36000 	ldrb	r6, [r3]
  103d94:	eafffe17 	b	1035f8 <_vfprintf_r+0x170>
  103d98:	e58d3024 	str	r3, [sp, #36]	; 0x24
  103d9c:	e59d301c 	ldr	r3, [sp, #28]
  103da0:	e5cd2077 	strb	r2, [sp, #119]	; 0x77
  103da4:	e3130020 	tst	r3, #32
  103da8:	1affffc3 	bne	103cbc <_vfprintf_r+0x834>
  103dac:	e59d301c 	ldr	r3, [sp, #28]
  103db0:	e3130010 	tst	r3, #16
  103db4:	0a0003ac 	beq	104c6c <_vfprintf_r+0x17e4>
  103db8:	e59d3034 	ldr	r3, [sp, #52]	; 0x34
  103dbc:	e5934000 	ldr	r4, [r3]
  103dc0:	e2833004 	add	r3, r3, #4
  103dc4:	e58d3034 	str	r3, [sp, #52]	; 0x34
  103dc8:	e1a05fc4 	asr	r5, r4, #31
  103dcc:	e1a02004 	mov	r2, r4
  103dd0:	e1a03005 	mov	r3, r5
  103dd4:	eaffffc0 	b	103cdc <_vfprintf_r+0x854>
  103dd8:	e59d101c 	ldr	r1, [sp, #28]
  103ddc:	e3811040 	orr	r1, r1, #64	; 0x40
  103de0:	e58d101c 	str	r1, [sp, #28]
  103de4:	e1a01003 	mov	r1, r3
  103de8:	e5d36000 	ldrb	r6, [r3]
  103dec:	eafffe01 	b	1035f8 <_vfprintf_r+0x170>
  103df0:	e5d36000 	ldrb	r6, [r3]
  103df4:	e59d101c 	ldr	r1, [sp, #28]
  103df8:	e356006c 	cmp	r6, #108	; 0x6c
  103dfc:	03811020 	orreq	r1, r1, #32
  103e00:	13811010 	orrne	r1, r1, #16
  103e04:	058d101c 	streq	r1, [sp, #28]
  103e08:	02831001 	addeq	r1, r3, #1
  103e0c:	158d101c 	strne	r1, [sp, #28]
  103e10:	11a01003 	movne	r1, r3
  103e14:	05d36001 	ldrbeq	r6, [r3, #1]
  103e18:	eafffdf6 	b	1035f8 <_vfprintf_r+0x170>
  103e1c:	e58d3024 	str	r3, [sp, #36]	; 0x24
  103e20:	e59d301c 	ldr	r3, [sp, #28]
  103e24:	e5cd2077 	strb	r2, [sp, #119]	; 0x77
  103e28:	e3130020 	tst	r3, #32
  103e2c:	0a00039a 	beq	104c9c <_vfprintf_r+0x1814>
  103e30:	e59d102c 	ldr	r1, [sp, #44]	; 0x2c
  103e34:	e59d2034 	ldr	r2, [sp, #52]	; 0x34
  103e38:	ee801b90 	vdup.32	d16, r1
  103e3c:	e2822004 	add	r2, r2, #4
  103e40:	e5123004 	ldr	r3, [r2, #-4]
  103e44:	f2e000b0 	vshr.s64	d16, d16, #32
  103e48:	e58d2034 	str	r2, [sp, #52]	; 0x34
  103e4c:	edc30b00 	vstr	d16, [r3]
  103e50:	eafffdc3 	b	103564 <_vfprintf_r+0xdc>
  103e54:	e5d36000 	ldrb	r6, [r3]
  103e58:	e2831001 	add	r1, r3, #1
  103e5c:	e356002a 	cmp	r6, #42	; 0x2a
  103e60:	0a000529 	beq	10530c <_vfprintf_r+0x1e84>
  103e64:	e2460030 	sub	r0, r6, #48	; 0x30
  103e68:	e1a03001 	mov	r3, r1
  103e6c:	e3500009 	cmp	r0, #9
  103e70:	e3a07000 	mov	r7, #0
  103e74:	8afffde0 	bhi	1035fc <_vfprintf_r+0x174>
  103e78:	e0877107 	add	r7, r7, r7, lsl #2
  103e7c:	e4d36001 	ldrb	r6, [r3], #1
  103e80:	e0807087 	add	r7, r0, r7, lsl #1
  103e84:	e2460030 	sub	r0, r6, #48	; 0x30
  103e88:	e3500009 	cmp	r0, #9
  103e8c:	9afffff9 	bls	103e78 <_vfprintf_r+0x9f0>
  103e90:	e1877fc7 	orr	r7, r7, r7, asr #31
  103e94:	eafffdd8 	b	1035fc <_vfprintf_r+0x174>
  103e98:	e58d3024 	str	r3, [sp, #36]	; 0x24
  103e9c:	e59d301c 	ldr	r3, [sp, #28]
  103ea0:	e3833010 	orr	r3, r3, #16
  103ea4:	e58d301c 	str	r3, [sp, #28]
  103ea8:	e59d301c 	ldr	r3, [sp, #28]
  103eac:	e2135020 	ands	r5, r3, #32
  103eb0:	1afffef8 	bne	103a98 <_vfprintf_r+0x610>
  103eb4:	e59d301c 	ldr	r3, [sp, #28]
  103eb8:	e2133010 	ands	r3, r3, #16
  103ebc:	0a000354 	beq	104c14 <_vfprintf_r+0x178c>
  103ec0:	e59d3034 	ldr	r3, [sp, #52]	; 0x34
  103ec4:	e1a02005 	mov	r2, r5
  103ec8:	e3a05000 	mov	r5, #0
  103ecc:	e2833004 	add	r3, r3, #4
  103ed0:	e5134004 	ldr	r4, [r3, #-4]
  103ed4:	e58d3034 	str	r3, [sp, #52]	; 0x34
  103ed8:	eafffe5f 	b	10385c <_vfprintf_r+0x3d4>
  103edc:	e58d3024 	str	r3, [sp, #36]	; 0x24
  103ee0:	e30c3738 	movw	r3, #51000	; 0xc738
  103ee4:	e3403010 	movt	r3, #16
  103ee8:	e58d305c 	str	r3, [sp, #92]	; 0x5c
  103eec:	e59d301c 	ldr	r3, [sp, #28]
  103ef0:	e5cd2077 	strb	r2, [sp, #119]	; 0x77
  103ef4:	e3130020 	tst	r3, #32
  103ef8:	1affff13 	bne	103b4c <_vfprintf_r+0x6c4>
  103efc:	e59d301c 	ldr	r3, [sp, #28]
  103f00:	e3130010 	tst	r3, #16
  103f04:	0a00034c 	beq	104c3c <_vfprintf_r+0x17b4>
  103f08:	e59d3034 	ldr	r3, [sp, #52]	; 0x34
  103f0c:	e3a05000 	mov	r5, #0
  103f10:	e2833004 	add	r3, r3, #4
  103f14:	e5134004 	ldr	r4, [r3, #-4]
  103f18:	e58d3034 	str	r3, [sp, #52]	; 0x34
  103f1c:	eaffff10 	b	103b64 <_vfprintf_r+0x6dc>
  103f20:	e59d0034 	ldr	r0, [sp, #52]	; 0x34
  103f24:	e3a01001 	mov	r1, #1
  103f28:	e58d3024 	str	r3, [sp, #36]	; 0x24
  103f2c:	e3a03000 	mov	r3, #0
  103f30:	e1a0a003 	mov	sl, r3
  103f34:	e2800004 	add	r0, r0, #4
  103f38:	e5102004 	ldr	r2, [r0, #-4]
  103f3c:	e1a05001 	mov	r5, r1
  103f40:	e5cd3077 	strb	r3, [sp, #119]	; 0x77
  103f44:	e58d3044 	str	r3, [sp, #68]	; 0x44
  103f48:	e58d3048 	str	r3, [sp, #72]	; 0x48
  103f4c:	e28d30a0 	add	r3, sp, #160	; 0xa0
  103f50:	e58d1020 	str	r1, [sp, #32]
  103f54:	e58d0034 	str	r0, [sp, #52]	; 0x34
  103f58:	e5cd20a0 	strb	r2, [sp, #160]	; 0xa0
  103f5c:	e58d3040 	str	r3, [sp, #64]	; 0x40
  103f60:	eafffe83 	b	103974 <_vfprintf_r+0x4ec>
  103f64:	e58d3024 	str	r3, [sp, #36]	; 0x24
  103f68:	e59d301c 	ldr	r3, [sp, #28]
  103f6c:	e3833010 	orr	r3, r3, #16
  103f70:	e58d301c 	str	r3, [sp, #28]
  103f74:	e59d301c 	ldr	r3, [sp, #28]
  103f78:	e3130020 	tst	r3, #32
  103f7c:	1afffe2f 	bne	103840 <_vfprintf_r+0x3b8>
  103f80:	e59d301c 	ldr	r3, [sp, #28]
  103f84:	e3130010 	tst	r3, #16
  103f88:	0a000357 	beq	104cec <_vfprintf_r+0x1864>
  103f8c:	e59d3034 	ldr	r3, [sp, #52]	; 0x34
  103f90:	e5934000 	ldr	r4, [r3]
  103f94:	e3a02001 	mov	r2, #1
  103f98:	e2833004 	add	r3, r3, #4
  103f9c:	e3a05000 	mov	r5, #0
  103fa0:	e58d3034 	str	r3, [sp, #52]	; 0x34
  103fa4:	eafffe2c 	b	10385c <_vfprintf_r+0x3d4>
  103fa8:	e3560000 	cmp	r6, #0
  103fac:	e58d3024 	str	r3, [sp, #36]	; 0x24
  103fb0:	e5cd2077 	strb	r2, [sp, #119]	; 0x77
  103fb4:	0afffdff 	beq	1037b8 <_vfprintf_r+0x330>
  103fb8:	e3a03000 	mov	r3, #0
  103fbc:	e3a02001 	mov	r2, #1
  103fc0:	e1a0a003 	mov	sl, r3
  103fc4:	e5cd3077 	strb	r3, [sp, #119]	; 0x77
  103fc8:	e58d3044 	str	r3, [sp, #68]	; 0x44
  103fcc:	e1a05002 	mov	r5, r2
  103fd0:	e58d3048 	str	r3, [sp, #72]	; 0x48
  103fd4:	e28d30a0 	add	r3, sp, #160	; 0xa0
  103fd8:	e58d2020 	str	r2, [sp, #32]
  103fdc:	e5cd60a0 	strb	r6, [sp, #160]	; 0xa0
  103fe0:	e58d3040 	str	r3, [sp, #64]	; 0x40
  103fe4:	eafffe62 	b	103974 <_vfprintf_r+0x4ec>
  103fe8:	e59d0028 	ldr	r0, [sp, #40]	; 0x28
  103fec:	e1a0100b 	mov	r1, fp
  103ff0:	e28d2094 	add	r2, sp, #148	; 0x94
  103ff4:	eb00149a 	bl	109264 <__sprint_r>
  103ff8:	e3500000 	cmp	r0, #0
  103ffc:	1afffdf4 	bne	1037d4 <_vfprintf_r+0x34c>
  104000:	e5dda077 	ldrb	sl, [sp, #119]	; 0x77
  104004:	e1a09008 	mov	r9, r8
  104008:	e59d309c 	ldr	r3, [sp, #156]	; 0x9c
  10400c:	e35a0000 	cmp	sl, #0
  104010:	0a00000b 	beq	104044 <_vfprintf_r+0xbbc>
  104014:	e59d2098 	ldr	r2, [sp, #152]	; 0x98
  104018:	e2833001 	add	r3, r3, #1
  10401c:	e28d1077 	add	r1, sp, #119	; 0x77
  104020:	e58d309c 	str	r3, [sp, #156]	; 0x9c
  104024:	e2822001 	add	r2, r2, #1
  104028:	e5891000 	str	r1, [r9]
  10402c:	e3520007 	cmp	r2, #7
  104030:	e58d2098 	str	r2, [sp, #152]	; 0x98
  104034:	e3a02001 	mov	r2, #1
  104038:	e5892004 	str	r2, [r9, #4]
  10403c:	d2899008 	addle	r9, r9, #8
  104040:	ca00016c 	bgt	1045f8 <_vfprintf_r+0x1170>
  104044:	e59d2038 	ldr	r2, [sp, #56]	; 0x38
  104048:	e3520000 	cmp	r2, #0
  10404c:	0a00000b 	beq	104080 <_vfprintf_r+0xbf8>
  104050:	e59d2098 	ldr	r2, [sp, #152]	; 0x98
  104054:	e2833002 	add	r3, r3, #2
  104058:	e28d1078 	add	r1, sp, #120	; 0x78
  10405c:	e58d309c 	str	r3, [sp, #156]	; 0x9c
  104060:	e2822001 	add	r2, r2, #1
  104064:	e5891000 	str	r1, [r9]
  104068:	e3520007 	cmp	r2, #7
  10406c:	e58d2098 	str	r2, [sp, #152]	; 0x98
  104070:	e3a02002 	mov	r2, #2
  104074:	e5892004 	str	r2, [r9, #4]
  104078:	d2899008 	addle	r9, r9, #8
  10407c:	ca000166 	bgt	10461c <_vfprintf_r+0x1194>
  104080:	e59d203c 	ldr	r2, [sp, #60]	; 0x3c
  104084:	e3520080 	cmp	r2, #128	; 0x80
  104088:	0a0000dd 	beq	104404 <_vfprintf_r+0xf7c>
  10408c:	e59d2044 	ldr	r2, [sp, #68]	; 0x44
  104090:	e0657002 	rsb	r7, r5, r2
  104094:	e3570000 	cmp	r7, #0
  104098:	da000033 	ble	10416c <_vfprintf_r+0xce4>
  10409c:	e3570010 	cmp	r7, #16
  1040a0:	e59d2098 	ldr	r2, [sp, #152]	; 0x98
  1040a4:	e51f47c4 	ldr	r4, [pc, #-1988]	; 1038e8 <_vfprintf_r+0x460>
  1040a8:	da00001f 	ble	10412c <_vfprintf_r+0xca4>
  1040ac:	e58d5038 	str	r5, [sp, #56]	; 0x38
  1040b0:	e3a0a010 	mov	sl, #16
  1040b4:	e1a05004 	mov	r5, r4
  1040b8:	e1a01003 	mov	r1, r3
  1040bc:	e59d4028 	ldr	r4, [sp, #40]	; 0x28
  1040c0:	ea000002 	b	1040d0 <_vfprintf_r+0xc48>
  1040c4:	e2477010 	sub	r7, r7, #16
  1040c8:	e3570010 	cmp	r7, #16
  1040cc:	da000013 	ble	104120 <_vfprintf_r+0xc98>
  1040d0:	e2822001 	add	r2, r2, #1
  1040d4:	e2811010 	add	r1, r1, #16
  1040d8:	e3520007 	cmp	r2, #7
  1040dc:	e8890420 	stm	r9, {r5, sl}
  1040e0:	e58d2098 	str	r2, [sp, #152]	; 0x98
  1040e4:	d2899008 	addle	r9, r9, #8
  1040e8:	e58d109c 	str	r1, [sp, #156]	; 0x9c
  1040ec:	dafffff4 	ble	1040c4 <_vfprintf_r+0xc3c>
  1040f0:	e1a00004 	mov	r0, r4
  1040f4:	e1a0100b 	mov	r1, fp
  1040f8:	e28d2094 	add	r2, sp, #148	; 0x94
  1040fc:	e1a09008 	mov	r9, r8
  104100:	eb001457 	bl	109264 <__sprint_r>
  104104:	e3500000 	cmp	r0, #0
  104108:	1afffdb1 	bne	1037d4 <_vfprintf_r+0x34c>
  10410c:	e2477010 	sub	r7, r7, #16
  104110:	e59d109c 	ldr	r1, [sp, #156]	; 0x9c
  104114:	e3570010 	cmp	r7, #16
  104118:	e59d2098 	ldr	r2, [sp, #152]	; 0x98
  10411c:	caffffeb 	bgt	1040d0 <_vfprintf_r+0xc48>
  104120:	e1a04005 	mov	r4, r5
  104124:	e59d5038 	ldr	r5, [sp, #56]	; 0x38
  104128:	e1a03001 	mov	r3, r1
  10412c:	e2822001 	add	r2, r2, #1
  104130:	e0833007 	add	r3, r3, r7
  104134:	e3520007 	cmp	r2, #7
  104138:	e8890090 	stm	r9, {r4, r7}
  10413c:	e58d2098 	str	r2, [sp, #152]	; 0x98
  104140:	d2899008 	addle	r9, r9, #8
  104144:	e58d309c 	str	r3, [sp, #156]	; 0x9c
  104148:	da000007 	ble	10416c <_vfprintf_r+0xce4>
  10414c:	e59d0028 	ldr	r0, [sp, #40]	; 0x28
  104150:	e1a0100b 	mov	r1, fp
  104154:	e28d2094 	add	r2, sp, #148	; 0x94
  104158:	eb001441 	bl	109264 <__sprint_r>
  10415c:	e3500000 	cmp	r0, #0
  104160:	1afffd9b 	bne	1037d4 <_vfprintf_r+0x34c>
  104164:	e59d309c 	ldr	r3, [sp, #156]	; 0x9c
  104168:	e1a09008 	mov	r9, r8
  10416c:	e59d201c 	ldr	r2, [sp, #28]
  104170:	e3120c01 	tst	r2, #256	; 0x100
  104174:	1a00004f 	bne	1042b8 <_vfprintf_r+0xe30>
  104178:	e59d2098 	ldr	r2, [sp, #152]	; 0x98
  10417c:	e0833005 	add	r3, r3, r5
  104180:	e59d1040 	ldr	r1, [sp, #64]	; 0x40
  104184:	e2822001 	add	r2, r2, #1
  104188:	e58d309c 	str	r3, [sp, #156]	; 0x9c
  10418c:	e3520007 	cmp	r2, #7
  104190:	e5895004 	str	r5, [r9, #4]
  104194:	e5891000 	str	r1, [r9]
  104198:	e58d2098 	str	r2, [sp, #152]	; 0x98
  10419c:	ca000105 	bgt	1045b8 <_vfprintf_r+0x1130>
  1041a0:	e2899008 	add	r9, r9, #8
  1041a4:	e59d201c 	ldr	r2, [sp, #28]
  1041a8:	e3120004 	tst	r2, #4
  1041ac:	0a000034 	beq	104284 <_vfprintf_r+0xdfc>
  1041b0:	e59d2030 	ldr	r2, [sp, #48]	; 0x30
  1041b4:	e59d1020 	ldr	r1, [sp, #32]
  1041b8:	e0614002 	rsb	r4, r1, r2
  1041bc:	e3540000 	cmp	r4, #0
  1041c0:	da00002f 	ble	104284 <_vfprintf_r+0xdfc>
  1041c4:	e3540010 	cmp	r4, #16
  1041c8:	da0003a4 	ble	105060 <_vfprintf_r+0x1bd8>
  1041cc:	e30ca4fc 	movw	sl, #50428	; 0xc4fc
  1041d0:	e59d2098 	ldr	r2, [sp, #152]	; 0x98
  1041d4:	e340a010 	movt	sl, #16
  1041d8:	e3a05010 	mov	r5, #16
  1041dc:	e59d6028 	ldr	r6, [sp, #40]	; 0x28
  1041e0:	e59d7050 	ldr	r7, [sp, #80]	; 0x50
  1041e4:	ea000002 	b	1041f4 <_vfprintf_r+0xd6c>
  1041e8:	e2444010 	sub	r4, r4, #16
  1041ec:	e3540010 	cmp	r4, #16
  1041f0:	da000014 	ble	104248 <_vfprintf_r+0xdc0>
  1041f4:	e2822001 	add	r2, r2, #1
  1041f8:	e2833010 	add	r3, r3, #16
  1041fc:	e3520007 	cmp	r2, #7
  104200:	e5897000 	str	r7, [r9]
  104204:	e5895004 	str	r5, [r9, #4]
  104208:	d2899008 	addle	r9, r9, #8
  10420c:	e58d2098 	str	r2, [sp, #152]	; 0x98
  104210:	e58d309c 	str	r3, [sp, #156]	; 0x9c
  104214:	dafffff3 	ble	1041e8 <_vfprintf_r+0xd60>
  104218:	e1a00006 	mov	r0, r6
  10421c:	e1a0100b 	mov	r1, fp
  104220:	e28d2094 	add	r2, sp, #148	; 0x94
  104224:	e1a09008 	mov	r9, r8
  104228:	eb00140d 	bl	109264 <__sprint_r>
  10422c:	e3500000 	cmp	r0, #0
  104230:	1afffd67 	bne	1037d4 <_vfprintf_r+0x34c>
  104234:	e2444010 	sub	r4, r4, #16
  104238:	e59d309c 	ldr	r3, [sp, #156]	; 0x9c
  10423c:	e3540010 	cmp	r4, #16
  104240:	e59d2098 	ldr	r2, [sp, #152]	; 0x98
  104244:	caffffea 	bgt	1041f4 <_vfprintf_r+0xd6c>
  104248:	e2822001 	add	r2, r2, #1
  10424c:	e0833004 	add	r3, r3, r4
  104250:	e3520007 	cmp	r2, #7
  104254:	e58d2098 	str	r2, [sp, #152]	; 0x98
  104258:	e58d309c 	str	r3, [sp, #156]	; 0x9c
  10425c:	e589a000 	str	sl, [r9]
  104260:	e5894004 	str	r4, [r9, #4]
  104264:	da000006 	ble	104284 <_vfprintf_r+0xdfc>
  104268:	e59d0028 	ldr	r0, [sp, #40]	; 0x28
  10426c:	e1a0100b 	mov	r1, fp
  104270:	e28d2094 	add	r2, sp, #148	; 0x94
  104274:	eb0013fa 	bl	109264 <__sprint_r>
  104278:	e3500000 	cmp	r0, #0
  10427c:	1afffd54 	bne	1037d4 <_vfprintf_r+0x34c>
  104280:	e59d309c 	ldr	r3, [sp, #156]	; 0x9c
  104284:	e59d202c 	ldr	r2, [sp, #44]	; 0x2c
  104288:	e59d1020 	ldr	r1, [sp, #32]
  10428c:	e59d0030 	ldr	r0, [sp, #48]	; 0x30
  104290:	e1510000 	cmp	r1, r0
  104294:	a0822001 	addge	r2, r2, r1
  104298:	b0822000 	addlt	r2, r2, r0
  10429c:	e3530000 	cmp	r3, #0
  1042a0:	e58d202c 	str	r2, [sp, #44]	; 0x2c
  1042a4:	1a0000cc 	bne	1045dc <_vfprintf_r+0x1154>
  1042a8:	e3a03000 	mov	r3, #0
  1042ac:	e1a09008 	mov	r9, r8
  1042b0:	e58d3098 	str	r3, [sp, #152]	; 0x98
  1042b4:	eafffcaa 	b	103564 <_vfprintf_r+0xdc>
  1042b8:	e3560065 	cmp	r6, #101	; 0x65
  1042bc:	da00008a 	ble	1044ec <_vfprintf_r+0x1064>
  1042c0:	eeb58b40 	vcmp.f64	d8, #0.0
  1042c4:	eef1fa10 	vmrs	APSR_nzcv, fpscr
  1042c8:	1a0000de 	bne	104648 <_vfprintf_r+0x11c0>
  1042cc:	e59d2098 	ldr	r2, [sp, #152]	; 0x98
  1042d0:	e30c1768 	movw	r1, #51048	; 0xc768
  1042d4:	e2833001 	add	r3, r3, #1
  1042d8:	e3401010 	movt	r1, #16
  1042dc:	e2822001 	add	r2, r2, #1
  1042e0:	e5891000 	str	r1, [r9]
  1042e4:	e3520007 	cmp	r2, #7
  1042e8:	e58d2098 	str	r2, [sp, #152]	; 0x98
  1042ec:	e58d309c 	str	r3, [sp, #156]	; 0x9c
  1042f0:	e3a02001 	mov	r2, #1
  1042f4:	e5892004 	str	r2, [r9, #4]
  1042f8:	d2899008 	addle	r9, r9, #8
  1042fc:	ca000284 	bgt	104d14 <_vfprintf_r+0x188c>
  104300:	e59d207c 	ldr	r2, [sp, #124]	; 0x7c
  104304:	e59d104c 	ldr	r1, [sp, #76]	; 0x4c
  104308:	e1520001 	cmp	r2, r1
  10430c:	ba000002 	blt	10431c <_vfprintf_r+0xe94>
  104310:	e59d201c 	ldr	r2, [sp, #28]
  104314:	e3120001 	tst	r2, #1
  104318:	0affffa1 	beq	1041a4 <_vfprintf_r+0xd1c>
  10431c:	e59d2098 	ldr	r2, [sp, #152]	; 0x98
  104320:	e59d1058 	ldr	r1, [sp, #88]	; 0x58
  104324:	e2822001 	add	r2, r2, #1
  104328:	e59d0054 	ldr	r0, [sp, #84]	; 0x54
  10432c:	e3520007 	cmp	r2, #7
  104330:	e0833001 	add	r3, r3, r1
  104334:	e5891004 	str	r1, [r9, #4]
  104338:	e5890000 	str	r0, [r9]
  10433c:	d2899008 	addle	r9, r9, #8
  104340:	e58d309c 	str	r3, [sp, #156]	; 0x9c
  104344:	e58d2098 	str	r2, [sp, #152]	; 0x98
  104348:	ca0002df 	bgt	104ecc <_vfprintf_r+0x1a44>
  10434c:	e59d204c 	ldr	r2, [sp, #76]	; 0x4c
  104350:	e2425001 	sub	r5, r2, #1
  104354:	e3550000 	cmp	r5, #0
  104358:	daffff91 	ble	1041a4 <_vfprintf_r+0xd1c>
  10435c:	e3550010 	cmp	r5, #16
  104360:	e59d2098 	ldr	r2, [sp, #152]	; 0x98
  104364:	e51f4a84 	ldr	r4, [pc, #-2692]	; 1038e8 <_vfprintf_r+0x460>
  104368:	c3a06010 	movgt	r6, #16
  10436c:	c59d7028 	ldrgt	r7, [sp, #40]	; 0x28
  104370:	ca000003 	bgt	104384 <_vfprintf_r+0xefc>
  104374:	ea000113 	b	1047c8 <_vfprintf_r+0x1340>
  104378:	e2455010 	sub	r5, r5, #16
  10437c:	e3550010 	cmp	r5, #16
  104380:	da000110 	ble	1047c8 <_vfprintf_r+0x1340>
  104384:	e2822001 	add	r2, r2, #1
  104388:	e2833010 	add	r3, r3, #16
  10438c:	e3520007 	cmp	r2, #7
  104390:	e8890050 	stm	r9, {r4, r6}
  104394:	e58d2098 	str	r2, [sp, #152]	; 0x98
  104398:	d2899008 	addle	r9, r9, #8
  10439c:	e58d309c 	str	r3, [sp, #156]	; 0x9c
  1043a0:	dafffff4 	ble	104378 <_vfprintf_r+0xef0>
  1043a4:	e1a00007 	mov	r0, r7
  1043a8:	e1a0100b 	mov	r1, fp
  1043ac:	e28d2094 	add	r2, sp, #148	; 0x94
  1043b0:	e1a09008 	mov	r9, r8
  1043b4:	eb0013aa 	bl	109264 <__sprint_r>
  1043b8:	e3500000 	cmp	r0, #0
  1043bc:	1afffd04 	bne	1037d4 <_vfprintf_r+0x34c>
  1043c0:	e59d309c 	ldr	r3, [sp, #156]	; 0x9c
  1043c4:	e59d2098 	ldr	r2, [sp, #152]	; 0x98
  1043c8:	eaffffea 	b	104378 <_vfprintf_r+0xef0>
  1043cc:	e3520000 	cmp	r2, #0
  1043d0:	158d8040 	strne	r8, [sp, #64]	; 0x40
  1043d4:	11a05003 	movne	r5, r3
  1043d8:	1afffd5a 	bne	103948 <_vfprintf_r+0x4c0>
  1043dc:	e59d301c 	ldr	r3, [sp, #28]
  1043e0:	e3130001 	tst	r3, #1
  1043e4:	058d8040 	streq	r8, [sp, #64]	; 0x40
  1043e8:	128d2f42 	addne	r2, sp, #264	; 0x108
  1043ec:	13a03030 	movne	r3, #48	; 0x30
  1043f0:	01a05002 	moveq	r5, r2
  1043f4:	15623041 	strbne	r3, [r2, #-65]!	; 0xffffffbf
  1043f8:	10625008 	rsbne	r5, r2, r8
  1043fc:	158d2040 	strne	r2, [sp, #64]	; 0x40
  104400:	eafffd50 	b	103948 <_vfprintf_r+0x4c0>
  104404:	e59d2030 	ldr	r2, [sp, #48]	; 0x30
  104408:	e59d1020 	ldr	r1, [sp, #32]
  10440c:	e0617002 	rsb	r7, r1, r2
  104410:	e3570000 	cmp	r7, #0
  104414:	daffff1c 	ble	10408c <_vfprintf_r+0xc04>
  104418:	e3570010 	cmp	r7, #16
  10441c:	e59d2098 	ldr	r2, [sp, #152]	; 0x98
  104420:	e51f4b40 	ldr	r4, [pc, #-2880]	; 1038e8 <_vfprintf_r+0x460>
  104424:	da00001f 	ble	1044a8 <_vfprintf_r+0x1020>
  104428:	e58d5038 	str	r5, [sp, #56]	; 0x38
  10442c:	e3a0a010 	mov	sl, #16
  104430:	e1a05004 	mov	r5, r4
  104434:	e1a01003 	mov	r1, r3
  104438:	e59d4028 	ldr	r4, [sp, #40]	; 0x28
  10443c:	ea000002 	b	10444c <_vfprintf_r+0xfc4>
  104440:	e2477010 	sub	r7, r7, #16
  104444:	e3570010 	cmp	r7, #16
  104448:	da000013 	ble	10449c <_vfprintf_r+0x1014>
  10444c:	e2822001 	add	r2, r2, #1
  104450:	e2811010 	add	r1, r1, #16
  104454:	e3520007 	cmp	r2, #7
  104458:	e8890420 	stm	r9, {r5, sl}
  10445c:	e58d2098 	str	r2, [sp, #152]	; 0x98
  104460:	d2899008 	addle	r9, r9, #8
  104464:	e58d109c 	str	r1, [sp, #156]	; 0x9c
  104468:	dafffff4 	ble	104440 <_vfprintf_r+0xfb8>
  10446c:	e1a00004 	mov	r0, r4
  104470:	e1a0100b 	mov	r1, fp
  104474:	e28d2094 	add	r2, sp, #148	; 0x94
  104478:	e1a09008 	mov	r9, r8
  10447c:	eb001378 	bl	109264 <__sprint_r>
  104480:	e3500000 	cmp	r0, #0
  104484:	1afffcd2 	bne	1037d4 <_vfprintf_r+0x34c>
  104488:	e2477010 	sub	r7, r7, #16
  10448c:	e59d109c 	ldr	r1, [sp, #156]	; 0x9c
  104490:	e3570010 	cmp	r7, #16
  104494:	e59d2098 	ldr	r2, [sp, #152]	; 0x98
  104498:	caffffeb 	bgt	10444c <_vfprintf_r+0xfc4>
  10449c:	e1a04005 	mov	r4, r5
  1044a0:	e59d5038 	ldr	r5, [sp, #56]	; 0x38
  1044a4:	e1a03001 	mov	r3, r1
  1044a8:	e2822001 	add	r2, r2, #1
  1044ac:	e0833007 	add	r3, r3, r7
  1044b0:	e3520007 	cmp	r2, #7
  1044b4:	e8890090 	stm	r9, {r4, r7}
  1044b8:	e58d2098 	str	r2, [sp, #152]	; 0x98
  1044bc:	d2899008 	addle	r9, r9, #8
  1044c0:	e58d309c 	str	r3, [sp, #156]	; 0x9c
  1044c4:	dafffef0 	ble	10408c <_vfprintf_r+0xc04>
  1044c8:	e59d0028 	ldr	r0, [sp, #40]	; 0x28
  1044cc:	e1a0100b 	mov	r1, fp
  1044d0:	e28d2094 	add	r2, sp, #148	; 0x94
  1044d4:	eb001362 	bl	109264 <__sprint_r>
  1044d8:	e3500000 	cmp	r0, #0
  1044dc:	1afffcbc 	bne	1037d4 <_vfprintf_r+0x34c>
  1044e0:	e59d309c 	ldr	r3, [sp, #156]	; 0x9c
  1044e4:	e1a09008 	mov	r9, r8
  1044e8:	eafffee7 	b	10408c <_vfprintf_r+0xc04>
  1044ec:	e59d204c 	ldr	r2, [sp, #76]	; 0x4c
  1044f0:	e3520001 	cmp	r2, #1
  1044f4:	da00011d 	ble	104970 <_vfprintf_r+0x14e8>
  1044f8:	e59d1040 	ldr	r1, [sp, #64]	; 0x40
  1044fc:	e2833001 	add	r3, r3, #1
  104500:	e59d2098 	ldr	r2, [sp, #152]	; 0x98
  104504:	e58d309c 	str	r3, [sp, #156]	; 0x9c
  104508:	e5891000 	str	r1, [r9]
  10450c:	e3a01001 	mov	r1, #1
  104510:	e0822001 	add	r2, r2, r1
  104514:	e58d2098 	str	r2, [sp, #152]	; 0x98
  104518:	e3520007 	cmp	r2, #7
  10451c:	e5891004 	str	r1, [r9, #4]
  104520:	d2899008 	addle	r9, r9, #8
  104524:	ca000129 	bgt	1049d0 <_vfprintf_r+0x1548>
  104528:	e2822001 	add	r2, r2, #1
  10452c:	e59d1058 	ldr	r1, [sp, #88]	; 0x58
  104530:	e59d0054 	ldr	r0, [sp, #84]	; 0x54
  104534:	e3520007 	cmp	r2, #7
  104538:	e0833001 	add	r3, r3, r1
  10453c:	e58d2098 	str	r2, [sp, #152]	; 0x98
  104540:	e58d309c 	str	r3, [sp, #156]	; 0x9c
  104544:	e8890003 	stm	r9, {r0, r1}
  104548:	d2899008 	addle	r9, r9, #8
  10454c:	ca000129 	bgt	1049f8 <_vfprintf_r+0x1570>
  104550:	eeb58b40 	vcmp.f64	d8, #0.0
  104554:	eef1fa10 	vmrs	APSR_nzcv, fpscr
  104558:	0a00007b 	beq	10474c <_vfprintf_r+0x12c4>
  10455c:	e59d1040 	ldr	r1, [sp, #64]	; 0x40
  104560:	e2822001 	add	r2, r2, #1
  104564:	e3520007 	cmp	r2, #7
  104568:	e58d2098 	str	r2, [sp, #152]	; 0x98
  10456c:	e2810001 	add	r0, r1, #1
  104570:	e59d104c 	ldr	r1, [sp, #76]	; 0x4c
  104574:	e5890000 	str	r0, [r9]
  104578:	e2411001 	sub	r1, r1, #1
  10457c:	e0833001 	add	r3, r3, r1
  104580:	e58d309c 	str	r3, [sp, #156]	; 0x9c
  104584:	e5891004 	str	r1, [r9, #4]
  104588:	ca000106 	bgt	1049a8 <_vfprintf_r+0x1520>
  10458c:	e2899008 	add	r9, r9, #8
  104590:	e2822001 	add	r2, r2, #1
  104594:	e59d1068 	ldr	r1, [sp, #104]	; 0x68
  104598:	e3520007 	cmp	r2, #7
  10459c:	e58d2098 	str	r2, [sp, #152]	; 0x98
  1045a0:	e0833001 	add	r3, r3, r1
  1045a4:	e28d2084 	add	r2, sp, #132	; 0x84
  1045a8:	e58d309c 	str	r3, [sp, #156]	; 0x9c
  1045ac:	e5891004 	str	r1, [r9, #4]
  1045b0:	e5892000 	str	r2, [r9]
  1045b4:	dafffef9 	ble	1041a0 <_vfprintf_r+0xd18>
  1045b8:	e59d0028 	ldr	r0, [sp, #40]	; 0x28
  1045bc:	e1a0100b 	mov	r1, fp
  1045c0:	e28d2094 	add	r2, sp, #148	; 0x94
  1045c4:	eb001326 	bl	109264 <__sprint_r>
  1045c8:	e3500000 	cmp	r0, #0
  1045cc:	1afffc80 	bne	1037d4 <_vfprintf_r+0x34c>
  1045d0:	e59d309c 	ldr	r3, [sp, #156]	; 0x9c
  1045d4:	e1a09008 	mov	r9, r8
  1045d8:	eafffef1 	b	1041a4 <_vfprintf_r+0xd1c>
  1045dc:	e59d0028 	ldr	r0, [sp, #40]	; 0x28
  1045e0:	e1a0100b 	mov	r1, fp
  1045e4:	e28d2094 	add	r2, sp, #148	; 0x94
  1045e8:	eb00131d 	bl	109264 <__sprint_r>
  1045ec:	e3500000 	cmp	r0, #0
  1045f0:	0affff2c 	beq	1042a8 <_vfprintf_r+0xe20>
  1045f4:	eafffc76 	b	1037d4 <_vfprintf_r+0x34c>
  1045f8:	e59d0028 	ldr	r0, [sp, #40]	; 0x28
  1045fc:	e1a0100b 	mov	r1, fp
  104600:	e28d2094 	add	r2, sp, #148	; 0x94
  104604:	eb001316 	bl	109264 <__sprint_r>
  104608:	e3500000 	cmp	r0, #0
  10460c:	1afffc70 	bne	1037d4 <_vfprintf_r+0x34c>
  104610:	e59d309c 	ldr	r3, [sp, #156]	; 0x9c
  104614:	e1a09008 	mov	r9, r8
  104618:	eafffe89 	b	104044 <_vfprintf_r+0xbbc>
  10461c:	e59d0028 	ldr	r0, [sp, #40]	; 0x28
  104620:	e1a0100b 	mov	r1, fp
  104624:	e28d2094 	add	r2, sp, #148	; 0x94
  104628:	eb00130d 	bl	109264 <__sprint_r>
  10462c:	e3500000 	cmp	r0, #0
  104630:	1afffc67 	bne	1037d4 <_vfprintf_r+0x34c>
  104634:	e59d309c 	ldr	r3, [sp, #156]	; 0x9c
  104638:	e1a09008 	mov	r9, r8
  10463c:	eafffe8f 	b	104080 <_vfprintf_r+0xbf8>
  104640:	e3a02002 	mov	r2, #2
  104644:	eafffc84 	b	10385c <_vfprintf_r+0x3d4>
  104648:	e59d507c 	ldr	r5, [sp, #124]	; 0x7c
  10464c:	e3550000 	cmp	r5, #0
  104650:	da0001b8 	ble	104d38 <_vfprintf_r+0x18b0>
  104654:	e59d204c 	ldr	r2, [sp, #76]	; 0x4c
  104658:	e59d1048 	ldr	r1, [sp, #72]	; 0x48
  10465c:	e59d0040 	ldr	r0, [sp, #64]	; 0x40
  104660:	e1520001 	cmp	r2, r1
  104664:	e0807002 	add	r7, r0, r2
  104668:	b1a05002 	movlt	r5, r2
  10466c:	a1a05001 	movge	r5, r1
  104670:	e3550000 	cmp	r5, #0
  104674:	da000009 	ble	1046a0 <_vfprintf_r+0x1218>
  104678:	e59d2098 	ldr	r2, [sp, #152]	; 0x98
  10467c:	e0833005 	add	r3, r3, r5
  104680:	e5890000 	str	r0, [r9]
  104684:	e2822001 	add	r2, r2, #1
  104688:	e5895004 	str	r5, [r9, #4]
  10468c:	e3520007 	cmp	r2, #7
  104690:	e58d309c 	str	r3, [sp, #156]	; 0x9c
  104694:	e58d2098 	str	r2, [sp, #152]	; 0x98
  104698:	d2899008 	addle	r9, r9, #8
  10469c:	ca00025a 	bgt	10500c <_vfprintf_r+0x1b84>
  1046a0:	e59d2048 	ldr	r2, [sp, #72]	; 0x48
  1046a4:	e3550000 	cmp	r5, #0
  1046a8:	a0652002 	rsbge	r2, r5, r2
  1046ac:	e3520000 	cmp	r2, #0
  1046b0:	e1a05002 	mov	r5, r2
  1046b4:	da00005b 	ble	104828 <_vfprintf_r+0x13a0>
  1046b8:	e3550010 	cmp	r5, #16
  1046bc:	e59d2098 	ldr	r2, [sp, #152]	; 0x98
  1046c0:	e51f4de0 	ldr	r4, [pc, #-3552]	; 1038e8 <_vfprintf_r+0x460>
  1046c4:	c3a06010 	movgt	r6, #16
  1046c8:	c59da028 	ldrgt	sl, [sp, #40]	; 0x28
  1046cc:	ca000003 	bgt	1046e0 <_vfprintf_r+0x1258>
  1046d0:	ea000044 	b	1047e8 <_vfprintf_r+0x1360>
  1046d4:	e2455010 	sub	r5, r5, #16
  1046d8:	e3550010 	cmp	r5, #16
  1046dc:	da000041 	ble	1047e8 <_vfprintf_r+0x1360>
  1046e0:	e2822001 	add	r2, r2, #1
  1046e4:	e2833010 	add	r3, r3, #16
  1046e8:	e3520007 	cmp	r2, #7
  1046ec:	e8890050 	stm	r9, {r4, r6}
  1046f0:	e58d2098 	str	r2, [sp, #152]	; 0x98
  1046f4:	d2899008 	addle	r9, r9, #8
  1046f8:	e58d309c 	str	r3, [sp, #156]	; 0x9c
  1046fc:	dafffff4 	ble	1046d4 <_vfprintf_r+0x124c>
  104700:	e1a0000a 	mov	r0, sl
  104704:	e1a0100b 	mov	r1, fp
  104708:	e28d2094 	add	r2, sp, #148	; 0x94
  10470c:	e1a09008 	mov	r9, r8
  104710:	eb0012d3 	bl	109264 <__sprint_r>
  104714:	e3500000 	cmp	r0, #0
  104718:	1afffc2d 	bne	1037d4 <_vfprintf_r+0x34c>
  10471c:	e59d309c 	ldr	r3, [sp, #156]	; 0x9c
  104720:	e59d2098 	ldr	r2, [sp, #152]	; 0x98
  104724:	eaffffea 	b	1046d4 <_vfprintf_r+0x124c>
  104728:	e3550000 	cmp	r5, #0
  10472c:	03540009 	cmpeq	r4, #9
  104730:	8a0000c2 	bhi	104a40 <_vfprintf_r+0x15b8>
  104734:	e28d3f42 	add	r3, sp, #264	; 0x108
  104738:	e2844030 	add	r4, r4, #48	; 0x30
  10473c:	e5634041 	strb	r4, [r3, #-65]!	; 0xffffffbf
  104740:	e0635008 	rsb	r5, r3, r8
  104744:	e58d3040 	str	r3, [sp, #64]	; 0x40
  104748:	eafffc7e 	b	103948 <_vfprintf_r+0x4c0>
  10474c:	e59d104c 	ldr	r1, [sp, #76]	; 0x4c
  104750:	e2415001 	sub	r5, r1, #1
  104754:	e3550000 	cmp	r5, #0
  104758:	daffff8c 	ble	104590 <_vfprintf_r+0x1108>
  10475c:	e3550010 	cmp	r5, #16
  104760:	e51f4e80 	ldr	r4, [pc, #-3712]	; 1038e8 <_vfprintf_r+0x460>
  104764:	c3a06010 	movgt	r6, #16
  104768:	c59d7028 	ldrgt	r7, [sp, #40]	; 0x28
  10476c:	ca000003 	bgt	104780 <_vfprintf_r+0x12f8>
  104770:	ea0000aa 	b	104a20 <_vfprintf_r+0x1598>
  104774:	e2455010 	sub	r5, r5, #16
  104778:	e3550010 	cmp	r5, #16
  10477c:	da0000a7 	ble	104a20 <_vfprintf_r+0x1598>
  104780:	e2822001 	add	r2, r2, #1
  104784:	e2833010 	add	r3, r3, #16
  104788:	e3520007 	cmp	r2, #7
  10478c:	e8890050 	stm	r9, {r4, r6}
  104790:	e58d2098 	str	r2, [sp, #152]	; 0x98
  104794:	d2899008 	addle	r9, r9, #8
  104798:	e58d309c 	str	r3, [sp, #156]	; 0x9c
  10479c:	dafffff4 	ble	104774 <_vfprintf_r+0x12ec>
  1047a0:	e1a00007 	mov	r0, r7
  1047a4:	e1a0100b 	mov	r1, fp
  1047a8:	e28d2094 	add	r2, sp, #148	; 0x94
  1047ac:	e1a09008 	mov	r9, r8
  1047b0:	eb0012ab 	bl	109264 <__sprint_r>
  1047b4:	e3500000 	cmp	r0, #0
  1047b8:	1afffc05 	bne	1037d4 <_vfprintf_r+0x34c>
  1047bc:	e59d309c 	ldr	r3, [sp, #156]	; 0x9c
  1047c0:	e59d2098 	ldr	r2, [sp, #152]	; 0x98
  1047c4:	eaffffea 	b	104774 <_vfprintf_r+0x12ec>
  1047c8:	e2822001 	add	r2, r2, #1
  1047cc:	e0833005 	add	r3, r3, r5
  1047d0:	e3520007 	cmp	r2, #7
  1047d4:	e58d2098 	str	r2, [sp, #152]	; 0x98
  1047d8:	e58d309c 	str	r3, [sp, #156]	; 0x9c
  1047dc:	e8890030 	stm	r9, {r4, r5}
  1047e0:	dafffe6e 	ble	1041a0 <_vfprintf_r+0xd18>
  1047e4:	eaffff73 	b	1045b8 <_vfprintf_r+0x1130>
  1047e8:	e2822001 	add	r2, r2, #1
  1047ec:	e0833005 	add	r3, r3, r5
  1047f0:	e3520007 	cmp	r2, #7
  1047f4:	e8890030 	stm	r9, {r4, r5}
  1047f8:	e58d2098 	str	r2, [sp, #152]	; 0x98
  1047fc:	d2899008 	addle	r9, r9, #8
  104800:	e58d309c 	str	r3, [sp, #156]	; 0x9c
  104804:	da000007 	ble	104828 <_vfprintf_r+0x13a0>
  104808:	e59d0028 	ldr	r0, [sp, #40]	; 0x28
  10480c:	e1a0100b 	mov	r1, fp
  104810:	e28d2094 	add	r2, sp, #148	; 0x94
  104814:	eb001292 	bl	109264 <__sprint_r>
  104818:	e3500000 	cmp	r0, #0
  10481c:	1afffbec 	bne	1037d4 <_vfprintf_r+0x34c>
  104820:	e59d309c 	ldr	r3, [sp, #156]	; 0x9c
  104824:	e1a09008 	mov	r9, r8
  104828:	e59d2040 	ldr	r2, [sp, #64]	; 0x40
  10482c:	e59d1048 	ldr	r1, [sp, #72]	; 0x48
  104830:	e59d507c 	ldr	r5, [sp, #124]	; 0x7c
  104834:	e0826001 	add	r6, r2, r1
  104838:	e59d204c 	ldr	r2, [sp, #76]	; 0x4c
  10483c:	e1550002 	cmp	r5, r2
  104840:	ba000034 	blt	104918 <_vfprintf_r+0x1490>
  104844:	e59d201c 	ldr	r2, [sp, #28]
  104848:	e3120001 	tst	r2, #1
  10484c:	1a000031 	bne	104918 <_vfprintf_r+0x1490>
  104850:	e59d204c 	ldr	r2, [sp, #76]	; 0x4c
  104854:	e0667007 	rsb	r7, r6, r7
  104858:	e0655002 	rsb	r5, r5, r2
  10485c:	e1550007 	cmp	r5, r7
  104860:	b1a04005 	movlt	r4, r5
  104864:	a1a04007 	movge	r4, r7
  104868:	e3540000 	cmp	r4, #0
  10486c:	da000009 	ble	104898 <_vfprintf_r+0x1410>
  104870:	e59d2098 	ldr	r2, [sp, #152]	; 0x98
  104874:	e0833004 	add	r3, r3, r4
  104878:	e5896000 	str	r6, [r9]
  10487c:	e2822001 	add	r2, r2, #1
  104880:	e5894004 	str	r4, [r9, #4]
  104884:	e3520007 	cmp	r2, #7
  104888:	e58d309c 	str	r3, [sp, #156]	; 0x9c
  10488c:	e58d2098 	str	r2, [sp, #152]	; 0x98
  104890:	d2899008 	addle	r9, r9, #8
  104894:	ca0001e5 	bgt	105030 <_vfprintf_r+0x1ba8>
  104898:	e3540000 	cmp	r4, #0
  10489c:	a0645005 	rsbge	r5, r4, r5
  1048a0:	e3550000 	cmp	r5, #0
  1048a4:	dafffe3e 	ble	1041a4 <_vfprintf_r+0xd1c>
  1048a8:	e3550010 	cmp	r5, #16
  1048ac:	e59d2098 	ldr	r2, [sp, #152]	; 0x98
  1048b0:	e51f4fd0 	ldr	r4, [pc, #-4048]	; 1038e8 <_vfprintf_r+0x460>
  1048b4:	c3a06010 	movgt	r6, #16
  1048b8:	c59d7028 	ldrgt	r7, [sp, #40]	; 0x28
  1048bc:	ca000003 	bgt	1048d0 <_vfprintf_r+0x1448>
  1048c0:	eaffffc0 	b	1047c8 <_vfprintf_r+0x1340>
  1048c4:	e2455010 	sub	r5, r5, #16
  1048c8:	e3550010 	cmp	r5, #16
  1048cc:	daffffbd 	ble	1047c8 <_vfprintf_r+0x1340>
  1048d0:	e2822001 	add	r2, r2, #1
  1048d4:	e2833010 	add	r3, r3, #16
  1048d8:	e3520007 	cmp	r2, #7
  1048dc:	e8890050 	stm	r9, {r4, r6}
  1048e0:	e58d2098 	str	r2, [sp, #152]	; 0x98
  1048e4:	d2899008 	addle	r9, r9, #8
  1048e8:	e58d309c 	str	r3, [sp, #156]	; 0x9c
  1048ec:	dafffff4 	ble	1048c4 <_vfprintf_r+0x143c>
  1048f0:	e1a00007 	mov	r0, r7
  1048f4:	e1a0100b 	mov	r1, fp
  1048f8:	e28d2094 	add	r2, sp, #148	; 0x94
  1048fc:	e1a09008 	mov	r9, r8
  104900:	eb001257 	bl	109264 <__sprint_r>
  104904:	e3500000 	cmp	r0, #0
  104908:	1afffbb1 	bne	1037d4 <_vfprintf_r+0x34c>
  10490c:	e59d309c 	ldr	r3, [sp, #156]	; 0x9c
  104910:	e59d2098 	ldr	r2, [sp, #152]	; 0x98
  104914:	eaffffea 	b	1048c4 <_vfprintf_r+0x143c>
  104918:	e59d2098 	ldr	r2, [sp, #152]	; 0x98
  10491c:	e59d1058 	ldr	r1, [sp, #88]	; 0x58
  104920:	e2822001 	add	r2, r2, #1
  104924:	e59d0054 	ldr	r0, [sp, #84]	; 0x54
  104928:	e3520007 	cmp	r2, #7
  10492c:	e0833001 	add	r3, r3, r1
  104930:	e5891004 	str	r1, [r9, #4]
  104934:	e5890000 	str	r0, [r9]
  104938:	d2899008 	addle	r9, r9, #8
  10493c:	e58d309c 	str	r3, [sp, #156]	; 0x9c
  104940:	e58d2098 	str	r2, [sp, #152]	; 0x98
  104944:	daffffc1 	ble	104850 <_vfprintf_r+0x13c8>
  104948:	e59d0028 	ldr	r0, [sp, #40]	; 0x28
  10494c:	e1a0100b 	mov	r1, fp
  104950:	e28d2094 	add	r2, sp, #148	; 0x94
  104954:	eb001242 	bl	109264 <__sprint_r>
  104958:	e3500000 	cmp	r0, #0
  10495c:	1afffb9c 	bne	1037d4 <_vfprintf_r+0x34c>
  104960:	e59d507c 	ldr	r5, [sp, #124]	; 0x7c
  104964:	e1a09008 	mov	r9, r8
  104968:	e59d309c 	ldr	r3, [sp, #156]	; 0x9c
  10496c:	eaffffb7 	b	104850 <_vfprintf_r+0x13c8>
  104970:	e59d201c 	ldr	r2, [sp, #28]
  104974:	e3120001 	tst	r2, #1
  104978:	1afffede 	bne	1044f8 <_vfprintf_r+0x1070>
  10497c:	e59d1040 	ldr	r1, [sp, #64]	; 0x40
  104980:	e2833001 	add	r3, r3, #1
  104984:	e59d2098 	ldr	r2, [sp, #152]	; 0x98
  104988:	e58d309c 	str	r3, [sp, #156]	; 0x9c
  10498c:	e5891000 	str	r1, [r9]
  104990:	e3a01001 	mov	r1, #1
  104994:	e0822001 	add	r2, r2, r1
  104998:	e58d2098 	str	r2, [sp, #152]	; 0x98
  10499c:	e3520007 	cmp	r2, #7
  1049a0:	e5891004 	str	r1, [r9, #4]
  1049a4:	dafffef8 	ble	10458c <_vfprintf_r+0x1104>
  1049a8:	e59d0028 	ldr	r0, [sp, #40]	; 0x28
  1049ac:	e1a0100b 	mov	r1, fp
  1049b0:	e28d2094 	add	r2, sp, #148	; 0x94
  1049b4:	eb00122a 	bl	109264 <__sprint_r>
  1049b8:	e3500000 	cmp	r0, #0
  1049bc:	1afffb84 	bne	1037d4 <_vfprintf_r+0x34c>
  1049c0:	e59d309c 	ldr	r3, [sp, #156]	; 0x9c
  1049c4:	e1a09008 	mov	r9, r8
  1049c8:	e59d2098 	ldr	r2, [sp, #152]	; 0x98
  1049cc:	eafffeef 	b	104590 <_vfprintf_r+0x1108>
  1049d0:	e59d0028 	ldr	r0, [sp, #40]	; 0x28
  1049d4:	e1a0100b 	mov	r1, fp
  1049d8:	e28d2094 	add	r2, sp, #148	; 0x94
  1049dc:	eb001220 	bl	109264 <__sprint_r>
  1049e0:	e3500000 	cmp	r0, #0
  1049e4:	1afffb7a 	bne	1037d4 <_vfprintf_r+0x34c>
  1049e8:	e59d309c 	ldr	r3, [sp, #156]	; 0x9c
  1049ec:	e1a09008 	mov	r9, r8
  1049f0:	e59d2098 	ldr	r2, [sp, #152]	; 0x98
  1049f4:	eafffecb 	b	104528 <_vfprintf_r+0x10a0>
  1049f8:	e59d0028 	ldr	r0, [sp, #40]	; 0x28
  1049fc:	e1a0100b 	mov	r1, fp
  104a00:	e28d2094 	add	r2, sp, #148	; 0x94
  104a04:	eb001216 	bl	109264 <__sprint_r>
  104a08:	e3500000 	cmp	r0, #0
  104a0c:	1afffb70 	bne	1037d4 <_vfprintf_r+0x34c>
  104a10:	e59d309c 	ldr	r3, [sp, #156]	; 0x9c
  104a14:	e1a09008 	mov	r9, r8
  104a18:	e59d2098 	ldr	r2, [sp, #152]	; 0x98
  104a1c:	eafffecb 	b	104550 <_vfprintf_r+0x10c8>
  104a20:	e2822001 	add	r2, r2, #1
  104a24:	e0833005 	add	r3, r3, r5
  104a28:	e3520007 	cmp	r2, #7
  104a2c:	e58d2098 	str	r2, [sp, #152]	; 0x98
  104a30:	e58d309c 	str	r3, [sp, #156]	; 0x9c
  104a34:	e8890030 	stm	r9, {r4, r5}
  104a38:	dafffed3 	ble	10458c <_vfprintf_r+0x1104>
  104a3c:	eaffffd9 	b	1049a8 <_vfprintf_r+0x1520>
  104a40:	e58d6020 	str	r6, [sp, #32]
  104a44:	e1a06008 	mov	r6, r8
  104a48:	e1a00004 	mov	r0, r4
  104a4c:	e1a01005 	mov	r1, r5
  104a50:	e3a0200a 	mov	r2, #10
  104a54:	e3a03000 	mov	r3, #0
  104a58:	eb001cd5 	bl	10bdb4 <__aeabi_uldivmod>
  104a5c:	e1a00004 	mov	r0, r4
  104a60:	e1a01005 	mov	r1, r5
  104a64:	e3a03000 	mov	r3, #0
  104a68:	e2822030 	add	r2, r2, #48	; 0x30
  104a6c:	e5662001 	strb	r2, [r6, #-1]!
  104a70:	e3a0200a 	mov	r2, #10
  104a74:	eb001cce 	bl	10bdb4 <__aeabi_uldivmod>
  104a78:	e1a04000 	mov	r4, r0
  104a7c:	e1a05001 	mov	r5, r1
  104a80:	e1943005 	orrs	r3, r4, r5
  104a84:	1affffef 	bne	104a48 <_vfprintf_r+0x15c0>
  104a88:	e1a03006 	mov	r3, r6
  104a8c:	e59d6020 	ldr	r6, [sp, #32]
  104a90:	e58d3040 	str	r3, [sp, #64]	; 0x40
  104a94:	e0635008 	rsb	r5, r3, r8
  104a98:	eafffbaa 	b	103948 <_vfprintf_r+0x4c0>
  104a9c:	e2744000 	rsbs	r4, r4, #0
  104aa0:	e3a0a02d 	mov	sl, #45	; 0x2d
  104aa4:	e2e55000 	rsc	r5, r5, #0
  104aa8:	e5cda077 	strb	sl, [sp, #119]	; 0x77
  104aac:	e58d7044 	str	r7, [sp, #68]	; 0x44
  104ab0:	e3a02001 	mov	r2, #1
  104ab4:	eafffb6c 	b	10386c <_vfprintf_r+0x3e4>
  104ab8:	ec510b18 	vmov	r0, r1, d8
  104abc:	eb001074 	bl	108c94 <__fpclassifyd>
  104ac0:	e3500000 	cmp	r0, #0
  104ac4:	0a0000db 	beq	104e38 <_vfprintf_r+0x19b0>
  104ac8:	e3770001 	cmn	r7, #1
  104acc:	e3c65020 	bic	r5, r6, #32
  104ad0:	03a07006 	moveq	r7, #6
  104ad4:	0a000105 	beq	104ef0 <_vfprintf_r+0x1a68>
  104ad8:	e3550047 	cmp	r5, #71	; 0x47
  104adc:	03570000 	cmpeq	r7, #0
  104ae0:	1a000102 	bne	104ef0 <_vfprintf_r+0x1a68>
  104ae4:	ee183a90 	vmov	r3, s17
  104ae8:	e3a05047 	mov	r5, #71	; 0x47
  104aec:	e3a07001 	mov	r7, #1
  104af0:	e3530000 	cmp	r3, #0
  104af4:	e59d301c 	ldr	r3, [sp, #28]
  104af8:	e3833c01 	orr	r3, r3, #256	; 0x100
  104afc:	e58d3038 	str	r3, [sp, #56]	; 0x38
  104b00:	ba0001df 	blt	105284 <_vfprintf_r+0x1dfc>
  104b04:	eeb09b48 	vmov.f64	d9, d8
  104b08:	e3a0a000 	mov	sl, #0
  104b0c:	e3a02002 	mov	r2, #2
  104b10:	e28d307c 	add	r3, sp, #124	; 0x7c
  104b14:	e58d2000 	str	r2, [sp]
  104b18:	e28d2080 	add	r2, sp, #128	; 0x80
  104b1c:	e58d3008 	str	r3, [sp, #8]
  104b20:	e28d308c 	add	r3, sp, #140	; 0x8c
  104b24:	e58d200c 	str	r2, [sp, #12]
  104b28:	e58d3010 	str	r3, [sp, #16]
  104b2c:	e58d7004 	str	r7, [sp, #4]
  104b30:	e59d0028 	ldr	r0, [sp, #40]	; 0x28
  104b34:	ec532b19 	vmov	r2, r3, d9
  104b38:	eb00035f 	bl	1058bc <_dtoa_r>
  104b3c:	e3550047 	cmp	r5, #71	; 0x47
  104b40:	e58d0040 	str	r0, [sp, #64]	; 0x40
  104b44:	1a0001fe 	bne	105344 <_vfprintf_r+0x1ebc>
  104b48:	e59d301c 	ldr	r3, [sp, #28]
  104b4c:	e3130001 	tst	r3, #1
  104b50:	0a0001d6 	beq	1052b0 <_vfprintf_r+0x1e28>
  104b54:	e59d3040 	ldr	r3, [sp, #64]	; 0x40
  104b58:	e0834007 	add	r4, r3, r7
  104b5c:	eeb59b40 	vcmp.f64	d9, #0.0
  104b60:	eef1fa10 	vmrs	APSR_nzcv, fpscr
  104b64:	01a03004 	moveq	r3, r4
  104b68:	0a000009 	beq	104b94 <_vfprintf_r+0x170c>
  104b6c:	e59d308c 	ldr	r3, [sp, #140]	; 0x8c
  104b70:	e1540003 	cmp	r4, r3
  104b74:	9a000006 	bls	104b94 <_vfprintf_r+0x170c>
  104b78:	e3a01030 	mov	r1, #48	; 0x30
  104b7c:	e2832001 	add	r2, r3, #1
  104b80:	e58d208c 	str	r2, [sp, #140]	; 0x8c
  104b84:	e5c31000 	strb	r1, [r3]
  104b88:	e59d308c 	ldr	r3, [sp, #140]	; 0x8c
  104b8c:	e1540003 	cmp	r4, r3
  104b90:	8afffff9 	bhi	104b7c <_vfprintf_r+0x16f4>
  104b94:	e59d2040 	ldr	r2, [sp, #64]	; 0x40
  104b98:	e3550047 	cmp	r5, #71	; 0x47
  104b9c:	e0623003 	rsb	r3, r2, r3
  104ba0:	e58d304c 	str	r3, [sp, #76]	; 0x4c
  104ba4:	e59d307c 	ldr	r3, [sp, #124]	; 0x7c
  104ba8:	1a000160 	bne	105130 <_vfprintf_r+0x1ca8>
  104bac:	e3730003 	cmn	r3, #3
  104bb0:	a1570003 	cmpge	r7, r3
  104bb4:	b2466002 	sublt	r6, r6, #2
  104bb8:	ba000172 	blt	105188 <_vfprintf_r+0x1d00>
  104bbc:	e3a06067 	mov	r6, #103	; 0x67
  104bc0:	e58d3048 	str	r3, [sp, #72]	; 0x48
  104bc4:	e59d304c 	ldr	r3, [sp, #76]	; 0x4c
  104bc8:	e59d2048 	ldr	r2, [sp, #72]	; 0x48
  104bcc:	e1530002 	cmp	r3, r2
  104bd0:	ca0001ae 	bgt	105290 <_vfprintf_r+0x1e08>
  104bd4:	e59d301c 	ldr	r3, [sp, #28]
  104bd8:	e3130001 	tst	r3, #1
  104bdc:	159d3048 	ldrne	r3, [sp, #72]	; 0x48
  104be0:	01a05002 	moveq	r5, r2
  104be4:	01a03005 	moveq	r3, r5
  104be8:	12835001 	addne	r5, r3, #1
  104bec:	01c33fc3 	biceq	r3, r3, r3, asr #31
  104bf0:	11c53fc5 	bicne	r3, r5, r5, asr #31
  104bf4:	e35a0000 	cmp	sl, #0
  104bf8:	1a000144 	bne	105110 <_vfprintf_r+0x1c88>
  104bfc:	e58d3020 	str	r3, [sp, #32]
  104c00:	e59d3038 	ldr	r3, [sp, #56]	; 0x38
  104c04:	e58da044 	str	sl, [sp, #68]	; 0x44
  104c08:	e5dda077 	ldrb	sl, [sp, #119]	; 0x77
  104c0c:	e58d301c 	str	r3, [sp, #28]
  104c10:	eafffb52 	b	103960 <_vfprintf_r+0x4d8>
  104c14:	e59d201c 	ldr	r2, [sp, #28]
  104c18:	e2122040 	ands	r2, r2, #64	; 0x40
  104c1c:	0a00007f 	beq	104e20 <_vfprintf_r+0x1998>
  104c20:	e1a02003 	mov	r2, r3
  104c24:	e59d3034 	ldr	r3, [sp, #52]	; 0x34
  104c28:	e3a05000 	mov	r5, #0
  104c2c:	e2833004 	add	r3, r3, #4
  104c30:	e15340b4 	ldrh	r4, [r3, #-4]
  104c34:	e58d3034 	str	r3, [sp, #52]	; 0x34
  104c38:	eafffb07 	b	10385c <_vfprintf_r+0x3d4>
  104c3c:	e59d301c 	ldr	r3, [sp, #28]
  104c40:	e3130040 	tst	r3, #64	; 0x40
  104c44:	e59d3034 	ldr	r3, [sp, #52]	; 0x34
  104c48:	13a05000 	movne	r5, #0
  104c4c:	03a05000 	moveq	r5, #0
  104c50:	05934000 	ldreq	r4, [r3]
  104c54:	02833004 	addeq	r3, r3, #4
  104c58:	11d340b0 	ldrhne	r4, [r3]
  104c5c:	12833004 	addne	r3, r3, #4
  104c60:	058d3034 	streq	r3, [sp, #52]	; 0x34
  104c64:	158d3034 	strne	r3, [sp, #52]	; 0x34
  104c68:	eafffbbd 	b	103b64 <_vfprintf_r+0x6dc>
  104c6c:	e59d301c 	ldr	r3, [sp, #28]
  104c70:	e3130040 	tst	r3, #64	; 0x40
  104c74:	e59d3034 	ldr	r3, [sp, #52]	; 0x34
  104c78:	0afffc4f 	beq	103dbc <_vfprintf_r+0x934>
  104c7c:	e1d340b0 	ldrh	r4, [r3]
  104c80:	e2833004 	add	r3, r3, #4
  104c84:	e58d3034 	str	r3, [sp, #52]	; 0x34
  104c88:	e6bf4074 	sxth	r4, r4
  104c8c:	e1a05fc4 	asr	r5, r4, #31
  104c90:	e1a02004 	mov	r2, r4
  104c94:	e1a03005 	mov	r3, r5
  104c98:	eafffc0f 	b	103cdc <_vfprintf_r+0x854>
  104c9c:	e59d301c 	ldr	r3, [sp, #28]
  104ca0:	e3130010 	tst	r3, #16
  104ca4:	1a000009 	bne	104cd0 <_vfprintf_r+0x1848>
  104ca8:	e59d301c 	ldr	r3, [sp, #28]
  104cac:	e3130040 	tst	r3, #64	; 0x40
  104cb0:	0a000006 	beq	104cd0 <_vfprintf_r+0x1848>
  104cb4:	e59d2034 	ldr	r2, [sp, #52]	; 0x34
  104cb8:	e2822004 	add	r2, r2, #4
  104cbc:	e5123004 	ldr	r3, [r2, #-4]
  104cc0:	e58d2034 	str	r2, [sp, #52]	; 0x34
  104cc4:	e1dd22bc 	ldrh	r2, [sp, #44]	; 0x2c
  104cc8:	e1c320b0 	strh	r2, [r3]
  104ccc:	eafffa24 	b	103564 <_vfprintf_r+0xdc>
  104cd0:	e59d2034 	ldr	r2, [sp, #52]	; 0x34
  104cd4:	e2822004 	add	r2, r2, #4
  104cd8:	e5123004 	ldr	r3, [r2, #-4]
  104cdc:	e58d2034 	str	r2, [sp, #52]	; 0x34
  104ce0:	e59d202c 	ldr	r2, [sp, #44]	; 0x2c
  104ce4:	e5832000 	str	r2, [r3]
  104ce8:	eafffa1d 	b	103564 <_vfprintf_r+0xdc>
  104cec:	e59d301c 	ldr	r3, [sp, #28]
  104cf0:	e3130040 	tst	r3, #64	; 0x40
  104cf4:	e59d3034 	ldr	r3, [sp, #52]	; 0x34
  104cf8:	0afffca4 	beq	103f90 <_vfprintf_r+0xb08>
  104cfc:	e1d340b0 	ldrh	r4, [r3]
  104d00:	e3a05000 	mov	r5, #0
  104d04:	e2833004 	add	r3, r3, #4
  104d08:	e3a02001 	mov	r2, #1
  104d0c:	e58d3034 	str	r3, [sp, #52]	; 0x34
  104d10:	eafffad1 	b	10385c <_vfprintf_r+0x3d4>
  104d14:	e59d0028 	ldr	r0, [sp, #40]	; 0x28
  104d18:	e1a0100b 	mov	r1, fp
  104d1c:	e28d2094 	add	r2, sp, #148	; 0x94
  104d20:	eb00114f 	bl	109264 <__sprint_r>
  104d24:	e3500000 	cmp	r0, #0
  104d28:	1afffaa9 	bne	1037d4 <_vfprintf_r+0x34c>
  104d2c:	e59d309c 	ldr	r3, [sp, #156]	; 0x9c
  104d30:	e1a09008 	mov	r9, r8
  104d34:	eafffd71 	b	104300 <_vfprintf_r+0xe78>
  104d38:	e59d2098 	ldr	r2, [sp, #152]	; 0x98
  104d3c:	e30c1768 	movw	r1, #51048	; 0xc768
  104d40:	e2833001 	add	r3, r3, #1
  104d44:	e3401010 	movt	r1, #16
  104d48:	e2822001 	add	r2, r2, #1
  104d4c:	e5891000 	str	r1, [r9]
  104d50:	e3520007 	cmp	r2, #7
  104d54:	e58d2098 	str	r2, [sp, #152]	; 0x98
  104d58:	e58d309c 	str	r3, [sp, #156]	; 0x9c
  104d5c:	e3a02001 	mov	r2, #1
  104d60:	e5892004 	str	r2, [r9, #4]
  104d64:	d2899008 	addle	r9, r9, #8
  104d68:	ca000047 	bgt	104e8c <_vfprintf_r+0x1a04>
  104d6c:	e59d204c 	ldr	r2, [sp, #76]	; 0x4c
  104d70:	e1952002 	orrs	r2, r5, r2
  104d74:	0a000040 	beq	104e7c <_vfprintf_r+0x19f4>
  104d78:	e59d2098 	ldr	r2, [sp, #152]	; 0x98
  104d7c:	e59d1058 	ldr	r1, [sp, #88]	; 0x58
  104d80:	e2822001 	add	r2, r2, #1
  104d84:	e59d0054 	ldr	r0, [sp, #84]	; 0x54
  104d88:	e3520007 	cmp	r2, #7
  104d8c:	e0833001 	add	r3, r3, r1
  104d90:	e5891004 	str	r1, [r9, #4]
  104d94:	e5890000 	str	r0, [r9]
  104d98:	d2899008 	addle	r9, r9, #8
  104d9c:	e58d309c 	str	r3, [sp, #156]	; 0x9c
  104da0:	e58d2098 	str	r2, [sp, #152]	; 0x98
  104da4:	ca00012b 	bgt	105258 <_vfprintf_r+0x1dd0>
  104da8:	e2655000 	rsb	r5, r5, #0
  104dac:	e3550000 	cmp	r5, #0
  104db0:	da00007c 	ble	104fa8 <_vfprintf_r+0x1b20>
  104db4:	e3550010 	cmp	r5, #16
  104db8:	e59f458c 	ldr	r4, [pc, #1420]	; 10534c <_vfprintf_r+0x1ec4>
  104dbc:	c3a06010 	movgt	r6, #16
  104dc0:	c59d7028 	ldrgt	r7, [sp, #40]	; 0x28
  104dc4:	ca000003 	bgt	104dd8 <_vfprintf_r+0x1950>
  104dc8:	ea000065 	b	104f64 <_vfprintf_r+0x1adc>
  104dcc:	e2455010 	sub	r5, r5, #16
  104dd0:	e3550010 	cmp	r5, #16
  104dd4:	da000062 	ble	104f64 <_vfprintf_r+0x1adc>
  104dd8:	e2822001 	add	r2, r2, #1
  104ddc:	e2833010 	add	r3, r3, #16
  104de0:	e3520007 	cmp	r2, #7
  104de4:	e8890050 	stm	r9, {r4, r6}
  104de8:	e58d2098 	str	r2, [sp, #152]	; 0x98
  104dec:	d2899008 	addle	r9, r9, #8
  104df0:	e58d309c 	str	r3, [sp, #156]	; 0x9c
  104df4:	dafffff4 	ble	104dcc <_vfprintf_r+0x1944>
  104df8:	e1a00007 	mov	r0, r7
  104dfc:	e1a0100b 	mov	r1, fp
  104e00:	e28d2094 	add	r2, sp, #148	; 0x94
  104e04:	e1a09008 	mov	r9, r8
  104e08:	eb001115 	bl	109264 <__sprint_r>
  104e0c:	e3500000 	cmp	r0, #0
  104e10:	1afffa6f 	bne	1037d4 <_vfprintf_r+0x34c>
  104e14:	e59d309c 	ldr	r3, [sp, #156]	; 0x9c
  104e18:	e59d2098 	ldr	r2, [sp, #152]	; 0x98
  104e1c:	eaffffea 	b	104dcc <_vfprintf_r+0x1944>
  104e20:	e59d3034 	ldr	r3, [sp, #52]	; 0x34
  104e24:	e3a05000 	mov	r5, #0
  104e28:	e2833004 	add	r3, r3, #4
  104e2c:	e5134004 	ldr	r4, [r3, #-4]
  104e30:	e58d3034 	str	r3, [sp, #52]	; 0x34
  104e34:	eafffa88 	b	10385c <_vfprintf_r+0x3d4>
  104e38:	e59dc01c 	ldr	ip, [sp, #28]
  104e3c:	e30c3730 	movw	r3, #50992	; 0xc730
  104e40:	e3560047 	cmp	r6, #71	; 0x47
  104e44:	e3a01003 	mov	r1, #3
  104e48:	e30c2734 	movw	r2, #50996	; 0xc734
  104e4c:	e3403010 	movt	r3, #16
  104e50:	e3402010 	movt	r2, #16
  104e54:	e3ccc080 	bic	ip, ip, #128	; 0x80
  104e58:	d1a02003 	movle	r2, r3
  104e5c:	e58d0044 	str	r0, [sp, #68]	; 0x44
  104e60:	e58d1020 	str	r1, [sp, #32]
  104e64:	e1a05001 	mov	r5, r1
  104e68:	e58dc01c 	str	ip, [sp, #28]
  104e6c:	e58d0048 	str	r0, [sp, #72]	; 0x48
  104e70:	e58d2040 	str	r2, [sp, #64]	; 0x40
  104e74:	e5dda077 	ldrb	sl, [sp, #119]	; 0x77
  104e78:	eafffab8 	b	103960 <_vfprintf_r+0x4d8>
  104e7c:	e59d201c 	ldr	r2, [sp, #28]
  104e80:	e3120001 	tst	r2, #1
  104e84:	0afffcc6 	beq	1041a4 <_vfprintf_r+0xd1c>
  104e88:	eaffffba 	b	104d78 <_vfprintf_r+0x18f0>
  104e8c:	e59d0028 	ldr	r0, [sp, #40]	; 0x28
  104e90:	e1a0100b 	mov	r1, fp
  104e94:	e28d2094 	add	r2, sp, #148	; 0x94
  104e98:	eb0010f1 	bl	109264 <__sprint_r>
  104e9c:	e3500000 	cmp	r0, #0
  104ea0:	1afffa4b 	bne	1037d4 <_vfprintf_r+0x34c>
  104ea4:	e59d507c 	ldr	r5, [sp, #124]	; 0x7c
  104ea8:	e1a09008 	mov	r9, r8
  104eac:	e59d309c 	ldr	r3, [sp, #156]	; 0x9c
  104eb0:	eaffffad 	b	104d6c <_vfprintf_r+0x18e4>
  104eb4:	e59d0030 	ldr	r0, [sp, #48]	; 0x30
  104eb8:	e58d1034 	str	r1, [sp, #52]	; 0x34
  104ebc:	e1a01003 	mov	r1, r3
  104ec0:	e2600000 	rsb	r0, r0, #0
  104ec4:	e58d0030 	str	r0, [sp, #48]	; 0x30
  104ec8:	eafffae9 	b	103a74 <_vfprintf_r+0x5ec>
  104ecc:	e59d0028 	ldr	r0, [sp, #40]	; 0x28
  104ed0:	e1a0100b 	mov	r1, fp
  104ed4:	e28d2094 	add	r2, sp, #148	; 0x94
  104ed8:	eb0010e1 	bl	109264 <__sprint_r>
  104edc:	e3500000 	cmp	r0, #0
  104ee0:	1afffa3b 	bne	1037d4 <_vfprintf_r+0x34c>
  104ee4:	e59d309c 	ldr	r3, [sp, #156]	; 0x9c
  104ee8:	e1a09008 	mov	r9, r8
  104eec:	eafffd16 	b	10434c <_vfprintf_r+0xec4>
  104ef0:	ee183a90 	vmov	r3, s17
  104ef4:	e3530000 	cmp	r3, #0
  104ef8:	e59d301c 	ldr	r3, [sp, #28]
  104efc:	aeb09b48 	vmovge.f64	d9, d8
  104f00:	e3833c01 	orr	r3, r3, #256	; 0x100
  104f04:	a3a0a000 	movge	sl, #0
  104f08:	e58d3038 	str	r3, [sp, #56]	; 0x38
  104f0c:	ba0000dc 	blt	105284 <_vfprintf_r+0x1dfc>
  104f10:	e3550046 	cmp	r5, #70	; 0x46
  104f14:	0a000061 	beq	1050a0 <_vfprintf_r+0x1c18>
  104f18:	e3550045 	cmp	r5, #69	; 0x45
  104f1c:	1afffefa 	bne	104b0c <_vfprintf_r+0x1684>
  104f20:	e3a02002 	mov	r2, #2
  104f24:	e28d307c 	add	r3, sp, #124	; 0x7c
  104f28:	e58d2000 	str	r2, [sp]
  104f2c:	e2874001 	add	r4, r7, #1
  104f30:	e28d2080 	add	r2, sp, #128	; 0x80
  104f34:	e58d3008 	str	r3, [sp, #8]
  104f38:	e58d200c 	str	r2, [sp, #12]
  104f3c:	e28d308c 	add	r3, sp, #140	; 0x8c
  104f40:	e58d4004 	str	r4, [sp, #4]
  104f44:	e58d3010 	str	r3, [sp, #16]
  104f48:	e59d0028 	ldr	r0, [sp, #40]	; 0x28
  104f4c:	ec532b19 	vmov	r2, r3, d9
  104f50:	eb000259 	bl	1058bc <_dtoa_r>
  104f54:	e58d0040 	str	r0, [sp, #64]	; 0x40
  104f58:	e59d3040 	ldr	r3, [sp, #64]	; 0x40
  104f5c:	e0834004 	add	r4, r3, r4
  104f60:	eafffefd 	b	104b5c <_vfprintf_r+0x16d4>
  104f64:	e2822001 	add	r2, r2, #1
  104f68:	e0833005 	add	r3, r3, r5
  104f6c:	e3520007 	cmp	r2, #7
  104f70:	e8890030 	stm	r9, {r4, r5}
  104f74:	e58d2098 	str	r2, [sp, #152]	; 0x98
  104f78:	d2899008 	addle	r9, r9, #8
  104f7c:	e58d309c 	str	r3, [sp, #156]	; 0x9c
  104f80:	da000008 	ble	104fa8 <_vfprintf_r+0x1b20>
  104f84:	e59d0028 	ldr	r0, [sp, #40]	; 0x28
  104f88:	e1a0100b 	mov	r1, fp
  104f8c:	e28d2094 	add	r2, sp, #148	; 0x94
  104f90:	eb0010b3 	bl	109264 <__sprint_r>
  104f94:	e3500000 	cmp	r0, #0
  104f98:	1afffa0d 	bne	1037d4 <_vfprintf_r+0x34c>
  104f9c:	e59d309c 	ldr	r3, [sp, #156]	; 0x9c
  104fa0:	e1a09008 	mov	r9, r8
  104fa4:	e59d2098 	ldr	r2, [sp, #152]	; 0x98
  104fa8:	e2822001 	add	r2, r2, #1
  104fac:	e59d104c 	ldr	r1, [sp, #76]	; 0x4c
  104fb0:	e3520007 	cmp	r2, #7
  104fb4:	e58d2098 	str	r2, [sp, #152]	; 0x98
  104fb8:	e59d2040 	ldr	r2, [sp, #64]	; 0x40
  104fbc:	e0833001 	add	r3, r3, r1
  104fc0:	e5891004 	str	r1, [r9, #4]
  104fc4:	e58d309c 	str	r3, [sp, #156]	; 0x9c
  104fc8:	e5892000 	str	r2, [r9]
  104fcc:	dafffc73 	ble	1041a0 <_vfprintf_r+0xd18>
  104fd0:	eafffd78 	b	1045b8 <_vfprintf_r+0x1130>
  104fd4:	e58d4044 	str	r4, [sp, #68]	; 0x44
  104fd8:	fa001038 	blx	1090c0 <strlen>
  104fdc:	e58d7034 	str	r7, [sp, #52]	; 0x34
  104fe0:	e58d4048 	str	r4, [sp, #72]	; 0x48
  104fe4:	e5dda077 	ldrb	sl, [sp, #119]	; 0x77
  104fe8:	e1c03fc0 	bic	r3, r0, r0, asr #31
  104fec:	e1a05000 	mov	r5, r0
  104ff0:	e58d3020 	str	r3, [sp, #32]
  104ff4:	eafffa59 	b	103960 <_vfprintf_r+0x4d8>
  104ff8:	e30ca4fc 	movw	sl, #50428	; 0xc4fc
  104ffc:	e59d109c 	ldr	r1, [sp, #156]	; 0x9c
  105000:	e340a010 	movt	sl, #16
  105004:	e59d2098 	ldr	r2, [sp, #152]	; 0x98
  105008:	eafffa8d 	b	103a44 <_vfprintf_r+0x5bc>
  10500c:	e59d0028 	ldr	r0, [sp, #40]	; 0x28
  105010:	e1a0100b 	mov	r1, fp
  105014:	e28d2094 	add	r2, sp, #148	; 0x94
  105018:	eb001091 	bl	109264 <__sprint_r>
  10501c:	e3500000 	cmp	r0, #0
  105020:	1afff9eb 	bne	1037d4 <_vfprintf_r+0x34c>
  105024:	e59d309c 	ldr	r3, [sp, #156]	; 0x9c
  105028:	e1a09008 	mov	r9, r8
  10502c:	eafffd9b 	b	1046a0 <_vfprintf_r+0x1218>
  105030:	e59d0028 	ldr	r0, [sp, #40]	; 0x28
  105034:	e1a0100b 	mov	r1, fp
  105038:	e28d2094 	add	r2, sp, #148	; 0x94
  10503c:	eb001088 	bl	109264 <__sprint_r>
  105040:	e3500000 	cmp	r0, #0
  105044:	1afff9e2 	bne	1037d4 <_vfprintf_r+0x34c>
  105048:	e59d507c 	ldr	r5, [sp, #124]	; 0x7c
  10504c:	e1a09008 	mov	r9, r8
  105050:	e59d204c 	ldr	r2, [sp, #76]	; 0x4c
  105054:	e59d309c 	ldr	r3, [sp, #156]	; 0x9c
  105058:	e0655002 	rsb	r5, r5, r2
  10505c:	eafffe0d 	b	104898 <_vfprintf_r+0x1410>
  105060:	e30ca4fc 	movw	sl, #50428	; 0xc4fc
  105064:	e59d2098 	ldr	r2, [sp, #152]	; 0x98
  105068:	e340a010 	movt	sl, #16
  10506c:	eafffc75 	b	104248 <_vfprintf_r+0xdc0>
  105070:	e3550006 	cmp	r5, #6
  105074:	e30c3760 	movw	r3, #51040	; 0xc760
  105078:	e1a0a002 	mov	sl, r2
  10507c:	e58d2044 	str	r2, [sp, #68]	; 0x44
  105080:	23a05006 	movcs	r5, #6
  105084:	e58d2048 	str	r2, [sp, #72]	; 0x48
  105088:	e3403010 	movt	r3, #16
  10508c:	e1c52fc5 	bic	r2, r5, r5, asr #31
  105090:	e58d7034 	str	r7, [sp, #52]	; 0x34
  105094:	e58d2020 	str	r2, [sp, #32]
  105098:	e58d3040 	str	r3, [sp, #64]	; 0x40
  10509c:	eafffa2f 	b	103960 <_vfprintf_r+0x4d8>
  1050a0:	e3a02003 	mov	r2, #3
  1050a4:	e28d307c 	add	r3, sp, #124	; 0x7c
  1050a8:	e58d2000 	str	r2, [sp]
  1050ac:	e28d2080 	add	r2, sp, #128	; 0x80
  1050b0:	e58d3008 	str	r3, [sp, #8]
  1050b4:	e28d308c 	add	r3, sp, #140	; 0x8c
  1050b8:	e58d200c 	str	r2, [sp, #12]
  1050bc:	e58d3010 	str	r3, [sp, #16]
  1050c0:	e58d7004 	str	r7, [sp, #4]
  1050c4:	ec532b19 	vmov	r2, r3, d9
  1050c8:	e59d0028 	ldr	r0, [sp, #40]	; 0x28
  1050cc:	eb0001fa 	bl	1058bc <_dtoa_r>
  1050d0:	eeb59b40 	vcmp.f64	d9, #0.0
  1050d4:	eef1fa10 	vmrs	APSR_nzcv, fpscr
  1050d8:	13a02001 	movne	r2, #1
  1050dc:	03a02000 	moveq	r2, #0
  1050e0:	e5d01000 	ldrb	r1, [r0]
  1050e4:	e0803007 	add	r3, r0, r7
  1050e8:	e58d0040 	str	r0, [sp, #64]	; 0x40
  1050ec:	e3510030 	cmp	r1, #48	; 0x30
  1050f0:	13a02000 	movne	r2, #0
  1050f4:	02022001 	andeq	r2, r2, #1
  1050f8:	e3520000 	cmp	r2, #0
  1050fc:	12674001 	rsbne	r4, r7, #1
  105100:	158d407c 	strne	r4, [sp, #124]	; 0x7c
  105104:	059d407c 	ldreq	r4, [sp, #124]	; 0x7c
  105108:	e0834004 	add	r4, r3, r4
  10510c:	eafffe92 	b	104b5c <_vfprintf_r+0x16d4>
  105110:	e58d3020 	str	r3, [sp, #32]
  105114:	e3a0a02d 	mov	sl, #45	; 0x2d
  105118:	e59d3038 	ldr	r3, [sp, #56]	; 0x38
  10511c:	e5cda077 	strb	sl, [sp, #119]	; 0x77
  105120:	e58d301c 	str	r3, [sp, #28]
  105124:	e3a03000 	mov	r3, #0
  105128:	e58d3044 	str	r3, [sp, #68]	; 0x44
  10512c:	eafffa0d 	b	103968 <_vfprintf_r+0x4e0>
  105130:	e3560065 	cmp	r6, #101	; 0x65
  105134:	da000013 	ble	105188 <_vfprintf_r+0x1d00>
  105138:	e3560066 	cmp	r6, #102	; 0x66
  10513c:	e58d3048 	str	r3, [sp, #72]	; 0x48
  105140:	1afffe9f 	bne	104bc4 <_vfprintf_r+0x173c>
  105144:	e3530000 	cmp	r3, #0
  105148:	da000065 	ble	1052e4 <_vfprintf_r+0x1e5c>
  10514c:	e3570000 	cmp	r7, #0
  105150:	1a000058 	bne	1052b8 <_vfprintf_r+0x1e30>
  105154:	e59d301c 	ldr	r3, [sp, #28]
  105158:	e3130001 	tst	r3, #1
  10515c:	1a000055 	bne	1052b8 <_vfprintf_r+0x1e30>
  105160:	e59d5048 	ldr	r5, [sp, #72]	; 0x48
  105164:	e1c53fc5 	bic	r3, r5, r5, asr #31
  105168:	eafffea1 	b	104bf4 <_vfprintf_r+0x176c>
  10516c:	e1c53fc5 	bic	r3, r5, r5, asr #31
  105170:	e58d0044 	str	r0, [sp, #68]	; 0x44
  105174:	e58d7034 	str	r7, [sp, #52]	; 0x34
  105178:	e58d0048 	str	r0, [sp, #72]	; 0x48
  10517c:	e5dda077 	ldrb	sl, [sp, #119]	; 0x77
  105180:	e58d3020 	str	r3, [sp, #32]
  105184:	eafff9f5 	b	103960 <_vfprintf_r+0x4d8>
  105188:	e2433001 	sub	r3, r3, #1
  10518c:	e58d307c 	str	r3, [sp, #124]	; 0x7c
  105190:	e3530000 	cmp	r3, #0
  105194:	e5cd6084 	strb	r6, [sp, #132]	; 0x84
  105198:	b2633000 	rsblt	r3, r3, #0
  10519c:	b3a0202d 	movlt	r2, #45	; 0x2d
  1051a0:	a3a0202b 	movge	r2, #43	; 0x2b
  1051a4:	e3530009 	cmp	r3, #9
  1051a8:	e5cd2085 	strb	r2, [sp, #133]	; 0x85
  1051ac:	da000046 	ble	1052cc <_vfprintf_r+0x1e44>
  1051b0:	e28de093 	add	lr, sp, #147	; 0x93
  1051b4:	e59d406c 	ldr	r4, [sp, #108]	; 0x6c
  1051b8:	e1a0c00e 	mov	ip, lr
  1051bc:	e0c10493 	smull	r0, r1, r3, r4
  1051c0:	e1a02fc3 	asr	r2, r3, #31
  1051c4:	e0621141 	rsb	r1, r2, r1, asr #2
  1051c8:	e3510009 	cmp	r1, #9
  1051cc:	e0812101 	add	r2, r1, r1, lsl #2
  1051d0:	e0432082 	sub	r2, r3, r2, lsl #1
  1051d4:	e1a03001 	mov	r3, r1
  1051d8:	e2822030 	add	r2, r2, #48	; 0x30
  1051dc:	e56c2001 	strb	r2, [ip, #-1]!
  1051e0:	cafffff5 	bgt	1051bc <_vfprintf_r+0x1d34>
  1051e4:	e2813030 	add	r3, r1, #48	; 0x30
  1051e8:	e1a0200c 	mov	r2, ip
  1051ec:	e6ef3073 	uxtb	r3, r3
  1051f0:	e5623001 	strb	r3, [r2, #-1]!
  1051f4:	e15e0002 	cmp	lr, r2
  1051f8:	9a00004f 	bls	10533c <_vfprintf_r+0x1eb4>
  1051fc:	e1a0200c 	mov	r2, ip
  105200:	e28d1086 	add	r1, sp, #134	; 0x86
  105204:	ea000000 	b	10520c <_vfprintf_r+0x1d84>
  105208:	e4d23001 	ldrb	r3, [r2], #1
  10520c:	e152000e 	cmp	r2, lr
  105210:	e4c13001 	strb	r3, [r1], #1
  105214:	1afffffb 	bne	105208 <_vfprintf_r+0x1d80>
  105218:	e28d3094 	add	r3, sp, #148	; 0x94
  10521c:	e28d2086 	add	r2, sp, #134	; 0x86
  105220:	e06c3003 	rsb	r3, ip, r3
  105224:	e0823003 	add	r3, r2, r3
  105228:	e59d104c 	ldr	r1, [sp, #76]	; 0x4c
  10522c:	e28d2084 	add	r2, sp, #132	; 0x84
  105230:	e0623003 	rsb	r3, r2, r3
  105234:	e58d3068 	str	r3, [sp, #104]	; 0x68
  105238:	e3510001 	cmp	r1, #1
  10523c:	e0815003 	add	r5, r1, r3
  105240:	da000039 	ble	10532c <_vfprintf_r+0x1ea4>
  105244:	e2855001 	add	r5, r5, #1
  105248:	e3a03000 	mov	r3, #0
  10524c:	e58d3048 	str	r3, [sp, #72]	; 0x48
  105250:	e1c53fc5 	bic	r3, r5, r5, asr #31
  105254:	eafffe66 	b	104bf4 <_vfprintf_r+0x176c>
  105258:	e59d0028 	ldr	r0, [sp, #40]	; 0x28
  10525c:	e1a0100b 	mov	r1, fp
  105260:	e28d2094 	add	r2, sp, #148	; 0x94
  105264:	eb000ffe 	bl	109264 <__sprint_r>
  105268:	e3500000 	cmp	r0, #0
  10526c:	1afff958 	bne	1037d4 <_vfprintf_r+0x34c>
  105270:	e59d507c 	ldr	r5, [sp, #124]	; 0x7c
  105274:	e1a09008 	mov	r9, r8
  105278:	e59d309c 	ldr	r3, [sp, #156]	; 0x9c
  10527c:	e59d2098 	ldr	r2, [sp, #152]	; 0x98
  105280:	eafffec8 	b	104da8 <_vfprintf_r+0x1920>
  105284:	eeb19b48 	vneg.f64	d9, d8
  105288:	e3a0a02d 	mov	sl, #45	; 0x2d
  10528c:	eaffff1f 	b	104f10 <_vfprintf_r+0x1a88>
  105290:	e59d3048 	ldr	r3, [sp, #72]	; 0x48
  105294:	e3530000 	cmp	r3, #0
  105298:	d2635002 	rsble	r5, r3, #2
  10529c:	e59d304c 	ldr	r3, [sp, #76]	; 0x4c
  1052a0:	c3a05001 	movgt	r5, #1
  1052a4:	e0855003 	add	r5, r5, r3
  1052a8:	e1c53fc5 	bic	r3, r5, r5, asr #31
  1052ac:	eafffe50 	b	104bf4 <_vfprintf_r+0x176c>
  1052b0:	e59d308c 	ldr	r3, [sp, #140]	; 0x8c
  1052b4:	eafffe36 	b	104b94 <_vfprintf_r+0x170c>
  1052b8:	e59d3048 	ldr	r3, [sp, #72]	; 0x48
  1052bc:	e2875001 	add	r5, r7, #1
  1052c0:	e0835005 	add	r5, r3, r5
  1052c4:	e1c53fc5 	bic	r3, r5, r5, asr #31
  1052c8:	eafffe49 	b	104bf4 <_vfprintf_r+0x176c>
  1052cc:	e2833030 	add	r3, r3, #48	; 0x30
  1052d0:	e5cd3087 	strb	r3, [sp, #135]	; 0x87
  1052d4:	e3a03030 	mov	r3, #48	; 0x30
  1052d8:	e5cd3086 	strb	r3, [sp, #134]	; 0x86
  1052dc:	e28d3088 	add	r3, sp, #136	; 0x88
  1052e0:	eaffffd0 	b	105228 <_vfprintf_r+0x1da0>
  1052e4:	e3570000 	cmp	r7, #0
  1052e8:	1a000004 	bne	105300 <_vfprintf_r+0x1e78>
  1052ec:	e59d301c 	ldr	r3, [sp, #28]
  1052f0:	e3130001 	tst	r3, #1
  1052f4:	03a03001 	moveq	r3, #1
  1052f8:	01a05003 	moveq	r5, r3
  1052fc:	0afffe3c 	beq	104bf4 <_vfprintf_r+0x176c>
  105300:	e2875002 	add	r5, r7, #2
  105304:	e1c53fc5 	bic	r3, r5, r5, asr #31
  105308:	eafffe39 	b	104bf4 <_vfprintf_r+0x176c>
  10530c:	e59d0034 	ldr	r0, [sp, #52]	; 0x34
  105310:	e5d36001 	ldrb	r6, [r3, #1]
  105314:	e2800004 	add	r0, r0, #4
  105318:	e5107004 	ldr	r7, [r0, #-4]
  10531c:	e58d0034 	str	r0, [sp, #52]	; 0x34
  105320:	e3570000 	cmp	r7, #0
  105324:	aafff8b3 	bge	1035f8 <_vfprintf_r+0x170>
  105328:	eafff8b1 	b	1035f4 <_vfprintf_r+0x16c>
  10532c:	e59d301c 	ldr	r3, [sp, #28]
  105330:	e2133001 	ands	r3, r3, #1
  105334:	0affffc4 	beq	10524c <_vfprintf_r+0x1dc4>
  105338:	eaffffc1 	b	105244 <_vfprintf_r+0x1dbc>
  10533c:	e28d3086 	add	r3, sp, #134	; 0x86
  105340:	eaffffb8 	b	105228 <_vfprintf_r+0x1da0>
  105344:	e1a04007 	mov	r4, r7
  105348:	eaffff02 	b	104f58 <_vfprintf_r+0x1ad0>
  10534c:	0010c50c 	andseq	ip, r0, ip, lsl #10

00105350 <vfprintf>:
  105350:	e30cc7c8 	movw	ip, #51144	; 0xc7c8
  105354:	e1a03002 	mov	r3, r2
  105358:	e52de004 	push	{lr}		; (str lr, [sp, #-4]!)
  10535c:	e340c010 	movt	ip, #16
  105360:	e1a0e001 	mov	lr, r1
  105364:	e1a01000 	mov	r1, r0
  105368:	e1a0200e 	mov	r2, lr
  10536c:	e59c0000 	ldr	r0, [ip]
  105370:	e49de004 	pop	{lr}		; (ldr lr, [sp], #4)
  105374:	eafff843 	b	103488 <_vfprintf_r>

00105378 <__sbprintf>:
  105378:	e92d47f0 	push	{r4, r5, r6, r7, r8, r9, sl, lr}
  10537c:	e1a04001 	mov	r4, r1
  105380:	e24dde46 	sub	sp, sp, #1120	; 0x460
  105384:	e1d470be 	ldrh	r7, [r4, #14]
  105388:	e24dd008 	sub	sp, sp, #8
  10538c:	e5949064 	ldr	r9, [r4, #100]	; 0x64
  105390:	e594a01c 	ldr	sl, [r4, #28]
  105394:	e28d6068 	add	r6, sp, #104	; 0x68
  105398:	e5948024 	ldr	r8, [r4, #36]	; 0x24
  10539c:	e1a0100d 	mov	r1, sp
  1053a0:	e1d4c0bc 	ldrh	ip, [r4, #12]
  1053a4:	e3a0eb01 	mov	lr, #1024	; 0x400
  1053a8:	e1cd70be 	strh	r7, [sp, #14]
  1053ac:	e3a07000 	mov	r7, #0
  1053b0:	e3ccc002 	bic	ip, ip, #2
  1053b4:	e58d9064 	str	r9, [sp, #100]	; 0x64
  1053b8:	e58d6000 	str	r6, [sp]
  1053bc:	e1a09000 	mov	r9, r0
  1053c0:	e58d6010 	str	r6, [sp, #16]
  1053c4:	e1cdc0bc 	strh	ip, [sp, #12]
  1053c8:	e58da01c 	str	sl, [sp, #28]
  1053cc:	e58d8024 	str	r8, [sp, #36]	; 0x24
  1053d0:	e58de008 	str	lr, [sp, #8]
  1053d4:	e58de014 	str	lr, [sp, #20]
  1053d8:	e58d7018 	str	r7, [sp, #24]
  1053dc:	ebfff829 	bl	103488 <_vfprintf_r>
  1053e0:	e2506000 	subs	r6, r0, #0
  1053e4:	ba000004 	blt	1053fc <__sbprintf+0x84>
  1053e8:	e1a00009 	mov	r0, r9
  1053ec:	e1a0100d 	mov	r1, sp
  1053f0:	eb000659 	bl	106d5c <_fflush_r>
  1053f4:	e1500007 	cmp	r0, r7
  1053f8:	13e06000 	mvnne	r6, #0
  1053fc:	e1dd30bc 	ldrh	r3, [sp, #12]
  105400:	e1a00006 	mov	r0, r6
  105404:	e3130040 	tst	r3, #64	; 0x40
  105408:	11d430bc 	ldrhne	r3, [r4, #12]
  10540c:	13833040 	orrne	r3, r3, #64	; 0x40
  105410:	11c430bc 	strhne	r3, [r4, #12]
  105414:	e28dde46 	add	sp, sp, #1120	; 0x460
  105418:	e28dd008 	add	sp, sp, #8
  10541c:	e8bd87f0 	pop	{r4, r5, r6, r7, r8, r9, sl, pc}

00105420 <__swsetup_r>:
  105420:	e92d4038 	push	{r3, r4, r5, lr}
  105424:	e30c37c8 	movw	r3, #51144	; 0xc7c8
  105428:	e3403010 	movt	r3, #16
  10542c:	e1a05000 	mov	r5, r0
  105430:	e5930000 	ldr	r0, [r3]
  105434:	e1a04001 	mov	r4, r1
  105438:	e3500000 	cmp	r0, #0
  10543c:	0a000002 	beq	10544c <__swsetup_r+0x2c>
  105440:	e5903038 	ldr	r3, [r0, #56]	; 0x38
  105444:	e3530000 	cmp	r3, #0
  105448:	0a000030 	beq	105510 <__swsetup_r+0xf0>
  10544c:	e1d4c0bc 	ldrh	ip, [r4, #12]
  105450:	e6ff307c 	uxth	r3, ip
  105454:	e3130008 	tst	r3, #8
  105458:	0a00000b 	beq	10548c <__swsetup_r+0x6c>
  10545c:	e5942010 	ldr	r2, [r4, #16]
  105460:	e3520000 	cmp	r2, #0
  105464:	0a000012 	beq	1054b4 <__swsetup_r+0x94>
  105468:	e2131001 	ands	r1, r3, #1
  10546c:	1a000019 	bne	1054d8 <__swsetup_r+0xb8>
  105470:	e3130002 	tst	r3, #2
  105474:	05941014 	ldreq	r1, [r4, #20]
  105478:	e3520000 	cmp	r2, #0
  10547c:	e5841008 	str	r1, [r4, #8]
  105480:	0a00001b 	beq	1054f4 <__swsetup_r+0xd4>
  105484:	e3a00000 	mov	r0, #0
  105488:	e8bd8038 	pop	{r3, r4, r5, pc}
  10548c:	e3130010 	tst	r3, #16
  105490:	0a000032 	beq	105560 <__swsetup_r+0x140>
  105494:	e3130004 	tst	r3, #4
  105498:	1a00001e 	bne	105518 <__swsetup_r+0xf8>
  10549c:	e5942010 	ldr	r2, [r4, #16]
  1054a0:	e38c3008 	orr	r3, ip, #8
  1054a4:	e3520000 	cmp	r2, #0
  1054a8:	e1c430bc 	strh	r3, [r4, #12]
  1054ac:	e6ff3073 	uxth	r3, r3
  1054b0:	1affffec 	bne	105468 <__swsetup_r+0x48>
  1054b4:	e2031d0a 	and	r1, r3, #640	; 0x280
  1054b8:	e3510c02 	cmp	r1, #512	; 0x200
  1054bc:	0affffe9 	beq	105468 <__swsetup_r+0x48>
  1054c0:	e1a00005 	mov	r0, r5
  1054c4:	e1a01004 	mov	r1, r4
  1054c8:	eb000869 	bl	107674 <__smakebuf_r>
  1054cc:	e1d430bc 	ldrh	r3, [r4, #12]
  1054d0:	e5942010 	ldr	r2, [r4, #16]
  1054d4:	eaffffe3 	b	105468 <__swsetup_r+0x48>
  1054d8:	e5943014 	ldr	r3, [r4, #20]
  1054dc:	e3520000 	cmp	r2, #0
  1054e0:	e3a01000 	mov	r1, #0
  1054e4:	e5841008 	str	r1, [r4, #8]
  1054e8:	e2633000 	rsb	r3, r3, #0
  1054ec:	e5843018 	str	r3, [r4, #24]
  1054f0:	1affffe3 	bne	105484 <__swsetup_r+0x64>
  1054f4:	e1d430bc 	ldrh	r3, [r4, #12]
  1054f8:	e3130080 	tst	r3, #128	; 0x80
  1054fc:	0affffe0 	beq	105484 <__swsetup_r+0x64>
  105500:	e3833040 	orr	r3, r3, #64	; 0x40
  105504:	e3e00000 	mvn	r0, #0
  105508:	e1c430bc 	strh	r3, [r4, #12]
  10550c:	e8bd8038 	pop	{r3, r4, r5, pc}
  105510:	eb0006e2 	bl	1070a0 <__sinit>
  105514:	eaffffcc 	b	10544c <__swsetup_r+0x2c>
  105518:	e5941030 	ldr	r1, [r4, #48]	; 0x30
  10551c:	e3510000 	cmp	r1, #0
  105520:	0a000007 	beq	105544 <__swsetup_r+0x124>
  105524:	e2843040 	add	r3, r4, #64	; 0x40
  105528:	e1510003 	cmp	r1, r3
  10552c:	0a000002 	beq	10553c <__swsetup_r+0x11c>
  105530:	e1a00005 	mov	r0, r5
  105534:	eb00072c 	bl	1071ec <_free_r>
  105538:	e1d4c0bc 	ldrh	ip, [r4, #12]
  10553c:	e3a03000 	mov	r3, #0
  105540:	e5843030 	str	r3, [r4, #48]	; 0x30
  105544:	e5942010 	ldr	r2, [r4, #16]
  105548:	e3ccc024 	bic	ip, ip, #36	; 0x24
  10554c:	e3a03000 	mov	r3, #0
  105550:	e5843004 	str	r3, [r4, #4]
  105554:	e6ffc07c 	uxth	ip, ip
  105558:	e5842000 	str	r2, [r4]
  10555c:	eaffffcf 	b	1054a0 <__swsetup_r+0x80>
  105560:	e38cc040 	orr	ip, ip, #64	; 0x40
  105564:	e3a03009 	mov	r3, #9
  105568:	e3e00000 	mvn	r0, #0
  10556c:	e5853000 	str	r3, [r5]
  105570:	e1c4c0bc 	strh	ip, [r4, #12]
  105574:	e8bd8038 	pop	{r3, r4, r5, pc}

00105578 <__call_exitprocs>:
  105578:	e30c34f8 	movw	r3, #50424	; 0xc4f8
  10557c:	e3022c58 	movw	r2, #11352	; 0x2c58
  105580:	e3403010 	movt	r3, #16
  105584:	e3402010 	movt	r2, #16
  105588:	e5933000 	ldr	r3, [r3]
  10558c:	e92d4ff0 	push	{r4, r5, r6, r7, r8, r9, sl, fp, lr}
  105590:	e24dd014 	sub	sp, sp, #20
  105594:	e1a0a000 	mov	sl, r0
  105598:	e1a06001 	mov	r6, r1
  10559c:	e58d3008 	str	r3, [sp, #8]
  1055a0:	e2833f52 	add	r3, r3, #328	; 0x148
  1055a4:	e58d2004 	str	r2, [sp, #4]
  1055a8:	e58d300c 	str	r3, [sp, #12]
  1055ac:	e59d3008 	ldr	r3, [sp, #8]
  1055b0:	e5937148 	ldr	r7, [r3, #328]	; 0x148
  1055b4:	e3570000 	cmp	r7, #0
  1055b8:	0a000039 	beq	1056a4 <__call_exitprocs+0x12c>
  1055bc:	e59db00c 	ldr	fp, [sp, #12]
  1055c0:	e1a0900b 	mov	r9, fp
  1055c4:	e5974004 	ldr	r4, [r7, #4]
  1055c8:	e2545001 	subs	r5, r4, #1
  1055cc:	52844001 	addpl	r4, r4, #1
  1055d0:	53a08000 	movpl	r8, #0
  1055d4:	50874104 	addpl	r4, r7, r4, lsl #2
  1055d8:	5a000007 	bpl	1055fc <__call_exitprocs+0x84>
  1055dc:	ea000021 	b	105668 <__call_exitprocs+0xf0>
  1055e0:	e5943100 	ldr	r3, [r4, #256]	; 0x100
  1055e4:	e1530006 	cmp	r3, r6
  1055e8:	0a000005 	beq	105604 <__call_exitprocs+0x8c>
  1055ec:	e2455001 	sub	r5, r5, #1
  1055f0:	e2444004 	sub	r4, r4, #4
  1055f4:	e3750001 	cmn	r5, #1
  1055f8:	0a00001a 	beq	105668 <__call_exitprocs+0xf0>
  1055fc:	e3560000 	cmp	r6, #0
  105600:	1afffff6 	bne	1055e0 <__call_exitprocs+0x68>
  105604:	e5973004 	ldr	r3, [r7, #4]
  105608:	e5942000 	ldr	r2, [r4]
  10560c:	e2433001 	sub	r3, r3, #1
  105610:	e1530005 	cmp	r3, r5
  105614:	05875004 	streq	r5, [r7, #4]
  105618:	15848000 	strne	r8, [r4]
  10561c:	e3520000 	cmp	r2, #0
  105620:	0afffff1 	beq	1055ec <__call_exitprocs+0x74>
  105624:	e5973188 	ldr	r3, [r7, #392]	; 0x188
  105628:	e3a01001 	mov	r1, #1
  10562c:	e1a01511 	lsl	r1, r1, r5
  105630:	e597b004 	ldr	fp, [r7, #4]
  105634:	e1110003 	tst	r1, r3
  105638:	1a00001b 	bne	1056ac <__call_exitprocs+0x134>
  10563c:	e12fff32 	blx	r2
  105640:	e5973004 	ldr	r3, [r7, #4]
  105644:	e153000b 	cmp	r3, fp
  105648:	1affffd7 	bne	1055ac <__call_exitprocs+0x34>
  10564c:	e5993000 	ldr	r3, [r9]
  105650:	e1530007 	cmp	r3, r7
  105654:	1affffd4 	bne	1055ac <__call_exitprocs+0x34>
  105658:	e2455001 	sub	r5, r5, #1
  10565c:	e2444004 	sub	r4, r4, #4
  105660:	e3750001 	cmn	r5, #1
  105664:	1affffe4 	bne	1055fc <__call_exitprocs+0x84>
  105668:	e59d3004 	ldr	r3, [sp, #4]
  10566c:	e3530000 	cmp	r3, #0
  105670:	0a00000b 	beq	1056a4 <__call_exitprocs+0x12c>
  105674:	e5973004 	ldr	r3, [r7, #4]
  105678:	e3530000 	cmp	r3, #0
  10567c:	e5973000 	ldr	r3, [r7]
  105680:	1a000013 	bne	1056d4 <__call_exitprocs+0x15c>
  105684:	e3530000 	cmp	r3, #0
  105688:	0a000011 	beq	1056d4 <__call_exitprocs+0x15c>
  10568c:	e1a00007 	mov	r0, r7
  105690:	e5893000 	str	r3, [r9]
  105694:	ebfff56f 	bl	102c58 <free>
  105698:	e5997000 	ldr	r7, [r9]
  10569c:	e3570000 	cmp	r7, #0
  1056a0:	1affffc7 	bne	1055c4 <__call_exitprocs+0x4c>
  1056a4:	e28dd014 	add	sp, sp, #20
  1056a8:	e8bd8ff0 	pop	{r4, r5, r6, r7, r8, r9, sl, fp, pc}
  1056ac:	e597318c 	ldr	r3, [r7, #396]	; 0x18c
  1056b0:	e1110003 	tst	r1, r3
  1056b4:	1a000003 	bne	1056c8 <__call_exitprocs+0x150>
  1056b8:	e1a0000a 	mov	r0, sl
  1056bc:	e5941080 	ldr	r1, [r4, #128]	; 0x80
  1056c0:	e12fff32 	blx	r2
  1056c4:	eaffffdd 	b	105640 <__call_exitprocs+0xc8>
  1056c8:	e5940080 	ldr	r0, [r4, #128]	; 0x80
  1056cc:	e12fff32 	blx	r2
  1056d0:	eaffffda 	b	105640 <__call_exitprocs+0xc8>
  1056d4:	e1a09007 	mov	r9, r7
  1056d8:	e1a07003 	mov	r7, r3
  1056dc:	eaffffee 	b	10569c <__call_exitprocs+0x124>

001056e0 <atexit>:
  1056e0:	e1a01000 	mov	r1, r0
  1056e4:	e3a00000 	mov	r0, #0
  1056e8:	e1a02000 	mov	r2, r0
  1056ec:	e1a03000 	mov	r3, r0
  1056f0:	ea001399 	b	10a55c <__register_exitproc>
  1056f4:	00000000 	andeq	r0, r0, r0

001056f8 <quorem>:
  1056f8:	e92d4ff0 	push	{r4, r5, r6, r7, r8, r9, sl, fp, lr}
  1056fc:	e24dd00c 	sub	sp, sp, #12
  105700:	e5903010 	ldr	r3, [r0, #16]
  105704:	e5915010 	ldr	r5, [r1, #16]
  105708:	e1550003 	cmp	r5, r3
  10570c:	c3a00000 	movgt	r0, #0
  105710:	ca000067 	bgt	1058b4 <quorem+0x1bc>
  105714:	e2455001 	sub	r5, r5, #1
  105718:	e2814014 	add	r4, r1, #20
  10571c:	e58d1000 	str	r1, [sp]
  105720:	e2809014 	add	r9, r0, #20
  105724:	e7941105 	ldr	r1, [r4, r5, lsl #2]
  105728:	e1a0a105 	lsl	sl, r5, #2
  10572c:	e1a08000 	mov	r8, r0
  105730:	e7990105 	ldr	r0, [r9, r5, lsl #2]
  105734:	e2811001 	add	r1, r1, #1
  105738:	e089300a 	add	r3, r9, sl
  10573c:	e58d3004 	str	r3, [sp, #4]
  105740:	ebfff465 	bl	1028dc <__aeabi_uidiv>
  105744:	e084700a 	add	r7, r4, sl
  105748:	e2506000 	subs	r6, r0, #0
  10574c:	0a00002c 	beq	105804 <quorem+0x10c>
  105750:	e3a0c000 	mov	ip, #0
  105754:	e1a0b004 	mov	fp, r4
  105758:	e1a0200c 	mov	r2, ip
  10575c:	e1a0e009 	mov	lr, r9
  105760:	e49b3004 	ldr	r3, [fp], #4
  105764:	e59e0000 	ldr	r0, [lr]
  105768:	e157000b 	cmp	r7, fp
  10576c:	e6ff1073 	uxth	r1, r3
  105770:	e1a03823 	lsr	r3, r3, #16
  105774:	e021c691 	mla	r1, r1, r6, ip
  105778:	e00c0693 	mul	ip, r3, r6
  10577c:	e6ff3071 	uxth	r3, r1
  105780:	e08cc821 	add	ip, ip, r1, lsr #16
  105784:	e0633002 	rsb	r3, r3, r2
  105788:	e6f33070 	uxtah	r3, r3, r0
  10578c:	e6ff207c 	uxth	r2, ip
  105790:	e0622820 	rsb	r2, r2, r0, lsr #16
  105794:	e1a0c82c 	lsr	ip, ip, #16
  105798:	e0822843 	add	r2, r2, r3, asr #16
  10579c:	e6ff3073 	uxth	r3, r3
  1057a0:	e1830802 	orr	r0, r3, r2, lsl #16
  1057a4:	e1a02842 	asr	r2, r2, #16
  1057a8:	e48e0004 	str	r0, [lr], #4
  1057ac:	2affffeb 	bcs	105760 <quorem+0x68>
  1057b0:	e799300a 	ldr	r3, [r9, sl]
  1057b4:	e3530000 	cmp	r3, #0
  1057b8:	1a000011 	bne	105804 <quorem+0x10c>
  1057bc:	e59d2004 	ldr	r2, [sp, #4]
  1057c0:	e2423004 	sub	r3, r2, #4
  1057c4:	e1590003 	cmp	r9, r3
  1057c8:	2a00000c 	bcs	105800 <quorem+0x108>
  1057cc:	e5123004 	ldr	r3, [r2, #-4]
  1057d0:	e3530000 	cmp	r3, #0
  1057d4:	1a000009 	bne	105800 <quorem+0x108>
  1057d8:	e2423008 	sub	r3, r2, #8
  1057dc:	ea000002 	b	1057ec <quorem+0xf4>
  1057e0:	e5922000 	ldr	r2, [r2]
  1057e4:	e3520000 	cmp	r2, #0
  1057e8:	1a000004 	bne	105800 <quorem+0x108>
  1057ec:	e1590003 	cmp	r9, r3
  1057f0:	e1a02003 	mov	r2, r3
  1057f4:	e2455001 	sub	r5, r5, #1
  1057f8:	e2433004 	sub	r3, r3, #4
  1057fc:	3afffff7 	bcc	1057e0 <quorem+0xe8>
  105800:	e5885010 	str	r5, [r8, #16]
  105804:	e59d1000 	ldr	r1, [sp]
  105808:	e1a00008 	mov	r0, r8
  10580c:	eb000b79 	bl	1085f8 <__mcmp>
  105810:	e3500000 	cmp	r0, #0
  105814:	ba000025 	blt	1058b0 <quorem+0x1b8>
  105818:	e2866001 	add	r6, r6, #1
  10581c:	e1a0c009 	mov	ip, r9
  105820:	e3a03000 	mov	r3, #0
  105824:	e4940004 	ldr	r0, [r4], #4
  105828:	e59c1000 	ldr	r1, [ip]
  10582c:	e1570004 	cmp	r7, r4
  105830:	e6ff2070 	uxth	r2, r0
  105834:	e1a00820 	lsr	r0, r0, #16
  105838:	e0622003 	rsb	r2, r2, r3
  10583c:	e0603821 	rsb	r3, r0, r1, lsr #16
  105840:	e6f22071 	uxtah	r2, r2, r1
  105844:	e0833842 	add	r3, r3, r2, asr #16
  105848:	e6ff2072 	uxth	r2, r2
  10584c:	e1821803 	orr	r1, r2, r3, lsl #16
  105850:	e1a03843 	asr	r3, r3, #16
  105854:	e48c1004 	str	r1, [ip], #4
  105858:	2afffff1 	bcs	105824 <quorem+0x12c>
  10585c:	e7992105 	ldr	r2, [r9, r5, lsl #2]
  105860:	e0893105 	add	r3, r9, r5, lsl #2
  105864:	e3520000 	cmp	r2, #0
  105868:	1a000010 	bne	1058b0 <quorem+0x1b8>
  10586c:	e2432004 	sub	r2, r3, #4
  105870:	e1590002 	cmp	r9, r2
  105874:	2a00000c 	bcs	1058ac <quorem+0x1b4>
  105878:	e5132004 	ldr	r2, [r3, #-4]
  10587c:	e3520000 	cmp	r2, #0
  105880:	1a000009 	bne	1058ac <quorem+0x1b4>
  105884:	e2433008 	sub	r3, r3, #8
  105888:	ea000002 	b	105898 <quorem+0x1a0>
  10588c:	e5922000 	ldr	r2, [r2]
  105890:	e3520000 	cmp	r2, #0
  105894:	1a000004 	bne	1058ac <quorem+0x1b4>
  105898:	e1590003 	cmp	r9, r3
  10589c:	e1a02003 	mov	r2, r3
  1058a0:	e2455001 	sub	r5, r5, #1
  1058a4:	e2433004 	sub	r3, r3, #4
  1058a8:	3afffff7 	bcc	10588c <quorem+0x194>
  1058ac:	e5885010 	str	r5, [r8, #16]
  1058b0:	e1a00006 	mov	r0, r6
  1058b4:	e28dd00c 	add	sp, sp, #12
  1058b8:	e8bd8ff0 	pop	{r4, r5, r6, r7, r8, r9, sl, fp, pc}

001058bc <_dtoa_r>:
  1058bc:	e92d4ff0 	push	{r4, r5, r6, r7, r8, r9, sl, fp, lr}
  1058c0:	e1a04000 	mov	r4, r0
  1058c4:	ed2d8b02 	vpush	{d8}
  1058c8:	e1a0a002 	mov	sl, r2
  1058cc:	e590c040 	ldr	ip, [r0, #64]	; 0x40
  1058d0:	e1a0b003 	mov	fp, r3
  1058d4:	e35c0000 	cmp	ip, #0
  1058d8:	e24dd03c 	sub	sp, sp, #60	; 0x3c
  1058dc:	e59d6074 	ldr	r6, [sp, #116]	; 0x74
  1058e0:	0a000007 	beq	105904 <_dtoa_r+0x48>
  1058e4:	e5902044 	ldr	r2, [r0, #68]	; 0x44
  1058e8:	e3a03001 	mov	r3, #1
  1058ec:	e1a0100c 	mov	r1, ip
  1058f0:	e1a03213 	lsl	r3, r3, r2
  1058f4:	e98c000c 	stmib	ip, {r2, r3}
  1058f8:	eb000990 	bl	107f40 <_Bfree>
  1058fc:	e3a03000 	mov	r3, #0
  105900:	e5843040 	str	r3, [r4, #64]	; 0x40
  105904:	e35b0000 	cmp	fp, #0
  105908:	e1a0500b 	mov	r5, fp
  10590c:	b3cb5102 	biclt	r5, fp, #-2147483648	; 0x80000000
  105910:	b3a03001 	movlt	r3, #1
  105914:	a3a03000 	movge	r3, #0
  105918:	b5863000 	strlt	r3, [r6]
  10591c:	b1a0b005 	movlt	fp, r5
  105920:	a5863000 	strge	r3, [r6]
  105924:	e3a03000 	mov	r3, #0
  105928:	e1a02003 	mov	r2, r3
  10592c:	e3473ff0 	movt	r3, #32752	; 0x7ff0
  105930:	e0033005 	and	r3, r3, r5
  105934:	e3472ff0 	movt	r2, #32752	; 0x7ff0
  105938:	e1530002 	cmp	r3, r2
  10593c:	0a000010 	beq	105984 <_dtoa_r+0xc8>
  105940:	ec4bab18 	vmov	d8, sl, fp
  105944:	eeb58b40 	vcmp.f64	d8, #0.0
  105948:	eef1fa10 	vmrs	APSR_nzcv, fpscr
  10594c:	1a00001b 	bne	1059c0 <_dtoa_r+0x104>
  105950:	e59d3078 	ldr	r3, [sp, #120]	; 0x78
  105954:	e59d2070 	ldr	r2, [sp, #112]	; 0x70
  105958:	e3530000 	cmp	r3, #0
  10595c:	e3a03001 	mov	r3, #1
  105960:	e5823000 	str	r3, [r2]
  105964:	0a00008b 	beq	105b98 <_dtoa_r+0x2dc>
  105968:	e59f3328 	ldr	r3, [pc, #808]	; 105c98 <_dtoa_r+0x3dc>
  10596c:	e2430001 	sub	r0, r3, #1
  105970:	e59d2078 	ldr	r2, [sp, #120]	; 0x78
  105974:	e5823000 	str	r3, [r2]
  105978:	e28dd03c 	add	sp, sp, #60	; 0x3c
  10597c:	ecbd8b02 	vpop	{d8}
  105980:	e8bd8ff0 	pop	{r4, r5, r6, r7, r8, r9, sl, fp, pc}
  105984:	e35a0000 	cmp	sl, #0
  105988:	e59d2070 	ldr	r2, [sp, #112]	; 0x70
  10598c:	e302370f 	movw	r3, #9999	; 0x270f
  105990:	130c0778 	movwne	r0, #51064	; 0xc778
  105994:	e5823000 	str	r3, [r2]
  105998:	13400010 	movtne	r0, #16
  10599c:	0a000069 	beq	105b48 <_dtoa_r+0x28c>
  1059a0:	e59d3078 	ldr	r3, [sp, #120]	; 0x78
  1059a4:	e3530000 	cmp	r3, #0
  1059a8:	0afffff2 	beq	105978 <_dtoa_r+0xbc>
  1059ac:	e5d03003 	ldrb	r3, [r0, #3]
  1059b0:	e3530000 	cmp	r3, #0
  1059b4:	12803008 	addne	r3, r0, #8
  1059b8:	02803003 	addeq	r3, r0, #3
  1059bc:	eaffffeb 	b	105970 <_dtoa_r+0xb4>
  1059c0:	e28d2034 	add	r2, sp, #52	; 0x34
  1059c4:	e28d3030 	add	r3, sp, #48	; 0x30
  1059c8:	e58d2000 	str	r2, [sp]
  1059cc:	e1a00004 	mov	r0, r4
  1059d0:	e58d3004 	str	r3, [sp, #4]
  1059d4:	e1a0200a 	mov	r2, sl
  1059d8:	e1a0300b 	mov	r3, fp
  1059dc:	eb000bbe 	bl	1088dc <__d2b>
  1059e0:	e1b08a25 	lsrs	r8, r5, #20
  1059e4:	e1a09000 	mov	r9, r0
  1059e8:	1a00005f 	bne	105b6c <_dtoa_r+0x2b0>
  1059ec:	e59d8030 	ldr	r8, [sp, #48]	; 0x30
  1059f0:	e3e03e41 	mvn	r3, #1040	; 0x410
  1059f4:	e59d1034 	ldr	r1, [sp, #52]	; 0x34
  1059f8:	e0881001 	add	r1, r8, r1
  1059fc:	e1510003 	cmp	r1, r3
  105a00:	ba00014b 	blt	105f34 <_dtoa_r+0x678>
  105a04:	e2813e41 	add	r3, r1, #1040	; 0x410
  105a08:	e30f2c0e 	movw	r2, #64526	; 0xfc0e
  105a0c:	e2833002 	add	r3, r3, #2
  105a10:	e34f2fff 	movt	r2, #65535	; 0xffff
  105a14:	e1a0333a 	lsr	r3, sl, r3
  105a18:	e0612002 	rsb	r2, r1, r2
  105a1c:	e1833215 	orr	r3, r3, r5, lsl r2
  105a20:	ee073a90 	vmov	s15, r3
  105a24:	eef80b67 	vcvt.f64.u32	d16, s15
  105a28:	e2411001 	sub	r1, r1, #1
  105a2c:	e3a00001 	mov	r0, #1
  105a30:	e58d0020 	str	r0, [sp, #32]
  105a34:	ec532b30 	vmov	r2, r3, d16
  105a38:	e243361f 	sub	r3, r3, #32505856	; 0x1f00000
  105a3c:	eef71b08 	vmov.f64	d17, #120	; 0x78
  105a40:	ec432b34 	vmov	d20, r2, r3
  105a44:	eddf3b8d 	vldr	d19, [pc, #564]	; 105c80 <_dtoa_r+0x3c4>
  105a48:	eddf0b8e 	vldr	d16, [pc, #568]	; 105c88 <_dtoa_r+0x3cc>
  105a4c:	ee071a90 	vmov	s15, r1
  105a50:	ee741be1 	vsub.f64	d17, d20, d17
  105a54:	eddf2b8d 	vldr	d18, [pc, #564]	; 105c90 <_dtoa_r+0x3d4>
  105a58:	ee410ba3 	vmla.f64	d16, d17, d19
  105a5c:	eef81be7 	vcvt.f64.s32	d17, s15
  105a60:	ee410ba2 	vmla.f64	d16, d17, d18
  105a64:	eefd7be0 	vcvt.s32.f64	s15, d16
  105a68:	eef50bc0 	vcmpe.f64	d16, #0.0
  105a6c:	edcd7a02 	vstr	s15, [sp, #8]
  105a70:	eef1fa10 	vmrs	APSR_nzcv, fpscr
  105a74:	4a000127 	bmi	105f18 <_dtoa_r+0x65c>
  105a78:	e59d3008 	ldr	r3, [sp, #8]
  105a7c:	e3530016 	cmp	r3, #22
  105a80:	83a03001 	movhi	r3, #1
  105a84:	858d301c 	strhi	r3, [sp, #28]
  105a88:	8a00000c 	bhi	105ac0 <_dtoa_r+0x204>
  105a8c:	e59d2008 	ldr	r2, [sp, #8]
  105a90:	e30c3530 	movw	r3, #50480	; 0xc530
  105a94:	e3403010 	movt	r3, #16
  105a98:	ec4bab31 	vmov	d17, sl, fp
  105a9c:	e0833182 	add	r3, r3, r2, lsl #3
  105aa0:	edd30b00 	vldr	d16, [r3]
  105aa4:	eef40be1 	vcmpe.f64	d16, d17
  105aa8:	eef1fa10 	vmrs	APSR_nzcv, fpscr
  105aac:	c1a03002 	movgt	r3, r2
  105ab0:	c2433001 	subgt	r3, r3, #1
  105ab4:	c58d3008 	strgt	r3, [sp, #8]
  105ab8:	e3a03000 	mov	r3, #0
  105abc:	e58d301c 	str	r3, [sp, #28]
  105ac0:	e0618008 	rsb	r8, r1, r8
  105ac4:	e59d3008 	ldr	r3, [sp, #8]
  105ac8:	e2588001 	subs	r8, r8, #1
  105acc:	42687000 	rsbmi	r7, r8, #0
  105ad0:	53a07000 	movpl	r7, #0
  105ad4:	43a08000 	movmi	r8, #0
  105ad8:	e3530000 	cmp	r3, #0
  105adc:	a58d3018 	strge	r3, [sp, #24]
  105ae0:	a0888003 	addge	r8, r8, r3
  105ae4:	b59d3008 	ldrlt	r3, [sp, #8]
  105ae8:	a3a03000 	movge	r3, #0
  105aec:	a58d300c 	strge	r3, [sp, #12]
  105af0:	b0637007 	rsblt	r7, r3, r7
  105af4:	b2633000 	rsblt	r3, r3, #0
  105af8:	b58d300c 	strlt	r3, [sp, #12]
  105afc:	b3a03000 	movlt	r3, #0
  105b00:	b58d3018 	strlt	r3, [sp, #24]
  105b04:	e59d3068 	ldr	r3, [sp, #104]	; 0x68
  105b08:	e3530009 	cmp	r3, #9
  105b0c:	8a000024 	bhi	105ba4 <_dtoa_r+0x2e8>
  105b10:	e3530005 	cmp	r3, #5
  105b14:	d3a05001 	movle	r5, #1
  105b18:	c3a05000 	movgt	r5, #0
  105b1c:	c2433004 	subgt	r3, r3, #4
  105b20:	c58d3068 	strgt	r3, [sp, #104]	; 0x68
  105b24:	e59d3068 	ldr	r3, [sp, #104]	; 0x68
  105b28:	e2433002 	sub	r3, r3, #2
  105b2c:	e3530003 	cmp	r3, #3
  105b30:	979ff103 	ldrls	pc, [pc, r3, lsl #2]
  105b34:	ea000104 	b	105f4c <_dtoa_r+0x690>
  105b38:	0010626c 	andseq	r6, r0, ip, ror #4
  105b3c:	0010622c 	andseq	r6, r0, ip, lsr #4
  105b40:	0010601c 	andseq	r6, r0, ip, lsl r0
  105b44:	00106b04 	andseq	r6, r0, r4, lsl #22
  105b48:	e7f30055 	ubfx	r0, r5, #0, #20
  105b4c:	e30c3778 	movw	r3, #51064	; 0xc778
  105b50:	e3500000 	cmp	r0, #0
  105b54:	e30c276c 	movw	r2, #51052	; 0xc76c
  105b58:	e3403010 	movt	r3, #16
  105b5c:	e3402010 	movt	r2, #16
  105b60:	11a00003 	movne	r0, r3
  105b64:	01a00002 	moveq	r0, r2
  105b68:	eaffff8c 	b	1059a0 <_dtoa_r+0xe4>
  105b6c:	e1a0300b 	mov	r3, fp
  105b70:	e7f30053 	ubfx	r0, r3, #0, #20
  105b74:	e2481fff 	sub	r1, r8, #1020	; 0x3fc
  105b78:	e38035ff 	orr	r3, r0, #1069547520	; 0x3fc00000
  105b7c:	e1a0200a 	mov	r2, sl
  105b80:	e3a00000 	mov	r0, #0
  105b84:	e2411003 	sub	r1, r1, #3
  105b88:	e59d8030 	ldr	r8, [sp, #48]	; 0x30
  105b8c:	e3833603 	orr	r3, r3, #3145728	; 0x300000
  105b90:	e58d0020 	str	r0, [sp, #32]
  105b94:	eaffffa8 	b	105a3c <_dtoa_r+0x180>
  105b98:	e30c0768 	movw	r0, #51048	; 0xc768
  105b9c:	e3400010 	movt	r0, #16
  105ba0:	eaffff74 	b	105978 <_dtoa_r+0xbc>
  105ba4:	e3e03000 	mvn	r3, #0
  105ba8:	e3a01000 	mov	r1, #0
  105bac:	e1a00004 	mov	r0, r4
  105bb0:	e5841044 	str	r1, [r4, #68]	; 0x44
  105bb4:	e1a05003 	mov	r5, r3
  105bb8:	e58d3024 	str	r3, [sp, #36]	; 0x24
  105bbc:	e58d106c 	str	r1, [sp, #108]	; 0x6c
  105bc0:	eb0008bb 	bl	107eb4 <_Balloc>
  105bc4:	e59d306c 	ldr	r3, [sp, #108]	; 0x6c
  105bc8:	e58d5010 	str	r5, [sp, #16]
  105bcc:	e58d3068 	str	r3, [sp, #104]	; 0x68
  105bd0:	e3a03001 	mov	r3, #1
  105bd4:	e58d3014 	str	r3, [sp, #20]
  105bd8:	e1a06000 	mov	r6, r0
  105bdc:	e5840040 	str	r0, [r4, #64]	; 0x40
  105be0:	e59d2008 	ldr	r2, [sp, #8]
  105be4:	e59d3034 	ldr	r3, [sp, #52]	; 0x34
  105be8:	e352000e 	cmp	r2, #14
  105bec:	c3a02000 	movgt	r2, #0
  105bf0:	d3a02001 	movle	r2, #1
  105bf4:	e3530000 	cmp	r3, #0
  105bf8:	b3a02000 	movlt	r2, #0
  105bfc:	e3520000 	cmp	r2, #0
  105c00:	0a000025 	beq	105c9c <_dtoa_r+0x3e0>
  105c04:	e59d206c 	ldr	r2, [sp, #108]	; 0x6c
  105c08:	e30c3530 	movw	r3, #50480	; 0xc530
  105c0c:	e59d1010 	ldr	r1, [sp, #16]
  105c10:	e3403010 	movt	r3, #16
  105c14:	e1a02fa2 	lsr	r2, r2, #31
  105c18:	e3510000 	cmp	r1, #0
  105c1c:	c3a02000 	movgt	r2, #0
  105c20:	d2022001 	andle	r2, r2, #1
  105c24:	e3520000 	cmp	r2, #0
  105c28:	e59d2008 	ldr	r2, [sp, #8]
  105c2c:	e0833182 	add	r3, r3, r2, lsl #3
  105c30:	edd32b00 	vldr	d18, [r3]
  105c34:	0a00018f 	beq	106278 <_dtoa_r+0x9bc>
  105c38:	e59d3010 	ldr	r3, [sp, #16]
  105c3c:	e3530000 	cmp	r3, #0
  105c40:	1a0001df 	bne	1063c4 <_dtoa_r+0xb08>
  105c44:	eef10b04 	vmov.f64	d16, #20
  105c48:	ee622ba0 	vmul.f64	d18, d18, d16
  105c4c:	ec4bab30 	vmov	d16, sl, fp
  105c50:	eef42be0 	vcmpe.f64	d18, d16
  105c54:	eef1fa10 	vmrs	APSR_nzcv, fpscr
  105c58:	ba000220 	blt	1064e0 <_dtoa_r+0xc24>
  105c5c:	e59d3010 	ldr	r3, [sp, #16]
  105c60:	e1a05003 	mov	r5, r3
  105c64:	e58d300c 	str	r3, [sp, #12]
  105c68:	e59d306c 	ldr	r3, [sp, #108]	; 0x6c
  105c6c:	e1e03003 	mvn	r3, r3
  105c70:	e58d3008 	str	r3, [sp, #8]
  105c74:	e1a03006 	mov	r3, r6
  105c78:	ea000085 	b	105e94 <_dtoa_r+0x5d8>
  105c7c:	e320f000 	nop	{0}
  105c80:	636f4361 	cmnvs	pc, #-2080374783	; 0x84000001
  105c84:	3fd287a7 	svccc	0x00d287a7
  105c88:	8b60c8b3 	blhi	1937f5c <__undef_stack+0x181e6bc>
  105c8c:	3fc68a28 	svccc	0x00c68a28
  105c90:	509f79fb 			; <UNDEFINED> instruction: 0x509f79fb
  105c94:	3fd34413 	svccc	0x00d34413
  105c98:	0010c769 	andseq	ip, r0, r9, ror #14
  105c9c:	e59d2014 	ldr	r2, [sp, #20]
  105ca0:	e3520000 	cmp	r2, #0
  105ca4:	1a0000be 	bne	105fa4 <_dtoa_r+0x6e8>
  105ca8:	e59d300c 	ldr	r3, [sp, #12]
  105cac:	e59d5014 	ldr	r5, [sp, #20]
  105cb0:	e58d7020 	str	r7, [sp, #32]
  105cb4:	e58d3028 	str	r3, [sp, #40]	; 0x28
  105cb8:	e59d3020 	ldr	r3, [sp, #32]
  105cbc:	e3580000 	cmp	r8, #0
  105cc0:	c3530000 	cmpgt	r3, #0
  105cc4:	da000006 	ble	105ce4 <_dtoa_r+0x428>
  105cc8:	e1580003 	cmp	r8, r3
  105ccc:	e1a02003 	mov	r2, r3
  105cd0:	b1a03008 	movlt	r3, r8
  105cd4:	e0637007 	rsb	r7, r3, r7
  105cd8:	e0638008 	rsb	r8, r3, r8
  105cdc:	e0632002 	rsb	r2, r3, r2
  105ce0:	e58d2020 	str	r2, [sp, #32]
  105ce4:	e59d300c 	ldr	r3, [sp, #12]
  105ce8:	e3530000 	cmp	r3, #0
  105cec:	da000018 	ble	105d54 <_dtoa_r+0x498>
  105cf0:	e59d3014 	ldr	r3, [sp, #20]
  105cf4:	e3530000 	cmp	r3, #0
  105cf8:	0a0002f2 	beq	1068c8 <_dtoa_r+0x100c>
  105cfc:	e59d3028 	ldr	r3, [sp, #40]	; 0x28
  105d00:	e3530000 	cmp	r3, #0
  105d04:	da00000e 	ble	105d44 <_dtoa_r+0x488>
  105d08:	e1a02003 	mov	r2, r3
  105d0c:	e1a01005 	mov	r1, r5
  105d10:	e1a00004 	mov	r0, r4
  105d14:	eb0009b9 	bl	108400 <__pow5mult>
  105d18:	e1a02009 	mov	r2, r9
  105d1c:	e1a05000 	mov	r5, r0
  105d20:	e1a00004 	mov	r0, r4
  105d24:	e1a01005 	mov	r1, r5
  105d28:	eb00093d 	bl	108224 <__multiply>
  105d2c:	e1a01009 	mov	r1, r9
  105d30:	e58d002c 	str	r0, [sp, #44]	; 0x2c
  105d34:	e1a00004 	mov	r0, r4
  105d38:	eb000880 	bl	107f40 <_Bfree>
  105d3c:	e59d302c 	ldr	r3, [sp, #44]	; 0x2c
  105d40:	e1a09003 	mov	r9, r3
  105d44:	e59d300c 	ldr	r3, [sp, #12]
  105d48:	e59d2028 	ldr	r2, [sp, #40]	; 0x28
  105d4c:	e0532002 	subs	r2, r3, r2
  105d50:	1a0002fb 	bne	106944 <_dtoa_r+0x1088>
  105d54:	e1a00004 	mov	r0, r4
  105d58:	e3a01001 	mov	r1, #1
  105d5c:	eb000928 	bl	108204 <__i2b>
  105d60:	e59d3018 	ldr	r3, [sp, #24]
  105d64:	e3530000 	cmp	r3, #0
  105d68:	e58d000c 	str	r0, [sp, #12]
  105d6c:	da00017a 	ble	10635c <_dtoa_r+0xaa0>
  105d70:	e1a01000 	mov	r1, r0
  105d74:	e1a02003 	mov	r2, r3
  105d78:	e1a00004 	mov	r0, r4
  105d7c:	eb00099f 	bl	108400 <__pow5mult>
  105d80:	e59d3068 	ldr	r3, [sp, #104]	; 0x68
  105d84:	e3530001 	cmp	r3, #1
  105d88:	e58d000c 	str	r0, [sp, #12]
  105d8c:	da0002f1 	ble	106958 <_dtoa_r+0x109c>
  105d90:	e3a03000 	mov	r3, #0
  105d94:	e58d3028 	str	r3, [sp, #40]	; 0x28
  105d98:	e59d200c 	ldr	r2, [sp, #12]
  105d9c:	e5923010 	ldr	r3, [r2, #16]
  105da0:	e0823103 	add	r3, r2, r3, lsl #2
  105da4:	e5930010 	ldr	r0, [r3, #16]
  105da8:	eb0008d8 	bl	108110 <__hi0bits>
  105dac:	e2600020 	rsb	r0, r0, #32
  105db0:	e0800008 	add	r0, r0, r8
  105db4:	e210001f 	ands	r0, r0, #31
  105db8:	0a0001c5 	beq	1064d4 <_dtoa_r+0xc18>
  105dbc:	e2603020 	rsb	r3, r0, #32
  105dc0:	e3530004 	cmp	r3, #4
  105dc4:	da00034b 	ble	106af8 <_dtoa_r+0x123c>
  105dc8:	e260001c 	rsb	r0, r0, #28
  105dcc:	e59d3020 	ldr	r3, [sp, #32]
  105dd0:	e0877000 	add	r7, r7, r0
  105dd4:	e0888000 	add	r8, r8, r0
  105dd8:	e0833000 	add	r3, r3, r0
  105ddc:	e58d3020 	str	r3, [sp, #32]
  105de0:	e3570000 	cmp	r7, #0
  105de4:	da000004 	ble	105dfc <_dtoa_r+0x540>
  105de8:	e1a01009 	mov	r1, r9
  105dec:	e1a02007 	mov	r2, r7
  105df0:	e1a00004 	mov	r0, r4
  105df4:	eb0009c0 	bl	1084fc <__lshift>
  105df8:	e1a09000 	mov	r9, r0
  105dfc:	e3580000 	cmp	r8, #0
  105e00:	da000004 	ble	105e18 <_dtoa_r+0x55c>
  105e04:	e59d100c 	ldr	r1, [sp, #12]
  105e08:	e1a02008 	mov	r2, r8
  105e0c:	e1a00004 	mov	r0, r4
  105e10:	eb0009b9 	bl	1084fc <__lshift>
  105e14:	e58d000c 	str	r0, [sp, #12]
  105e18:	e59d301c 	ldr	r3, [sp, #28]
  105e1c:	e3530000 	cmp	r3, #0
  105e20:	1a0001f9 	bne	10660c <_dtoa_r+0xd50>
  105e24:	e59d3068 	ldr	r3, [sp, #104]	; 0x68
  105e28:	e59d2010 	ldr	r2, [sp, #16]
  105e2c:	e3530002 	cmp	r3, #2
  105e30:	c3a03001 	movgt	r3, #1
  105e34:	d3a03000 	movle	r3, #0
  105e38:	e3520000 	cmp	r2, #0
  105e3c:	c3a03000 	movgt	r3, #0
  105e40:	e3530000 	cmp	r3, #0
  105e44:	0a000162 	beq	1063d4 <_dtoa_r+0xb18>
  105e48:	e59d3010 	ldr	r3, [sp, #16]
  105e4c:	e3530000 	cmp	r3, #0
  105e50:	1affff84 	bne	105c68 <_dtoa_r+0x3ac>
  105e54:	e59d100c 	ldr	r1, [sp, #12]
  105e58:	e3a02005 	mov	r2, #5
  105e5c:	e1a00004 	mov	r0, r4
  105e60:	eb00083d 	bl	107f5c <__multadd>
  105e64:	e1a01000 	mov	r1, r0
  105e68:	e58d000c 	str	r0, [sp, #12]
  105e6c:	e1a00009 	mov	r0, r9
  105e70:	eb0009e0 	bl	1085f8 <__mcmp>
  105e74:	e3500000 	cmp	r0, #0
  105e78:	daffff7a 	ble	105c68 <_dtoa_r+0x3ac>
  105e7c:	e59d3008 	ldr	r3, [sp, #8]
  105e80:	e3a02031 	mov	r2, #49	; 0x31
  105e84:	e5c62000 	strb	r2, [r6]
  105e88:	e2833001 	add	r3, r3, #1
  105e8c:	e58d3008 	str	r3, [sp, #8]
  105e90:	e2863001 	add	r3, r6, #1
  105e94:	e59d100c 	ldr	r1, [sp, #12]
  105e98:	e1a00004 	mov	r0, r4
  105e9c:	e58d3010 	str	r3, [sp, #16]
  105ea0:	eb000826 	bl	107f40 <_Bfree>
  105ea4:	e3550000 	cmp	r5, #0
  105ea8:	e59d3010 	ldr	r3, [sp, #16]
  105eac:	0a000004 	beq	105ec4 <_dtoa_r+0x608>
  105eb0:	e1a01005 	mov	r1, r5
  105eb4:	e1a00004 	mov	r0, r4
  105eb8:	e58d300c 	str	r3, [sp, #12]
  105ebc:	eb00081f 	bl	107f40 <_Bfree>
  105ec0:	e59d300c 	ldr	r3, [sp, #12]
  105ec4:	e1a00004 	mov	r0, r4
  105ec8:	e1a01009 	mov	r1, r9
  105ecc:	e58d300c 	str	r3, [sp, #12]
  105ed0:	eb00081a 	bl	107f40 <_Bfree>
  105ed4:	e59d3078 	ldr	r3, [sp, #120]	; 0x78
  105ed8:	e3a01000 	mov	r1, #0
  105edc:	e3530000 	cmp	r3, #0
  105ee0:	e59d3008 	ldr	r3, [sp, #8]
  105ee4:	e2832001 	add	r2, r3, #1
  105ee8:	e59d300c 	ldr	r3, [sp, #12]
  105eec:	01a00006 	moveq	r0, r6
  105ef0:	e5c31000 	strb	r1, [r3]
  105ef4:	e59d1070 	ldr	r1, [sp, #112]	; 0x70
  105ef8:	e5812000 	str	r2, [r1]
  105efc:	0afffe9d 	beq	105978 <_dtoa_r+0xbc>
  105f00:	e59d2078 	ldr	r2, [sp, #120]	; 0x78
  105f04:	e1a00006 	mov	r0, r6
  105f08:	e5823000 	str	r3, [r2]
  105f0c:	e28dd03c 	add	sp, sp, #60	; 0x3c
  105f10:	ecbd8b02 	vpop	{d8}
  105f14:	e8bd8ff0 	pop	{r4, r5, r6, r7, r8, r9, sl, fp, pc}
  105f18:	eef81be7 	vcvt.f64.s32	d17, s15
