
MxMClockCycles.elf:     file format elf32-littlearm


Disassembly of section .text:

00100000 <_vector_table>:
  100000:	ea00003d 	b	1000fc <_boot>
  100004:	ea000025 	b	1000a0 <Undefined>
  100008:	ea000028 	b	1000b0 <SVCHandler>
  10000c:	ea000035 	b	1000e8 <PrefetchAbortHandler>
  100010:	ea00002f 	b	1000d4 <DataAbortHandler>
  100014:	e320f000 	nop	{0}
  100018:	ea000000 	b	100020 <IRQHandler>
  10001c:	ea00000f 	b	100060 <FIQHandler>

00100020 <IRQHandler>:
  100020:	e92d500f 	push	{r0, r1, r2, r3, ip, lr}
  100024:	ed2d0b10 	vpush	{d0-d7}
  100028:	ed6d0b20 	vpush	{d16-d31}
  10002c:	eef11a10 	vmrs	r1, fpscr
  100030:	e52d1004 	push	{r1}		; (str r1, [sp, #-4]!)
  100034:	eef81a10 	vmrs	r1, fpexc
  100038:	e52d1004 	push	{r1}		; (str r1, [sp, #-4]!)
  10003c:	eb00021a 	bl	1008ac <IRQInterrupt>
  100040:	e49d1004 	pop	{r1}		; (ldr r1, [sp], #4)
  100044:	eee81a10 	vmsr	fpexc, r1
  100048:	e49d1004 	pop	{r1}		; (ldr r1, [sp], #4)
  10004c:	eee11a10 	vmsr	fpscr, r1
  100050:	ecfd0b20 	vpop	{d16-d31}
  100054:	ecbd0b10 	vpop	{d0-d7}
  100058:	e8bd500f 	pop	{r0, r1, r2, r3, ip, lr}
  10005c:	e25ef004 	subs	pc, lr, #4

00100060 <FIQHandler>:
  100060:	e92d500f 	push	{r0, r1, r2, r3, ip, lr}
  100064:	ed2d0b10 	vpush	{d0-d7}
  100068:	ed6d0b20 	vpush	{d16-d31}
  10006c:	eef11a10 	vmrs	r1, fpscr
  100070:	e52d1004 	push	{r1}		; (str r1, [sp, #-4]!)
  100074:	eef81a10 	vmrs	r1, fpexc
  100078:	e52d1004 	push	{r1}		; (str r1, [sp, #-4]!)

0010007c <FIQLoop>:
  10007c:	eb000205 	bl	100898 <FIQInterrupt>
  100080:	e49d1004 	pop	{r1}		; (ldr r1, [sp], #4)
  100084:	eee81a10 	vmsr	fpexc, r1
  100088:	e49d1004 	pop	{r1}		; (ldr r1, [sp], #4)
  10008c:	eee11a10 	vmsr	fpscr, r1
  100090:	ecfd0b20 	vpop	{d16-d31}
  100094:	ecbd0b10 	vpop	{d0-d7}
  100098:	e8bd500f 	pop	{r0, r1, r2, r3, ip, lr}
  10009c:	e25ef004 	subs	pc, lr, #4

001000a0 <Undefined>:
  1000a0:	e92d500f 	push	{r0, r1, r2, r3, ip, lr}
  1000a4:	e8bd500f 	pop	{r0, r1, r2, r3, ip, lr}
  1000a8:	ea000013 	b	1000fc <_boot>
  1000ac:	e1b0f00e 	movs	pc, lr

001000b0 <SVCHandler>:
  1000b0:	e92d500f 	push	{r0, r1, r2, r3, ip, lr}
  1000b4:	e3100020 	tst	r0, #32
  1000b8:	115e00b2 	ldrhne	r0, [lr, #-2]
  1000bc:	13c00cff 	bicne	r0, r0, #65280	; 0xff00
  1000c0:	051e0004 	ldreq	r0, [lr, #-4]
  1000c4:	03c004ff 	biceq	r0, r0, #-16777216	; 0xff000000
  1000c8:	eb0001fc 	bl	1008c0 <SWInterrupt>
  1000cc:	e8bd500f 	pop	{r0, r1, r2, r3, ip, lr}
  1000d0:	e1b0f00e 	movs	pc, lr

001000d4 <DataAbortHandler>:
  1000d4:	f57ff04f 	dsb	sy
  1000d8:	e92d500f 	push	{r0, r1, r2, r3, ip, lr}
  1000dc:	eb0001fc 	bl	1008d4 <DataAbortInterrupt>
  1000e0:	e8bd500f 	pop	{r0, r1, r2, r3, ip, lr}
  1000e4:	e25ef008 	subs	pc, lr, #8

001000e8 <PrefetchAbortHandler>:
  1000e8:	f57ff04f 	dsb	sy
  1000ec:	e92d500f 	push	{r0, r1, r2, r3, ip, lr}
  1000f0:	eb0001fc 	bl	1008e8 <PrefetchAbortInterrupt>
  1000f4:	e8bd500f 	pop	{r0, r1, r2, r3, ip, lr}
  1000f8:	e25ef004 	subs	pc, lr, #4

001000fc <_boot>:
  1000fc:	ee101fb0 	mrc	15, 0, r1, cr0, cr0, {5}
  100100:	e201100f 	and	r1, r1, #15
  100104:	e3510000 	cmp	r1, #0
  100108:	0a000001 	beq	100114 <OKToRun>

0010010c <EndlessLoop0>:
  10010c:	e320f002 	wfe
  100110:	eafffffd 	b	10010c <EndlessLoop0>

00100114 <OKToRun>:
  100114:	ee100f10 	mrc	15, 0, r0, cr0, cr0, {0}
  100118:	e200560f 	and	r5, r0, #15728640	; 0xf00000
  10011c:	e200600f 	and	r6, r0, #15
  100120:	e1866825 	orr	r6, r6, r5, lsr #16
  100124:	e3560022 	cmp	r6, #34	; 0x22
  100128:	de1faf30 	mrcle	15, 0, sl, cr15, cr0, {1}
  10012c:	d38aa010 	orrle	sl, sl, #16
  100130:	de0faf30 	mcrle	15, 0, sl, cr15, cr0, {1}
  100134:	e3350602 	teq	r5, #2097152	; 0x200000
  100138:	0e1faf30 	mrceq	15, 0, sl, cr15, cr0, {1}
  10013c:	038aa040 	orreq	sl, sl, #64	; 0x40
  100140:	0e0faf30 	mcreq	15, 0, sl, cr15, cr0, {1}
  100144:	e59f027c 	ldr	r0, [pc, #636]	; 1003c8 <finished+0x14>
  100148:	ee0c0f10 	mcr	15, 0, r0, cr12, cr0, {0}
  10014c:	e59f7278 	ldr	r7, [pc, #632]	; 1003cc <finished+0x18>
  100150:	e5970000 	ldr	r0, [r7]
  100154:	e3800001 	orr	r0, r0, #1
  100158:	e5870000 	str	r0, [r7]
  10015c:	e59f726c 	ldr	r7, [pc, #620]	; 1003d0 <finished+0x1c>
  100160:	e59f626c 	ldr	r6, [pc, #620]	; 1003d4 <finished+0x20>
  100164:	e5876000 	str	r6, [r7]
  100168:	ee110f30 	mrc	15, 0, r0, cr1, cr0, {1}
  10016c:	e3800040 	orr	r0, r0, #64	; 0x40
  100170:	e3800001 	orr	r0, r0, #1
  100174:	ee010f30 	mcr	15, 0, r0, cr1, cr0, {1}
  100178:	e3a00000 	mov	r0, #0
  10017c:	ee080f17 	mcr	15, 0, r0, cr8, cr7, {0}
  100180:	ee070f15 	mcr	15, 0, r0, cr7, cr5, {0}
  100184:	ee070fd5 	mcr	15, 0, r0, cr7, cr5, {6}
  100188:	eb00006a 	bl	100338 <invalidate_dcache>
  10018c:	e59f0244 	ldr	r0, [pc, #580]	; 1003d8 <finished+0x24>
  100190:	e3a01000 	mov	r1, #0
  100194:	e5801000 	str	r1, [r0]
  100198:	e59f023c 	ldr	r0, [pc, #572]	; 1003dc <finished+0x28>
  10019c:	e5901000 	ldr	r1, [r0]
  1001a0:	e59f2238 	ldr	r2, [pc, #568]	; 1003e0 <finished+0x2c>
  1001a4:	e1811002 	orr	r1, r1, r2
  1001a8:	e5801000 	str	r1, [r0]
  1001ac:	e59f0230 	ldr	r0, [pc, #560]	; 1003e4 <finished+0x30>
  1001b0:	e59f1230 	ldr	r1, [pc, #560]	; 1003e8 <finished+0x34>
  1001b4:	e5801000 	str	r1, [r0]
  1001b8:	e59f022c 	ldr	r0, [pc, #556]	; 1003ec <finished+0x38>
  1001bc:	e59f122c 	ldr	r1, [pc, #556]	; 1003f0 <finished+0x3c>
  1001c0:	e5801000 	str	r1, [r0]
  1001c4:	e59f0228 	ldr	r0, [pc, #552]	; 1003f4 <finished+0x40>
  1001c8:	e59f2204 	ldr	r2, [pc, #516]	; 1003d4 <finished+0x20>
  1001cc:	e5802000 	str	r2, [r0]
  1001d0:	e59f0220 	ldr	r0, [pc, #544]	; 1003f8 <finished+0x44>

001001d4 <Sync>:
  1001d4:	e5901000 	ldr	r1, [r0]
  1001d8:	e3510000 	cmp	r1, #0
  1001dc:	1afffffc 	bne	1001d4 <Sync>
  1001e0:	e59f0214 	ldr	r0, [pc, #532]	; 1003fc <finished+0x48>
  1001e4:	e5901000 	ldr	r1, [r0]
  1001e8:	e59f0210 	ldr	r0, [pc, #528]	; 100400 <finished+0x4c>
  1001ec:	e5801000 	str	r1, [r0]
  1001f0:	ee110f10 	mrc	15, 0, r0, cr1, cr0, {0}
  1001f4:	e3c00001 	bic	r0, r0, #1
  1001f8:	ee010f10 	mcr	15, 0, r0, cr1, cr0, {0}
  1001fc:	e10f0000 	mrs	r0, CPSR
  100200:	e3e0101f 	mvn	r1, #31
  100204:	e0012000 	and	r2, r1, r0
  100208:	e3822012 	orr	r2, r2, #18
  10020c:	e129f002 	msr	CPSR_fc, r2
  100210:	e59fd1ec 	ldr	sp, [pc, #492]	; 100404 <finished+0x50>
  100214:	e10f0000 	mrs	r0, CPSR
  100218:	e3e0101f 	mvn	r1, #31
  10021c:	e0012000 	and	r2, r1, r0
  100220:	e3822013 	orr	r2, r2, #19
  100224:	e129f002 	msr	CPSR_fc, r2
  100228:	e59fd1d8 	ldr	sp, [pc, #472]	; 100408 <finished+0x54>
  10022c:	e10f0000 	mrs	r0, CPSR
  100230:	e3e0101f 	mvn	r1, #31
  100234:	e0012000 	and	r2, r1, r0
  100238:	e3822017 	orr	r2, r2, #23
  10023c:	e129f002 	msr	CPSR_fc, r2
  100240:	e59fd1c4 	ldr	sp, [pc, #452]	; 10040c <finished+0x58>
  100244:	e10f0000 	mrs	r0, CPSR
  100248:	e3e0101f 	mvn	r1, #31
  10024c:	e0012000 	and	r2, r1, r0
  100250:	e3822011 	orr	r2, r2, #17
  100254:	e129f002 	msr	CPSR_fc, r2
  100258:	e59fd1b0 	ldr	sp, [pc, #432]	; 100410 <finished+0x5c>
  10025c:	e10f0000 	mrs	r0, CPSR
  100260:	e3e0101f 	mvn	r1, #31
  100264:	e0012000 	and	r2, r1, r0
  100268:	e382201b 	orr	r2, r2, #27
  10026c:	e129f002 	msr	CPSR_fc, r2
  100270:	e59fd19c 	ldr	sp, [pc, #412]	; 100414 <finished+0x60>
  100274:	e10f0000 	mrs	r0, CPSR
  100278:	e3e0101f 	mvn	r1, #31
  10027c:	e0012000 	and	r2, r1, r0
  100280:	e382201f 	orr	r2, r2, #31
  100284:	e129f002 	msr	CPSR_fc, r2
  100288:	e59fd188 	ldr	sp, [pc, #392]	; 100418 <finished+0x64>
  10028c:	e59f0188 	ldr	r0, [pc, #392]	; 10041c <finished+0x68>
  100290:	e380005b 	orr	r0, r0, #91	; 0x5b
  100294:	ee020f10 	mcr	15, 0, r0, cr2, cr0, {0}
  100298:	e3e00000 	mvn	r0, #0
  10029c:	ee030f10 	mcr	15, 0, r0, cr3, cr0, {0}
  1002a0:	e59f0178 	ldr	r0, [pc, #376]	; 100420 <finished+0x6c>
  1002a4:	ee010f10 	mcr	15, 0, r0, cr1, cr0, {0}
  1002a8:	f57ff04f 	dsb	sy
  1002ac:	f57ff06f 	isb	sy
  1002b0:	e59f016c 	ldr	r0, [pc, #364]	; 100424 <finished+0x70>
  1002b4:	e59f116c 	ldr	r1, [pc, #364]	; 100428 <finished+0x74>
  1002b8:	e5801000 	str	r1, [r0]
  1002bc:	e59f0168 	ldr	r0, [pc, #360]	; 10042c <finished+0x78>
  1002c0:	e59f1168 	ldr	r1, [pc, #360]	; 100430 <finished+0x7c>
  1002c4:	e5801000 	str	r1, [r0]
  1002c8:	e59f0164 	ldr	r0, [pc, #356]	; 100434 <finished+0x80>
  1002cc:	e59f1164 	ldr	r1, [pc, #356]	; 100438 <finished+0x84>
  1002d0:	e5801000 	str	r1, [r0]
  1002d4:	e59f00fc 	ldr	r0, [pc, #252]	; 1003d8 <finished+0x24>
  1002d8:	e5901000 	ldr	r1, [r0]
  1002dc:	e3a02001 	mov	r2, #1
  1002e0:	e1811002 	orr	r1, r1, r2
  1002e4:	e5801000 	str	r1, [r0]
  1002e8:	e1a00000 	nop			; (mov r0, r0)
  1002ec:	ee111f50 	mrc	15, 0, r1, cr1, cr0, {2}
  1002f0:	e381160f 	orr	r1, r1, #15728640	; 0xf00000
  1002f4:	ee011f50 	mcr	15, 0, r1, cr1, cr0, {2}
  1002f8:	eef81a10 	vmrs	r1, fpexc
  1002fc:	e3811101 	orr	r1, r1, #1073741824	; 0x40000000
  100300:	eee81a10 	vmsr	fpexc, r1
  100304:	ee110f10 	mrc	15, 0, r0, cr1, cr0, {0}
  100308:	e3800b02 	orr	r0, r0, #2048	; 0x800
  10030c:	ee010f10 	mcr	15, 0, r0, cr1, cr0, {0}
  100310:	ee110f30 	mrc	15, 0, r0, cr1, cr0, {1}
  100314:	e3800004 	orr	r0, r0, #4
  100318:	e3800002 	orr	r0, r0, #2
  10031c:	ee010f30 	mcr	15, 0, r0, cr1, cr0, {1}
  100320:	e10f0000 	mrs	r0, CPSR
  100324:	e3c00c01 	bic	r0, r0, #256	; 0x100
  100328:	e12ef000 	msr	CPSR_fsx, r0
  10032c:	ea000177 	b	100910 <_start>
  100330:	e0000000 	and	r0, r0, r0
  100334:	eafffffe 	b	100334 <Sync+0x160>

00100338 <invalidate_dcache>:
  100338:	ee300f30 	mrc	15, 1, r0, cr0, cr0, {1}
  10033c:	e2103407 	ands	r3, r0, #117440512	; 0x7000000
  100340:	e1a03ba3 	lsr	r3, r3, #23
  100344:	0a00001a 	beq	1003b4 <finished>
  100348:	e3a0a000 	mov	sl, #0

0010034c <loop1>:
  10034c:	e08a20aa 	add	r2, sl, sl, lsr #1
  100350:	e1a01230 	lsr	r1, r0, r2
  100354:	e2011007 	and	r1, r1, #7
  100358:	e3510002 	cmp	r1, #2
  10035c:	ba000011 	blt	1003a8 <skip>
  100360:	ee40af10 	mcr	15, 2, sl, cr0, cr0, {0}
  100364:	f57ff06f 	isb	sy
  100368:	ee301f10 	mrc	15, 1, r1, cr0, cr0, {0}
  10036c:	e2012007 	and	r2, r1, #7
  100370:	e2822004 	add	r2, r2, #4
  100374:	e59f40c0 	ldr	r4, [pc, #192]	; 10043c <finished+0x88>
  100378:	e01441a1 	ands	r4, r4, r1, lsr #3
  10037c:	e16f5f14 	clz	r5, r4
  100380:	e59f70b8 	ldr	r7, [pc, #184]	; 100440 <finished+0x8c>
  100384:	e01776a1 	ands	r7, r7, r1, lsr #13

00100388 <loop2>:
  100388:	e1a09004 	mov	r9, r4

0010038c <loop3>:
  10038c:	e18ab519 	orr	fp, sl, r9, lsl r5
  100390:	e18bb217 	orr	fp, fp, r7, lsl r2
  100394:	ee07bf56 	mcr	15, 0, fp, cr7, cr6, {2}
  100398:	e2599001 	subs	r9, r9, #1
  10039c:	aafffffa 	bge	10038c <loop3>
  1003a0:	e2577001 	subs	r7, r7, #1
  1003a4:	aafffff7 	bge	100388 <loop2>

001003a8 <skip>:
  1003a8:	e28aa002 	add	sl, sl, #2
  1003ac:	e153000a 	cmp	r3, sl
  1003b0:	caffffe5 	bgt	10034c <loop1>

001003b4 <finished>:
  1003b4:	e3a0a000 	mov	sl, #0
  1003b8:	ee40af10 	mcr	15, 2, sl, cr0, cr0, {0}
  1003bc:	f57ff04f 	dsb	sy
  1003c0:	f57ff06f 	isb	sy
  1003c4:	e12fff1e 	bx	lr
  1003c8:	00100000 	andseq	r0, r0, r0
  1003cc:	f8f00000 			; <UNDEFINED> instruction: 0xf8f00000
  1003d0:	f8f0000c 			; <UNDEFINED> instruction: 0xf8f0000c
  1003d4:	0000ffff 	strdeq	pc, [r0], -pc	; <UNPREDICTABLE>
  1003d8:	f8f02100 			; <UNDEFINED> instruction: 0xf8f02100
  1003dc:	f8f02104 			; <UNDEFINED> instruction: 0xf8f02104
  1003e0:	72360000 	eorsvc	r0, r6, #0
  1003e4:	f8f02108 			; <UNDEFINED> instruction: 0xf8f02108
  1003e8:	00000111 	andeq	r0, r0, r1, lsl r1
  1003ec:	f8f0210c 			; <UNDEFINED> instruction: 0xf8f0210c
  1003f0:	00000121 	andeq	r0, r0, r1, lsr #2
  1003f4:	f8f0277c 			; <UNDEFINED> instruction: 0xf8f0277c
  1003f8:	f8f02730 			; <UNDEFINED> instruction: 0xf8f02730
  1003fc:	f8f0221c 			; <UNDEFINED> instruction: 0xf8f0221c
  100400:	f8f02220 			; <UNDEFINED> instruction: 0xf8f02220
  100404:	00115760 	andseq	r5, r1, r0, ror #14
  100408:	00115f60 	andseq	r5, r1, r0, ror #30
  10040c:	00116360 	andseq	r6, r1, r0, ror #6
  100410:	00116760 	andseq	r6, r1, r0, ror #14
  100414:	00116b60 	andseq	r6, r1, r0, ror #22
  100418:	00115360 	andseq	r5, r1, r0, ror #6
  10041c:	0010c000 	andseq	ip, r0, r0
  100420:	00001005 	andeq	r1, r0, r5
  100424:	f8000008 			; <UNDEFINED> instruction: 0xf8000008
  100428:	0000df0d 	andeq	sp, r0, sp, lsl #30
  10042c:	f8000a1c 			; <UNDEFINED> instruction: 0xf8000a1c
  100430:	00020202 	andeq	r0, r2, r2, lsl #4
  100434:	f8000004 			; <UNDEFINED> instruction: 0xf8000004
  100438:	0000767b 	andeq	r7, r0, fp, ror r6
  10043c:	000003ff 	strdeq	r0, [r0], -pc	; <UNPREDICTABLE>
  100440:	00007fff 	strdeq	r7, [r0], -pc	; <UNPREDICTABLE>

00100444 <deregister_tm_clones>:
  100444:	e59f3024 	ldr	r3, [pc, #36]	; 100470 <deregister_tm_clones+0x2c>
  100448:	e30b0854 	movw	r0, #47188	; 0xb854
  10044c:	e3400010 	movt	r0, #16
  100450:	e0603003 	rsb	r3, r0, r3
  100454:	e3530006 	cmp	r3, #6
  100458:	912fff1e 	bxls	lr
  10045c:	e3003000 	movw	r3, #0
  100460:	e3403000 	movt	r3, #0
  100464:	e3530000 	cmp	r3, #0
  100468:	012fff1e 	bxeq	lr
  10046c:	e12fff13 	bx	r3
  100470:	0010b857 	andseq	fp, r0, r7, asr r8

00100474 <register_tm_clones>:
  100474:	e30b3854 	movw	r3, #47188	; 0xb854
  100478:	e30b0854 	movw	r0, #47188	; 0xb854
  10047c:	e3403010 	movt	r3, #16
  100480:	e3400010 	movt	r0, #16
  100484:	e0601003 	rsb	r1, r0, r3
  100488:	e1a01141 	asr	r1, r1, #2
  10048c:	e0811fa1 	add	r1, r1, r1, lsr #31
  100490:	e1b010c1 	asrs	r1, r1, #1
  100494:	012fff1e 	bxeq	lr
  100498:	e3003000 	movw	r3, #0
  10049c:	e3403000 	movt	r3, #0
  1004a0:	e3530000 	cmp	r3, #0
  1004a4:	012fff1e 	bxeq	lr
  1004a8:	e12fff13 	bx	r3

001004ac <__do_global_dtors_aux>:
  1004ac:	e92d4010 	push	{r4, lr}
  1004b0:	e3004014 	movw	r4, #20
  1004b4:	e3404011 	movt	r4, #17
  1004b8:	e5d43000 	ldrb	r3, [r4]
  1004bc:	e3530000 	cmp	r3, #0
  1004c0:	18bd8010 	popne	{r4, pc}
  1004c4:	ebffffde 	bl	100444 <deregister_tm_clones>
  1004c8:	e3003000 	movw	r3, #0
  1004cc:	e3403000 	movt	r3, #0
  1004d0:	e3530000 	cmp	r3, #0
  1004d4:	0a000002 	beq	1004e4 <__do_global_dtors_aux+0x38>
  1004d8:	e30b0854 	movw	r0, #47188	; 0xb854
  1004dc:	e3400010 	movt	r0, #16
  1004e0:	e320f000 	nop	{0}
  1004e4:	e3a03001 	mov	r3, #1
  1004e8:	e5c43000 	strb	r3, [r4]
  1004ec:	e8bd8010 	pop	{r4, pc}

001004f0 <frame_dummy>:
  1004f0:	e92d4008 	push	{r3, lr}
  1004f4:	e3003000 	movw	r3, #0
  1004f8:	e3403000 	movt	r3, #0
  1004fc:	e3530000 	cmp	r3, #0
  100500:	0a000004 	beq	100518 <frame_dummy+0x28>
  100504:	e30b0854 	movw	r0, #47188	; 0xb854
  100508:	e3001018 	movw	r1, #24
  10050c:	e3400010 	movt	r0, #16
  100510:	e3401011 	movt	r1, #17
  100514:	e320f000 	nop	{0}
  100518:	e30b0850 	movw	r0, #47184	; 0xb850
  10051c:	e3400010 	movt	r0, #16
  100520:	e5903000 	ldr	r3, [r0]
  100524:	e3530000 	cmp	r3, #0
  100528:	1a000001 	bne	100534 <frame_dummy+0x44>
  10052c:	e8bd4008 	pop	{r3, lr}
  100530:	eaffffcf 	b	100474 <register_tm_clones>
  100534:	e3003000 	movw	r3, #0
  100538:	e3403000 	movt	r3, #0
  10053c:	e3530000 	cmp	r3, #0
  100540:	0afffff9 	beq	10052c <frame_dummy+0x3c>
  100544:	e12fff33 	blx	r3
  100548:	eafffff7 	b	10052c <frame_dummy+0x3c>

0010054c <init_matrix>:
  10054c:	e52db004 	push	{fp}		; (str fp, [sp, #-4]!)
  100550:	e28db000 	add	fp, sp, #0
  100554:	e24dd014 	sub	sp, sp, #20
  100558:	e50b0010 	str	r0, [fp, #-16]
  10055c:	e50b1014 	str	r1, [fp, #-20]	; 0xffffffec
  100560:	e3a03000 	mov	r3, #0
  100564:	e50b3008 	str	r3, [fp, #-8]
  100568:	ea000016 	b	1005c8 <init_matrix+0x7c>
  10056c:	e3a03000 	mov	r3, #0
  100570:	e50b300c 	str	r3, [fp, #-12]
  100574:	ea00000d 	b	1005b0 <init_matrix+0x64>
  100578:	e51b2008 	ldr	r2, [fp, #-8]
  10057c:	e1a03002 	mov	r3, r2
  100580:	e1a03103 	lsl	r3, r3, #2
  100584:	e0833002 	add	r3, r3, r2
  100588:	e1a03203 	lsl	r3, r3, #4
  10058c:	e1a02003 	mov	r2, r3
  100590:	e51b3010 	ldr	r3, [fp, #-16]
  100594:	e0833002 	add	r3, r3, r2
  100598:	e51b1014 	ldr	r1, [fp, #-20]	; 0xffffffec
  10059c:	e51b200c 	ldr	r2, [fp, #-12]
  1005a0:	e7831102 	str	r1, [r3, r2, lsl #2]
  1005a4:	e51b300c 	ldr	r3, [fp, #-12]
  1005a8:	e2833001 	add	r3, r3, #1
  1005ac:	e50b300c 	str	r3, [fp, #-12]
  1005b0:	e51b300c 	ldr	r3, [fp, #-12]
  1005b4:	e3530013 	cmp	r3, #19
  1005b8:	daffffee 	ble	100578 <init_matrix+0x2c>
  1005bc:	e51b3008 	ldr	r3, [fp, #-8]
  1005c0:	e2833001 	add	r3, r3, #1
  1005c4:	e50b3008 	str	r3, [fp, #-8]
  1005c8:	e51b3008 	ldr	r3, [fp, #-8]
  1005cc:	e3530013 	cmp	r3, #19
  1005d0:	daffffe5 	ble	10056c <init_matrix+0x20>
  1005d4:	e24bd000 	sub	sp, fp, #0
  1005d8:	e49db004 	pop	{fp}		; (ldr fp, [sp], #4)
  1005dc:	e12fff1e 	bx	lr

001005e0 <multi_matrix>:
  1005e0:	e52db004 	push	{fp}		; (str fp, [sp, #-4]!)
  1005e4:	e28db000 	add	fp, sp, #0
  1005e8:	e24dd024 	sub	sp, sp, #36	; 0x24
  1005ec:	e50b0018 	str	r0, [fp, #-24]	; 0xffffffe8
  1005f0:	e50b101c 	str	r1, [fp, #-28]	; 0xffffffe4
  1005f4:	e50b2020 	str	r2, [fp, #-32]	; 0xffffffe0
  1005f8:	e3a03000 	mov	r3, #0
  1005fc:	e50b3008 	str	r3, [fp, #-8]
  100600:	ea000039 	b	1006ec <multi_matrix+0x10c>
  100604:	e3a03000 	mov	r3, #0
  100608:	e50b300c 	str	r3, [fp, #-12]
  10060c:	ea000030 	b	1006d4 <multi_matrix+0xf4>
  100610:	e3a03000 	mov	r3, #0
  100614:	e50b3014 	str	r3, [fp, #-20]	; 0xffffffec
  100618:	e3a03000 	mov	r3, #0
  10061c:	e50b3010 	str	r3, [fp, #-16]
  100620:	ea00001a 	b	100690 <multi_matrix+0xb0>
  100624:	e51b2008 	ldr	r2, [fp, #-8]
  100628:	e1a03002 	mov	r3, r2
  10062c:	e1a03103 	lsl	r3, r3, #2
  100630:	e0833002 	add	r3, r3, r2
  100634:	e1a03203 	lsl	r3, r3, #4
  100638:	e1a02003 	mov	r2, r3
  10063c:	e51b3018 	ldr	r3, [fp, #-24]	; 0xffffffe8
  100640:	e0833002 	add	r3, r3, r2
  100644:	e51b2010 	ldr	r2, [fp, #-16]
  100648:	e7931102 	ldr	r1, [r3, r2, lsl #2]
  10064c:	e51b2010 	ldr	r2, [fp, #-16]
  100650:	e1a03002 	mov	r3, r2
  100654:	e1a03103 	lsl	r3, r3, #2
  100658:	e0833002 	add	r3, r3, r2
  10065c:	e1a03203 	lsl	r3, r3, #4
  100660:	e1a02003 	mov	r2, r3
  100664:	e51b301c 	ldr	r3, [fp, #-28]	; 0xffffffe4
  100668:	e0833002 	add	r3, r3, r2
  10066c:	e51b200c 	ldr	r2, [fp, #-12]
  100670:	e7933102 	ldr	r3, [r3, r2, lsl #2]
  100674:	e0020193 	mul	r2, r3, r1
  100678:	e51b3014 	ldr	r3, [fp, #-20]	; 0xffffffec
  10067c:	e0823003 	add	r3, r2, r3
  100680:	e50b3014 	str	r3, [fp, #-20]	; 0xffffffec
  100684:	e51b3010 	ldr	r3, [fp, #-16]
  100688:	e2833001 	add	r3, r3, #1
  10068c:	e50b3010 	str	r3, [fp, #-16]
  100690:	e51b3010 	ldr	r3, [fp, #-16]
  100694:	e3530013 	cmp	r3, #19
  100698:	daffffe1 	ble	100624 <multi_matrix+0x44>
  10069c:	e51b2008 	ldr	r2, [fp, #-8]
  1006a0:	e1a03002 	mov	r3, r2
  1006a4:	e1a03103 	lsl	r3, r3, #2
  1006a8:	e0833002 	add	r3, r3, r2
  1006ac:	e1a03203 	lsl	r3, r3, #4
  1006b0:	e1a02003 	mov	r2, r3
  1006b4:	e51b3020 	ldr	r3, [fp, #-32]	; 0xffffffe0
  1006b8:	e0833002 	add	r3, r3, r2
  1006bc:	e51b1014 	ldr	r1, [fp, #-20]	; 0xffffffec
  1006c0:	e51b200c 	ldr	r2, [fp, #-12]
  1006c4:	e7831102 	str	r1, [r3, r2, lsl #2]
  1006c8:	e51b300c 	ldr	r3, [fp, #-12]
  1006cc:	e2833001 	add	r3, r3, #1
  1006d0:	e50b300c 	str	r3, [fp, #-12]
  1006d4:	e51b300c 	ldr	r3, [fp, #-12]
  1006d8:	e3530013 	cmp	r3, #19
  1006dc:	daffffcb 	ble	100610 <multi_matrix+0x30>
  1006e0:	e51b3008 	ldr	r3, [fp, #-8]
  1006e4:	e2833001 	add	r3, r3, #1
  1006e8:	e50b3008 	str	r3, [fp, #-8]
  1006ec:	e51b3008 	ldr	r3, [fp, #-8]
  1006f0:	e3530013 	cmp	r3, #19
  1006f4:	daffffc2 	ble	100604 <multi_matrix+0x24>
  1006f8:	e24bd000 	sub	sp, fp, #0
  1006fc:	e49db004 	pop	{fp}		; (ldr fp, [sp], #4)
  100700:	e12fff1e 	bx	lr

00100704 <print_matrix>:
  100704:	e92d4800 	push	{fp, lr}
  100708:	e28db004 	add	fp, sp, #4
  10070c:	e24dd010 	sub	sp, sp, #16
  100710:	e50b0010 	str	r0, [fp, #-16]
  100714:	e3a03000 	mov	r3, #0
  100718:	e50b3008 	str	r3, [fp, #-8]
  10071c:	ea00001a 	b	10078c <print_matrix+0x88>
  100720:	e3a03000 	mov	r3, #0
  100724:	e50b300c 	str	r3, [fp, #-12]
  100728:	ea000011 	b	100774 <print_matrix+0x70>
  10072c:	e51b2008 	ldr	r2, [fp, #-8]
  100730:	e1a03002 	mov	r3, r2
  100734:	e1a03103 	lsl	r3, r3, #2
  100738:	e0833002 	add	r3, r3, r2
  10073c:	e1a03203 	lsl	r3, r3, #4
  100740:	e1a02003 	mov	r2, r3
  100744:	e51b3010 	ldr	r3, [fp, #-16]
  100748:	e0833002 	add	r3, r3, r2
  10074c:	e51b200c 	ldr	r2, [fp, #-12]
  100750:	e7933102 	ldr	r3, [r3, r2, lsl #2]
  100754:	e30a0d60 	movw	r0, #44384	; 0xad60
  100758:	e3400010 	movt	r0, #16
  10075c:	e51b1008 	ldr	r1, [fp, #-8]
  100760:	e51b200c 	ldr	r2, [fp, #-12]
  100764:	eb00043a 	bl	101854 <printf>
  100768:	e51b300c 	ldr	r3, [fp, #-12]
  10076c:	e2833001 	add	r3, r3, #1
  100770:	e50b300c 	str	r3, [fp, #-12]
  100774:	e51b300c 	ldr	r3, [fp, #-12]
  100778:	e3530013 	cmp	r3, #19
  10077c:	daffffea 	ble	10072c <print_matrix+0x28>
  100780:	e51b3008 	ldr	r3, [fp, #-8]
  100784:	e2833001 	add	r3, r3, #1
  100788:	e50b3008 	str	r3, [fp, #-8]
  10078c:	e51b3008 	ldr	r3, [fp, #-8]
  100790:	e3530013 	cmp	r3, #19
  100794:	daffffe1 	ble	100720 <print_matrix+0x1c>
  100798:	e24bd004 	sub	sp, fp, #4
  10079c:	e8bd8800 	pop	{fp, pc}

001007a0 <main>:
  1007a0:	e92d4800 	push	{fp, lr}
  1007a4:	e28db004 	add	fp, sp, #4
  1007a8:	eb000031 	bl	100874 <init_platform>
  1007ac:	e30a3f4c 	movw	r3, #44876	; 0xaf4c
  1007b0:	e3403010 	movt	r3, #16
  1007b4:	e5933000 	ldr	r3, [r3]
  1007b8:	e1a00003 	mov	r0, r3
  1007bc:	e3a01002 	mov	r1, #2
  1007c0:	ebffff61 	bl	10054c <init_matrix>
  1007c4:	e30a3f50 	movw	r3, #44880	; 0xaf50
  1007c8:	e3403010 	movt	r3, #16
  1007cc:	e5933000 	ldr	r3, [r3]
  1007d0:	e1a00003 	mov	r0, r3
  1007d4:	e3a01001 	mov	r1, #1
  1007d8:	ebffff5b 	bl	10054c <init_matrix>
  1007dc:	e30a3f54 	movw	r3, #44884	; 0xaf54
  1007e0:	e3403010 	movt	r3, #16
  1007e4:	e5933000 	ldr	r3, [r3]
  1007e8:	e1a00003 	mov	r0, r3
  1007ec:	e3a01000 	mov	r1, #0
  1007f0:	ebffff55 	bl	10054c <init_matrix>
  1007f4:	e30a3f4c 	movw	r3, #44876	; 0xaf4c
  1007f8:	e3403010 	movt	r3, #16
  1007fc:	e5931000 	ldr	r1, [r3]
  100800:	e30a3f50 	movw	r3, #44880	; 0xaf50
  100804:	e3403010 	movt	r3, #16
  100808:	e5932000 	ldr	r2, [r3]
  10080c:	e30a3f54 	movw	r3, #44884	; 0xaf54
  100810:	e3403010 	movt	r3, #16
  100814:	e5933000 	ldr	r3, [r3]
  100818:	e1a00001 	mov	r0, r1
  10081c:	e1a01002 	mov	r1, r2
  100820:	e1a02003 	mov	r2, r3
  100824:	ebffff6d 	bl	1005e0 <multi_matrix>
  100828:	eb000016 	bl	100888 <cleanup_platform>
  10082c:	e3a03000 	mov	r3, #0
  100830:	e1a00003 	mov	r0, r3
  100834:	e8bd8800 	pop	{fp, pc}

00100838 <enable_caches>:
  100838:	e52db004 	push	{fp}		; (str fp, [sp, #-4]!)
  10083c:	e28db000 	add	fp, sp, #0
  100840:	e24bd000 	sub	sp, fp, #0
  100844:	e49db004 	pop	{fp}		; (ldr fp, [sp], #4)
  100848:	e12fff1e 	bx	lr

0010084c <disable_caches>:
  10084c:	e92d4800 	push	{fp, lr}
  100850:	e28db004 	add	fp, sp, #4
  100854:	eb000212 	bl	1010a4 <Xil_DCacheDisable>
  100858:	eb000218 	bl	1010c0 <Xil_ICacheDisable>
  10085c:	e8bd8800 	pop	{fp, pc}

00100860 <init_uart>:
  100860:	e52db004 	push	{fp}		; (str fp, [sp, #-4]!)
  100864:	e28db000 	add	fp, sp, #0
  100868:	e24bd000 	sub	sp, fp, #0
  10086c:	e49db004 	pop	{fp}		; (ldr fp, [sp], #4)
  100870:	e12fff1e 	bx	lr

00100874 <init_platform>:
  100874:	e92d4800 	push	{fp, lr}
  100878:	e28db004 	add	fp, sp, #4
  10087c:	ebffffed 	bl	100838 <enable_caches>
  100880:	ebfffff6 	bl	100860 <init_uart>
  100884:	e8bd8800 	pop	{fp, pc}

00100888 <cleanup_platform>:
  100888:	e92d4800 	push	{fp, lr}
  10088c:	e28db004 	add	fp, sp, #4
  100890:	ebffffed 	bl	10084c <disable_caches>
  100894:	e8bd8800 	pop	{fp, pc}

00100898 <FIQInterrupt>:
  100898:	e30a3f58 	movw	r3, #44888	; 0xaf58
  10089c:	e3403010 	movt	r3, #16
  1008a0:	e5932030 	ldr	r2, [r3, #48]	; 0x30
  1008a4:	e5930034 	ldr	r0, [r3, #52]	; 0x34
  1008a8:	e12fff12 	bx	r2

001008ac <IRQInterrupt>:
  1008ac:	e30a3f58 	movw	r3, #44888	; 0xaf58
  1008b0:	e3403010 	movt	r3, #16
  1008b4:	e5932028 	ldr	r2, [r3, #40]	; 0x28
  1008b8:	e593002c 	ldr	r0, [r3, #44]	; 0x2c
  1008bc:	e12fff12 	bx	r2

001008c0 <SWInterrupt>:
  1008c0:	e30a3f58 	movw	r3, #44888	; 0xaf58
  1008c4:	e3403010 	movt	r3, #16
  1008c8:	e5932010 	ldr	r2, [r3, #16]
  1008cc:	e5930014 	ldr	r0, [r3, #20]
  1008d0:	e12fff12 	bx	r2

001008d4 <DataAbortInterrupt>:
  1008d4:	e30a3f58 	movw	r3, #44888	; 0xaf58
  1008d8:	e3403010 	movt	r3, #16
  1008dc:	e5932020 	ldr	r2, [r3, #32]
  1008e0:	e5930024 	ldr	r0, [r3, #36]	; 0x24
  1008e4:	e12fff12 	bx	r2

001008e8 <PrefetchAbortInterrupt>:
  1008e8:	e30a3f58 	movw	r3, #44888	; 0xaf58
  1008ec:	e3403010 	movt	r3, #16
  1008f0:	e5932018 	ldr	r2, [r3, #24]
  1008f4:	e593001c 	ldr	r0, [r3, #28]
  1008f8:	e12fff12 	bx	r2
  1008fc:	00110014 	andseq	r0, r1, r4, lsl r0
  100900:	00110014 	andseq	r0, r1, r4, lsl r0
  100904:	00110014 	andseq	r0, r1, r4, lsl r0
  100908:	00111354 	andseq	r1, r1, r4, asr r3
  10090c:	00115360 	andseq	r5, r1, r0, ror #6

00100910 <_start>:
  100910:	eb0002f3 	bl	1014e4 <__cpu_init>
  100914:	e3a00000 	mov	r0, #0
  100918:	e51f1024 	ldr	r1, [pc, #-36]	; 1008fc <PrefetchAbortInterrupt+0x14>
  10091c:	e51f2024 	ldr	r2, [pc, #-36]	; 100900 <PrefetchAbortInterrupt+0x18>
  100920:	e1510002 	cmp	r1, r2
  100924:	aa000001 	bge	100930 <_start+0x20>
  100928:	e4810004 	str	r0, [r1], #4
  10092c:	eafffffb 	b	100920 <_start+0x10>
  100930:	e51f1034 	ldr	r1, [pc, #-52]	; 100904 <PrefetchAbortInterrupt+0x1c>
  100934:	e51f2034 	ldr	r2, [pc, #-52]	; 100908 <PrefetchAbortInterrupt+0x20>
  100938:	e1510002 	cmp	r1, r2
  10093c:	aa000001 	bge	100948 <_start+0x38>
  100940:	e4810004 	str	r0, [r1], #4
  100944:	eafffffb 	b	100938 <_start+0x28>
  100948:	e51fd044 	ldr	sp, [pc, #-68]	; 10090c <PrefetchAbortInterrupt+0x24>
  10094c:	e3a00000 	mov	r0, #0
  100950:	e3a01000 	mov	r1, #0
  100954:	eb0002ba 	bl	101444 <XTime_SetTime>
  100958:	eb000392 	bl	1017a8 <__libc_init_array>
  10095c:	e3a00000 	mov	r0, #0
  100960:	e3a01000 	mov	r1, #0
  100964:	ebffff8d 	bl	1007a0 <main>
  100968:	eb00037e 	bl	101768 <__libc_fini_array>
  10096c:	eb000370 	bl	101734 <exit>
  100970:	eafffffe 	b	100970 <_start+0x60>

00100974 <Xil_DCacheInvalidateLine>:
  100974:	e92d4038 	push	{r3, r4, r5, lr}
  100978:	e1a04000 	mov	r4, r0
  10097c:	e10f5000 	mrs	r5, CPSR
  100980:	e38530c0 	orr	r3, r5, #192	; 0xc0
  100984:	e129f003 	msr	CPSR_fc, r3
  100988:	e3020770 	movw	r0, #10096	; 0x2770
  10098c:	e1a01004 	mov	r1, r4
  100990:	e34f08f0 	movt	r0, #63728	; 0xf8f0
  100994:	eb000284 	bl	1013ac <Xil_Out32>
  100998:	f57ff04f 	dsb	sy
  10099c:	e3a03000 	mov	r3, #0
  1009a0:	ee403f10 	mcr	15, 2, r3, cr0, cr0, {0}
  1009a4:	e3c4401f 	bic	r4, r4, #31
  1009a8:	ee074f36 	mcr	15, 0, r4, cr7, cr6, {1}
  1009ac:	f57ff04f 	dsb	sy
  1009b0:	e129f005 	msr	CPSR_fc, r5
  1009b4:	e8bd8038 	pop	{r3, r4, r5, pc}

001009b8 <Xil_DCacheFlushRange>:
  1009b8:	e10f2000 	mrs	r2, CPSR
  1009bc:	e38230c0 	orr	r3, r2, #192	; 0xc0
  1009c0:	e129f003 	msr	CPSR_fc, r3
  1009c4:	e3510000 	cmp	r1, #0
  1009c8:	0a00000b 	beq	1009fc <Xil_DCacheFlushRange+0x44>
  1009cc:	e0811000 	add	r1, r1, r0
  1009d0:	e3c0001f 	bic	r0, r0, #31
  1009d4:	e1510000 	cmp	r1, r0
  1009d8:	9a000007 	bls	1009fc <Xil_DCacheFlushRange+0x44>
  1009dc:	e3a03a02 	mov	r3, #8192	; 0x2000
  1009e0:	e34f38f0 	movt	r3, #63728	; 0xf8f0
  1009e4:	ee070f3e 	mcr	15, 0, r0, cr7, cr14, {1}
  1009e8:	e58307f0 	str	r0, [r3, #2032]	; 0x7f0
  1009ec:	f57ff04f 	dsb	sy
  1009f0:	e2800020 	add	r0, r0, #32
  1009f4:	e1510000 	cmp	r1, r0
  1009f8:	8afffff9 	bhi	1009e4 <Xil_DCacheFlushRange+0x2c>
  1009fc:	f57ff04f 	dsb	sy
  100a00:	e129f002 	msr	CPSR_fc, r2
  100a04:	e12fff1e 	bx	lr

00100a08 <Xil_DCacheStoreLine>:
  100a08:	e92d4010 	push	{r4, lr}
  100a0c:	e1a01000 	mov	r1, r0
  100a10:	e10f4000 	mrs	r4, CPSR
  100a14:	e38430c0 	orr	r3, r4, #192	; 0xc0
  100a18:	e129f003 	msr	CPSR_fc, r3
  100a1c:	e3a03000 	mov	r3, #0
  100a20:	ee403f10 	mcr	15, 2, r3, cr0, cr0, {0}
  100a24:	e3c0301f 	bic	r3, r0, #31
  100a28:	ee073f3a 	mcr	15, 0, r3, cr7, cr10, {1}
  100a2c:	f57ff04f 	dsb	sy
  100a30:	e30207b0 	movw	r0, #10160	; 0x27b0
  100a34:	e34f08f0 	movt	r0, #63728	; 0xf8f0
  100a38:	eb00025b 	bl	1013ac <Xil_Out32>
  100a3c:	f57ff04f 	dsb	sy
  100a40:	e129f004 	msr	CPSR_fc, r4
  100a44:	e8bd8010 	pop	{r4, pc}

00100a48 <Xil_ICacheInvalidateLine>:
  100a48:	e92d4038 	push	{r3, r4, r5, lr}
  100a4c:	e1a04000 	mov	r4, r0
  100a50:	e10f5000 	mrs	r5, CPSR
  100a54:	e38530c0 	orr	r3, r5, #192	; 0xc0
  100a58:	e129f003 	msr	CPSR_fc, r3
  100a5c:	e3020770 	movw	r0, #10096	; 0x2770
  100a60:	e1a01004 	mov	r1, r4
  100a64:	e34f08f0 	movt	r0, #63728	; 0xf8f0
  100a68:	eb00024f 	bl	1013ac <Xil_Out32>
  100a6c:	f57ff04f 	dsb	sy
  100a70:	e3a03001 	mov	r3, #1
  100a74:	ee403f10 	mcr	15, 2, r3, cr0, cr0, {0}
  100a78:	e3c4401f 	bic	r4, r4, #31
  100a7c:	ee074f35 	mcr	15, 0, r4, cr7, cr5, {1}
  100a80:	f57ff04f 	dsb	sy
  100a84:	e129f005 	msr	CPSR_fc, r5
  100a88:	e8bd8038 	pop	{r3, r4, r5, pc}

00100a8c <Xil_ICacheInvalidateRange>:
  100a8c:	e10f2000 	mrs	r2, CPSR
  100a90:	e38230c0 	orr	r3, r2, #192	; 0xc0
  100a94:	e129f003 	msr	CPSR_fc, r3
  100a98:	e3510000 	cmp	r1, #0
  100a9c:	0a00000d 	beq	100ad8 <Xil_ICacheInvalidateRange+0x4c>
  100aa0:	e0811000 	add	r1, r1, r0
  100aa4:	e3a03001 	mov	r3, #1
  100aa8:	e3c0001f 	bic	r0, r0, #31
  100aac:	ee403f10 	mcr	15, 2, r3, cr0, cr0, {0}
  100ab0:	e1510000 	cmp	r1, r0
  100ab4:	9a000007 	bls	100ad8 <Xil_ICacheInvalidateRange+0x4c>
  100ab8:	e3a03a02 	mov	r3, #8192	; 0x2000
  100abc:	e34f38f0 	movt	r3, #63728	; 0xf8f0
  100ac0:	e5830770 	str	r0, [r3, #1904]	; 0x770
  100ac4:	f57ff04f 	dsb	sy
  100ac8:	ee070f35 	mcr	15, 0, r0, cr7, cr5, {1}
  100acc:	e2800020 	add	r0, r0, #32
  100ad0:	e1510000 	cmp	r1, r0
  100ad4:	8afffff9 	bhi	100ac0 <Xil_ICacheInvalidateRange+0x34>
  100ad8:	f57ff04f 	dsb	sy
  100adc:	e129f002 	msr	CPSR_fc, r2
  100ae0:	e12fff1e 	bx	lr

00100ae4 <Xil_L1DCacheInvalidate>:
  100ae4:	e92d40f8 	push	{r3, r4, r5, r6, r7, lr}
  100ae8:	e10f6000 	mrs	r6, CPSR
  100aec:	e38630c0 	orr	r3, r6, #192	; 0xc0
  100af0:	e129f003 	msr	CPSR_fc, r3
  100af4:	e3030360 	movw	r0, #13152	; 0x3360
  100af8:	e3051360 	movw	r1, #21344	; 0x5360
  100afc:	e3400011 	movt	r0, #17
  100b00:	e3401011 	movt	r1, #17
  100b04:	e0601001 	rsb	r1, r0, r1
  100b08:	e3a07000 	mov	r7, #0
  100b0c:	ebffffa9 	bl	1009b8 <Xil_DCacheFlushRange>
  100b10:	ee407f10 	mcr	15, 2, r7, cr0, cr0, {0}
  100b14:	ee304f10 	mrc	15, 1, r4, cr0, cr0, {0}
  100b18:	e7e806d4 	ubfx	r0, r4, #13, #9
  100b1c:	e7e651d4 	ubfx	r5, r4, #3, #7
  100b20:	e2800001 	add	r0, r0, #1
  100b24:	e2855001 	add	r5, r5, #1
  100b28:	e1a00380 	lsl	r0, r0, #7
  100b2c:	e1a01005 	mov	r1, r5
  100b30:	eb00027b 	bl	101524 <__aeabi_uidiv>
  100b34:	e2043007 	and	r3, r4, #7
  100b38:	e2833004 	add	r3, r3, #4
  100b3c:	e3a01001 	mov	r1, #1
  100b40:	e1a01311 	lsl	r1, r1, r3
  100b44:	e1a04007 	mov	r4, r7
  100b48:	e1a00330 	lsr	r0, r0, r3
  100b4c:	e3500000 	cmp	r0, #0
  100b50:	e1a0ef04 	lsl	lr, r4, #30
  100b54:	13a03000 	movne	r3, #0
  100b58:	11a02003 	movne	r2, r3
  100b5c:	0a000005 	beq	100b78 <Xil_L1DCacheInvalidate+0x94>
  100b60:	e182c00e 	orr	ip, r2, lr
  100b64:	ee07cf56 	mcr	15, 0, ip, cr7, cr6, {2}
  100b68:	e2833001 	add	r3, r3, #1
  100b6c:	e0822001 	add	r2, r2, r1
  100b70:	e1530000 	cmp	r3, r0
  100b74:	1afffff9 	bne	100b60 <Xil_L1DCacheInvalidate+0x7c>
  100b78:	e2844001 	add	r4, r4, #1
  100b7c:	e1550004 	cmp	r5, r4
  100b80:	1afffff1 	bne	100b4c <Xil_L1DCacheInvalidate+0x68>
  100b84:	f57ff04f 	dsb	sy
  100b88:	e129f006 	msr	CPSR_fc, r6
  100b8c:	e8bd80f8 	pop	{r3, r4, r5, r6, r7, pc}

00100b90 <Xil_L1DCacheEnable>:
  100b90:	e92d4010 	push	{r4, lr}
  100b94:	ee114f10 	mrc	15, 0, r4, cr1, cr0, {0}
  100b98:	e3140004 	tst	r4, #4
  100b9c:	18bd8010 	popne	{r4, pc}
  100ba0:	ebffffcf 	bl	100ae4 <Xil_L1DCacheInvalidate>
  100ba4:	e3844004 	orr	r4, r4, #4
  100ba8:	ee014f10 	mcr	15, 0, r4, cr1, cr0, {0}
  100bac:	e8bd8010 	pop	{r4, pc}

00100bb0 <Xil_L1DCacheInvalidateLine>:
  100bb0:	e3a03000 	mov	r3, #0
  100bb4:	ee403f10 	mcr	15, 2, r3, cr0, cr0, {0}
  100bb8:	e3c0001f 	bic	r0, r0, #31
  100bbc:	ee070f36 	mcr	15, 0, r0, cr7, cr6, {1}
  100bc0:	f57ff04f 	dsb	sy
  100bc4:	e12fff1e 	bx	lr

00100bc8 <Xil_L1DCacheInvalidateRange>:
  100bc8:	e10f3000 	mrs	r3, CPSR
  100bcc:	e38320c0 	orr	r2, r3, #192	; 0xc0
  100bd0:	e129f002 	msr	CPSR_fc, r2
  100bd4:	e3510000 	cmp	r1, #0
  100bd8:	0a000009 	beq	100c04 <Xil_L1DCacheInvalidateRange+0x3c>
  100bdc:	e0811000 	add	r1, r1, r0
  100be0:	e3a02000 	mov	r2, #0
  100be4:	e3c0001f 	bic	r0, r0, #31
  100be8:	ee402f10 	mcr	15, 2, r2, cr0, cr0, {0}
  100bec:	e1510000 	cmp	r1, r0
  100bf0:	9a000003 	bls	100c04 <Xil_L1DCacheInvalidateRange+0x3c>
  100bf4:	ee070f36 	mcr	15, 0, r0, cr7, cr6, {1}
  100bf8:	e2800020 	add	r0, r0, #32
  100bfc:	e1510000 	cmp	r1, r0
  100c00:	8afffffb 	bhi	100bf4 <Xil_L1DCacheInvalidateRange+0x2c>
  100c04:	f57ff04f 	dsb	sy
  100c08:	e129f003 	msr	CPSR_fc, r3
  100c0c:	e12fff1e 	bx	lr

00100c10 <Xil_L1DCacheFlush>:
  100c10:	e92d40f8 	push	{r3, r4, r5, r6, r7, lr}
  100c14:	e10f6000 	mrs	r6, CPSR
  100c18:	e38630c0 	orr	r3, r6, #192	; 0xc0
  100c1c:	e129f003 	msr	CPSR_fc, r3
  100c20:	e3a07000 	mov	r7, #0
  100c24:	ee407f10 	mcr	15, 2, r7, cr0, cr0, {0}
  100c28:	ee304f10 	mrc	15, 1, r4, cr0, cr0, {0}
  100c2c:	e7e806d4 	ubfx	r0, r4, #13, #9
  100c30:	e7e651d4 	ubfx	r5, r4, #3, #7
  100c34:	e2800001 	add	r0, r0, #1
  100c38:	e2855001 	add	r5, r5, #1
  100c3c:	e1a00380 	lsl	r0, r0, #7
  100c40:	e1a01005 	mov	r1, r5
  100c44:	eb000236 	bl	101524 <__aeabi_uidiv>
  100c48:	e2043007 	and	r3, r4, #7
  100c4c:	e2833004 	add	r3, r3, #4
  100c50:	e3a01001 	mov	r1, #1
  100c54:	e1a01311 	lsl	r1, r1, r3
  100c58:	e1a04007 	mov	r4, r7
  100c5c:	e1a00330 	lsr	r0, r0, r3
  100c60:	e3500000 	cmp	r0, #0
  100c64:	e1a0ef04 	lsl	lr, r4, #30
  100c68:	13a03000 	movne	r3, #0
  100c6c:	11a02003 	movne	r2, r3
  100c70:	0a000005 	beq	100c8c <Xil_L1DCacheFlush+0x7c>
  100c74:	e182c00e 	orr	ip, r2, lr
  100c78:	ee07cf5e 	mcr	15, 0, ip, cr7, cr14, {2}
  100c7c:	e2833001 	add	r3, r3, #1
  100c80:	e0822001 	add	r2, r2, r1
  100c84:	e1530000 	cmp	r3, r0
  100c88:	1afffff9 	bne	100c74 <Xil_L1DCacheFlush+0x64>
  100c8c:	e2844001 	add	r4, r4, #1
  100c90:	e1550004 	cmp	r5, r4
  100c94:	1afffff1 	bne	100c60 <Xil_L1DCacheFlush+0x50>
  100c98:	f57ff04f 	dsb	sy
  100c9c:	e129f006 	msr	CPSR_fc, r6
  100ca0:	e8bd80f8 	pop	{r3, r4, r5, r6, r7, pc}

00100ca4 <Xil_L1DCacheDisable>:
  100ca4:	e92d4008 	push	{r3, lr}
  100ca8:	ebffffd8 	bl	100c10 <Xil_L1DCacheFlush>
  100cac:	ee113f10 	mrc	15, 0, r3, cr1, cr0, {0}
  100cb0:	e3c33004 	bic	r3, r3, #4
  100cb4:	ee013f10 	mcr	15, 0, r3, cr1, cr0, {0}
  100cb8:	e8bd8008 	pop	{r3, pc}

00100cbc <Xil_L1DCacheFlushLine>:
  100cbc:	e3a03000 	mov	r3, #0
  100cc0:	ee403f10 	mcr	15, 2, r3, cr0, cr0, {0}
  100cc4:	e3c0001f 	bic	r0, r0, #31
  100cc8:	ee070f3e 	mcr	15, 0, r0, cr7, cr14, {1}
  100ccc:	f57ff04f 	dsb	sy
  100cd0:	e12fff1e 	bx	lr

00100cd4 <Xil_L1DCacheFlushRange>:
  100cd4:	e10f3000 	mrs	r3, CPSR
  100cd8:	e38320c0 	orr	r2, r3, #192	; 0xc0
  100cdc:	e129f002 	msr	CPSR_fc, r2
  100ce0:	e3510000 	cmp	r1, #0
  100ce4:	0a000009 	beq	100d10 <Xil_L1DCacheFlushRange+0x3c>
  100ce8:	e0811000 	add	r1, r1, r0
  100cec:	e3a02000 	mov	r2, #0
  100cf0:	e3c0001f 	bic	r0, r0, #31
  100cf4:	ee402f10 	mcr	15, 2, r2, cr0, cr0, {0}
  100cf8:	e1510000 	cmp	r1, r0
  100cfc:	9a000003 	bls	100d10 <Xil_L1DCacheFlushRange+0x3c>
  100d00:	ee070f3e 	mcr	15, 0, r0, cr7, cr14, {1}
  100d04:	e2800020 	add	r0, r0, #32
  100d08:	e1510000 	cmp	r1, r0
  100d0c:	8afffffb 	bhi	100d00 <Xil_L1DCacheFlushRange+0x2c>
  100d10:	f57ff04f 	dsb	sy
  100d14:	e129f003 	msr	CPSR_fc, r3
  100d18:	e12fff1e 	bx	lr

00100d1c <Xil_L1DCacheStoreLine>:
  100d1c:	e3a03000 	mov	r3, #0
  100d20:	ee403f10 	mcr	15, 2, r3, cr0, cr0, {0}
  100d24:	e3c0001f 	bic	r0, r0, #31
  100d28:	ee070f3a 	mcr	15, 0, r0, cr7, cr10, {1}
  100d2c:	f57ff04f 	dsb	sy
  100d30:	e12fff1e 	bx	lr

00100d34 <Xil_L1ICacheEnable>:
  100d34:	ee113f10 	mrc	15, 0, r3, cr1, cr0, {0}
  100d38:	e2132a01 	ands	r2, r3, #4096	; 0x1000
  100d3c:	112fff1e 	bxne	lr
  100d40:	ee072f15 	mcr	15, 0, r2, cr7, cr5, {0}
  100d44:	e3833a01 	orr	r3, r3, #4096	; 0x1000
  100d48:	ee013f10 	mcr	15, 0, r3, cr1, cr0, {0}
  100d4c:	e12fff1e 	bx	lr

00100d50 <Xil_L1ICacheDisable>:
  100d50:	f57ff04f 	dsb	sy
  100d54:	e3a03000 	mov	r3, #0
  100d58:	ee073f15 	mcr	15, 0, r3, cr7, cr5, {0}
  100d5c:	ee113f10 	mrc	15, 0, r3, cr1, cr0, {0}
  100d60:	e3c33a01 	bic	r3, r3, #4096	; 0x1000
  100d64:	ee013f10 	mcr	15, 0, r3, cr1, cr0, {0}
  100d68:	e12fff1e 	bx	lr

00100d6c <Xil_L1ICacheInvalidate>:
  100d6c:	e3a03001 	mov	r3, #1
  100d70:	ee403f10 	mcr	15, 2, r3, cr0, cr0, {0}
  100d74:	e3a03000 	mov	r3, #0
  100d78:	ee073f15 	mcr	15, 0, r3, cr7, cr5, {0}
  100d7c:	f57ff04f 	dsb	sy
  100d80:	e12fff1e 	bx	lr

00100d84 <Xil_L1ICacheInvalidateLine>:
  100d84:	e3a03001 	mov	r3, #1
  100d88:	ee403f10 	mcr	15, 2, r3, cr0, cr0, {0}
  100d8c:	e3c0001f 	bic	r0, r0, #31
  100d90:	ee070f35 	mcr	15, 0, r0, cr7, cr5, {1}
  100d94:	f57ff04f 	dsb	sy
  100d98:	e12fff1e 	bx	lr

00100d9c <Xil_L1ICacheInvalidateRange>:
  100d9c:	e10f3000 	mrs	r3, CPSR
  100da0:	e38320c0 	orr	r2, r3, #192	; 0xc0
  100da4:	e129f002 	msr	CPSR_fc, r2
  100da8:	e3510000 	cmp	r1, #0
  100dac:	0a000009 	beq	100dd8 <Xil_L1ICacheInvalidateRange+0x3c>
  100db0:	e0811000 	add	r1, r1, r0
  100db4:	e3a02001 	mov	r2, #1
  100db8:	e3c0001f 	bic	r0, r0, #31
  100dbc:	ee402f10 	mcr	15, 2, r2, cr0, cr0, {0}
  100dc0:	e1510000 	cmp	r1, r0
  100dc4:	9a000003 	bls	100dd8 <Xil_L1ICacheInvalidateRange+0x3c>
  100dc8:	ee070f35 	mcr	15, 0, r0, cr7, cr5, {1}
  100dcc:	e2800020 	add	r0, r0, #32
  100dd0:	e1510000 	cmp	r1, r0
  100dd4:	8afffffb 	bhi	100dc8 <Xil_L1ICacheInvalidateRange+0x2c>
  100dd8:	f57ff04f 	dsb	sy
  100ddc:	e129f003 	msr	CPSR_fc, r3
  100de0:	e12fff1e 	bx	lr

00100de4 <Xil_L2CacheInvalidate>:
  100de4:	e302077c 	movw	r0, #10108	; 0x277c
  100de8:	e30f1fff 	movw	r1, #65535	; 0xffff
  100dec:	e92d4008 	push	{r3, lr}
  100df0:	e34f08f0 	movt	r0, #63728	; 0xf8f0
  100df4:	eb00016c 	bl	1013ac <Xil_Out32>
  100df8:	e302077c 	movw	r0, #10108	; 0x277c
  100dfc:	e34f08f0 	movt	r0, #63728	; 0xf8f0
  100e00:	eb000163 	bl	101394 <Xil_In32>
  100e04:	e6ff1070 	uxth	r1, r0
  100e08:	e3510000 	cmp	r1, #0
  100e0c:	1afffff9 	bne	100df8 <Xil_L2CacheInvalidate+0x14>
  100e10:	e3a00d9d 	mov	r0, #10048	; 0x2740
  100e14:	e34f08f0 	movt	r0, #63728	; 0xf8f0
  100e18:	eb000163 	bl	1013ac <Xil_Out32>
  100e1c:	f57ff04f 	dsb	sy
  100e20:	e8bd8008 	pop	{r3, pc}

00100e24 <Xil_DCacheInvalidate>:
  100e24:	e92d4010 	push	{r4, lr}
  100e28:	e10f4000 	mrs	r4, CPSR
  100e2c:	e38430c0 	orr	r3, r4, #192	; 0xc0
  100e30:	e129f003 	msr	CPSR_fc, r3
  100e34:	ebffffea 	bl	100de4 <Xil_L2CacheInvalidate>
  100e38:	ebffff29 	bl	100ae4 <Xil_L1DCacheInvalidate>
  100e3c:	e129f004 	msr	CPSR_fc, r4
  100e40:	e8bd8010 	pop	{r4, pc}

00100e44 <Xil_ICacheInvalidate>:
  100e44:	e92d4010 	push	{r4, lr}
  100e48:	e10f4000 	mrs	r4, CPSR
  100e4c:	e38430c0 	orr	r3, r4, #192	; 0xc0
  100e50:	e129f003 	msr	CPSR_fc, r3
  100e54:	ebffffe2 	bl	100de4 <Xil_L2CacheInvalidate>
  100e58:	e3a03001 	mov	r3, #1
  100e5c:	ee403f10 	mcr	15, 2, r3, cr0, cr0, {0}
  100e60:	e3a03000 	mov	r3, #0
  100e64:	ee073f15 	mcr	15, 0, r3, cr7, cr5, {0}
  100e68:	f57ff04f 	dsb	sy
  100e6c:	e129f004 	msr	CPSR_fc, r4
  100e70:	e8bd8010 	pop	{r4, pc}

00100e74 <Xil_L2CacheEnable>:
  100e74:	e3a00c21 	mov	r0, #8448	; 0x2100
  100e78:	e92d4010 	push	{r4, lr}
  100e7c:	e34f08f0 	movt	r0, #63728	; 0xf8f0
  100e80:	eb000143 	bl	101394 <Xil_In32>
  100e84:	e2104001 	ands	r4, r0, #1
  100e88:	18bd8010 	popne	{r4, pc}
  100e8c:	e3020104 	movw	r0, #8452	; 0x2104
  100e90:	e34f08f0 	movt	r0, #63728	; 0xf8f0
  100e94:	eb00013e 	bl	101394 <Xil_In32>
  100e98:	e3c0180e 	bic	r1, r0, #917504	; 0xe0000
  100e9c:	e3020104 	movw	r0, #8452	; 0x2104
  100ea0:	e3811472 	orr	r1, r1, #1912602624	; 0x72000000
  100ea4:	e34f08f0 	movt	r0, #63728	; 0xf8f0
  100ea8:	e3811836 	orr	r1, r1, #3538944	; 0x360000
  100eac:	eb00013e 	bl	1013ac <Xil_Out32>
  100eb0:	e3020108 	movw	r0, #8456	; 0x2108
  100eb4:	e34f08f0 	movt	r0, #63728	; 0xf8f0
  100eb8:	e3001111 	movw	r1, #273	; 0x111
  100ebc:	eb00013a 	bl	1013ac <Xil_Out32>
  100ec0:	e302010c 	movw	r0, #8460	; 0x210c
  100ec4:	e3001121 	movw	r1, #289	; 0x121
  100ec8:	e34f08f0 	movt	r0, #63728	; 0xf8f0
  100ecc:	eb000136 	bl	1013ac <Xil_Out32>
  100ed0:	e302021c 	movw	r0, #8732	; 0x221c
  100ed4:	e34f08f0 	movt	r0, #63728	; 0xf8f0
  100ed8:	eb00012d 	bl	101394 <Xil_In32>
  100edc:	e1a01000 	mov	r1, r0
  100ee0:	e3020220 	movw	r0, #8736	; 0x2220
  100ee4:	e34f08f0 	movt	r0, #63728	; 0xf8f0
  100ee8:	eb00012f 	bl	1013ac <Xil_Out32>
  100eec:	ebffffbc 	bl	100de4 <Xil_L2CacheInvalidate>
  100ef0:	e3a00c21 	mov	r0, #8448	; 0x2100
  100ef4:	e34f08f0 	movt	r0, #63728	; 0xf8f0
  100ef8:	eb000125 	bl	101394 <Xil_In32>
  100efc:	e3801001 	orr	r1, r0, #1
  100f00:	e3a00c21 	mov	r0, #8448	; 0x2100
  100f04:	e34f08f0 	movt	r0, #63728	; 0xf8f0
  100f08:	eb000127 	bl	1013ac <Xil_Out32>
  100f0c:	e3a00d9d 	mov	r0, #10048	; 0x2740
  100f10:	e1a01004 	mov	r1, r4
  100f14:	e34f08f0 	movt	r0, #63728	; 0xf8f0
  100f18:	eb000123 	bl	1013ac <Xil_Out32>
  100f1c:	f57ff04f 	dsb	sy
  100f20:	e8bd8010 	pop	{r4, pc}

00100f24 <Xil_DCacheEnable>:
  100f24:	e92d4008 	push	{r3, lr}
  100f28:	ebffff18 	bl	100b90 <Xil_L1DCacheEnable>
  100f2c:	e8bd4008 	pop	{r3, lr}
  100f30:	eaffffcf 	b	100e74 <Xil_L2CacheEnable>

00100f34 <Xil_ICacheEnable>:
  100f34:	ee113f10 	mrc	15, 0, r3, cr1, cr0, {0}
  100f38:	e2132a01 	ands	r2, r3, #4096	; 0x1000
  100f3c:	1a000002 	bne	100f4c <Xil_ICacheEnable+0x18>
  100f40:	ee072f15 	mcr	15, 0, r2, cr7, cr5, {0}
  100f44:	e3833a01 	orr	r3, r3, #4096	; 0x1000
  100f48:	ee013f10 	mcr	15, 0, r3, cr1, cr0, {0}
  100f4c:	eaffffc8 	b	100e74 <Xil_L2CacheEnable>

00100f50 <Xil_L2CacheInvalidateLine>:
  100f50:	e1a01000 	mov	r1, r0
  100f54:	e3020770 	movw	r0, #10096	; 0x2770
  100f58:	e92d4008 	push	{r3, lr}
  100f5c:	e34f08f0 	movt	r0, #63728	; 0xf8f0
  100f60:	eb000111 	bl	1013ac <Xil_Out32>
  100f64:	f57ff04f 	dsb	sy
  100f68:	e8bd8008 	pop	{r3, pc}

00100f6c <Xil_L2CacheInvalidateRange>:
  100f6c:	e92d4070 	push	{r4, r5, r6, lr}
  100f70:	e10f6000 	mrs	r6, CPSR
  100f74:	e38630c0 	orr	r3, r6, #192	; 0xc0
  100f78:	e129f003 	msr	CPSR_fc, r3
  100f7c:	e3510000 	cmp	r1, #0
  100f80:	1a000002 	bne	100f90 <Xil_L2CacheInvalidateRange+0x24>
  100f84:	f57ff04f 	dsb	sy
  100f88:	e129f006 	msr	CPSR_fc, r6
  100f8c:	e8bd8070 	pop	{r4, r5, r6, pc}
  100f90:	e1a04000 	mov	r4, r0
  100f94:	e3a00dbd 	mov	r0, #12096	; 0x2f40
  100f98:	e0815004 	add	r5, r1, r4
  100f9c:	e34f08f0 	movt	r0, #63728	; 0xf8f0
  100fa0:	e3a01003 	mov	r1, #3
  100fa4:	e3c4401f 	bic	r4, r4, #31
  100fa8:	eb0000ff 	bl	1013ac <Xil_Out32>
  100fac:	e1550004 	cmp	r5, r4
  100fb0:	83a03a02 	movhi	r3, #8192	; 0x2000
  100fb4:	834f38f0 	movthi	r3, #63728	; 0xf8f0
  100fb8:	9a000003 	bls	100fcc <Xil_L2CacheInvalidateRange+0x60>
  100fbc:	e5834770 	str	r4, [r3, #1904]	; 0x770
  100fc0:	e2844020 	add	r4, r4, #32
  100fc4:	e1550004 	cmp	r5, r4
  100fc8:	8afffffb 	bhi	100fbc <Xil_L2CacheInvalidateRange+0x50>
  100fcc:	e3a00dbd 	mov	r0, #12096	; 0x2f40
  100fd0:	e3a01000 	mov	r1, #0
  100fd4:	e34f08f0 	movt	r0, #63728	; 0xf8f0
  100fd8:	eb0000f3 	bl	1013ac <Xil_Out32>
  100fdc:	eaffffe8 	b	100f84 <Xil_L2CacheInvalidateRange+0x18>

00100fe0 <Xil_L2CacheFlush>:
  100fe0:	e3a00dbd 	mov	r0, #12096	; 0x2f40
  100fe4:	e3a01003 	mov	r1, #3
  100fe8:	e34f08f0 	movt	r0, #63728	; 0xf8f0
  100fec:	e92d4010 	push	{r4, lr}
  100ff0:	eb0000ed 	bl	1013ac <Xil_Out32>
  100ff4:	e30207fc 	movw	r0, #10236	; 0x27fc
  100ff8:	e34f08f0 	movt	r0, #63728	; 0xf8f0
  100ffc:	e30f1fff 	movw	r1, #65535	; 0xffff
  101000:	eb0000e9 	bl	1013ac <Xil_Out32>
  101004:	e30207fc 	movw	r0, #10236	; 0x27fc
  101008:	e34f08f0 	movt	r0, #63728	; 0xf8f0
  10100c:	eb0000e0 	bl	101394 <Xil_In32>
  101010:	e6ff4070 	uxth	r4, r0
  101014:	e3540000 	cmp	r4, #0
  101018:	1afffff9 	bne	101004 <Xil_L2CacheFlush+0x24>
  10101c:	e3a00d9d 	mov	r0, #10048	; 0x2740
  101020:	e1a01004 	mov	r1, r4
  101024:	e34f08f0 	movt	r0, #63728	; 0xf8f0
  101028:	eb0000df 	bl	1013ac <Xil_Out32>
  10102c:	e3a00dbd 	mov	r0, #12096	; 0x2f40
  101030:	e1a01004 	mov	r1, r4
  101034:	e34f08f0 	movt	r0, #63728	; 0xf8f0
  101038:	eb0000db 	bl	1013ac <Xil_Out32>
  10103c:	f57ff04f 	dsb	sy
  101040:	e8bd8010 	pop	{r4, pc}

00101044 <Xil_DCacheFlush>:
  101044:	e92d4010 	push	{r4, lr}
  101048:	e10f4000 	mrs	r4, CPSR
  10104c:	e38430c0 	orr	r3, r4, #192	; 0xc0
  101050:	e129f003 	msr	CPSR_fc, r3
  101054:	ebfffeed 	bl	100c10 <Xil_L1DCacheFlush>
  101058:	ebffffe0 	bl	100fe0 <Xil_L2CacheFlush>
  10105c:	e129f004 	msr	CPSR_fc, r4
  101060:	e8bd8010 	pop	{r4, pc}

00101064 <Xil_L2CacheDisable>:
  101064:	e3a00c21 	mov	r0, #8448	; 0x2100
  101068:	e92d4008 	push	{r3, lr}
  10106c:	e34f08f0 	movt	r0, #63728	; 0xf8f0
  101070:	eb0000c7 	bl	101394 <Xil_In32>
  101074:	e3100001 	tst	r0, #1
  101078:	08bd8008 	popeq	{r3, pc}
  10107c:	ebffffd7 	bl	100fe0 <Xil_L2CacheFlush>
  101080:	e3a00c21 	mov	r0, #8448	; 0x2100
  101084:	e34f08f0 	movt	r0, #63728	; 0xf8f0
  101088:	eb0000c1 	bl	101394 <Xil_In32>
  10108c:	e3c01001 	bic	r1, r0, #1
  101090:	e3a00c21 	mov	r0, #8448	; 0x2100
  101094:	e34f08f0 	movt	r0, #63728	; 0xf8f0
  101098:	eb0000c3 	bl	1013ac <Xil_Out32>
  10109c:	f57ff04f 	dsb	sy
  1010a0:	e8bd8008 	pop	{r3, pc}

001010a4 <Xil_DCacheDisable>:
  1010a4:	e92d4008 	push	{r3, lr}
  1010a8:	ebffffed 	bl	101064 <Xil_L2CacheDisable>
  1010ac:	ebfffed7 	bl	100c10 <Xil_L1DCacheFlush>
  1010b0:	ee113f10 	mrc	15, 0, r3, cr1, cr0, {0}
  1010b4:	e3c33004 	bic	r3, r3, #4
  1010b8:	ee013f10 	mcr	15, 0, r3, cr1, cr0, {0}
  1010bc:	e8bd8008 	pop	{r3, pc}

001010c0 <Xil_ICacheDisable>:
  1010c0:	e92d4008 	push	{r3, lr}
  1010c4:	ebffffe6 	bl	101064 <Xil_L2CacheDisable>
  1010c8:	f57ff04f 	dsb	sy
  1010cc:	e3a03000 	mov	r3, #0
  1010d0:	ee073f15 	mcr	15, 0, r3, cr7, cr5, {0}
  1010d4:	ee113f10 	mrc	15, 0, r3, cr1, cr0, {0}
  1010d8:	e3c33a01 	bic	r3, r3, #4096	; 0x1000
  1010dc:	ee013f10 	mcr	15, 0, r3, cr1, cr0, {0}
  1010e0:	e8bd8008 	pop	{r3, pc}

001010e4 <Xil_L2CacheFlushLine>:
  1010e4:	e92d4010 	push	{r4, lr}
  1010e8:	e1a04000 	mov	r4, r0
  1010ec:	e30207b0 	movw	r0, #10160	; 0x27b0
  1010f0:	e1a01004 	mov	r1, r4
  1010f4:	e34f08f0 	movt	r0, #63728	; 0xf8f0
  1010f8:	eb0000ab 	bl	1013ac <Xil_Out32>
  1010fc:	e3020770 	movw	r0, #10096	; 0x2770
  101100:	e1a01004 	mov	r1, r4
  101104:	e34f08f0 	movt	r0, #63728	; 0xf8f0
  101108:	eb0000a7 	bl	1013ac <Xil_Out32>
  10110c:	f57ff04f 	dsb	sy
  101110:	e8bd8010 	pop	{r4, pc}

00101114 <Xil_DCacheInvalidateRange>:
  101114:	e92d41f0 	push	{r4, r5, r6, r7, r8, lr}
  101118:	e10f6000 	mrs	r6, CPSR
  10111c:	e38630c0 	orr	r3, r6, #192	; 0xc0
  101120:	e129f003 	msr	CPSR_fc, r3
  101124:	e3510000 	cmp	r1, #0
  101128:	0a000011 	beq	101174 <Xil_DCacheInvalidateRange+0x60>
  10112c:	e1a04000 	mov	r4, r0
  101130:	e0805001 	add	r5, r0, r1
  101134:	e3a07000 	mov	r7, #0
  101138:	ee407f10 	mcr	15, 2, r7, cr0, cr0, {0}
  10113c:	e310001f 	tst	r0, #31
  101140:	1a000022 	bne	1011d0 <Xil_DCacheInvalidateRange+0xbc>
  101144:	e315001f 	tst	r5, #31
  101148:	1a00000c 	bne	101180 <Xil_DCacheInvalidateRange+0x6c>
  10114c:	e1540005 	cmp	r4, r5
  101150:	2a000007 	bcs	101174 <Xil_DCacheInvalidateRange+0x60>
  101154:	e3a03a02 	mov	r3, #8192	; 0x2000
  101158:	e34f38f0 	movt	r3, #63728	; 0xf8f0
  10115c:	e5834770 	str	r4, [r3, #1904]	; 0x770
  101160:	f57ff04f 	dsb	sy
  101164:	ee074f36 	mcr	15, 0, r4, cr7, cr6, {1}
  101168:	e2844020 	add	r4, r4, #32
  10116c:	e1540005 	cmp	r4, r5
  101170:	3afffff9 	bcc	10115c <Xil_DCacheInvalidateRange+0x48>
  101174:	f57ff04f 	dsb	sy
  101178:	e129f006 	msr	CPSR_fc, r6
  10117c:	e8bd81f0 	pop	{r4, r5, r6, r7, r8, pc}
  101180:	e3c5501f 	bic	r5, r5, #31
  101184:	e3a07000 	mov	r7, #0
  101188:	ee407f10 	mcr	15, 2, r7, cr0, cr0, {0}
  10118c:	ee075f3e 	mcr	15, 0, r5, cr7, cr14, {1}
  101190:	f57ff04f 	dsb	sy
  101194:	e3a00dbd 	mov	r0, #12096	; 0x2f40
  101198:	e3a01003 	mov	r1, #3
  10119c:	e34f08f0 	movt	r0, #63728	; 0xf8f0
  1011a0:	eb000081 	bl	1013ac <Xil_Out32>
  1011a4:	e1a00005 	mov	r0, r5
  1011a8:	ebffffcd 	bl	1010e4 <Xil_L2CacheFlushLine>
  1011ac:	e3a00dbd 	mov	r0, #12096	; 0x2f40
  1011b0:	e1a01007 	mov	r1, r7
  1011b4:	e34f08f0 	movt	r0, #63728	; 0xf8f0
  1011b8:	eb00007b 	bl	1013ac <Xil_Out32>
  1011bc:	e3a00d9d 	mov	r0, #10048	; 0x2740
  1011c0:	e1a01007 	mov	r1, r7
  1011c4:	e34f08f0 	movt	r0, #63728	; 0xf8f0
  1011c8:	eb000077 	bl	1013ac <Xil_Out32>
  1011cc:	eaffffde 	b	10114c <Xil_DCacheInvalidateRange+0x38>
  1011d0:	e3c0801f 	bic	r8, r0, #31
  1011d4:	ee407f10 	mcr	15, 2, r7, cr0, cr0, {0}
  1011d8:	ee078f3e 	mcr	15, 0, r8, cr7, cr14, {1}
  1011dc:	f57ff04f 	dsb	sy
  1011e0:	e3a00dbd 	mov	r0, #12096	; 0x2f40
  1011e4:	e3a01003 	mov	r1, #3
  1011e8:	e34f08f0 	movt	r0, #63728	; 0xf8f0
  1011ec:	e2884020 	add	r4, r8, #32
  1011f0:	eb00006d 	bl	1013ac <Xil_Out32>
  1011f4:	e1a00008 	mov	r0, r8
  1011f8:	ebffffb9 	bl	1010e4 <Xil_L2CacheFlushLine>
  1011fc:	e3a00dbd 	mov	r0, #12096	; 0x2f40
  101200:	e1a01007 	mov	r1, r7
  101204:	e34f08f0 	movt	r0, #63728	; 0xf8f0
  101208:	eb000067 	bl	1013ac <Xil_Out32>
  10120c:	e3a00d9d 	mov	r0, #10048	; 0x2740
  101210:	e1a01007 	mov	r1, r7
  101214:	e34f08f0 	movt	r0, #63728	; 0xf8f0
  101218:	eb000063 	bl	1013ac <Xil_Out32>
  10121c:	e315001f 	tst	r5, #31
  101220:	0affffc9 	beq	10114c <Xil_DCacheInvalidateRange+0x38>
  101224:	eaffffd5 	b	101180 <Xil_DCacheInvalidateRange+0x6c>

00101228 <Xil_DCacheFlushLine>:
  101228:	e92d40f8 	push	{r3, r4, r5, r6, r7, lr}
  10122c:	e1a07000 	mov	r7, r0
  101230:	e10f6000 	mrs	r6, CPSR
  101234:	e38630c0 	orr	r3, r6, #192	; 0xc0
  101238:	e129f003 	msr	CPSR_fc, r3
  10123c:	e3a04000 	mov	r4, #0
  101240:	ee404f10 	mcr	15, 2, r4, cr0, cr0, {0}
  101244:	e3c0301f 	bic	r3, r0, #31
  101248:	ee073f3e 	mcr	15, 0, r3, cr7, cr14, {1}
  10124c:	f57ff04f 	dsb	sy
  101250:	e3a05dbd 	mov	r5, #12096	; 0x2f40
  101254:	e3a01003 	mov	r1, #3
  101258:	e34f58f0 	movt	r5, #63728	; 0xf8f0
  10125c:	e1a00005 	mov	r0, r5
  101260:	eb000051 	bl	1013ac <Xil_Out32>
  101264:	e1a00007 	mov	r0, r7
  101268:	ebffff9d 	bl	1010e4 <Xil_L2CacheFlushLine>
  10126c:	e1a00005 	mov	r0, r5
  101270:	e1a01004 	mov	r1, r4
  101274:	eb00004c 	bl	1013ac <Xil_Out32>
  101278:	e3a00d9d 	mov	r0, #10048	; 0x2740
  10127c:	e1a01004 	mov	r1, r4
  101280:	e34f08f0 	movt	r0, #63728	; 0xf8f0
  101284:	eb000048 	bl	1013ac <Xil_Out32>
  101288:	e129f006 	msr	CPSR_fc, r6
  10128c:	e8bd80f8 	pop	{r3, r4, r5, r6, r7, pc}

00101290 <Xil_L2CacheFlushRange>:
  101290:	e92d40f8 	push	{r3, r4, r5, r6, r7, lr}
  101294:	e10f7000 	mrs	r7, CPSR
  101298:	e38730c0 	orr	r3, r7, #192	; 0xc0
  10129c:	e129f003 	msr	CPSR_fc, r3
  1012a0:	e3510000 	cmp	r1, #0
  1012a4:	1a000002 	bne	1012b4 <Xil_L2CacheFlushRange+0x24>
  1012a8:	f57ff04f 	dsb	sy
  1012ac:	e129f007 	msr	CPSR_fc, r7
  1012b0:	e8bd80f8 	pop	{r3, r4, r5, r6, r7, pc}
  1012b4:	e1a04000 	mov	r4, r0
  1012b8:	e3a00dbd 	mov	r0, #12096	; 0x2f40
  1012bc:	e0815004 	add	r5, r1, r4
  1012c0:	e34f08f0 	movt	r0, #63728	; 0xf8f0
  1012c4:	e3c4401f 	bic	r4, r4, #31
  1012c8:	e3a01003 	mov	r1, #3
  1012cc:	eb000036 	bl	1013ac <Xil_Out32>
  1012d0:	e1550004 	cmp	r5, r4
  1012d4:	83a06a02 	movhi	r6, #8192	; 0x2000
  1012d8:	834f68f0 	movthi	r6, #63728	; 0xf8f0
  1012dc:	9a000007 	bls	101300 <Xil_L2CacheFlushRange+0x70>
  1012e0:	e3a00d9d 	mov	r0, #10048	; 0x2740
  1012e4:	e58647f0 	str	r4, [r6, #2032]	; 0x7f0
  1012e8:	e34f08f0 	movt	r0, #63728	; 0xf8f0
  1012ec:	e2844020 	add	r4, r4, #32
  1012f0:	e3a01000 	mov	r1, #0
  1012f4:	eb00002c 	bl	1013ac <Xil_Out32>
  1012f8:	e1550004 	cmp	r5, r4
  1012fc:	8afffff7 	bhi	1012e0 <Xil_L2CacheFlushRange+0x50>
  101300:	e3a00dbd 	mov	r0, #12096	; 0x2f40
  101304:	e3a01000 	mov	r1, #0
  101308:	e34f08f0 	movt	r0, #63728	; 0xf8f0
  10130c:	eb000026 	bl	1013ac <Xil_Out32>
  101310:	eaffffe4 	b	1012a8 <Xil_L2CacheFlushRange+0x18>

00101314 <Xil_L2CacheStoreLine>:
  101314:	e1a01000 	mov	r1, r0
  101318:	e30207b0 	movw	r0, #10160	; 0x27b0
  10131c:	e92d4008 	push	{r3, lr}
  101320:	e34f08f0 	movt	r0, #63728	; 0xf8f0
  101324:	eb000020 	bl	1013ac <Xil_Out32>
  101328:	f57ff04f 	dsb	sy
  10132c:	e8bd8008 	pop	{r3, pc}

00101330 <Xil_ExceptionNullHandler>:
  101330:	eafffffe 	b	101330 <Xil_ExceptionNullHandler>

00101334 <Xil_DataAbortHandler>:
  101334:	ee153f10 	mrc	15, 0, r3, cr5, cr0, {0}
  101338:	eafffffe 	b	101338 <Xil_DataAbortHandler+0x4>

0010133c <Xil_PrefetchAbortHandler>:
  10133c:	ee153f30 	mrc	15, 0, r3, cr5, cr0, {1}
  101340:	eafffffe 	b	101340 <Xil_PrefetchAbortHandler+0x4>

00101344 <Xil_ExceptionInit>:
  101344:	e12fff1e 	bx	lr

00101348 <Xil_ExceptionRegisterHandler>:
  101348:	e30a3f58 	movw	r3, #44888	; 0xaf58
  10134c:	e3403010 	movt	r3, #16
  101350:	e083c180 	add	ip, r3, r0, lsl #3
  101354:	e7831180 	str	r1, [r3, r0, lsl #3]
  101358:	e58c2004 	str	r2, [ip, #4]
  10135c:	e12fff1e 	bx	lr

00101360 <Xil_ExceptionRemoveHandler>:
  101360:	e30a3f58 	movw	r3, #44888	; 0xaf58
  101364:	e3012330 	movw	r2, #4912	; 0x1330
  101368:	e3403010 	movt	r3, #16
  10136c:	e0831180 	add	r1, r3, r0, lsl #3
  101370:	e3a0c000 	mov	ip, #0
  101374:	e3402010 	movt	r2, #16
  101378:	e581c004 	str	ip, [r1, #4]
  10137c:	e7832180 	str	r2, [r3, r0, lsl #3]
  101380:	e12fff1e 	bx	lr

00101384 <Xil_In8>:
  101384:	e5d00000 	ldrb	r0, [r0]
  101388:	e12fff1e 	bx	lr

0010138c <Xil_In16>:
  10138c:	e1d000b0 	ldrh	r0, [r0]
  101390:	e12fff1e 	bx	lr

00101394 <Xil_In32>:
  101394:	e5900000 	ldr	r0, [r0]
  101398:	e12fff1e 	bx	lr

0010139c <Xil_Out8>:
  10139c:	e5c01000 	strb	r1, [r0]
  1013a0:	e12fff1e 	bx	lr

001013a4 <Xil_Out16>:
  1013a4:	e1c010b0 	strh	r1, [r0]
  1013a8:	e12fff1e 	bx	lr

001013ac <Xil_Out32>:
  1013ac:	e5801000 	str	r1, [r0]
  1013b0:	e12fff1e 	bx	lr

001013b4 <Xil_In16BE>:
  1013b4:	e1d000b0 	ldrh	r0, [r0]
  1013b8:	e6bf0fb0 	rev16	r0, r0
  1013bc:	e6ff0070 	uxth	r0, r0
  1013c0:	e12fff1e 	bx	lr

001013c4 <Xil_In32BE>:
  1013c4:	e5903000 	ldr	r3, [r0]
  1013c8:	e6ff0073 	uxth	r0, r3
  1013cc:	e1a03823 	lsr	r3, r3, #16
  1013d0:	e6bf3fb3 	rev16	r3, r3
  1013d4:	e1a02420 	lsr	r2, r0, #8
  1013d8:	e1820400 	orr	r0, r2, r0, lsl #8
  1013dc:	e6ff3073 	uxth	r3, r3
  1013e0:	e1830800 	orr	r0, r3, r0, lsl #16
  1013e4:	e12fff1e 	bx	lr

001013e8 <Xil_Out16BE>:
  1013e8:	e6bf1fb1 	rev16	r1, r1
  1013ec:	e1c010b0 	strh	r1, [r0]
  1013f0:	e12fff1e 	bx	lr

001013f4 <Xil_Out32BE>:
  1013f4:	e6ff2071 	uxth	r2, r1
  1013f8:	e1a01821 	lsr	r1, r1, #16
  1013fc:	e6bf1fb1 	rev16	r1, r1
  101400:	e1a03422 	lsr	r3, r2, #8
  101404:	e1833402 	orr	r3, r3, r2, lsl #8
  101408:	e6ff1071 	uxth	r1, r1
  10140c:	e1811803 	orr	r1, r1, r3, lsl #16
  101410:	e5801000 	str	r1, [r0]
  101414:	e12fff1e 	bx	lr

00101418 <Xil_EndianSwap16>:
  101418:	e6bf0fb0 	rev16	r0, r0
  10141c:	e6ff0070 	uxth	r0, r0
  101420:	e12fff1e 	bx	lr

00101424 <Xil_EndianSwap32>:
  101424:	e6ff2070 	uxth	r2, r0
  101428:	e1a00820 	lsr	r0, r0, #16
  10142c:	e6bf0fb0 	rev16	r0, r0
  101430:	e1a03422 	lsr	r3, r2, #8
  101434:	e1833402 	orr	r3, r3, r2, lsl #8
  101438:	e6ff0070 	uxth	r0, r0
  10143c:	e1800803 	orr	r0, r0, r3, lsl #16
  101440:	e12fff1e 	bx	lr

00101444 <XTime_SetTime>:
  101444:	e92d4070 	push	{r4, r5, r6, lr}
  101448:	e3a04f82 	mov	r4, #520	; 0x208
  10144c:	e34f48f0 	movt	r4, #63728	; 0xf8f0
  101450:	e1a06000 	mov	r6, r0
  101454:	e1a05001 	mov	r5, r1
  101458:	e1a00004 	mov	r0, r4
  10145c:	e3a01000 	mov	r1, #0
  101460:	ebffffd1 	bl	1013ac <Xil_Out32>
  101464:	e3a00c02 	mov	r0, #512	; 0x200
  101468:	e1a01006 	mov	r1, r6
  10146c:	e34f08f0 	movt	r0, #63728	; 0xf8f0
  101470:	ebffffcd 	bl	1013ac <Xil_Out32>
  101474:	e3a00f81 	mov	r0, #516	; 0x204
  101478:	e1a01005 	mov	r1, r5
  10147c:	e34f08f0 	movt	r0, #63728	; 0xf8f0
  101480:	ebffffc9 	bl	1013ac <Xil_Out32>
  101484:	e1a00004 	mov	r0, r4
  101488:	e3a01001 	mov	r1, #1
  10148c:	e8bd4070 	pop	{r4, r5, r6, lr}
  101490:	eaffffc5 	b	1013ac <Xil_Out32>

00101494 <XTime_GetTime>:
  101494:	e92d41f0 	push	{r4, r5, r6, r7, r8, lr}
  101498:	e1a08000 	mov	r8, r0
  10149c:	e3a00f81 	mov	r0, #516	; 0x204
  1014a0:	e34f08f0 	movt	r0, #63728	; 0xf8f0
  1014a4:	ebffffba 	bl	101394 <Xil_In32>
  1014a8:	e1a04000 	mov	r4, r0
  1014ac:	e3a00c02 	mov	r0, #512	; 0x200
  1014b0:	e34f08f0 	movt	r0, #63728	; 0xf8f0
  1014b4:	ebffffb6 	bl	101394 <Xil_In32>
  1014b8:	e1a05000 	mov	r5, r0
  1014bc:	e3a00f81 	mov	r0, #516	; 0x204
  1014c0:	e34f08f0 	movt	r0, #63728	; 0xf8f0
  1014c4:	ebffffb2 	bl	101394 <Xil_In32>
  1014c8:	e1500004 	cmp	r0, r4
  1014cc:	1afffff2 	bne	10149c <XTime_GetTime+0x8>
  1014d0:	e3a06000 	mov	r6, #0
  1014d4:	e1a07000 	mov	r7, r0
  1014d8:	e1866005 	orr	r6, r6, r5
  1014dc:	e1c860f0 	strd	r6, [r8]
  1014e0:	e8bd81f0 	pop	{r4, r5, r6, r7, r8, pc}

001014e4 <__cpu_init>:
  1014e4:	e3a00000 	mov	r0, #0
  1014e8:	ee050f10 	mcr	15, 0, r0, cr5, cr0, {0}
  1014ec:	ee050f30 	mcr	15, 0, r0, cr5, cr0, {1}
  1014f0:	ee060f10 	mcr	15, 0, r0, cr6, cr0, {0}
  1014f4:	ee060f50 	mcr	15, 0, r0, cr6, cr0, {2}
  1014f8:	ee090f5d 	mcr	15, 0, r0, cr9, cr13, {2}
  1014fc:	ee0d0f50 	mcr	15, 0, r0, cr13, cr0, {2}
  101500:	ee0d0f70 	mcr	15, 0, r0, cr13, cr0, {3}
  101504:	eeaf0f55 	mcr	15, 5, r0, cr15, cr5, {2}
  101508:	e3a02102 	mov	r2, #-2147483648	; 0x80000000
  10150c:	ee092f7c 	mcr	15, 0, r2, cr9, cr12, {3}
  101510:	e3a0200d 	mov	r2, #13
  101514:	ee092f1c 	mcr	15, 0, r2, cr9, cr12, {0}
  101518:	e3a02102 	mov	r2, #-2147483648	; 0x80000000
  10151c:	ee092f3c 	mcr	15, 0, r2, cr9, cr12, {1}
  101520:	e12fff1e 	bx	lr

00101524 <__aeabi_uidiv>:
  101524:	e2512001 	subs	r2, r1, #1
  101528:	012fff1e 	bxeq	lr
  10152c:	3a000074 	bcc	101704 <__aeabi_uidiv+0x1e0>
  101530:	e1500001 	cmp	r0, r1
  101534:	9a00006b 	bls	1016e8 <__aeabi_uidiv+0x1c4>
  101538:	e1110002 	tst	r1, r2
  10153c:	0a00006c 	beq	1016f4 <__aeabi_uidiv+0x1d0>
  101540:	e16f3f10 	clz	r3, r0
  101544:	e16f2f11 	clz	r2, r1
  101548:	e0423003 	sub	r3, r2, r3
  10154c:	e273301f 	rsbs	r3, r3, #31
  101550:	10833083 	addne	r3, r3, r3, lsl #1
  101554:	e3a02000 	mov	r2, #0
  101558:	108ff103 	addne	pc, pc, r3, lsl #2
  10155c:	e320f000 	nop	{0}
  101560:	e1500f81 	cmp	r0, r1, lsl #31
  101564:	e0a22002 	adc	r2, r2, r2
  101568:	20400f81 	subcs	r0, r0, r1, lsl #31
  10156c:	e1500f01 	cmp	r0, r1, lsl #30
  101570:	e0a22002 	adc	r2, r2, r2
  101574:	20400f01 	subcs	r0, r0, r1, lsl #30
  101578:	e1500e81 	cmp	r0, r1, lsl #29
  10157c:	e0a22002 	adc	r2, r2, r2
  101580:	20400e81 	subcs	r0, r0, r1, lsl #29
  101584:	e1500e01 	cmp	r0, r1, lsl #28
  101588:	e0a22002 	adc	r2, r2, r2
  10158c:	20400e01 	subcs	r0, r0, r1, lsl #28
  101590:	e1500d81 	cmp	r0, r1, lsl #27
  101594:	e0a22002 	adc	r2, r2, r2
  101598:	20400d81 	subcs	r0, r0, r1, lsl #27
  10159c:	e1500d01 	cmp	r0, r1, lsl #26
  1015a0:	e0a22002 	adc	r2, r2, r2
  1015a4:	20400d01 	subcs	r0, r0, r1, lsl #26
  1015a8:	e1500c81 	cmp	r0, r1, lsl #25
  1015ac:	e0a22002 	adc	r2, r2, r2
  1015b0:	20400c81 	subcs	r0, r0, r1, lsl #25
  1015b4:	e1500c01 	cmp	r0, r1, lsl #24
  1015b8:	e0a22002 	adc	r2, r2, r2
  1015bc:	20400c01 	subcs	r0, r0, r1, lsl #24
  1015c0:	e1500b81 	cmp	r0, r1, lsl #23
  1015c4:	e0a22002 	adc	r2, r2, r2
  1015c8:	20400b81 	subcs	r0, r0, r1, lsl #23
  1015cc:	e1500b01 	cmp	r0, r1, lsl #22
  1015d0:	e0a22002 	adc	r2, r2, r2
  1015d4:	20400b01 	subcs	r0, r0, r1, lsl #22
  1015d8:	e1500a81 	cmp	r0, r1, lsl #21
  1015dc:	e0a22002 	adc	r2, r2, r2
  1015e0:	20400a81 	subcs	r0, r0, r1, lsl #21
  1015e4:	e1500a01 	cmp	r0, r1, lsl #20
  1015e8:	e0a22002 	adc	r2, r2, r2
  1015ec:	20400a01 	subcs	r0, r0, r1, lsl #20
  1015f0:	e1500981 	cmp	r0, r1, lsl #19
  1015f4:	e0a22002 	adc	r2, r2, r2
  1015f8:	20400981 	subcs	r0, r0, r1, lsl #19
  1015fc:	e1500901 	cmp	r0, r1, lsl #18
  101600:	e0a22002 	adc	r2, r2, r2
  101604:	20400901 	subcs	r0, r0, r1, lsl #18
  101608:	e1500881 	cmp	r0, r1, lsl #17
  10160c:	e0a22002 	adc	r2, r2, r2
  101610:	20400881 	subcs	r0, r0, r1, lsl #17
  101614:	e1500801 	cmp	r0, r1, lsl #16
  101618:	e0a22002 	adc	r2, r2, r2
  10161c:	20400801 	subcs	r0, r0, r1, lsl #16
  101620:	e1500781 	cmp	r0, r1, lsl #15
  101624:	e0a22002 	adc	r2, r2, r2
  101628:	20400781 	subcs	r0, r0, r1, lsl #15
  10162c:	e1500701 	cmp	r0, r1, lsl #14
  101630:	e0a22002 	adc	r2, r2, r2
  101634:	20400701 	subcs	r0, r0, r1, lsl #14
  101638:	e1500681 	cmp	r0, r1, lsl #13
  10163c:	e0a22002 	adc	r2, r2, r2
  101640:	20400681 	subcs	r0, r0, r1, lsl #13
  101644:	e1500601 	cmp	r0, r1, lsl #12
  101648:	e0a22002 	adc	r2, r2, r2
  10164c:	20400601 	subcs	r0, r0, r1, lsl #12
  101650:	e1500581 	cmp	r0, r1, lsl #11
  101654:	e0a22002 	adc	r2, r2, r2
  101658:	20400581 	subcs	r0, r0, r1, lsl #11
  10165c:	e1500501 	cmp	r0, r1, lsl #10
  101660:	e0a22002 	adc	r2, r2, r2
  101664:	20400501 	subcs	r0, r0, r1, lsl #10
  101668:	e1500481 	cmp	r0, r1, lsl #9
  10166c:	e0a22002 	adc	r2, r2, r2
  101670:	20400481 	subcs	r0, r0, r1, lsl #9
  101674:	e1500401 	cmp	r0, r1, lsl #8
  101678:	e0a22002 	adc	r2, r2, r2
  10167c:	20400401 	subcs	r0, r0, r1, lsl #8
  101680:	e1500381 	cmp	r0, r1, lsl #7
  101684:	e0a22002 	adc	r2, r2, r2
  101688:	20400381 	subcs	r0, r0, r1, lsl #7
  10168c:	e1500301 	cmp	r0, r1, lsl #6
  101690:	e0a22002 	adc	r2, r2, r2
  101694:	20400301 	subcs	r0, r0, r1, lsl #6
  101698:	e1500281 	cmp	r0, r1, lsl #5
  10169c:	e0a22002 	adc	r2, r2, r2
  1016a0:	20400281 	subcs	r0, r0, r1, lsl #5
  1016a4:	e1500201 	cmp	r0, r1, lsl #4
  1016a8:	e0a22002 	adc	r2, r2, r2
  1016ac:	20400201 	subcs	r0, r0, r1, lsl #4
  1016b0:	e1500181 	cmp	r0, r1, lsl #3
  1016b4:	e0a22002 	adc	r2, r2, r2
  1016b8:	20400181 	subcs	r0, r0, r1, lsl #3
  1016bc:	e1500101 	cmp	r0, r1, lsl #2
  1016c0:	e0a22002 	adc	r2, r2, r2
  1016c4:	20400101 	subcs	r0, r0, r1, lsl #2
  1016c8:	e1500081 	cmp	r0, r1, lsl #1
  1016cc:	e0a22002 	adc	r2, r2, r2
  1016d0:	20400081 	subcs	r0, r0, r1, lsl #1
  1016d4:	e1500001 	cmp	r0, r1
  1016d8:	e0a22002 	adc	r2, r2, r2
  1016dc:	20400001 	subcs	r0, r0, r1
  1016e0:	e1a00002 	mov	r0, r2
  1016e4:	e12fff1e 	bx	lr
  1016e8:	03a00001 	moveq	r0, #1
  1016ec:	13a00000 	movne	r0, #0
  1016f0:	e12fff1e 	bx	lr
  1016f4:	e16f2f11 	clz	r2, r1
  1016f8:	e262201f 	rsb	r2, r2, #31
  1016fc:	e1a00230 	lsr	r0, r0, r2
  101700:	e12fff1e 	bx	lr
  101704:	e3500000 	cmp	r0, #0
  101708:	13e00000 	mvnne	r0, #0
  10170c:	ea000007 	b	101730 <__aeabi_idiv0>

00101710 <__aeabi_uidivmod>:
  101710:	e3510000 	cmp	r1, #0
  101714:	0afffffa 	beq	101704 <__aeabi_uidiv+0x1e0>
  101718:	e92d4003 	push	{r0, r1, lr}
  10171c:	ebffff80 	bl	101524 <__aeabi_uidiv>
  101720:	e8bd4006 	pop	{r1, r2, lr}
  101724:	e0030092 	mul	r3, r2, r0
  101728:	e0411003 	sub	r1, r1, r3
  10172c:	e12fff1e 	bx	lr

00101730 <__aeabi_idiv0>:
  101730:	e12fff1e 	bx	lr

00101734 <exit>:
  101734:	e92d4008 	push	{r3, lr}
  101738:	e3a01000 	mov	r1, #0
  10173c:	e1a04000 	mov	r4, r0
  101740:	eb000890 	bl	103988 <__call_exitprocs>
  101744:	e30a3d74 	movw	r3, #44404	; 0xad74
  101748:	e3403010 	movt	r3, #16
  10174c:	e5930000 	ldr	r0, [r3]
  101750:	e590303c 	ldr	r3, [r0, #60]	; 0x3c
  101754:	e3530000 	cmp	r3, #0
  101758:	0a000000 	beq	101760 <exit+0x2c>
  10175c:	e12fff33 	blx	r3
  101760:	e1a00004 	mov	r0, r4
  101764:	eb00233f 	bl	10a468 <_exit>

00101768 <__libc_fini_array>:
  101768:	e92d4038 	push	{r3, r4, r5, lr}
  10176c:	e3003014 	movw	r3, #20
  101770:	e3005010 	movw	r5, #16
  101774:	e3403011 	movt	r3, #17
  101778:	e3405011 	movt	r5, #17
  10177c:	e0653003 	rsb	r3, r5, r3
  101780:	e1b04143 	asrs	r4, r3, #2
  101784:	10835005 	addne	r5, r3, r5
  101788:	0a000004 	beq	1017a0 <__libc_fini_array+0x38>
  10178c:	e2444001 	sub	r4, r4, #1
  101790:	e5353004 	ldr	r3, [r5, #-4]!
  101794:	e12fff33 	blx	r3
  101798:	e3540000 	cmp	r4, #0
  10179c:	1afffffa 	bne	10178c <__libc_fini_array+0x24>
  1017a0:	e8bd4038 	pop	{r3, r4, r5, lr}
  1017a4:	ea002566 	b	10ad44 <_fini>

001017a8 <__libc_init_array>:
  1017a8:	e92d4070 	push	{r4, r5, r6, lr}
  1017ac:	e3006008 	movw	r6, #8
  1017b0:	e3005008 	movw	r5, #8
  1017b4:	e3406011 	movt	r6, #17
  1017b8:	e3405011 	movt	r5, #17
  1017bc:	e0656006 	rsb	r6, r5, r6
  1017c0:	e1b06146 	asrs	r6, r6, #2
  1017c4:	13a04000 	movne	r4, #0
  1017c8:	0a000004 	beq	1017e0 <__libc_init_array+0x38>
  1017cc:	e2844001 	add	r4, r4, #1
  1017d0:	e4953004 	ldr	r3, [r5], #4
  1017d4:	e12fff33 	blx	r3
  1017d8:	e1560004 	cmp	r6, r4
  1017dc:	1afffffa 	bne	1017cc <__libc_init_array+0x24>
  1017e0:	e3006010 	movw	r6, #16
  1017e4:	e3005008 	movw	r5, #8
  1017e8:	e3406011 	movt	r6, #17
  1017ec:	e3405011 	movt	r5, #17
  1017f0:	e0656006 	rsb	r6, r5, r6
  1017f4:	eb00254c 	bl	10ad2c <_init>
  1017f8:	e1b06146 	asrs	r6, r6, #2
  1017fc:	0a000006 	beq	10181c <__libc_init_array+0x74>
  101800:	e3a04000 	mov	r4, #0
  101804:	e2844001 	add	r4, r4, #1
  101808:	e4953004 	ldr	r3, [r5], #4
  10180c:	e12fff33 	blx	r3
  101810:	e1560004 	cmp	r6, r4
  101814:	1afffffa 	bne	101804 <__libc_init_array+0x5c>
  101818:	e8bd8070 	pop	{r4, r5, r6, pc}
  10181c:	e8bd8070 	pop	{r4, r5, r6, pc}

00101820 <_printf_r>:
  101820:	e92d000e 	push	{r1, r2, r3}
  101824:	e52de004 	push	{lr}		; (str lr, [sp, #-4]!)
  101828:	e24dd008 	sub	sp, sp, #8
  10182c:	e28dc010 	add	ip, sp, #16
  101830:	e5901008 	ldr	r1, [r0, #8]
  101834:	e59d200c 	ldr	r2, [sp, #12]
  101838:	e1a0300c 	mov	r3, ip
  10183c:	e58dc004 	str	ip, [sp, #4]
  101840:	eb000014 	bl	101898 <_vfprintf_r>
  101844:	e28dd008 	add	sp, sp, #8
  101848:	e49de004 	pop	{lr}		; (ldr lr, [sp], #4)
  10184c:	e28dd00c 	add	sp, sp, #12
  101850:	e12fff1e 	bx	lr

00101854 <printf>:
  101854:	e92d000f 	push	{r0, r1, r2, r3}
  101858:	e30a1f90 	movw	r1, #44944	; 0xaf90
  10185c:	e3401010 	movt	r1, #16
  101860:	e52de004 	push	{lr}		; (str lr, [sp, #-4]!)
  101864:	e24dd00c 	sub	sp, sp, #12
  101868:	e5910000 	ldr	r0, [r1]
  10186c:	e28dc014 	add	ip, sp, #20
  101870:	e59d2010 	ldr	r2, [sp, #16]
  101874:	e1a0300c 	mov	r3, ip
  101878:	e58dc004 	str	ip, [sp, #4]
  10187c:	e5901008 	ldr	r1, [r0, #8]
  101880:	eb000004 	bl	101898 <_vfprintf_r>
  101884:	e28dd00c 	add	sp, sp, #12
  101888:	e49de004 	pop	{lr}		; (ldr lr, [sp], #4)
  10188c:	e28dd010 	add	sp, sp, #16
  101890:	e12fff1e 	bx	lr
  101894:	00000000 	andeq	r0, r0, r0

00101898 <_vfprintf_r>:
  101898:	e92d4ff0 	push	{r4, r5, r6, r7, r8, r9, sl, fp, lr}
  10189c:	e1a04003 	mov	r4, r3
  1018a0:	ed2d8b04 	vpush	{d8-d9}
  1018a4:	e1a0b001 	mov	fp, r1
  1018a8:	e1a05000 	mov	r5, r0
  1018ac:	e24ddf43 	sub	sp, sp, #268	; 0x10c
  1018b0:	e58d2024 	str	r2, [sp, #36]	; 0x24
  1018b4:	e58d0028 	str	r0, [sp, #40]	; 0x28
  1018b8:	eb001065 	bl	105a54 <_localeconv_r>
  1018bc:	e58d4034 	str	r4, [sp, #52]	; 0x34
  1018c0:	e5903000 	ldr	r3, [r0]
  1018c4:	e1a00003 	mov	r0, r3
  1018c8:	e58d3054 	str	r3, [sp, #84]	; 0x54
  1018cc:	fa0018ab 	blx	107b80 <strlen>
  1018d0:	e3550000 	cmp	r5, #0
  1018d4:	e58d0058 	str	r0, [sp, #88]	; 0x58
  1018d8:	0a000002 	beq	1018e8 <_vfprintf_r+0x50>
  1018dc:	e5953038 	ldr	r3, [r5, #56]	; 0x38
  1018e0:	e3530000 	cmp	r3, #0
  1018e4:	0a0000d0 	beq	101c2c <_vfprintf_r+0x394>
  1018e8:	e1db30bc 	ldrh	r3, [fp, #12]
  1018ec:	e6ff2073 	uxth	r2, r3
  1018f0:	e3120a02 	tst	r2, #8192	; 0x2000
  1018f4:	1a000005 	bne	101910 <_vfprintf_r+0x78>
  1018f8:	e3832a02 	orr	r2, r3, #8192	; 0x2000
  1018fc:	e59b3064 	ldr	r3, [fp, #100]	; 0x64
  101900:	e1cb20bc 	strh	r2, [fp, #12]
  101904:	e6ff2072 	uxth	r2, r2
  101908:	e3c33a02 	bic	r3, r3, #8192	; 0x2000
  10190c:	e58b3064 	str	r3, [fp, #100]	; 0x64
  101910:	e3120008 	tst	r2, #8
  101914:	0a000099 	beq	101b80 <_vfprintf_r+0x2e8>
  101918:	e59b3010 	ldr	r3, [fp, #16]
  10191c:	e3530000 	cmp	r3, #0
  101920:	0a000096 	beq	101b80 <_vfprintf_r+0x2e8>
  101924:	e202201a 	and	r2, r2, #26
  101928:	e352000a 	cmp	r2, #10
  10192c:	0a0000b3 	beq	101c00 <_vfprintf_r+0x368>
  101930:	ed9f8bee 	vldr	d8, [pc, #952]	; 101cf0 <_vfprintf_r+0x458>
  101934:	e28d80c8 	add	r8, sp, #200	; 0xc8
  101938:	e30a1d78 	movw	r1, #44408	; 0xad78
  10193c:	e3060667 	movw	r0, #26215	; 0x6667
  101940:	e1a09008 	mov	r9, r8
  101944:	e3a03000 	mov	r3, #0
  101948:	e3401010 	movt	r1, #16
  10194c:	e3460666 	movt	r0, #26214	; 0x6666
  101950:	e58d304c 	str	r3, [sp, #76]	; 0x4c
  101954:	e58d305c 	str	r3, [sp, #92]	; 0x5c
  101958:	e58d3068 	str	r3, [sp, #104]	; 0x68
  10195c:	e58d302c 	str	r3, [sp, #44]	; 0x2c
  101960:	e58d1050 	str	r1, [sp, #80]	; 0x50
  101964:	e58d006c 	str	r0, [sp, #108]	; 0x6c
  101968:	e58d309c 	str	r3, [sp, #156]	; 0x9c
  10196c:	e58d3098 	str	r3, [sp, #152]	; 0x98
  101970:	e58d8094 	str	r8, [sp, #148]	; 0x94
  101974:	e59d4024 	ldr	r4, [sp, #36]	; 0x24
  101978:	e5d43000 	ldrb	r3, [r4]
  10197c:	e3530025 	cmp	r3, #37	; 0x25
  101980:	13530000 	cmpne	r3, #0
  101984:	0a0000ab 	beq	101c38 <_vfprintf_r+0x3a0>
  101988:	e5f43001 	ldrb	r3, [r4, #1]!
  10198c:	e3530025 	cmp	r3, #37	; 0x25
  101990:	13530000 	cmpne	r3, #0
  101994:	1afffffb 	bne	101988 <_vfprintf_r+0xf0>
  101998:	e59d2024 	ldr	r2, [sp, #36]	; 0x24
  10199c:	e0545002 	subs	r5, r4, r2
  1019a0:	0a00000d 	beq	1019dc <_vfprintf_r+0x144>
  1019a4:	e59d3098 	ldr	r3, [sp, #152]	; 0x98
  1019a8:	e5892000 	str	r2, [r9]
  1019ac:	e2833001 	add	r3, r3, #1
  1019b0:	e59d209c 	ldr	r2, [sp, #156]	; 0x9c
  1019b4:	e3530007 	cmp	r3, #7
  1019b8:	e5895004 	str	r5, [r9, #4]
  1019bc:	e58d3098 	str	r3, [sp, #152]	; 0x98
  1019c0:	d2899008 	addle	r9, r9, #8
  1019c4:	e0823005 	add	r3, r2, r5
  1019c8:	e58d309c 	str	r3, [sp, #156]	; 0x9c
  1019cc:	ca000075 	bgt	101ba8 <_vfprintf_r+0x310>
  1019d0:	e59d302c 	ldr	r3, [sp, #44]	; 0x2c
  1019d4:	e0833005 	add	r3, r3, r5
  1019d8:	e58d302c 	str	r3, [sp, #44]	; 0x2c
  1019dc:	e5d43000 	ldrb	r3, [r4]
  1019e0:	e3530000 	cmp	r3, #0
  1019e4:	0a000077 	beq	101bc8 <_vfprintf_r+0x330>
  1019e8:	e5d46001 	ldrb	r6, [r4, #1]
  1019ec:	e3a03000 	mov	r3, #0
  1019f0:	e2841001 	add	r1, r4, #1
  1019f4:	e1a02003 	mov	r2, r3
  1019f8:	e5cd3077 	strb	r3, [sp, #119]	; 0x77
  1019fc:	e58d3030 	str	r3, [sp, #48]	; 0x30
  101a00:	e58d301c 	str	r3, [sp, #28]
  101a04:	e3e07000 	mvn	r7, #0
  101a08:	e2813001 	add	r3, r1, #1
  101a0c:	e2461020 	sub	r1, r6, #32
  101a10:	e3510058 	cmp	r1, #88	; 0x58
  101a14:	979ff101 	ldrls	pc, [pc, r1, lsl #2]
  101a18:	ea000266 	b	1023b8 <_vfprintf_r+0xb20>
  101a1c:	00101fa8 	andseq	r1, r0, r8, lsr #31
  101a20:	001023b8 			; <UNDEFINED> instruction: 0x001023b8
  101a24:	001023b8 			; <UNDEFINED> instruction: 0x001023b8
  101a28:	00101fbc 			; <UNDEFINED> instruction: 0x00101fbc
  101a2c:	001023b8 			; <UNDEFINED> instruction: 0x001023b8
  101a30:	001023b8 			; <UNDEFINED> instruction: 0x001023b8
  101a34:	001023b8 			; <UNDEFINED> instruction: 0x001023b8
  101a38:	001023b8 			; <UNDEFINED> instruction: 0x001023b8
  101a3c:	001023b8 			; <UNDEFINED> instruction: 0x001023b8
  101a40:	001023b8 			; <UNDEFINED> instruction: 0x001023b8
  101a44:	00101fd4 			; <UNDEFINED> instruction: 0x00101fd4
  101a48:	00101ffc 			; <UNDEFINED> instruction: 0x00101ffc
  101a4c:	001023b8 			; <UNDEFINED> instruction: 0x001023b8
  101a50:	00101e80 	andseq	r1, r0, r0, lsl #29
  101a54:	00102264 	andseq	r2, r0, r4, ror #4
  101a58:	001023b8 			; <UNDEFINED> instruction: 0x001023b8
  101a5c:	0010200c 	andseq	r2, r0, ip
  101a60:	00102024 	andseq	r2, r0, r4, lsr #32
  101a64:	00102024 	andseq	r2, r0, r4, lsr #32
  101a68:	00102024 	andseq	r2, r0, r4, lsr #32
  101a6c:	00102024 	andseq	r2, r0, r4, lsr #32
  101a70:	00102024 	andseq	r2, r0, r4, lsr #32
  101a74:	00102024 	andseq	r2, r0, r4, lsr #32
  101a78:	00102024 	andseq	r2, r0, r4, lsr #32
  101a7c:	00102024 	andseq	r2, r0, r4, lsr #32
  101a80:	00102024 	andseq	r2, r0, r4, lsr #32
  101a84:	001023b8 			; <UNDEFINED> instruction: 0x001023b8
  101a88:	001023b8 			; <UNDEFINED> instruction: 0x001023b8
  101a8c:	001023b8 			; <UNDEFINED> instruction: 0x001023b8
  101a90:	001023b8 			; <UNDEFINED> instruction: 0x001023b8
  101a94:	001023b8 			; <UNDEFINED> instruction: 0x001023b8
  101a98:	001023b8 			; <UNDEFINED> instruction: 0x001023b8
  101a9c:	001023b8 			; <UNDEFINED> instruction: 0x001023b8
  101aa0:	001023b8 			; <UNDEFINED> instruction: 0x001023b8
  101aa4:	001023b8 			; <UNDEFINED> instruction: 0x001023b8
  101aa8:	001023b8 			; <UNDEFINED> instruction: 0x001023b8
  101aac:	001020ac 	andseq	r2, r0, ip, lsr #1
  101ab0:	00102108 	andseq	r2, r0, r8, lsl #2
  101ab4:	001023b8 			; <UNDEFINED> instruction: 0x001023b8
  101ab8:	00102108 	andseq	r2, r0, r8, lsl #2
  101abc:	001023b8 			; <UNDEFINED> instruction: 0x001023b8
  101ac0:	001023b8 			; <UNDEFINED> instruction: 0x001023b8
  101ac4:	001023b8 			; <UNDEFINED> instruction: 0x001023b8
  101ac8:	001023b8 			; <UNDEFINED> instruction: 0x001023b8
  101acc:	00102190 	mulseq	r0, r0, r1
  101ad0:	001023b8 			; <UNDEFINED> instruction: 0x001023b8
  101ad4:	001023b8 			; <UNDEFINED> instruction: 0x001023b8
  101ad8:	001022a8 	andseq	r2, r0, r8, lsr #5
  101adc:	001023b8 			; <UNDEFINED> instruction: 0x001023b8
  101ae0:	001023b8 			; <UNDEFINED> instruction: 0x001023b8
  101ae4:	001023b8 			; <UNDEFINED> instruction: 0x001023b8
  101ae8:	001023b8 			; <UNDEFINED> instruction: 0x001023b8
  101aec:	001023b8 			; <UNDEFINED> instruction: 0x001023b8
  101af0:	00102374 	andseq	r2, r0, r4, ror r3
  101af4:	001023b8 			; <UNDEFINED> instruction: 0x001023b8
  101af8:	001023b8 			; <UNDEFINED> instruction: 0x001023b8
  101afc:	001022ec 	andseq	r2, r0, ip, ror #5
  101b00:	001023b8 			; <UNDEFINED> instruction: 0x001023b8
  101b04:	001023b8 			; <UNDEFINED> instruction: 0x001023b8
  101b08:	001023b8 			; <UNDEFINED> instruction: 0x001023b8
  101b0c:	001023b8 			; <UNDEFINED> instruction: 0x001023b8
  101b10:	001023b8 			; <UNDEFINED> instruction: 0x001023b8
  101b14:	001023b8 			; <UNDEFINED> instruction: 0x001023b8
  101b18:	001023b8 			; <UNDEFINED> instruction: 0x001023b8
  101b1c:	001023b8 			; <UNDEFINED> instruction: 0x001023b8
  101b20:	001023b8 			; <UNDEFINED> instruction: 0x001023b8
  101b24:	001023b8 			; <UNDEFINED> instruction: 0x001023b8
  101b28:	00102330 	andseq	r2, r0, r0, lsr r3
  101b2c:	001021a8 	andseq	r2, r0, r8, lsr #3
  101b30:	00102108 	andseq	r2, r0, r8, lsl #2
  101b34:	00102108 	andseq	r2, r0, r8, lsl #2
  101b38:	00102108 	andseq	r2, r0, r8, lsl #2
  101b3c:	001021e8 	andseq	r2, r0, r8, ror #3
  101b40:	001021a8 	andseq	r2, r0, r8, lsr #3
  101b44:	001023b8 			; <UNDEFINED> instruction: 0x001023b8
  101b48:	001023b8 			; <UNDEFINED> instruction: 0x001023b8
  101b4c:	00102200 	andseq	r2, r0, r0, lsl #4
  101b50:	001023b8 			; <UNDEFINED> instruction: 0x001023b8
  101b54:	0010222c 	andseq	r2, r0, ip, lsr #4
  101b58:	00101e98 	mulseq	r0, r8, lr
  101b5c:	0010204c 	andseq	r2, r0, ip, asr #32
  101b60:	00102094 	mulseq	r0, r4, r0
  101b64:	001023b8 			; <UNDEFINED> instruction: 0x001023b8
  101b68:	00101ec8 	andseq	r1, r0, r8, asr #29
  101b6c:	001023b8 			; <UNDEFINED> instruction: 0x001023b8
  101b70:	00101c40 	andseq	r1, r0, r0, asr #24
  101b74:	001023b8 			; <UNDEFINED> instruction: 0x001023b8
  101b78:	001023b8 			; <UNDEFINED> instruction: 0x001023b8
  101b7c:	00101f3c 	andseq	r1, r0, ip, lsr pc
  101b80:	e59d0028 	ldr	r0, [sp, #40]	; 0x28
  101b84:	e1a0100b 	mov	r1, fp
  101b88:	eb000728 	bl	103830 <__swsetup_r>
  101b8c:	e3500000 	cmp	r0, #0
  101b90:	01db20bc 	ldrheq	r2, [fp, #12]
  101b94:	0affff62 	beq	101924 <_vfprintf_r+0x8c>
  101b98:	e3e00000 	mvn	r0, #0
  101b9c:	e28ddf43 	add	sp, sp, #268	; 0x10c
  101ba0:	ecbd8b04 	vpop	{d8-d9}
  101ba4:	e8bd8ff0 	pop	{r4, r5, r6, r7, r8, r9, sl, fp, pc}
  101ba8:	e59d0028 	ldr	r0, [sp, #40]	; 0x28
  101bac:	e1a0100b 	mov	r1, fp
  101bb0:	e28d2094 	add	r2, sp, #148	; 0x94
  101bb4:	eb00185a 	bl	107d24 <__sprint_r>
  101bb8:	e3500000 	cmp	r0, #0
  101bbc:	1a000008 	bne	101be4 <_vfprintf_r+0x34c>
  101bc0:	e1a09008 	mov	r9, r8
  101bc4:	eaffff81 	b	1019d0 <_vfprintf_r+0x138>
  101bc8:	e59d309c 	ldr	r3, [sp, #156]	; 0x9c
  101bcc:	e3530000 	cmp	r3, #0
  101bd0:	0a000003 	beq	101be4 <_vfprintf_r+0x34c>
  101bd4:	e59d0028 	ldr	r0, [sp, #40]	; 0x28
  101bd8:	e1a0100b 	mov	r1, fp
  101bdc:	e28d2094 	add	r2, sp, #148	; 0x94
  101be0:	eb00184f 	bl	107d24 <__sprint_r>
  101be4:	e1db30bc 	ldrh	r3, [fp, #12]
  101be8:	e3130040 	tst	r3, #64	; 0x40
  101bec:	1affffe9 	bne	101b98 <_vfprintf_r+0x300>
  101bf0:	e59d002c 	ldr	r0, [sp, #44]	; 0x2c
  101bf4:	e28ddf43 	add	sp, sp, #268	; 0x10c
  101bf8:	ecbd8b04 	vpop	{d8-d9}
  101bfc:	e8bd8ff0 	pop	{r4, r5, r6, r7, r8, r9, sl, fp, pc}
  101c00:	e1db30fe 	ldrsh	r3, [fp, #14]
  101c04:	e3530000 	cmp	r3, #0
  101c08:	baffff48 	blt	101930 <_vfprintf_r+0x98>
  101c0c:	e59d0028 	ldr	r0, [sp, #40]	; 0x28
  101c10:	e1a0100b 	mov	r1, fp
  101c14:	e59d2024 	ldr	r2, [sp, #36]	; 0x24
  101c18:	e1a03004 	mov	r3, r4
  101c1c:	eb0006d9 	bl	103788 <__sbprintf>
  101c20:	e28ddf43 	add	sp, sp, #268	; 0x10c
  101c24:	ecbd8b04 	vpop	{d8-d9}
  101c28:	e8bd8ff0 	pop	{r4, r5, r6, r7, r8, r9, sl, fp, pc}
  101c2c:	e59d0028 	ldr	r0, [sp, #40]	; 0x28
  101c30:	eb000e1e 	bl	1054b0 <__sinit>
  101c34:	eaffff2b 	b	1018e8 <_vfprintf_r+0x50>
  101c38:	e59d4024 	ldr	r4, [sp, #36]	; 0x24
  101c3c:	eaffff66 	b	1019dc <_vfprintf_r+0x144>
  101c40:	e58d3024 	str	r3, [sp, #36]	; 0x24
  101c44:	e59d301c 	ldr	r3, [sp, #28]
  101c48:	e3130020 	tst	r3, #32
  101c4c:	0a0001cf 	beq	102390 <_vfprintf_r+0xaf8>
  101c50:	e59d3034 	ldr	r3, [sp, #52]	; 0x34
  101c54:	e3a02001 	mov	r2, #1
  101c58:	e2833007 	add	r3, r3, #7
  101c5c:	e3c33007 	bic	r3, r3, #7
  101c60:	e2831008 	add	r1, r3, #8
  101c64:	e58d1034 	str	r1, [sp, #52]	; 0x34
  101c68:	e1c340d0 	ldrd	r4, [r3]
  101c6c:	e3a03000 	mov	r3, #0
  101c70:	e58d7044 	str	r7, [sp, #68]	; 0x44
  101c74:	e1a0a003 	mov	sl, r3
  101c78:	e5cd3077 	strb	r3, [sp, #119]	; 0x77
  101c7c:	e3570000 	cmp	r7, #0
  101c80:	a59d301c 	ldrge	r3, [sp, #28]
  101c84:	a3c33080 	bicge	r3, r3, #128	; 0x80
  101c88:	a58d301c 	strge	r3, [sp, #28]
  101c8c:	e1943005 	orrs	r3, r4, r5
  101c90:	13a03001 	movne	r3, #1
  101c94:	03a03000 	moveq	r3, #0
  101c98:	e3570000 	cmp	r7, #0
  101c9c:	13833001 	orrne	r3, r3, #1
  101ca0:	e3530000 	cmp	r3, #0
  101ca4:	0a0002cc 	beq	1027dc <_vfprintf_r+0xf44>
  101ca8:	e3520001 	cmp	r2, #1
  101cac:	0a0003a1 	beq	102b38 <_vfprintf_r+0x12a0>
  101cb0:	e3520002 	cmp	r2, #2
  101cb4:	e1a02008 	mov	r2, r8
  101cb8:	1a00000f 	bne	101cfc <_vfprintf_r+0x464>
  101cbc:	e59d105c 	ldr	r1, [sp, #92]	; 0x5c
  101cc0:	e204300f 	and	r3, r4, #15
  101cc4:	e1a04224 	lsr	r4, r4, #4
  101cc8:	e1844e05 	orr	r4, r4, r5, lsl #28
  101ccc:	e1a05225 	lsr	r5, r5, #4
  101cd0:	e7d13003 	ldrb	r3, [r1, r3]
  101cd4:	e1940005 	orrs	r0, r4, r5
  101cd8:	e5623001 	strb	r3, [r2, #-1]!
  101cdc:	1afffff7 	bne	101cc0 <_vfprintf_r+0x428>
  101ce0:	e1a03002 	mov	r3, r2
  101ce4:	e58d2040 	str	r2, [sp, #64]	; 0x40
  101ce8:	e0635008 	rsb	r5, r3, r8
  101cec:	ea000019 	b	101d58 <_vfprintf_r+0x4c0>
	...
  101cf8:	0010ad88 	andseq	sl, r0, r8, lsl #27
  101cfc:	e2043007 	and	r3, r4, #7
  101d00:	e1a041a4 	lsr	r4, r4, #3
  101d04:	e1844e85 	orr	r4, r4, r5, lsl #29
  101d08:	e1a051a5 	lsr	r5, r5, #3
  101d0c:	e1941005 	orrs	r1, r4, r5
  101d10:	e2833030 	add	r3, r3, #48	; 0x30
  101d14:	e5623001 	strb	r3, [r2, #-1]!
  101d18:	1afffff7 	bne	101cfc <_vfprintf_r+0x464>
  101d1c:	e59d101c 	ldr	r1, [sp, #28]
  101d20:	e58d2040 	str	r2, [sp, #64]	; 0x40
  101d24:	e3110001 	tst	r1, #1
  101d28:	01a03002 	moveq	r3, r2
  101d2c:	00635008 	rsbeq	r5, r3, r8
  101d30:	0a000008 	beq	101d58 <_vfprintf_r+0x4c0>
  101d34:	e3530030 	cmp	r3, #48	; 0x30
  101d38:	e59d3040 	ldr	r3, [sp, #64]	; 0x40
  101d3c:	0affffe9 	beq	101ce8 <_vfprintf_r+0x450>
  101d40:	e2433001 	sub	r3, r3, #1
  101d44:	e58d3040 	str	r3, [sp, #64]	; 0x40
  101d48:	e1a01003 	mov	r1, r3
  101d4c:	e0615008 	rsb	r5, r1, r8
  101d50:	e3a03030 	mov	r3, #48	; 0x30
  101d54:	e5423001 	strb	r3, [r2, #-1]
  101d58:	e1550007 	cmp	r5, r7
  101d5c:	e3a03000 	mov	r3, #0
  101d60:	e58d3048 	str	r3, [sp, #72]	; 0x48
  101d64:	a1a03005 	movge	r3, r5
  101d68:	b1a03007 	movlt	r3, r7
  101d6c:	e58d3020 	str	r3, [sp, #32]
  101d70:	e35a0000 	cmp	sl, #0
  101d74:	0a000002 	beq	101d84 <_vfprintf_r+0x4ec>
  101d78:	e59d3020 	ldr	r3, [sp, #32]
  101d7c:	e2833001 	add	r3, r3, #1
  101d80:	e58d3020 	str	r3, [sp, #32]
  101d84:	e59d301c 	ldr	r3, [sp, #28]
  101d88:	e2133002 	ands	r3, r3, #2
  101d8c:	e58d3038 	str	r3, [sp, #56]	; 0x38
  101d90:	159d3020 	ldrne	r3, [sp, #32]
  101d94:	12833002 	addne	r3, r3, #2
  101d98:	158d3020 	strne	r3, [sp, #32]
  101d9c:	e59d301c 	ldr	r3, [sp, #28]
  101da0:	e2133084 	ands	r3, r3, #132	; 0x84
  101da4:	e58d303c 	str	r3, [sp, #60]	; 0x3c
  101da8:	1a00019a 	bne	102418 <_vfprintf_r+0xb80>
  101dac:	e59d3030 	ldr	r3, [sp, #48]	; 0x30
  101db0:	e59d2020 	ldr	r2, [sp, #32]
  101db4:	e0624003 	rsb	r4, r2, r3
  101db8:	e3540000 	cmp	r4, #0
  101dbc:	da000195 	ble	102418 <_vfprintf_r+0xb80>
  101dc0:	e3540010 	cmp	r4, #16
  101dc4:	da00058f 	ble	103408 <_vfprintf_r+0x1b70>
  101dc8:	e30aad78 	movw	sl, #44408	; 0xad78
  101dcc:	e58d6060 	str	r6, [sp, #96]	; 0x60
  101dd0:	e58d5064 	str	r5, [sp, #100]	; 0x64
  101dd4:	e340a010 	movt	sl, #16
  101dd8:	e59d109c 	ldr	r1, [sp, #156]	; 0x9c
  101ddc:	e3a07010 	mov	r7, #16
  101de0:	e59d2098 	ldr	r2, [sp, #152]	; 0x98
  101de4:	e59d5028 	ldr	r5, [sp, #40]	; 0x28
  101de8:	e59d6050 	ldr	r6, [sp, #80]	; 0x50
  101dec:	ea000002 	b	101dfc <_vfprintf_r+0x564>
  101df0:	e2444010 	sub	r4, r4, #16
  101df4:	e3540010 	cmp	r4, #16
  101df8:	da000013 	ble	101e4c <_vfprintf_r+0x5b4>
  101dfc:	e2822001 	add	r2, r2, #1
  101e00:	e2811010 	add	r1, r1, #16
  101e04:	e3520007 	cmp	r2, #7
  101e08:	e88900c0 	stm	r9, {r6, r7}
  101e0c:	e58d2098 	str	r2, [sp, #152]	; 0x98
  101e10:	d2899008 	addle	r9, r9, #8
  101e14:	e58d109c 	str	r1, [sp, #156]	; 0x9c
  101e18:	dafffff4 	ble	101df0 <_vfprintf_r+0x558>
  101e1c:	e1a00005 	mov	r0, r5
  101e20:	e1a0100b 	mov	r1, fp
  101e24:	e28d2094 	add	r2, sp, #148	; 0x94
  101e28:	e1a09008 	mov	r9, r8
  101e2c:	eb0017bc 	bl	107d24 <__sprint_r>
  101e30:	e3500000 	cmp	r0, #0
  101e34:	1affff6a 	bne	101be4 <_vfprintf_r+0x34c>
  101e38:	e2444010 	sub	r4, r4, #16
  101e3c:	e59d109c 	ldr	r1, [sp, #156]	; 0x9c
  101e40:	e3540010 	cmp	r4, #16
  101e44:	e59d2098 	ldr	r2, [sp, #152]	; 0x98
  101e48:	caffffeb 	bgt	101dfc <_vfprintf_r+0x564>
  101e4c:	e59d6060 	ldr	r6, [sp, #96]	; 0x60
  101e50:	e59d5064 	ldr	r5, [sp, #100]	; 0x64
  101e54:	e2822001 	add	r2, r2, #1
  101e58:	e0843001 	add	r3, r4, r1
  101e5c:	e3520007 	cmp	r2, #7
  101e60:	e58d2098 	str	r2, [sp, #152]	; 0x98
  101e64:	e58d309c 	str	r3, [sp, #156]	; 0x9c
  101e68:	e589a000 	str	sl, [r9]
  101e6c:	e5894004 	str	r4, [r9, #4]
  101e70:	ca000160 	bgt	1023f8 <_vfprintf_r+0xb60>
  101e74:	e2899008 	add	r9, r9, #8
  101e78:	e5dda077 	ldrb	sl, [sp, #119]	; 0x77
  101e7c:	ea000166 	b	10241c <_vfprintf_r+0xb84>
  101e80:	e1a01003 	mov	r1, r3
  101e84:	e59d001c 	ldr	r0, [sp, #28]
  101e88:	e5d36000 	ldrb	r6, [r3]
  101e8c:	e3800004 	orr	r0, r0, #4
  101e90:	e58d001c 	str	r0, [sp, #28]
  101e94:	eafffedb 	b	101a08 <_vfprintf_r+0x170>
  101e98:	e58d3024 	str	r3, [sp, #36]	; 0x24
  101e9c:	e59d301c 	ldr	r3, [sp, #28]
  101ea0:	e2135020 	ands	r5, r3, #32
  101ea4:	0a000106 	beq	1022c4 <_vfprintf_r+0xa2c>
  101ea8:	e59d3034 	ldr	r3, [sp, #52]	; 0x34
  101eac:	e3a02000 	mov	r2, #0
  101eb0:	e2833007 	add	r3, r3, #7
  101eb4:	e3c33007 	bic	r3, r3, #7
  101eb8:	e2831008 	add	r1, r3, #8
  101ebc:	e58d1034 	str	r1, [sp, #52]	; 0x34
  101ec0:	e1c340d0 	ldrd	r4, [r3]
  101ec4:	eaffff68 	b	101c6c <_vfprintf_r+0x3d4>
  101ec8:	e58d3024 	str	r3, [sp, #36]	; 0x24
  101ecc:	e3a04000 	mov	r4, #0
  101ed0:	e59d3034 	ldr	r3, [sp, #52]	; 0x34
  101ed4:	e1a05007 	mov	r5, r7
  101ed8:	e5cd4077 	strb	r4, [sp, #119]	; 0x77
  101edc:	e2837004 	add	r7, r3, #4
  101ee0:	e5932000 	ldr	r2, [r3]
  101ee4:	e1520004 	cmp	r2, r4
  101ee8:	e58d2040 	str	r2, [sp, #64]	; 0x40
  101eec:	0a000563 	beq	103480 <_vfprintf_r+0x1be8>
  101ef0:	e3550000 	cmp	r5, #0
  101ef4:	e59d0040 	ldr	r0, [sp, #64]	; 0x40
  101ef8:	ba000539 	blt	1033e4 <_vfprintf_r+0x1b4c>
  101efc:	e1a01004 	mov	r1, r4
  101f00:	e1a02005 	mov	r2, r5
  101f04:	fa001119 	blx	106370 <memchr>
  101f08:	e3500000 	cmp	r0, #0
  101f0c:	0a00059a 	beq	10357c <_vfprintf_r+0x1ce4>
  101f10:	e59d3040 	ldr	r3, [sp, #64]	; 0x40
  101f14:	e58d4044 	str	r4, [sp, #68]	; 0x44
  101f18:	e0633000 	rsb	r3, r3, r0
  101f1c:	e58d7034 	str	r7, [sp, #52]	; 0x34
  101f20:	e1530005 	cmp	r3, r5
  101f24:	e58d4048 	str	r4, [sp, #72]	; 0x48
  101f28:	e5dda077 	ldrb	sl, [sp, #119]	; 0x77
  101f2c:	b1a05003 	movlt	r5, r3
  101f30:	e1c53fc5 	bic	r3, r5, r5, asr #31
  101f34:	e58d3020 	str	r3, [sp, #32]
  101f38:	eaffff8c 	b	101d70 <_vfprintf_r+0x4d8>
  101f3c:	e58d3024 	str	r3, [sp, #36]	; 0x24
  101f40:	e30a3f08 	movw	r3, #44808	; 0xaf08
  101f44:	e3403010 	movt	r3, #16
  101f48:	e58d305c 	str	r3, [sp, #92]	; 0x5c
  101f4c:	e59d301c 	ldr	r3, [sp, #28]
  101f50:	e5cd2077 	strb	r2, [sp, #119]	; 0x77
  101f54:	e3130020 	tst	r3, #32
  101f58:	0a0000eb 	beq	10230c <_vfprintf_r+0xa74>
  101f5c:	e59d3034 	ldr	r3, [sp, #52]	; 0x34
  101f60:	e2833007 	add	r3, r3, #7
  101f64:	e3c33007 	bic	r3, r3, #7
  101f68:	e2832008 	add	r2, r3, #8
  101f6c:	e58d2034 	str	r2, [sp, #52]	; 0x34
  101f70:	e1c340d0 	ldrd	r4, [r3]
  101f74:	e59d301c 	ldr	r3, [sp, #28]
  101f78:	e3130001 	tst	r3, #1
  101f7c:	0a0002b3 	beq	102a50 <_vfprintf_r+0x11b8>
  101f80:	e1943005 	orrs	r3, r4, r5
  101f84:	0a0002b1 	beq	102a50 <_vfprintf_r+0x11b8>
  101f88:	e59d301c 	ldr	r3, [sp, #28]
  101f8c:	e3a02002 	mov	r2, #2
  101f90:	e5cd6079 	strb	r6, [sp, #121]	; 0x79
  101f94:	e3833002 	orr	r3, r3, #2
  101f98:	e58d301c 	str	r3, [sp, #28]
  101f9c:	e3a03030 	mov	r3, #48	; 0x30
  101fa0:	e5cd3078 	strb	r3, [sp, #120]	; 0x78
  101fa4:	eaffff30 	b	101c6c <_vfprintf_r+0x3d4>
  101fa8:	e3520000 	cmp	r2, #0
  101fac:	e5d36000 	ldrb	r6, [r3]
  101fb0:	e1a01003 	mov	r1, r3
  101fb4:	03a02020 	moveq	r2, #32
  101fb8:	eafffe92 	b	101a08 <_vfprintf_r+0x170>
  101fbc:	e59d101c 	ldr	r1, [sp, #28]
  101fc0:	e3811001 	orr	r1, r1, #1
  101fc4:	e58d101c 	str	r1, [sp, #28]
  101fc8:	e1a01003 	mov	r1, r3
  101fcc:	e5d36000 	ldrb	r6, [r3]
  101fd0:	eafffe8c 	b	101a08 <_vfprintf_r+0x170>
  101fd4:	e59d1034 	ldr	r1, [sp, #52]	; 0x34
  101fd8:	e2811004 	add	r1, r1, #4
  101fdc:	e5110004 	ldr	r0, [r1, #-4]
  101fe0:	e3500000 	cmp	r0, #0
  101fe4:	e58d0030 	str	r0, [sp, #48]	; 0x30
  101fe8:	ba0004b5 	blt	1032c4 <_vfprintf_r+0x1a2c>
  101fec:	e58d1034 	str	r1, [sp, #52]	; 0x34
  101ff0:	e1a01003 	mov	r1, r3
  101ff4:	e5d36000 	ldrb	r6, [r3]
  101ff8:	eafffe82 	b	101a08 <_vfprintf_r+0x170>
  101ffc:	e5d36000 	ldrb	r6, [r3]
  102000:	e1a01003 	mov	r1, r3
  102004:	e3a0202b 	mov	r2, #43	; 0x2b
  102008:	eafffe7e 	b	101a08 <_vfprintf_r+0x170>
  10200c:	e59d101c 	ldr	r1, [sp, #28]
  102010:	e3811080 	orr	r1, r1, #128	; 0x80
  102014:	e58d101c 	str	r1, [sp, #28]
  102018:	e1a01003 	mov	r1, r3
  10201c:	e5d36000 	ldrb	r6, [r3]
  102020:	eafffe78 	b	101a08 <_vfprintf_r+0x170>
  102024:	e2460030 	sub	r0, r6, #48	; 0x30
  102028:	e3a01000 	mov	r1, #0
  10202c:	e0811101 	add	r1, r1, r1, lsl #2
  102030:	e4d36001 	ldrb	r6, [r3], #1
  102034:	e0801081 	add	r1, r0, r1, lsl #1
  102038:	e2460030 	sub	r0, r6, #48	; 0x30
  10203c:	e3500009 	cmp	r0, #9
  102040:	9afffff9 	bls	10202c <_vfprintf_r+0x794>
  102044:	e58d1030 	str	r1, [sp, #48]	; 0x30
  102048:	eafffe6f 	b	101a0c <_vfprintf_r+0x174>
  10204c:	e59d2034 	ldr	r2, [sp, #52]	; 0x34
  102050:	e3a06078 	mov	r6, #120	; 0x78
  102054:	e59d101c 	ldr	r1, [sp, #28]
  102058:	e3a05000 	mov	r5, #0
  10205c:	e58d3024 	str	r3, [sp, #36]	; 0x24
  102060:	e30a3f08 	movw	r3, #44808	; 0xaf08
  102064:	e5924000 	ldr	r4, [r2]
  102068:	e3403010 	movt	r3, #16
  10206c:	e2822004 	add	r2, r2, #4
  102070:	e3811002 	orr	r1, r1, #2
  102074:	e58d2034 	str	r2, [sp, #52]	; 0x34
  102078:	e3a02002 	mov	r2, #2
  10207c:	e58d305c 	str	r3, [sp, #92]	; 0x5c
  102080:	e3a03030 	mov	r3, #48	; 0x30
  102084:	e58d101c 	str	r1, [sp, #28]
  102088:	e5cd6079 	strb	r6, [sp, #121]	; 0x79
  10208c:	e5cd3078 	strb	r3, [sp, #120]	; 0x78
  102090:	eafffef5 	b	101c6c <_vfprintf_r+0x3d4>
  102094:	e59d101c 	ldr	r1, [sp, #28]
  102098:	e3811020 	orr	r1, r1, #32
  10209c:	e58d101c 	str	r1, [sp, #28]
  1020a0:	e1a01003 	mov	r1, r3
  1020a4:	e5d36000 	ldrb	r6, [r3]
  1020a8:	eafffe56 	b	101a08 <_vfprintf_r+0x170>
  1020ac:	e58d3024 	str	r3, [sp, #36]	; 0x24
  1020b0:	e59d301c 	ldr	r3, [sp, #28]
  1020b4:	e5cd2077 	strb	r2, [sp, #119]	; 0x77
  1020b8:	e3833010 	orr	r3, r3, #16
  1020bc:	e58d301c 	str	r3, [sp, #28]
  1020c0:	e59d301c 	ldr	r3, [sp, #28]
  1020c4:	e3130020 	tst	r3, #32
  1020c8:	0a00003b 	beq	1021bc <_vfprintf_r+0x924>
  1020cc:	e59d3034 	ldr	r3, [sp, #52]	; 0x34
  1020d0:	e2833007 	add	r3, r3, #7
  1020d4:	e3c33007 	bic	r3, r3, #7
  1020d8:	e2832008 	add	r2, r3, #8
  1020dc:	e58d2034 	str	r2, [sp, #52]	; 0x34
  1020e0:	e1c320d0 	ldrd	r2, [r3]
  1020e4:	e1a04002 	mov	r4, r2
  1020e8:	e1a05003 	mov	r5, r3
  1020ec:	e3520000 	cmp	r2, #0
  1020f0:	e2d33000 	sbcs	r3, r3, #0
  1020f4:	ba00036c 	blt	102eac <_vfprintf_r+0x1614>
  1020f8:	e5dda077 	ldrb	sl, [sp, #119]	; 0x77
  1020fc:	e3a02001 	mov	r2, #1
  102100:	e58d7044 	str	r7, [sp, #68]	; 0x44
  102104:	eafffedc 	b	101c7c <_vfprintf_r+0x3e4>
  102108:	e58d3024 	str	r3, [sp, #36]	; 0x24
  10210c:	e59d3034 	ldr	r3, [sp, #52]	; 0x34
  102110:	e5cd2077 	strb	r2, [sp, #119]	; 0x77
  102114:	e2833007 	add	r3, r3, #7
  102118:	e3c33007 	bic	r3, r3, #7
  10211c:	e2832008 	add	r2, r3, #8
  102120:	e58d2034 	str	r2, [sp, #52]	; 0x34
  102124:	ed938b00 	vldr	d8, [r3]
  102128:	ec510b18 	vmov	r0, r1, d8
  10212c:	eb001573 	bl	107700 <__fpclassifyd>
  102130:	e3500001 	cmp	r0, #1
  102134:	1a000363 	bne	102ec8 <_vfprintf_r+0x1630>
  102138:	eeb58bc0 	vcmpe.f64	d8, #0.0
  10213c:	e59dc01c 	ldr	ip, [sp, #28]
  102140:	e30a3ee4 	movw	r3, #44772	; 0xaee4
  102144:	e3a01003 	mov	r1, #3
  102148:	e30a2ee8 	movw	r2, #44776	; 0xaee8
  10214c:	e3403010 	movt	r3, #16
  102150:	e3a00000 	mov	r0, #0
  102154:	e3402010 	movt	r2, #16
  102158:	eef1fa10 	vmrs	APSR_nzcv, fpscr
  10215c:	43a0a02d 	movmi	sl, #45	; 0x2d
  102160:	55dda077 	ldrbpl	sl, [sp, #119]	; 0x77
  102164:	e3ccc080 	bic	ip, ip, #128	; 0x80
  102168:	45cda077 	strbmi	sl, [sp, #119]	; 0x77
  10216c:	e3560047 	cmp	r6, #71	; 0x47
  102170:	e58d1020 	str	r1, [sp, #32]
  102174:	e1a05001 	mov	r5, r1
  102178:	d1a02003 	movle	r2, r3
  10217c:	e58d0044 	str	r0, [sp, #68]	; 0x44
  102180:	e58dc01c 	str	ip, [sp, #28]
  102184:	e58d2040 	str	r2, [sp, #64]	; 0x40
  102188:	e58d0048 	str	r0, [sp, #72]	; 0x48
  10218c:	eafffef7 	b	101d70 <_vfprintf_r+0x4d8>
  102190:	e59d101c 	ldr	r1, [sp, #28]
  102194:	e3811008 	orr	r1, r1, #8
  102198:	e58d101c 	str	r1, [sp, #28]
  10219c:	e1a01003 	mov	r1, r3
  1021a0:	e5d36000 	ldrb	r6, [r3]
  1021a4:	eafffe17 	b	101a08 <_vfprintf_r+0x170>
  1021a8:	e58d3024 	str	r3, [sp, #36]	; 0x24
  1021ac:	e59d301c 	ldr	r3, [sp, #28]
  1021b0:	e5cd2077 	strb	r2, [sp, #119]	; 0x77
  1021b4:	e3130020 	tst	r3, #32
  1021b8:	1affffc3 	bne	1020cc <_vfprintf_r+0x834>
  1021bc:	e59d301c 	ldr	r3, [sp, #28]
  1021c0:	e3130010 	tst	r3, #16
  1021c4:	0a0003ac 	beq	10307c <_vfprintf_r+0x17e4>
  1021c8:	e59d3034 	ldr	r3, [sp, #52]	; 0x34
  1021cc:	e5934000 	ldr	r4, [r3]
  1021d0:	e2833004 	add	r3, r3, #4
  1021d4:	e58d3034 	str	r3, [sp, #52]	; 0x34
  1021d8:	e1a05fc4 	asr	r5, r4, #31
  1021dc:	e1a02004 	mov	r2, r4
  1021e0:	e1a03005 	mov	r3, r5
  1021e4:	eaffffc0 	b	1020ec <_vfprintf_r+0x854>
  1021e8:	e59d101c 	ldr	r1, [sp, #28]
  1021ec:	e3811040 	orr	r1, r1, #64	; 0x40
  1021f0:	e58d101c 	str	r1, [sp, #28]
  1021f4:	e1a01003 	mov	r1, r3
  1021f8:	e5d36000 	ldrb	r6, [r3]
  1021fc:	eafffe01 	b	101a08 <_vfprintf_r+0x170>
  102200:	e5d36000 	ldrb	r6, [r3]
  102204:	e59d101c 	ldr	r1, [sp, #28]
  102208:	e356006c 	cmp	r6, #108	; 0x6c
  10220c:	03811020 	orreq	r1, r1, #32
  102210:	13811010 	orrne	r1, r1, #16
  102214:	058d101c 	streq	r1, [sp, #28]
  102218:	02831001 	addeq	r1, r3, #1
  10221c:	158d101c 	strne	r1, [sp, #28]
  102220:	11a01003 	movne	r1, r3
  102224:	05d36001 	ldrbeq	r6, [r3, #1]
  102228:	eafffdf6 	b	101a08 <_vfprintf_r+0x170>
  10222c:	e58d3024 	str	r3, [sp, #36]	; 0x24
  102230:	e59d301c 	ldr	r3, [sp, #28]
  102234:	e5cd2077 	strb	r2, [sp, #119]	; 0x77
  102238:	e3130020 	tst	r3, #32
  10223c:	0a00039a 	beq	1030ac <_vfprintf_r+0x1814>
  102240:	e59d102c 	ldr	r1, [sp, #44]	; 0x2c
  102244:	e59d2034 	ldr	r2, [sp, #52]	; 0x34
  102248:	ee801b90 	vdup.32	d16, r1
  10224c:	e2822004 	add	r2, r2, #4
  102250:	e5123004 	ldr	r3, [r2, #-4]
  102254:	f2e000b0 	vshr.s64	d16, d16, #32
  102258:	e58d2034 	str	r2, [sp, #52]	; 0x34
  10225c:	edc30b00 	vstr	d16, [r3]
  102260:	eafffdc3 	b	101974 <_vfprintf_r+0xdc>
  102264:	e5d36000 	ldrb	r6, [r3]
  102268:	e2831001 	add	r1, r3, #1
  10226c:	e356002a 	cmp	r6, #42	; 0x2a
  102270:	0a000529 	beq	10371c <_vfprintf_r+0x1e84>
  102274:	e2460030 	sub	r0, r6, #48	; 0x30
  102278:	e1a03001 	mov	r3, r1
  10227c:	e3500009 	cmp	r0, #9
  102280:	e3a07000 	mov	r7, #0
  102284:	8afffde0 	bhi	101a0c <_vfprintf_r+0x174>
  102288:	e0877107 	add	r7, r7, r7, lsl #2
  10228c:	e4d36001 	ldrb	r6, [r3], #1
  102290:	e0807087 	add	r7, r0, r7, lsl #1
  102294:	e2460030 	sub	r0, r6, #48	; 0x30
  102298:	e3500009 	cmp	r0, #9
  10229c:	9afffff9 	bls	102288 <_vfprintf_r+0x9f0>
  1022a0:	e1877fc7 	orr	r7, r7, r7, asr #31
  1022a4:	eafffdd8 	b	101a0c <_vfprintf_r+0x174>
  1022a8:	e58d3024 	str	r3, [sp, #36]	; 0x24
  1022ac:	e59d301c 	ldr	r3, [sp, #28]
  1022b0:	e3833010 	orr	r3, r3, #16
  1022b4:	e58d301c 	str	r3, [sp, #28]
  1022b8:	e59d301c 	ldr	r3, [sp, #28]
  1022bc:	e2135020 	ands	r5, r3, #32
  1022c0:	1afffef8 	bne	101ea8 <_vfprintf_r+0x610>
  1022c4:	e59d301c 	ldr	r3, [sp, #28]
  1022c8:	e2133010 	ands	r3, r3, #16
  1022cc:	0a000354 	beq	103024 <_vfprintf_r+0x178c>
  1022d0:	e59d3034 	ldr	r3, [sp, #52]	; 0x34
  1022d4:	e1a02005 	mov	r2, r5
  1022d8:	e3a05000 	mov	r5, #0
  1022dc:	e2833004 	add	r3, r3, #4
  1022e0:	e5134004 	ldr	r4, [r3, #-4]
  1022e4:	e58d3034 	str	r3, [sp, #52]	; 0x34
  1022e8:	eafffe5f 	b	101c6c <_vfprintf_r+0x3d4>
  1022ec:	e58d3024 	str	r3, [sp, #36]	; 0x24
  1022f0:	e30a3ef4 	movw	r3, #44788	; 0xaef4
  1022f4:	e3403010 	movt	r3, #16
  1022f8:	e58d305c 	str	r3, [sp, #92]	; 0x5c
  1022fc:	e59d301c 	ldr	r3, [sp, #28]
  102300:	e5cd2077 	strb	r2, [sp, #119]	; 0x77
  102304:	e3130020 	tst	r3, #32
  102308:	1affff13 	bne	101f5c <_vfprintf_r+0x6c4>
  10230c:	e59d301c 	ldr	r3, [sp, #28]
  102310:	e3130010 	tst	r3, #16
  102314:	0a00034c 	beq	10304c <_vfprintf_r+0x17b4>
  102318:	e59d3034 	ldr	r3, [sp, #52]	; 0x34
  10231c:	e3a05000 	mov	r5, #0
  102320:	e2833004 	add	r3, r3, #4
  102324:	e5134004 	ldr	r4, [r3, #-4]
  102328:	e58d3034 	str	r3, [sp, #52]	; 0x34
  10232c:	eaffff10 	b	101f74 <_vfprintf_r+0x6dc>
  102330:	e59d0034 	ldr	r0, [sp, #52]	; 0x34
  102334:	e3a01001 	mov	r1, #1
  102338:	e58d3024 	str	r3, [sp, #36]	; 0x24
  10233c:	e3a03000 	mov	r3, #0
  102340:	e1a0a003 	mov	sl, r3
  102344:	e2800004 	add	r0, r0, #4
  102348:	e5102004 	ldr	r2, [r0, #-4]
  10234c:	e1a05001 	mov	r5, r1
  102350:	e5cd3077 	strb	r3, [sp, #119]	; 0x77
  102354:	e58d3044 	str	r3, [sp, #68]	; 0x44
  102358:	e58d3048 	str	r3, [sp, #72]	; 0x48
  10235c:	e28d30a0 	add	r3, sp, #160	; 0xa0
  102360:	e58d1020 	str	r1, [sp, #32]
  102364:	e58d0034 	str	r0, [sp, #52]	; 0x34
  102368:	e5cd20a0 	strb	r2, [sp, #160]	; 0xa0
  10236c:	e58d3040 	str	r3, [sp, #64]	; 0x40
  102370:	eafffe83 	b	101d84 <_vfprintf_r+0x4ec>
  102374:	e58d3024 	str	r3, [sp, #36]	; 0x24
  102378:	e59d301c 	ldr	r3, [sp, #28]
  10237c:	e3833010 	orr	r3, r3, #16
  102380:	e58d301c 	str	r3, [sp, #28]
  102384:	e59d301c 	ldr	r3, [sp, #28]
  102388:	e3130020 	tst	r3, #32
  10238c:	1afffe2f 	bne	101c50 <_vfprintf_r+0x3b8>
  102390:	e59d301c 	ldr	r3, [sp, #28]
  102394:	e3130010 	tst	r3, #16
  102398:	0a000357 	beq	1030fc <_vfprintf_r+0x1864>
  10239c:	e59d3034 	ldr	r3, [sp, #52]	; 0x34
  1023a0:	e5934000 	ldr	r4, [r3]
  1023a4:	e3a02001 	mov	r2, #1
  1023a8:	e2833004 	add	r3, r3, #4
  1023ac:	e3a05000 	mov	r5, #0
  1023b0:	e58d3034 	str	r3, [sp, #52]	; 0x34
  1023b4:	eafffe2c 	b	101c6c <_vfprintf_r+0x3d4>
  1023b8:	e3560000 	cmp	r6, #0
  1023bc:	e58d3024 	str	r3, [sp, #36]	; 0x24
  1023c0:	e5cd2077 	strb	r2, [sp, #119]	; 0x77
  1023c4:	0afffdff 	beq	101bc8 <_vfprintf_r+0x330>
  1023c8:	e3a03000 	mov	r3, #0
  1023cc:	e3a02001 	mov	r2, #1
  1023d0:	e1a0a003 	mov	sl, r3
  1023d4:	e5cd3077 	strb	r3, [sp, #119]	; 0x77
  1023d8:	e58d3044 	str	r3, [sp, #68]	; 0x44
  1023dc:	e1a05002 	mov	r5, r2
  1023e0:	e58d3048 	str	r3, [sp, #72]	; 0x48
  1023e4:	e28d30a0 	add	r3, sp, #160	; 0xa0
  1023e8:	e58d2020 	str	r2, [sp, #32]
  1023ec:	e5cd60a0 	strb	r6, [sp, #160]	; 0xa0
  1023f0:	e58d3040 	str	r3, [sp, #64]	; 0x40
  1023f4:	eafffe62 	b	101d84 <_vfprintf_r+0x4ec>
  1023f8:	e59d0028 	ldr	r0, [sp, #40]	; 0x28
  1023fc:	e1a0100b 	mov	r1, fp
  102400:	e28d2094 	add	r2, sp, #148	; 0x94
  102404:	eb001646 	bl	107d24 <__sprint_r>
  102408:	e3500000 	cmp	r0, #0
  10240c:	1afffdf4 	bne	101be4 <_vfprintf_r+0x34c>
  102410:	e5dda077 	ldrb	sl, [sp, #119]	; 0x77
  102414:	e1a09008 	mov	r9, r8
  102418:	e59d309c 	ldr	r3, [sp, #156]	; 0x9c
  10241c:	e35a0000 	cmp	sl, #0
  102420:	0a00000b 	beq	102454 <_vfprintf_r+0xbbc>
  102424:	e59d2098 	ldr	r2, [sp, #152]	; 0x98
  102428:	e2833001 	add	r3, r3, #1
  10242c:	e28d1077 	add	r1, sp, #119	; 0x77
  102430:	e58d309c 	str	r3, [sp, #156]	; 0x9c
  102434:	e2822001 	add	r2, r2, #1
  102438:	e5891000 	str	r1, [r9]
  10243c:	e3520007 	cmp	r2, #7
  102440:	e58d2098 	str	r2, [sp, #152]	; 0x98
  102444:	e3a02001 	mov	r2, #1
  102448:	e5892004 	str	r2, [r9, #4]
  10244c:	d2899008 	addle	r9, r9, #8
  102450:	ca00016c 	bgt	102a08 <_vfprintf_r+0x1170>
  102454:	e59d2038 	ldr	r2, [sp, #56]	; 0x38
  102458:	e3520000 	cmp	r2, #0
  10245c:	0a00000b 	beq	102490 <_vfprintf_r+0xbf8>
  102460:	e59d2098 	ldr	r2, [sp, #152]	; 0x98
  102464:	e2833002 	add	r3, r3, #2
  102468:	e28d1078 	add	r1, sp, #120	; 0x78
  10246c:	e58d309c 	str	r3, [sp, #156]	; 0x9c
  102470:	e2822001 	add	r2, r2, #1
  102474:	e5891000 	str	r1, [r9]
  102478:	e3520007 	cmp	r2, #7
  10247c:	e58d2098 	str	r2, [sp, #152]	; 0x98
  102480:	e3a02002 	mov	r2, #2
  102484:	e5892004 	str	r2, [r9, #4]
  102488:	d2899008 	addle	r9, r9, #8
  10248c:	ca000166 	bgt	102a2c <_vfprintf_r+0x1194>
  102490:	e59d203c 	ldr	r2, [sp, #60]	; 0x3c
  102494:	e3520080 	cmp	r2, #128	; 0x80
  102498:	0a0000dd 	beq	102814 <_vfprintf_r+0xf7c>
  10249c:	e59d2044 	ldr	r2, [sp, #68]	; 0x44
  1024a0:	e0657002 	rsb	r7, r5, r2
  1024a4:	e3570000 	cmp	r7, #0
  1024a8:	da000033 	ble	10257c <_vfprintf_r+0xce4>
  1024ac:	e3570010 	cmp	r7, #16
  1024b0:	e59d2098 	ldr	r2, [sp, #152]	; 0x98
  1024b4:	e51f47c4 	ldr	r4, [pc, #-1988]	; 101cf8 <_vfprintf_r+0x460>
  1024b8:	da00001f 	ble	10253c <_vfprintf_r+0xca4>
  1024bc:	e58d5038 	str	r5, [sp, #56]	; 0x38
  1024c0:	e3a0a010 	mov	sl, #16
  1024c4:	e1a05004 	mov	r5, r4
  1024c8:	e1a01003 	mov	r1, r3
  1024cc:	e59d4028 	ldr	r4, [sp, #40]	; 0x28
  1024d0:	ea000002 	b	1024e0 <_vfprintf_r+0xc48>
  1024d4:	e2477010 	sub	r7, r7, #16
  1024d8:	e3570010 	cmp	r7, #16
  1024dc:	da000013 	ble	102530 <_vfprintf_r+0xc98>
  1024e0:	e2822001 	add	r2, r2, #1
  1024e4:	e2811010 	add	r1, r1, #16
  1024e8:	e3520007 	cmp	r2, #7
  1024ec:	e8890420 	stm	r9, {r5, sl}
  1024f0:	e58d2098 	str	r2, [sp, #152]	; 0x98
  1024f4:	d2899008 	addle	r9, r9, #8
  1024f8:	e58d109c 	str	r1, [sp, #156]	; 0x9c
  1024fc:	dafffff4 	ble	1024d4 <_vfprintf_r+0xc3c>
  102500:	e1a00004 	mov	r0, r4
  102504:	e1a0100b 	mov	r1, fp
  102508:	e28d2094 	add	r2, sp, #148	; 0x94
  10250c:	e1a09008 	mov	r9, r8
  102510:	eb001603 	bl	107d24 <__sprint_r>
  102514:	e3500000 	cmp	r0, #0
  102518:	1afffdb1 	bne	101be4 <_vfprintf_r+0x34c>
  10251c:	e2477010 	sub	r7, r7, #16
  102520:	e59d109c 	ldr	r1, [sp, #156]	; 0x9c
  102524:	e3570010 	cmp	r7, #16
  102528:	e59d2098 	ldr	r2, [sp, #152]	; 0x98
  10252c:	caffffeb 	bgt	1024e0 <_vfprintf_r+0xc48>
  102530:	e1a04005 	mov	r4, r5
  102534:	e59d5038 	ldr	r5, [sp, #56]	; 0x38
  102538:	e1a03001 	mov	r3, r1
  10253c:	e2822001 	add	r2, r2, #1
  102540:	e0833007 	add	r3, r3, r7
  102544:	e3520007 	cmp	r2, #7
  102548:	e8890090 	stm	r9, {r4, r7}
  10254c:	e58d2098 	str	r2, [sp, #152]	; 0x98
  102550:	d2899008 	addle	r9, r9, #8
  102554:	e58d309c 	str	r3, [sp, #156]	; 0x9c
  102558:	da000007 	ble	10257c <_vfprintf_r+0xce4>
  10255c:	e59d0028 	ldr	r0, [sp, #40]	; 0x28
  102560:	e1a0100b 	mov	r1, fp
  102564:	e28d2094 	add	r2, sp, #148	; 0x94
  102568:	eb0015ed 	bl	107d24 <__sprint_r>
  10256c:	e3500000 	cmp	r0, #0
  102570:	1afffd9b 	bne	101be4 <_vfprintf_r+0x34c>
  102574:	e59d309c 	ldr	r3, [sp, #156]	; 0x9c
  102578:	e1a09008 	mov	r9, r8
  10257c:	e59d201c 	ldr	r2, [sp, #28]
  102580:	e3120c01 	tst	r2, #256	; 0x100
  102584:	1a00004f 	bne	1026c8 <_vfprintf_r+0xe30>
  102588:	e59d2098 	ldr	r2, [sp, #152]	; 0x98
  10258c:	e0833005 	add	r3, r3, r5
  102590:	e59d1040 	ldr	r1, [sp, #64]	; 0x40
  102594:	e2822001 	add	r2, r2, #1
  102598:	e58d309c 	str	r3, [sp, #156]	; 0x9c
  10259c:	e3520007 	cmp	r2, #7
  1025a0:	e5895004 	str	r5, [r9, #4]
  1025a4:	e5891000 	str	r1, [r9]
  1025a8:	e58d2098 	str	r2, [sp, #152]	; 0x98
  1025ac:	ca000105 	bgt	1029c8 <_vfprintf_r+0x1130>
  1025b0:	e2899008 	add	r9, r9, #8
  1025b4:	e59d201c 	ldr	r2, [sp, #28]
  1025b8:	e3120004 	tst	r2, #4
  1025bc:	0a000034 	beq	102694 <_vfprintf_r+0xdfc>
  1025c0:	e59d2030 	ldr	r2, [sp, #48]	; 0x30
  1025c4:	e59d1020 	ldr	r1, [sp, #32]
  1025c8:	e0614002 	rsb	r4, r1, r2
  1025cc:	e3540000 	cmp	r4, #0
  1025d0:	da00002f 	ble	102694 <_vfprintf_r+0xdfc>
  1025d4:	e3540010 	cmp	r4, #16
  1025d8:	da0003a4 	ble	103470 <_vfprintf_r+0x1bd8>
  1025dc:	e30aad78 	movw	sl, #44408	; 0xad78
  1025e0:	e59d2098 	ldr	r2, [sp, #152]	; 0x98
  1025e4:	e340a010 	movt	sl, #16
  1025e8:	e3a05010 	mov	r5, #16
  1025ec:	e59d6028 	ldr	r6, [sp, #40]	; 0x28
  1025f0:	e59d7050 	ldr	r7, [sp, #80]	; 0x50
  1025f4:	ea000002 	b	102604 <_vfprintf_r+0xd6c>
  1025f8:	e2444010 	sub	r4, r4, #16
  1025fc:	e3540010 	cmp	r4, #16
  102600:	da000014 	ble	102658 <_vfprintf_r+0xdc0>
  102604:	e2822001 	add	r2, r2, #1
  102608:	e2833010 	add	r3, r3, #16
  10260c:	e3520007 	cmp	r2, #7
  102610:	e5897000 	str	r7, [r9]
  102614:	e5895004 	str	r5, [r9, #4]
  102618:	d2899008 	addle	r9, r9, #8
  10261c:	e58d2098 	str	r2, [sp, #152]	; 0x98
  102620:	e58d309c 	str	r3, [sp, #156]	; 0x9c
  102624:	dafffff3 	ble	1025f8 <_vfprintf_r+0xd60>
  102628:	e1a00006 	mov	r0, r6
  10262c:	e1a0100b 	mov	r1, fp
  102630:	e28d2094 	add	r2, sp, #148	; 0x94
  102634:	e1a09008 	mov	r9, r8
  102638:	eb0015b9 	bl	107d24 <__sprint_r>
  10263c:	e3500000 	cmp	r0, #0
  102640:	1afffd67 	bne	101be4 <_vfprintf_r+0x34c>
  102644:	e2444010 	sub	r4, r4, #16
  102648:	e59d309c 	ldr	r3, [sp, #156]	; 0x9c
  10264c:	e3540010 	cmp	r4, #16
  102650:	e59d2098 	ldr	r2, [sp, #152]	; 0x98
  102654:	caffffea 	bgt	102604 <_vfprintf_r+0xd6c>
  102658:	e2822001 	add	r2, r2, #1
  10265c:	e0833004 	add	r3, r3, r4
  102660:	e3520007 	cmp	r2, #7
  102664:	e58d2098 	str	r2, [sp, #152]	; 0x98
  102668:	e58d309c 	str	r3, [sp, #156]	; 0x9c
  10266c:	e589a000 	str	sl, [r9]
  102670:	e5894004 	str	r4, [r9, #4]
  102674:	da000006 	ble	102694 <_vfprintf_r+0xdfc>
  102678:	e59d0028 	ldr	r0, [sp, #40]	; 0x28
  10267c:	e1a0100b 	mov	r1, fp
  102680:	e28d2094 	add	r2, sp, #148	; 0x94
  102684:	eb0015a6 	bl	107d24 <__sprint_r>
  102688:	e3500000 	cmp	r0, #0
  10268c:	1afffd54 	bne	101be4 <_vfprintf_r+0x34c>
  102690:	e59d309c 	ldr	r3, [sp, #156]	; 0x9c
  102694:	e59d202c 	ldr	r2, [sp, #44]	; 0x2c
  102698:	e59d1020 	ldr	r1, [sp, #32]
  10269c:	e59d0030 	ldr	r0, [sp, #48]	; 0x30
  1026a0:	e1510000 	cmp	r1, r0
  1026a4:	a0822001 	addge	r2, r2, r1
  1026a8:	b0822000 	addlt	r2, r2, r0
  1026ac:	e3530000 	cmp	r3, #0
  1026b0:	e58d202c 	str	r2, [sp, #44]	; 0x2c
  1026b4:	1a0000cc 	bne	1029ec <_vfprintf_r+0x1154>
  1026b8:	e3a03000 	mov	r3, #0
  1026bc:	e1a09008 	mov	r9, r8
  1026c0:	e58d3098 	str	r3, [sp, #152]	; 0x98
  1026c4:	eafffcaa 	b	101974 <_vfprintf_r+0xdc>
  1026c8:	e3560065 	cmp	r6, #101	; 0x65
  1026cc:	da00008a 	ble	1028fc <_vfprintf_r+0x1064>
  1026d0:	eeb58b40 	vcmp.f64	d8, #0.0
  1026d4:	eef1fa10 	vmrs	APSR_nzcv, fpscr
  1026d8:	1a0000de 	bne	102a58 <_vfprintf_r+0x11c0>
  1026dc:	e59d2098 	ldr	r2, [sp, #152]	; 0x98
  1026e0:	e30a1f24 	movw	r1, #44836	; 0xaf24
  1026e4:	e2833001 	add	r3, r3, #1
  1026e8:	e3401010 	movt	r1, #16
  1026ec:	e2822001 	add	r2, r2, #1
  1026f0:	e5891000 	str	r1, [r9]
  1026f4:	e3520007 	cmp	r2, #7
  1026f8:	e58d2098 	str	r2, [sp, #152]	; 0x98
  1026fc:	e58d309c 	str	r3, [sp, #156]	; 0x9c
  102700:	e3a02001 	mov	r2, #1
  102704:	e5892004 	str	r2, [r9, #4]
  102708:	d2899008 	addle	r9, r9, #8
  10270c:	ca000284 	bgt	103124 <_vfprintf_r+0x188c>
  102710:	e59d207c 	ldr	r2, [sp, #124]	; 0x7c
  102714:	e59d104c 	ldr	r1, [sp, #76]	; 0x4c
  102718:	e1520001 	cmp	r2, r1
  10271c:	ba000002 	blt	10272c <_vfprintf_r+0xe94>
  102720:	e59d201c 	ldr	r2, [sp, #28]
  102724:	e3120001 	tst	r2, #1
  102728:	0affffa1 	beq	1025b4 <_vfprintf_r+0xd1c>
  10272c:	e59d2098 	ldr	r2, [sp, #152]	; 0x98
  102730:	e59d1058 	ldr	r1, [sp, #88]	; 0x58
  102734:	e2822001 	add	r2, r2, #1
  102738:	e59d0054 	ldr	r0, [sp, #84]	; 0x54
  10273c:	e3520007 	cmp	r2, #7
  102740:	e0833001 	add	r3, r3, r1
  102744:	e5891004 	str	r1, [r9, #4]
  102748:	e5890000 	str	r0, [r9]
  10274c:	d2899008 	addle	r9, r9, #8
  102750:	e58d309c 	str	r3, [sp, #156]	; 0x9c
  102754:	e58d2098 	str	r2, [sp, #152]	; 0x98
  102758:	ca0002df 	bgt	1032dc <_vfprintf_r+0x1a44>
  10275c:	e59d204c 	ldr	r2, [sp, #76]	; 0x4c
  102760:	e2425001 	sub	r5, r2, #1
  102764:	e3550000 	cmp	r5, #0
  102768:	daffff91 	ble	1025b4 <_vfprintf_r+0xd1c>
  10276c:	e3550010 	cmp	r5, #16
  102770:	e59d2098 	ldr	r2, [sp, #152]	; 0x98
  102774:	e51f4a84 	ldr	r4, [pc, #-2692]	; 101cf8 <_vfprintf_r+0x460>
  102778:	c3a06010 	movgt	r6, #16
  10277c:	c59d7028 	ldrgt	r7, [sp, #40]	; 0x28
  102780:	ca000003 	bgt	102794 <_vfprintf_r+0xefc>
  102784:	ea000113 	b	102bd8 <_vfprintf_r+0x1340>
  102788:	e2455010 	sub	r5, r5, #16
  10278c:	e3550010 	cmp	r5, #16
  102790:	da000110 	ble	102bd8 <_vfprintf_r+0x1340>
  102794:	e2822001 	add	r2, r2, #1
  102798:	e2833010 	add	r3, r3, #16
  10279c:	e3520007 	cmp	r2, #7
  1027a0:	e8890050 	stm	r9, {r4, r6}
  1027a4:	e58d2098 	str	r2, [sp, #152]	; 0x98
  1027a8:	d2899008 	addle	r9, r9, #8
  1027ac:	e58d309c 	str	r3, [sp, #156]	; 0x9c
  1027b0:	dafffff4 	ble	102788 <_vfprintf_r+0xef0>
  1027b4:	e1a00007 	mov	r0, r7
  1027b8:	e1a0100b 	mov	r1, fp
  1027bc:	e28d2094 	add	r2, sp, #148	; 0x94
  1027c0:	e1a09008 	mov	r9, r8
  1027c4:	eb001556 	bl	107d24 <__sprint_r>
  1027c8:	e3500000 	cmp	r0, #0
  1027cc:	1afffd04 	bne	101be4 <_vfprintf_r+0x34c>
  1027d0:	e59d309c 	ldr	r3, [sp, #156]	; 0x9c
  1027d4:	e59d2098 	ldr	r2, [sp, #152]	; 0x98
  1027d8:	eaffffea 	b	102788 <_vfprintf_r+0xef0>
  1027dc:	e3520000 	cmp	r2, #0
  1027e0:	158d8040 	strne	r8, [sp, #64]	; 0x40
  1027e4:	11a05003 	movne	r5, r3
  1027e8:	1afffd5a 	bne	101d58 <_vfprintf_r+0x4c0>
  1027ec:	e59d301c 	ldr	r3, [sp, #28]
  1027f0:	e3130001 	tst	r3, #1
  1027f4:	058d8040 	streq	r8, [sp, #64]	; 0x40
  1027f8:	128d2f42 	addne	r2, sp, #264	; 0x108
  1027fc:	13a03030 	movne	r3, #48	; 0x30
  102800:	01a05002 	moveq	r5, r2
  102804:	15623041 	strbne	r3, [r2, #-65]!	; 0xffffffbf
  102808:	10625008 	rsbne	r5, r2, r8
  10280c:	158d2040 	strne	r2, [sp, #64]	; 0x40
  102810:	eafffd50 	b	101d58 <_vfprintf_r+0x4c0>
  102814:	e59d2030 	ldr	r2, [sp, #48]	; 0x30
  102818:	e59d1020 	ldr	r1, [sp, #32]
  10281c:	e0617002 	rsb	r7, r1, r2
  102820:	e3570000 	cmp	r7, #0
  102824:	daffff1c 	ble	10249c <_vfprintf_r+0xc04>
  102828:	e3570010 	cmp	r7, #16
  10282c:	e59d2098 	ldr	r2, [sp, #152]	; 0x98
  102830:	e51f4b40 	ldr	r4, [pc, #-2880]	; 101cf8 <_vfprintf_r+0x460>
  102834:	da00001f 	ble	1028b8 <_vfprintf_r+0x1020>
  102838:	e58d5038 	str	r5, [sp, #56]	; 0x38
  10283c:	e3a0a010 	mov	sl, #16
  102840:	e1a05004 	mov	r5, r4
  102844:	e1a01003 	mov	r1, r3
  102848:	e59d4028 	ldr	r4, [sp, #40]	; 0x28
  10284c:	ea000002 	b	10285c <_vfprintf_r+0xfc4>
  102850:	e2477010 	sub	r7, r7, #16
  102854:	e3570010 	cmp	r7, #16
  102858:	da000013 	ble	1028ac <_vfprintf_r+0x1014>
  10285c:	e2822001 	add	r2, r2, #1
  102860:	e2811010 	add	r1, r1, #16
  102864:	e3520007 	cmp	r2, #7
  102868:	e8890420 	stm	r9, {r5, sl}
  10286c:	e58d2098 	str	r2, [sp, #152]	; 0x98
  102870:	d2899008 	addle	r9, r9, #8
  102874:	e58d109c 	str	r1, [sp, #156]	; 0x9c
  102878:	dafffff4 	ble	102850 <_vfprintf_r+0xfb8>
  10287c:	e1a00004 	mov	r0, r4
  102880:	e1a0100b 	mov	r1, fp
  102884:	e28d2094 	add	r2, sp, #148	; 0x94
  102888:	e1a09008 	mov	r9, r8
  10288c:	eb001524 	bl	107d24 <__sprint_r>
  102890:	e3500000 	cmp	r0, #0
  102894:	1afffcd2 	bne	101be4 <_vfprintf_r+0x34c>
  102898:	e2477010 	sub	r7, r7, #16
  10289c:	e59d109c 	ldr	r1, [sp, #156]	; 0x9c
  1028a0:	e3570010 	cmp	r7, #16
  1028a4:	e59d2098 	ldr	r2, [sp, #152]	; 0x98
  1028a8:	caffffeb 	bgt	10285c <_vfprintf_r+0xfc4>
  1028ac:	e1a04005 	mov	r4, r5
  1028b0:	e59d5038 	ldr	r5, [sp, #56]	; 0x38
  1028b4:	e1a03001 	mov	r3, r1
  1028b8:	e2822001 	add	r2, r2, #1
  1028bc:	e0833007 	add	r3, r3, r7
  1028c0:	e3520007 	cmp	r2, #7
  1028c4:	e8890090 	stm	r9, {r4, r7}
  1028c8:	e58d2098 	str	r2, [sp, #152]	; 0x98
  1028cc:	d2899008 	addle	r9, r9, #8
  1028d0:	e58d309c 	str	r3, [sp, #156]	; 0x9c
  1028d4:	dafffef0 	ble	10249c <_vfprintf_r+0xc04>
  1028d8:	e59d0028 	ldr	r0, [sp, #40]	; 0x28
  1028dc:	e1a0100b 	mov	r1, fp
  1028e0:	e28d2094 	add	r2, sp, #148	; 0x94
  1028e4:	eb00150e 	bl	107d24 <__sprint_r>
  1028e8:	e3500000 	cmp	r0, #0
  1028ec:	1afffcbc 	bne	101be4 <_vfprintf_r+0x34c>
  1028f0:	e59d309c 	ldr	r3, [sp, #156]	; 0x9c
  1028f4:	e1a09008 	mov	r9, r8
  1028f8:	eafffee7 	b	10249c <_vfprintf_r+0xc04>
  1028fc:	e59d204c 	ldr	r2, [sp, #76]	; 0x4c
  102900:	e3520001 	cmp	r2, #1
  102904:	da00011d 	ble	102d80 <_vfprintf_r+0x14e8>
  102908:	e59d1040 	ldr	r1, [sp, #64]	; 0x40
  10290c:	e2833001 	add	r3, r3, #1
  102910:	e59d2098 	ldr	r2, [sp, #152]	; 0x98
  102914:	e58d309c 	str	r3, [sp, #156]	; 0x9c
  102918:	e5891000 	str	r1, [r9]
  10291c:	e3a01001 	mov	r1, #1
  102920:	e0822001 	add	r2, r2, r1
  102924:	e58d2098 	str	r2, [sp, #152]	; 0x98
  102928:	e3520007 	cmp	r2, #7
  10292c:	e5891004 	str	r1, [r9, #4]
  102930:	d2899008 	addle	r9, r9, #8
  102934:	ca000129 	bgt	102de0 <_vfprintf_r+0x1548>
  102938:	e2822001 	add	r2, r2, #1
  10293c:	e59d1058 	ldr	r1, [sp, #88]	; 0x58
  102940:	e59d0054 	ldr	r0, [sp, #84]	; 0x54
  102944:	e3520007 	cmp	r2, #7
  102948:	e0833001 	add	r3, r3, r1
  10294c:	e58d2098 	str	r2, [sp, #152]	; 0x98
  102950:	e58d309c 	str	r3, [sp, #156]	; 0x9c
  102954:	e8890003 	stm	r9, {r0, r1}
  102958:	d2899008 	addle	r9, r9, #8
  10295c:	ca000129 	bgt	102e08 <_vfprintf_r+0x1570>
  102960:	eeb58b40 	vcmp.f64	d8, #0.0
  102964:	eef1fa10 	vmrs	APSR_nzcv, fpscr
  102968:	0a00007b 	beq	102b5c <_vfprintf_r+0x12c4>
  10296c:	e59d1040 	ldr	r1, [sp, #64]	; 0x40
  102970:	e2822001 	add	r2, r2, #1
  102974:	e3520007 	cmp	r2, #7
  102978:	e58d2098 	str	r2, [sp, #152]	; 0x98
  10297c:	e2810001 	add	r0, r1, #1
  102980:	e59d104c 	ldr	r1, [sp, #76]	; 0x4c
  102984:	e5890000 	str	r0, [r9]
  102988:	e2411001 	sub	r1, r1, #1
  10298c:	e0833001 	add	r3, r3, r1
  102990:	e58d309c 	str	r3, [sp, #156]	; 0x9c
  102994:	e5891004 	str	r1, [r9, #4]
  102998:	ca000106 	bgt	102db8 <_vfprintf_r+0x1520>
  10299c:	e2899008 	add	r9, r9, #8
  1029a0:	e2822001 	add	r2, r2, #1
  1029a4:	e59d1068 	ldr	r1, [sp, #104]	; 0x68
  1029a8:	e3520007 	cmp	r2, #7
  1029ac:	e58d2098 	str	r2, [sp, #152]	; 0x98
  1029b0:	e0833001 	add	r3, r3, r1
  1029b4:	e28d2084 	add	r2, sp, #132	; 0x84
  1029b8:	e58d309c 	str	r3, [sp, #156]	; 0x9c
  1029bc:	e5891004 	str	r1, [r9, #4]
  1029c0:	e5892000 	str	r2, [r9]
  1029c4:	dafffef9 	ble	1025b0 <_vfprintf_r+0xd18>
  1029c8:	e59d0028 	ldr	r0, [sp, #40]	; 0x28
  1029cc:	e1a0100b 	mov	r1, fp
  1029d0:	e28d2094 	add	r2, sp, #148	; 0x94
  1029d4:	eb0014d2 	bl	107d24 <__sprint_r>
  1029d8:	e3500000 	cmp	r0, #0
  1029dc:	1afffc80 	bne	101be4 <_vfprintf_r+0x34c>
  1029e0:	e59d309c 	ldr	r3, [sp, #156]	; 0x9c
  1029e4:	e1a09008 	mov	r9, r8
  1029e8:	eafffef1 	b	1025b4 <_vfprintf_r+0xd1c>
  1029ec:	e59d0028 	ldr	r0, [sp, #40]	; 0x28
  1029f0:	e1a0100b 	mov	r1, fp
  1029f4:	e28d2094 	add	r2, sp, #148	; 0x94
  1029f8:	eb0014c9 	bl	107d24 <__sprint_r>
  1029fc:	e3500000 	cmp	r0, #0
  102a00:	0affff2c 	beq	1026b8 <_vfprintf_r+0xe20>
  102a04:	eafffc76 	b	101be4 <_vfprintf_r+0x34c>
  102a08:	e59d0028 	ldr	r0, [sp, #40]	; 0x28
  102a0c:	e1a0100b 	mov	r1, fp
  102a10:	e28d2094 	add	r2, sp, #148	; 0x94
  102a14:	eb0014c2 	bl	107d24 <__sprint_r>
  102a18:	e3500000 	cmp	r0, #0
  102a1c:	1afffc70 	bne	101be4 <_vfprintf_r+0x34c>
  102a20:	e59d309c 	ldr	r3, [sp, #156]	; 0x9c
  102a24:	e1a09008 	mov	r9, r8
  102a28:	eafffe89 	b	102454 <_vfprintf_r+0xbbc>
  102a2c:	e59d0028 	ldr	r0, [sp, #40]	; 0x28
  102a30:	e1a0100b 	mov	r1, fp
  102a34:	e28d2094 	add	r2, sp, #148	; 0x94
  102a38:	eb0014b9 	bl	107d24 <__sprint_r>
  102a3c:	e3500000 	cmp	r0, #0
  102a40:	1afffc67 	bne	101be4 <_vfprintf_r+0x34c>
  102a44:	e59d309c 	ldr	r3, [sp, #156]	; 0x9c
  102a48:	e1a09008 	mov	r9, r8
  102a4c:	eafffe8f 	b	102490 <_vfprintf_r+0xbf8>
  102a50:	e3a02002 	mov	r2, #2
  102a54:	eafffc84 	b	101c6c <_vfprintf_r+0x3d4>
  102a58:	e59d507c 	ldr	r5, [sp, #124]	; 0x7c
  102a5c:	e3550000 	cmp	r5, #0
  102a60:	da0001b8 	ble	103148 <_vfprintf_r+0x18b0>
  102a64:	e59d204c 	ldr	r2, [sp, #76]	; 0x4c
  102a68:	e59d1048 	ldr	r1, [sp, #72]	; 0x48
  102a6c:	e59d0040 	ldr	r0, [sp, #64]	; 0x40
  102a70:	e1520001 	cmp	r2, r1
  102a74:	e0807002 	add	r7, r0, r2
  102a78:	b1a05002 	movlt	r5, r2
  102a7c:	a1a05001 	movge	r5, r1
  102a80:	e3550000 	cmp	r5, #0
  102a84:	da000009 	ble	102ab0 <_vfprintf_r+0x1218>
  102a88:	e59d2098 	ldr	r2, [sp, #152]	; 0x98
  102a8c:	e0833005 	add	r3, r3, r5
  102a90:	e5890000 	str	r0, [r9]
  102a94:	e2822001 	add	r2, r2, #1
  102a98:	e5895004 	str	r5, [r9, #4]
  102a9c:	e3520007 	cmp	r2, #7
  102aa0:	e58d309c 	str	r3, [sp, #156]	; 0x9c
  102aa4:	e58d2098 	str	r2, [sp, #152]	; 0x98
  102aa8:	d2899008 	addle	r9, r9, #8
  102aac:	ca00025a 	bgt	10341c <_vfprintf_r+0x1b84>
  102ab0:	e59d2048 	ldr	r2, [sp, #72]	; 0x48
  102ab4:	e3550000 	cmp	r5, #0
  102ab8:	a0652002 	rsbge	r2, r5, r2
  102abc:	e3520000 	cmp	r2, #0
  102ac0:	e1a05002 	mov	r5, r2
  102ac4:	da00005b 	ble	102c38 <_vfprintf_r+0x13a0>
  102ac8:	e3550010 	cmp	r5, #16
  102acc:	e59d2098 	ldr	r2, [sp, #152]	; 0x98
  102ad0:	e51f4de0 	ldr	r4, [pc, #-3552]	; 101cf8 <_vfprintf_r+0x460>
  102ad4:	c3a06010 	movgt	r6, #16
  102ad8:	c59da028 	ldrgt	sl, [sp, #40]	; 0x28
  102adc:	ca000003 	bgt	102af0 <_vfprintf_r+0x1258>
  102ae0:	ea000044 	b	102bf8 <_vfprintf_r+0x1360>
  102ae4:	e2455010 	sub	r5, r5, #16
  102ae8:	e3550010 	cmp	r5, #16
  102aec:	da000041 	ble	102bf8 <_vfprintf_r+0x1360>
  102af0:	e2822001 	add	r2, r2, #1
  102af4:	e2833010 	add	r3, r3, #16
  102af8:	e3520007 	cmp	r2, #7
  102afc:	e8890050 	stm	r9, {r4, r6}
  102b00:	e58d2098 	str	r2, [sp, #152]	; 0x98
  102b04:	d2899008 	addle	r9, r9, #8
  102b08:	e58d309c 	str	r3, [sp, #156]	; 0x9c
  102b0c:	dafffff4 	ble	102ae4 <_vfprintf_r+0x124c>
  102b10:	e1a0000a 	mov	r0, sl
  102b14:	e1a0100b 	mov	r1, fp
  102b18:	e28d2094 	add	r2, sp, #148	; 0x94
  102b1c:	e1a09008 	mov	r9, r8
  102b20:	eb00147f 	bl	107d24 <__sprint_r>
  102b24:	e3500000 	cmp	r0, #0
  102b28:	1afffc2d 	bne	101be4 <_vfprintf_r+0x34c>
  102b2c:	e59d309c 	ldr	r3, [sp, #156]	; 0x9c
  102b30:	e59d2098 	ldr	r2, [sp, #152]	; 0x98
  102b34:	eaffffea 	b	102ae4 <_vfprintf_r+0x124c>
  102b38:	e3550000 	cmp	r5, #0
  102b3c:	03540009 	cmpeq	r4, #9
  102b40:	8a0000c2 	bhi	102e50 <_vfprintf_r+0x15b8>
  102b44:	e28d3f42 	add	r3, sp, #264	; 0x108
  102b48:	e2844030 	add	r4, r4, #48	; 0x30
  102b4c:	e5634041 	strb	r4, [r3, #-65]!	; 0xffffffbf
  102b50:	e0635008 	rsb	r5, r3, r8
  102b54:	e58d3040 	str	r3, [sp, #64]	; 0x40
  102b58:	eafffc7e 	b	101d58 <_vfprintf_r+0x4c0>
  102b5c:	e59d104c 	ldr	r1, [sp, #76]	; 0x4c
  102b60:	e2415001 	sub	r5, r1, #1
  102b64:	e3550000 	cmp	r5, #0
  102b68:	daffff8c 	ble	1029a0 <_vfprintf_r+0x1108>
  102b6c:	e3550010 	cmp	r5, #16
  102b70:	e51f4e80 	ldr	r4, [pc, #-3712]	; 101cf8 <_vfprintf_r+0x460>
  102b74:	c3a06010 	movgt	r6, #16
  102b78:	c59d7028 	ldrgt	r7, [sp, #40]	; 0x28
  102b7c:	ca000003 	bgt	102b90 <_vfprintf_r+0x12f8>
  102b80:	ea0000aa 	b	102e30 <_vfprintf_r+0x1598>
  102b84:	e2455010 	sub	r5, r5, #16
  102b88:	e3550010 	cmp	r5, #16
  102b8c:	da0000a7 	ble	102e30 <_vfprintf_r+0x1598>
  102b90:	e2822001 	add	r2, r2, #1
  102b94:	e2833010 	add	r3, r3, #16
  102b98:	e3520007 	cmp	r2, #7
  102b9c:	e8890050 	stm	r9, {r4, r6}
  102ba0:	e58d2098 	str	r2, [sp, #152]	; 0x98
  102ba4:	d2899008 	addle	r9, r9, #8
  102ba8:	e58d309c 	str	r3, [sp, #156]	; 0x9c
  102bac:	dafffff4 	ble	102b84 <_vfprintf_r+0x12ec>
  102bb0:	e1a00007 	mov	r0, r7
  102bb4:	e1a0100b 	mov	r1, fp
  102bb8:	e28d2094 	add	r2, sp, #148	; 0x94
  102bbc:	e1a09008 	mov	r9, r8
  102bc0:	eb001457 	bl	107d24 <__sprint_r>
  102bc4:	e3500000 	cmp	r0, #0
  102bc8:	1afffc05 	bne	101be4 <_vfprintf_r+0x34c>
  102bcc:	e59d309c 	ldr	r3, [sp, #156]	; 0x9c
  102bd0:	e59d2098 	ldr	r2, [sp, #152]	; 0x98
  102bd4:	eaffffea 	b	102b84 <_vfprintf_r+0x12ec>
  102bd8:	e2822001 	add	r2, r2, #1
  102bdc:	e0833005 	add	r3, r3, r5
  102be0:	e3520007 	cmp	r2, #7
  102be4:	e58d2098 	str	r2, [sp, #152]	; 0x98
  102be8:	e58d309c 	str	r3, [sp, #156]	; 0x9c
  102bec:	e8890030 	stm	r9, {r4, r5}
  102bf0:	dafffe6e 	ble	1025b0 <_vfprintf_r+0xd18>
  102bf4:	eaffff73 	b	1029c8 <_vfprintf_r+0x1130>
  102bf8:	e2822001 	add	r2, r2, #1
  102bfc:	e0833005 	add	r3, r3, r5
  102c00:	e3520007 	cmp	r2, #7
  102c04:	e8890030 	stm	r9, {r4, r5}
  102c08:	e58d2098 	str	r2, [sp, #152]	; 0x98
  102c0c:	d2899008 	addle	r9, r9, #8
  102c10:	e58d309c 	str	r3, [sp, #156]	; 0x9c
  102c14:	da000007 	ble	102c38 <_vfprintf_r+0x13a0>
  102c18:	e59d0028 	ldr	r0, [sp, #40]	; 0x28
  102c1c:	e1a0100b 	mov	r1, fp
  102c20:	e28d2094 	add	r2, sp, #148	; 0x94
  102c24:	eb00143e 	bl	107d24 <__sprint_r>
  102c28:	e3500000 	cmp	r0, #0
  102c2c:	1afffbec 	bne	101be4 <_vfprintf_r+0x34c>
  102c30:	e59d309c 	ldr	r3, [sp, #156]	; 0x9c
  102c34:	e1a09008 	mov	r9, r8
  102c38:	e59d2040 	ldr	r2, [sp, #64]	; 0x40
  102c3c:	e59d1048 	ldr	r1, [sp, #72]	; 0x48
  102c40:	e59d507c 	ldr	r5, [sp, #124]	; 0x7c
  102c44:	e0826001 	add	r6, r2, r1
  102c48:	e59d204c 	ldr	r2, [sp, #76]	; 0x4c
  102c4c:	e1550002 	cmp	r5, r2
  102c50:	ba000034 	blt	102d28 <_vfprintf_r+0x1490>
  102c54:	e59d201c 	ldr	r2, [sp, #28]
  102c58:	e3120001 	tst	r2, #1
  102c5c:	1a000031 	bne	102d28 <_vfprintf_r+0x1490>
  102c60:	e59d204c 	ldr	r2, [sp, #76]	; 0x4c
  102c64:	e0667007 	rsb	r7, r6, r7
  102c68:	e0655002 	rsb	r5, r5, r2
  102c6c:	e1550007 	cmp	r5, r7
  102c70:	b1a04005 	movlt	r4, r5
  102c74:	a1a04007 	movge	r4, r7
  102c78:	e3540000 	cmp	r4, #0
  102c7c:	da000009 	ble	102ca8 <_vfprintf_r+0x1410>
  102c80:	e59d2098 	ldr	r2, [sp, #152]	; 0x98
  102c84:	e0833004 	add	r3, r3, r4
  102c88:	e5896000 	str	r6, [r9]
  102c8c:	e2822001 	add	r2, r2, #1
  102c90:	e5894004 	str	r4, [r9, #4]
  102c94:	e3520007 	cmp	r2, #7
  102c98:	e58d309c 	str	r3, [sp, #156]	; 0x9c
  102c9c:	e58d2098 	str	r2, [sp, #152]	; 0x98
  102ca0:	d2899008 	addle	r9, r9, #8
  102ca4:	ca0001e5 	bgt	103440 <_vfprintf_r+0x1ba8>
  102ca8:	e3540000 	cmp	r4, #0
  102cac:	a0645005 	rsbge	r5, r4, r5
  102cb0:	e3550000 	cmp	r5, #0
  102cb4:	dafffe3e 	ble	1025b4 <_vfprintf_r+0xd1c>
  102cb8:	e3550010 	cmp	r5, #16
  102cbc:	e59d2098 	ldr	r2, [sp, #152]	; 0x98
  102cc0:	e51f4fd0 	ldr	r4, [pc, #-4048]	; 101cf8 <_vfprintf_r+0x460>
  102cc4:	c3a06010 	movgt	r6, #16
  102cc8:	c59d7028 	ldrgt	r7, [sp, #40]	; 0x28
  102ccc:	ca000003 	bgt	102ce0 <_vfprintf_r+0x1448>
  102cd0:	eaffffc0 	b	102bd8 <_vfprintf_r+0x1340>
  102cd4:	e2455010 	sub	r5, r5, #16
  102cd8:	e3550010 	cmp	r5, #16
  102cdc:	daffffbd 	ble	102bd8 <_vfprintf_r+0x1340>
  102ce0:	e2822001 	add	r2, r2, #1
  102ce4:	e2833010 	add	r3, r3, #16
  102ce8:	e3520007 	cmp	r2, #7
  102cec:	e8890050 	stm	r9, {r4, r6}
  102cf0:	e58d2098 	str	r2, [sp, #152]	; 0x98
  102cf4:	d2899008 	addle	r9, r9, #8
  102cf8:	e58d309c 	str	r3, [sp, #156]	; 0x9c
  102cfc:	dafffff4 	ble	102cd4 <_vfprintf_r+0x143c>
  102d00:	e1a00007 	mov	r0, r7
  102d04:	e1a0100b 	mov	r1, fp
  102d08:	e28d2094 	add	r2, sp, #148	; 0x94
  102d0c:	e1a09008 	mov	r9, r8
  102d10:	eb001403 	bl	107d24 <__sprint_r>
  102d14:	e3500000 	cmp	r0, #0
  102d18:	1afffbb1 	bne	101be4 <_vfprintf_r+0x34c>
  102d1c:	e59d309c 	ldr	r3, [sp, #156]	; 0x9c
  102d20:	e59d2098 	ldr	r2, [sp, #152]	; 0x98
  102d24:	eaffffea 	b	102cd4 <_vfprintf_r+0x143c>
  102d28:	e59d2098 	ldr	r2, [sp, #152]	; 0x98
  102d2c:	e59d1058 	ldr	r1, [sp, #88]	; 0x58
  102d30:	e2822001 	add	r2, r2, #1
  102d34:	e59d0054 	ldr	r0, [sp, #84]	; 0x54
  102d38:	e3520007 	cmp	r2, #7
  102d3c:	e0833001 	add	r3, r3, r1
  102d40:	e5891004 	str	r1, [r9, #4]
  102d44:	e5890000 	str	r0, [r9]
  102d48:	d2899008 	addle	r9, r9, #8
  102d4c:	e58d309c 	str	r3, [sp, #156]	; 0x9c
  102d50:	e58d2098 	str	r2, [sp, #152]	; 0x98
  102d54:	daffffc1 	ble	102c60 <_vfprintf_r+0x13c8>
  102d58:	e59d0028 	ldr	r0, [sp, #40]	; 0x28
  102d5c:	e1a0100b 	mov	r1, fp
  102d60:	e28d2094 	add	r2, sp, #148	; 0x94
  102d64:	eb0013ee 	bl	107d24 <__sprint_r>
  102d68:	e3500000 	cmp	r0, #0
  102d6c:	1afffb9c 	bne	101be4 <_vfprintf_r+0x34c>
  102d70:	e59d507c 	ldr	r5, [sp, #124]	; 0x7c
  102d74:	e1a09008 	mov	r9, r8
  102d78:	e59d309c 	ldr	r3, [sp, #156]	; 0x9c
  102d7c:	eaffffb7 	b	102c60 <_vfprintf_r+0x13c8>
  102d80:	e59d201c 	ldr	r2, [sp, #28]
  102d84:	e3120001 	tst	r2, #1
  102d88:	1afffede 	bne	102908 <_vfprintf_r+0x1070>
  102d8c:	e59d1040 	ldr	r1, [sp, #64]	; 0x40
  102d90:	e2833001 	add	r3, r3, #1
  102d94:	e59d2098 	ldr	r2, [sp, #152]	; 0x98
  102d98:	e58d309c 	str	r3, [sp, #156]	; 0x9c
  102d9c:	e5891000 	str	r1, [r9]
  102da0:	e3a01001 	mov	r1, #1
  102da4:	e0822001 	add	r2, r2, r1
  102da8:	e58d2098 	str	r2, [sp, #152]	; 0x98
  102dac:	e3520007 	cmp	r2, #7
  102db0:	e5891004 	str	r1, [r9, #4]
  102db4:	dafffef8 	ble	10299c <_vfprintf_r+0x1104>
  102db8:	e59d0028 	ldr	r0, [sp, #40]	; 0x28
  102dbc:	e1a0100b 	mov	r1, fp
  102dc0:	e28d2094 	add	r2, sp, #148	; 0x94
  102dc4:	eb0013d6 	bl	107d24 <__sprint_r>
  102dc8:	e3500000 	cmp	r0, #0
  102dcc:	1afffb84 	bne	101be4 <_vfprintf_r+0x34c>
  102dd0:	e59d309c 	ldr	r3, [sp, #156]	; 0x9c
  102dd4:	e1a09008 	mov	r9, r8
  102dd8:	e59d2098 	ldr	r2, [sp, #152]	; 0x98
  102ddc:	eafffeef 	b	1029a0 <_vfprintf_r+0x1108>
  102de0:	e59d0028 	ldr	r0, [sp, #40]	; 0x28
  102de4:	e1a0100b 	mov	r1, fp
  102de8:	e28d2094 	add	r2, sp, #148	; 0x94
  102dec:	eb0013cc 	bl	107d24 <__sprint_r>
  102df0:	e3500000 	cmp	r0, #0
  102df4:	1afffb7a 	bne	101be4 <_vfprintf_r+0x34c>
  102df8:	e59d309c 	ldr	r3, [sp, #156]	; 0x9c
  102dfc:	e1a09008 	mov	r9, r8
  102e00:	e59d2098 	ldr	r2, [sp, #152]	; 0x98
  102e04:	eafffecb 	b	102938 <_vfprintf_r+0x10a0>
  102e08:	e59d0028 	ldr	r0, [sp, #40]	; 0x28
  102e0c:	e1a0100b 	mov	r1, fp
  102e10:	e28d2094 	add	r2, sp, #148	; 0x94
  102e14:	eb0013c2 	bl	107d24 <__sprint_r>
  102e18:	e3500000 	cmp	r0, #0
  102e1c:	1afffb70 	bne	101be4 <_vfprintf_r+0x34c>
  102e20:	e59d309c 	ldr	r3, [sp, #156]	; 0x9c
  102e24:	e1a09008 	mov	r9, r8
  102e28:	e59d2098 	ldr	r2, [sp, #152]	; 0x98
  102e2c:	eafffecb 	b	102960 <_vfprintf_r+0x10c8>
  102e30:	e2822001 	add	r2, r2, #1
  102e34:	e0833005 	add	r3, r3, r5
  102e38:	e3520007 	cmp	r2, #7
  102e3c:	e58d2098 	str	r2, [sp, #152]	; 0x98
  102e40:	e58d309c 	str	r3, [sp, #156]	; 0x9c
  102e44:	e8890030 	stm	r9, {r4, r5}
  102e48:	dafffed3 	ble	10299c <_vfprintf_r+0x1104>
  102e4c:	eaffffd9 	b	102db8 <_vfprintf_r+0x1520>
  102e50:	e58d6020 	str	r6, [sp, #32]
  102e54:	e1a06008 	mov	r6, r8
  102e58:	e1a00004 	mov	r0, r4
  102e5c:	e1a01005 	mov	r1, r5
  102e60:	e3a0200a 	mov	r2, #10
  102e64:	e3a03000 	mov	r3, #0
  102e68:	eb001ec8 	bl	10a990 <__aeabi_uldivmod>
  102e6c:	e1a00004 	mov	r0, r4
  102e70:	e1a01005 	mov	r1, r5
  102e74:	e3a03000 	mov	r3, #0
  102e78:	e2822030 	add	r2, r2, #48	; 0x30
  102e7c:	e5662001 	strb	r2, [r6, #-1]!
  102e80:	e3a0200a 	mov	r2, #10
  102e84:	eb001ec1 	bl	10a990 <__aeabi_uldivmod>
  102e88:	e1a04000 	mov	r4, r0
  102e8c:	e1a05001 	mov	r5, r1
  102e90:	e1943005 	orrs	r3, r4, r5
  102e94:	1affffef 	bne	102e58 <_vfprintf_r+0x15c0>
  102e98:	e1a03006 	mov	r3, r6
  102e9c:	e59d6020 	ldr	r6, [sp, #32]
  102ea0:	e58d3040 	str	r3, [sp, #64]	; 0x40
  102ea4:	e0635008 	rsb	r5, r3, r8
  102ea8:	eafffbaa 	b	101d58 <_vfprintf_r+0x4c0>
  102eac:	e2744000 	rsbs	r4, r4, #0
  102eb0:	e3a0a02d 	mov	sl, #45	; 0x2d
  102eb4:	e2e55000 	rsc	r5, r5, #0
  102eb8:	e5cda077 	strb	sl, [sp, #119]	; 0x77
  102ebc:	e58d7044 	str	r7, [sp, #68]	; 0x44
  102ec0:	e3a02001 	mov	r2, #1
  102ec4:	eafffb6c 	b	101c7c <_vfprintf_r+0x3e4>
  102ec8:	ec510b18 	vmov	r0, r1, d8
  102ecc:	eb00120b 	bl	107700 <__fpclassifyd>
  102ed0:	e3500000 	cmp	r0, #0
  102ed4:	0a0000db 	beq	103248 <_vfprintf_r+0x19b0>
  102ed8:	e3770001 	cmn	r7, #1
  102edc:	e3c65020 	bic	r5, r6, #32
  102ee0:	03a07006 	moveq	r7, #6
  102ee4:	0a000105 	beq	103300 <_vfprintf_r+0x1a68>
  102ee8:	e3550047 	cmp	r5, #71	; 0x47
  102eec:	03570000 	cmpeq	r7, #0
  102ef0:	1a000102 	bne	103300 <_vfprintf_r+0x1a68>
  102ef4:	ee183a90 	vmov	r3, s17
  102ef8:	e3a05047 	mov	r5, #71	; 0x47
  102efc:	e3a07001 	mov	r7, #1
  102f00:	e3530000 	cmp	r3, #0
  102f04:	e59d301c 	ldr	r3, [sp, #28]
  102f08:	e3833c01 	orr	r3, r3, #256	; 0x100
  102f0c:	e58d3038 	str	r3, [sp, #56]	; 0x38
  102f10:	ba0001df 	blt	103694 <_vfprintf_r+0x1dfc>
  102f14:	eeb09b48 	vmov.f64	d9, d8
  102f18:	e3a0a000 	mov	sl, #0
  102f1c:	e3a02002 	mov	r2, #2
  102f20:	e28d307c 	add	r3, sp, #124	; 0x7c
  102f24:	e58d2000 	str	r2, [sp]
  102f28:	e28d2080 	add	r2, sp, #128	; 0x80
  102f2c:	e58d3008 	str	r3, [sp, #8]
  102f30:	e28d308c 	add	r3, sp, #140	; 0x8c
  102f34:	e58d200c 	str	r2, [sp, #12]
  102f38:	e58d3010 	str	r3, [sp, #16]
  102f3c:	e58d7004 	str	r7, [sp, #4]
  102f40:	e59d0028 	ldr	r0, [sp, #40]	; 0x28
  102f44:	ec532b19 	vmov	r2, r3, d9
  102f48:	eb00035f 	bl	103ccc <_dtoa_r>
  102f4c:	e3550047 	cmp	r5, #71	; 0x47
  102f50:	e58d0040 	str	r0, [sp, #64]	; 0x40
  102f54:	1a0001fe 	bne	103754 <_vfprintf_r+0x1ebc>
  102f58:	e59d301c 	ldr	r3, [sp, #28]
  102f5c:	e3130001 	tst	r3, #1
  102f60:	0a0001d6 	beq	1036c0 <_vfprintf_r+0x1e28>
  102f64:	e59d3040 	ldr	r3, [sp, #64]	; 0x40
  102f68:	e0834007 	add	r4, r3, r7
  102f6c:	eeb59b40 	vcmp.f64	d9, #0.0
  102f70:	eef1fa10 	vmrs	APSR_nzcv, fpscr
  102f74:	01a03004 	moveq	r3, r4
  102f78:	0a000009 	beq	102fa4 <_vfprintf_r+0x170c>
  102f7c:	e59d308c 	ldr	r3, [sp, #140]	; 0x8c
  102f80:	e1540003 	cmp	r4, r3
  102f84:	9a000006 	bls	102fa4 <_vfprintf_r+0x170c>
  102f88:	e3a01030 	mov	r1, #48	; 0x30
  102f8c:	e2832001 	add	r2, r3, #1
  102f90:	e58d208c 	str	r2, [sp, #140]	; 0x8c
  102f94:	e5c31000 	strb	r1, [r3]
  102f98:	e59d308c 	ldr	r3, [sp, #140]	; 0x8c
  102f9c:	e1540003 	cmp	r4, r3
  102fa0:	8afffff9 	bhi	102f8c <_vfprintf_r+0x16f4>
  102fa4:	e59d2040 	ldr	r2, [sp, #64]	; 0x40
  102fa8:	e3550047 	cmp	r5, #71	; 0x47
  102fac:	e0623003 	rsb	r3, r2, r3
  102fb0:	e58d304c 	str	r3, [sp, #76]	; 0x4c
  102fb4:	e59d307c 	ldr	r3, [sp, #124]	; 0x7c
  102fb8:	1a000160 	bne	103540 <_vfprintf_r+0x1ca8>
  102fbc:	e3730003 	cmn	r3, #3
  102fc0:	a1570003 	cmpge	r7, r3
  102fc4:	b2466002 	sublt	r6, r6, #2
  102fc8:	ba000172 	blt	103598 <_vfprintf_r+0x1d00>
  102fcc:	e3a06067 	mov	r6, #103	; 0x67
  102fd0:	e58d3048 	str	r3, [sp, #72]	; 0x48
  102fd4:	e59d304c 	ldr	r3, [sp, #76]	; 0x4c
  102fd8:	e59d2048 	ldr	r2, [sp, #72]	; 0x48
  102fdc:	e1530002 	cmp	r3, r2
  102fe0:	ca0001ae 	bgt	1036a0 <_vfprintf_r+0x1e08>
  102fe4:	e59d301c 	ldr	r3, [sp, #28]
  102fe8:	e3130001 	tst	r3, #1
  102fec:	159d3048 	ldrne	r3, [sp, #72]	; 0x48
  102ff0:	01a05002 	moveq	r5, r2
  102ff4:	01a03005 	moveq	r3, r5
  102ff8:	12835001 	addne	r5, r3, #1
  102ffc:	01c33fc3 	biceq	r3, r3, r3, asr #31
  103000:	11c53fc5 	bicne	r3, r5, r5, asr #31
  103004:	e35a0000 	cmp	sl, #0
  103008:	1a000144 	bne	103520 <_vfprintf_r+0x1c88>
  10300c:	e58d3020 	str	r3, [sp, #32]
  103010:	e59d3038 	ldr	r3, [sp, #56]	; 0x38
  103014:	e58da044 	str	sl, [sp, #68]	; 0x44
  103018:	e5dda077 	ldrb	sl, [sp, #119]	; 0x77
  10301c:	e58d301c 	str	r3, [sp, #28]
  103020:	eafffb52 	b	101d70 <_vfprintf_r+0x4d8>
  103024:	e59d201c 	ldr	r2, [sp, #28]
  103028:	e2122040 	ands	r2, r2, #64	; 0x40
  10302c:	0a00007f 	beq	103230 <_vfprintf_r+0x1998>
  103030:	e1a02003 	mov	r2, r3
  103034:	e59d3034 	ldr	r3, [sp, #52]	; 0x34
  103038:	e3a05000 	mov	r5, #0
  10303c:	e2833004 	add	r3, r3, #4
  103040:	e15340b4 	ldrh	r4, [r3, #-4]
  103044:	e58d3034 	str	r3, [sp, #52]	; 0x34
  103048:	eafffb07 	b	101c6c <_vfprintf_r+0x3d4>
  10304c:	e59d301c 	ldr	r3, [sp, #28]
  103050:	e3130040 	tst	r3, #64	; 0x40
  103054:	e59d3034 	ldr	r3, [sp, #52]	; 0x34
  103058:	13a05000 	movne	r5, #0
  10305c:	03a05000 	moveq	r5, #0
  103060:	05934000 	ldreq	r4, [r3]
  103064:	02833004 	addeq	r3, r3, #4
  103068:	11d340b0 	ldrhne	r4, [r3]
  10306c:	12833004 	addne	r3, r3, #4
  103070:	058d3034 	streq	r3, [sp, #52]	; 0x34
  103074:	158d3034 	strne	r3, [sp, #52]	; 0x34
  103078:	eafffbbd 	b	101f74 <_vfprintf_r+0x6dc>
  10307c:	e59d301c 	ldr	r3, [sp, #28]
  103080:	e3130040 	tst	r3, #64	; 0x40
  103084:	e59d3034 	ldr	r3, [sp, #52]	; 0x34
  103088:	0afffc4f 	beq	1021cc <_vfprintf_r+0x934>
  10308c:	e1d340b0 	ldrh	r4, [r3]
  103090:	e2833004 	add	r3, r3, #4
  103094:	e58d3034 	str	r3, [sp, #52]	; 0x34
  103098:	e6bf4074 	sxth	r4, r4
  10309c:	e1a05fc4 	asr	r5, r4, #31
  1030a0:	e1a02004 	mov	r2, r4
  1030a4:	e1a03005 	mov	r3, r5
  1030a8:	eafffc0f 	b	1020ec <_vfprintf_r+0x854>
  1030ac:	e59d301c 	ldr	r3, [sp, #28]
  1030b0:	e3130010 	tst	r3, #16
  1030b4:	1a000009 	bne	1030e0 <_vfprintf_r+0x1848>
  1030b8:	e59d301c 	ldr	r3, [sp, #28]
  1030bc:	e3130040 	tst	r3, #64	; 0x40
  1030c0:	0a000006 	beq	1030e0 <_vfprintf_r+0x1848>
  1030c4:	e59d2034 	ldr	r2, [sp, #52]	; 0x34
  1030c8:	e2822004 	add	r2, r2, #4
  1030cc:	e5123004 	ldr	r3, [r2, #-4]
  1030d0:	e58d2034 	str	r2, [sp, #52]	; 0x34
  1030d4:	e1dd22bc 	ldrh	r2, [sp, #44]	; 0x2c
  1030d8:	e1c320b0 	strh	r2, [r3]
  1030dc:	eafffa24 	b	101974 <_vfprintf_r+0xdc>
  1030e0:	e59d2034 	ldr	r2, [sp, #52]	; 0x34
  1030e4:	e2822004 	add	r2, r2, #4
  1030e8:	e5123004 	ldr	r3, [r2, #-4]
  1030ec:	e58d2034 	str	r2, [sp, #52]	; 0x34
  1030f0:	e59d202c 	ldr	r2, [sp, #44]	; 0x2c
  1030f4:	e5832000 	str	r2, [r3]
  1030f8:	eafffa1d 	b	101974 <_vfprintf_r+0xdc>
  1030fc:	e59d301c 	ldr	r3, [sp, #28]
  103100:	e3130040 	tst	r3, #64	; 0x40
  103104:	e59d3034 	ldr	r3, [sp, #52]	; 0x34
  103108:	0afffca4 	beq	1023a0 <_vfprintf_r+0xb08>
  10310c:	e1d340b0 	ldrh	r4, [r3]
  103110:	e3a05000 	mov	r5, #0
  103114:	e2833004 	add	r3, r3, #4
  103118:	e3a02001 	mov	r2, #1
  10311c:	e58d3034 	str	r3, [sp, #52]	; 0x34
  103120:	eafffad1 	b	101c6c <_vfprintf_r+0x3d4>
  103124:	e59d0028 	ldr	r0, [sp, #40]	; 0x28
  103128:	e1a0100b 	mov	r1, fp
  10312c:	e28d2094 	add	r2, sp, #148	; 0x94
  103130:	eb0012fb 	bl	107d24 <__sprint_r>
  103134:	e3500000 	cmp	r0, #0
  103138:	1afffaa9 	bne	101be4 <_vfprintf_r+0x34c>
  10313c:	e59d309c 	ldr	r3, [sp, #156]	; 0x9c
  103140:	e1a09008 	mov	r9, r8
  103144:	eafffd71 	b	102710 <_vfprintf_r+0xe78>
  103148:	e59d2098 	ldr	r2, [sp, #152]	; 0x98
  10314c:	e30a1f24 	movw	r1, #44836	; 0xaf24
  103150:	e2833001 	add	r3, r3, #1
  103154:	e3401010 	movt	r1, #16
  103158:	e2822001 	add	r2, r2, #1
  10315c:	e5891000 	str	r1, [r9]
  103160:	e3520007 	cmp	r2, #7
  103164:	e58d2098 	str	r2, [sp, #152]	; 0x98
  103168:	e58d309c 	str	r3, [sp, #156]	; 0x9c
  10316c:	e3a02001 	mov	r2, #1
  103170:	e5892004 	str	r2, [r9, #4]
  103174:	d2899008 	addle	r9, r9, #8
  103178:	ca000047 	bgt	10329c <_vfprintf_r+0x1a04>
  10317c:	e59d204c 	ldr	r2, [sp, #76]	; 0x4c
  103180:	e1952002 	orrs	r2, r5, r2
  103184:	0a000040 	beq	10328c <_vfprintf_r+0x19f4>
  103188:	e59d2098 	ldr	r2, [sp, #152]	; 0x98
  10318c:	e59d1058 	ldr	r1, [sp, #88]	; 0x58
  103190:	e2822001 	add	r2, r2, #1
  103194:	e59d0054 	ldr	r0, [sp, #84]	; 0x54
  103198:	e3520007 	cmp	r2, #7
  10319c:	e0833001 	add	r3, r3, r1
  1031a0:	e5891004 	str	r1, [r9, #4]
  1031a4:	e5890000 	str	r0, [r9]
  1031a8:	d2899008 	addle	r9, r9, #8
  1031ac:	e58d309c 	str	r3, [sp, #156]	; 0x9c
  1031b0:	e58d2098 	str	r2, [sp, #152]	; 0x98
  1031b4:	ca00012b 	bgt	103668 <_vfprintf_r+0x1dd0>
  1031b8:	e2655000 	rsb	r5, r5, #0
  1031bc:	e3550000 	cmp	r5, #0
  1031c0:	da00007c 	ble	1033b8 <_vfprintf_r+0x1b20>
  1031c4:	e3550010 	cmp	r5, #16
  1031c8:	e59f458c 	ldr	r4, [pc, #1420]	; 10375c <_vfprintf_r+0x1ec4>
  1031cc:	c3a06010 	movgt	r6, #16
  1031d0:	c59d7028 	ldrgt	r7, [sp, #40]	; 0x28
  1031d4:	ca000003 	bgt	1031e8 <_vfprintf_r+0x1950>
  1031d8:	ea000065 	b	103374 <_vfprintf_r+0x1adc>
  1031dc:	e2455010 	sub	r5, r5, #16
  1031e0:	e3550010 	cmp	r5, #16
  1031e4:	da000062 	ble	103374 <_vfprintf_r+0x1adc>
  1031e8:	e2822001 	add	r2, r2, #1
  1031ec:	e2833010 	add	r3, r3, #16
  1031f0:	e3520007 	cmp	r2, #7
  1031f4:	e8890050 	stm	r9, {r4, r6}
  1031f8:	e58d2098 	str	r2, [sp, #152]	; 0x98
  1031fc:	d2899008 	addle	r9, r9, #8
  103200:	e58d309c 	str	r3, [sp, #156]	; 0x9c
  103204:	dafffff4 	ble	1031dc <_vfprintf_r+0x1944>
  103208:	e1a00007 	mov	r0, r7
  10320c:	e1a0100b 	mov	r1, fp
  103210:	e28d2094 	add	r2, sp, #148	; 0x94
  103214:	e1a09008 	mov	r9, r8
  103218:	eb0012c1 	bl	107d24 <__sprint_r>
  10321c:	e3500000 	cmp	r0, #0
  103220:	1afffa6f 	bne	101be4 <_vfprintf_r+0x34c>
  103224:	e59d309c 	ldr	r3, [sp, #156]	; 0x9c
  103228:	e59d2098 	ldr	r2, [sp, #152]	; 0x98
  10322c:	eaffffea 	b	1031dc <_vfprintf_r+0x1944>
  103230:	e59d3034 	ldr	r3, [sp, #52]	; 0x34
  103234:	e3a05000 	mov	r5, #0
  103238:	e2833004 	add	r3, r3, #4
  10323c:	e5134004 	ldr	r4, [r3, #-4]
  103240:	e58d3034 	str	r3, [sp, #52]	; 0x34
  103244:	eafffa88 	b	101c6c <_vfprintf_r+0x3d4>
  103248:	e59dc01c 	ldr	ip, [sp, #28]
  10324c:	e30a3eec 	movw	r3, #44780	; 0xaeec
  103250:	e3560047 	cmp	r6, #71	; 0x47
  103254:	e3a01003 	mov	r1, #3
  103258:	e30a2ef0 	movw	r2, #44784	; 0xaef0
  10325c:	e3403010 	movt	r3, #16
  103260:	e3402010 	movt	r2, #16
  103264:	e3ccc080 	bic	ip, ip, #128	; 0x80
  103268:	d1a02003 	movle	r2, r3
  10326c:	e58d0044 	str	r0, [sp, #68]	; 0x44
  103270:	e58d1020 	str	r1, [sp, #32]
  103274:	e1a05001 	mov	r5, r1
  103278:	e58dc01c 	str	ip, [sp, #28]
  10327c:	e58d0048 	str	r0, [sp, #72]	; 0x48
  103280:	e58d2040 	str	r2, [sp, #64]	; 0x40
  103284:	e5dda077 	ldrb	sl, [sp, #119]	; 0x77
  103288:	eafffab8 	b	101d70 <_vfprintf_r+0x4d8>
  10328c:	e59d201c 	ldr	r2, [sp, #28]
  103290:	e3120001 	tst	r2, #1
  103294:	0afffcc6 	beq	1025b4 <_vfprintf_r+0xd1c>
  103298:	eaffffba 	b	103188 <_vfprintf_r+0x18f0>
  10329c:	e59d0028 	ldr	r0, [sp, #40]	; 0x28
  1032a0:	e1a0100b 	mov	r1, fp
  1032a4:	e28d2094 	add	r2, sp, #148	; 0x94
  1032a8:	eb00129d 	bl	107d24 <__sprint_r>
  1032ac:	e3500000 	cmp	r0, #0
  1032b0:	1afffa4b 	bne	101be4 <_vfprintf_r+0x34c>
  1032b4:	e59d507c 	ldr	r5, [sp, #124]	; 0x7c
  1032b8:	e1a09008 	mov	r9, r8
  1032bc:	e59d309c 	ldr	r3, [sp, #156]	; 0x9c
  1032c0:	eaffffad 	b	10317c <_vfprintf_r+0x18e4>
  1032c4:	e59d0030 	ldr	r0, [sp, #48]	; 0x30
  1032c8:	e58d1034 	str	r1, [sp, #52]	; 0x34
  1032cc:	e1a01003 	mov	r1, r3
  1032d0:	e2600000 	rsb	r0, r0, #0
  1032d4:	e58d0030 	str	r0, [sp, #48]	; 0x30
  1032d8:	eafffae9 	b	101e84 <_vfprintf_r+0x5ec>
  1032dc:	e59d0028 	ldr	r0, [sp, #40]	; 0x28
  1032e0:	e1a0100b 	mov	r1, fp
  1032e4:	e28d2094 	add	r2, sp, #148	; 0x94
  1032e8:	eb00128d 	bl	107d24 <__sprint_r>
  1032ec:	e3500000 	cmp	r0, #0
  1032f0:	1afffa3b 	bne	101be4 <_vfprintf_r+0x34c>
  1032f4:	e59d309c 	ldr	r3, [sp, #156]	; 0x9c
  1032f8:	e1a09008 	mov	r9, r8
  1032fc:	eafffd16 	b	10275c <_vfprintf_r+0xec4>
  103300:	ee183a90 	vmov	r3, s17
  103304:	e3530000 	cmp	r3, #0
  103308:	e59d301c 	ldr	r3, [sp, #28]
  10330c:	aeb09b48 	vmovge.f64	d9, d8
  103310:	e3833c01 	orr	r3, r3, #256	; 0x100
  103314:	a3a0a000 	movge	sl, #0
  103318:	e58d3038 	str	r3, [sp, #56]	; 0x38
  10331c:	ba0000dc 	blt	103694 <_vfprintf_r+0x1dfc>
  103320:	e3550046 	cmp	r5, #70	; 0x46
  103324:	0a000061 	beq	1034b0 <_vfprintf_r+0x1c18>
  103328:	e3550045 	cmp	r5, #69	; 0x45
  10332c:	1afffefa 	bne	102f1c <_vfprintf_r+0x1684>
  103330:	e3a02002 	mov	r2, #2
  103334:	e28d307c 	add	r3, sp, #124	; 0x7c
  103338:	e58d2000 	str	r2, [sp]
  10333c:	e2874001 	add	r4, r7, #1
  103340:	e28d2080 	add	r2, sp, #128	; 0x80
  103344:	e58d3008 	str	r3, [sp, #8]
  103348:	e58d200c 	str	r2, [sp, #12]
  10334c:	e28d308c 	add	r3, sp, #140	; 0x8c
  103350:	e58d4004 	str	r4, [sp, #4]
  103354:	e58d3010 	str	r3, [sp, #16]
  103358:	e59d0028 	ldr	r0, [sp, #40]	; 0x28
  10335c:	ec532b19 	vmov	r2, r3, d9
  103360:	eb000259 	bl	103ccc <_dtoa_r>
  103364:	e58d0040 	str	r0, [sp, #64]	; 0x40
  103368:	e59d3040 	ldr	r3, [sp, #64]	; 0x40
  10336c:	e0834004 	add	r4, r3, r4
  103370:	eafffefd 	b	102f6c <_vfprintf_r+0x16d4>
  103374:	e2822001 	add	r2, r2, #1
  103378:	e0833005 	add	r3, r3, r5
  10337c:	e3520007 	cmp	r2, #7
  103380:	e8890030 	stm	r9, {r4, r5}
  103384:	e58d2098 	str	r2, [sp, #152]	; 0x98
  103388:	d2899008 	addle	r9, r9, #8
  10338c:	e58d309c 	str	r3, [sp, #156]	; 0x9c
  103390:	da000008 	ble	1033b8 <_vfprintf_r+0x1b20>
  103394:	e59d0028 	ldr	r0, [sp, #40]	; 0x28
  103398:	e1a0100b 	mov	r1, fp
  10339c:	e28d2094 	add	r2, sp, #148	; 0x94
  1033a0:	eb00125f 	bl	107d24 <__sprint_r>
  1033a4:	e3500000 	cmp	r0, #0
  1033a8:	1afffa0d 	bne	101be4 <_vfprintf_r+0x34c>
  1033ac:	e59d309c 	ldr	r3, [sp, #156]	; 0x9c
  1033b0:	e1a09008 	mov	r9, r8
  1033b4:	e59d2098 	ldr	r2, [sp, #152]	; 0x98
  1033b8:	e2822001 	add	r2, r2, #1
  1033bc:	e59d104c 	ldr	r1, [sp, #76]	; 0x4c
  1033c0:	e3520007 	cmp	r2, #7
  1033c4:	e58d2098 	str	r2, [sp, #152]	; 0x98
  1033c8:	e59d2040 	ldr	r2, [sp, #64]	; 0x40
  1033cc:	e0833001 	add	r3, r3, r1
  1033d0:	e5891004 	str	r1, [r9, #4]
  1033d4:	e58d309c 	str	r3, [sp, #156]	; 0x9c
  1033d8:	e5892000 	str	r2, [r9]
  1033dc:	dafffc73 	ble	1025b0 <_vfprintf_r+0xd18>
  1033e0:	eafffd78 	b	1029c8 <_vfprintf_r+0x1130>
  1033e4:	e58d4044 	str	r4, [sp, #68]	; 0x44
  1033e8:	fa0011e4 	blx	107b80 <strlen>
  1033ec:	e58d7034 	str	r7, [sp, #52]	; 0x34
  1033f0:	e58d4048 	str	r4, [sp, #72]	; 0x48
  1033f4:	e5dda077 	ldrb	sl, [sp, #119]	; 0x77
  1033f8:	e1c03fc0 	bic	r3, r0, r0, asr #31
  1033fc:	e1a05000 	mov	r5, r0
  103400:	e58d3020 	str	r3, [sp, #32]
  103404:	eafffa59 	b	101d70 <_vfprintf_r+0x4d8>
  103408:	e30aad78 	movw	sl, #44408	; 0xad78
  10340c:	e59d109c 	ldr	r1, [sp, #156]	; 0x9c
  103410:	e340a010 	movt	sl, #16
  103414:	e59d2098 	ldr	r2, [sp, #152]	; 0x98
  103418:	eafffa8d 	b	101e54 <_vfprintf_r+0x5bc>
  10341c:	e59d0028 	ldr	r0, [sp, #40]	; 0x28
  103420:	e1a0100b 	mov	r1, fp
  103424:	e28d2094 	add	r2, sp, #148	; 0x94
  103428:	eb00123d 	bl	107d24 <__sprint_r>
  10342c:	e3500000 	cmp	r0, #0
  103430:	1afff9eb 	bne	101be4 <_vfprintf_r+0x34c>
  103434:	e59d309c 	ldr	r3, [sp, #156]	; 0x9c
  103438:	e1a09008 	mov	r9, r8
  10343c:	eafffd9b 	b	102ab0 <_vfprintf_r+0x1218>
  103440:	e59d0028 	ldr	r0, [sp, #40]	; 0x28
  103444:	e1a0100b 	mov	r1, fp
  103448:	e28d2094 	add	r2, sp, #148	; 0x94
  10344c:	eb001234 	bl	107d24 <__sprint_r>
  103450:	e3500000 	cmp	r0, #0
  103454:	1afff9e2 	bne	101be4 <_vfprintf_r+0x34c>
  103458:	e59d507c 	ldr	r5, [sp, #124]	; 0x7c
  10345c:	e1a09008 	mov	r9, r8
  103460:	e59d204c 	ldr	r2, [sp, #76]	; 0x4c
  103464:	e59d309c 	ldr	r3, [sp, #156]	; 0x9c
  103468:	e0655002 	rsb	r5, r5, r2
  10346c:	eafffe0d 	b	102ca8 <_vfprintf_r+0x1410>
  103470:	e30aad78 	movw	sl, #44408	; 0xad78
  103474:	e59d2098 	ldr	r2, [sp, #152]	; 0x98
  103478:	e340a010 	movt	sl, #16
  10347c:	eafffc75 	b	102658 <_vfprintf_r+0xdc0>
  103480:	e3550006 	cmp	r5, #6
  103484:	e30a3f1c 	movw	r3, #44828	; 0xaf1c
  103488:	e1a0a002 	mov	sl, r2
  10348c:	e58d2044 	str	r2, [sp, #68]	; 0x44
  103490:	23a05006 	movcs	r5, #6
  103494:	e58d2048 	str	r2, [sp, #72]	; 0x48
  103498:	e3403010 	movt	r3, #16
  10349c:	e1c52fc5 	bic	r2, r5, r5, asr #31
  1034a0:	e58d7034 	str	r7, [sp, #52]	; 0x34
  1034a4:	e58d2020 	str	r2, [sp, #32]
  1034a8:	e58d3040 	str	r3, [sp, #64]	; 0x40
  1034ac:	eafffa2f 	b	101d70 <_vfprintf_r+0x4d8>
  1034b0:	e3a02003 	mov	r2, #3
  1034b4:	e28d307c 	add	r3, sp, #124	; 0x7c
  1034b8:	e58d2000 	str	r2, [sp]
  1034bc:	e28d2080 	add	r2, sp, #128	; 0x80
  1034c0:	e58d3008 	str	r3, [sp, #8]
  1034c4:	e28d308c 	add	r3, sp, #140	; 0x8c
  1034c8:	e58d200c 	str	r2, [sp, #12]
  1034cc:	e58d3010 	str	r3, [sp, #16]
  1034d0:	e58d7004 	str	r7, [sp, #4]
  1034d4:	ec532b19 	vmov	r2, r3, d9
  1034d8:	e59d0028 	ldr	r0, [sp, #40]	; 0x28
  1034dc:	eb0001fa 	bl	103ccc <_dtoa_r>
  1034e0:	eeb59b40 	vcmp.f64	d9, #0.0
  1034e4:	eef1fa10 	vmrs	APSR_nzcv, fpscr
  1034e8:	13a02001 	movne	r2, #1
  1034ec:	03a02000 	moveq	r2, #0
  1034f0:	e5d01000 	ldrb	r1, [r0]
  1034f4:	e0803007 	add	r3, r0, r7
  1034f8:	e58d0040 	str	r0, [sp, #64]	; 0x40
  1034fc:	e3510030 	cmp	r1, #48	; 0x30
  103500:	13a02000 	movne	r2, #0
  103504:	02022001 	andeq	r2, r2, #1
  103508:	e3520000 	cmp	r2, #0
  10350c:	12674001 	rsbne	r4, r7, #1
  103510:	158d407c 	strne	r4, [sp, #124]	; 0x7c
  103514:	059d407c 	ldreq	r4, [sp, #124]	; 0x7c
  103518:	e0834004 	add	r4, r3, r4
  10351c:	eafffe92 	b	102f6c <_vfprintf_r+0x16d4>
  103520:	e58d3020 	str	r3, [sp, #32]
  103524:	e3a0a02d 	mov	sl, #45	; 0x2d
  103528:	e59d3038 	ldr	r3, [sp, #56]	; 0x38
  10352c:	e5cda077 	strb	sl, [sp, #119]	; 0x77
  103530:	e58d301c 	str	r3, [sp, #28]
  103534:	e3a03000 	mov	r3, #0
  103538:	e58d3044 	str	r3, [sp, #68]	; 0x44
  10353c:	eafffa0d 	b	101d78 <_vfprintf_r+0x4e0>
  103540:	e3560065 	cmp	r6, #101	; 0x65
  103544:	da000013 	ble	103598 <_vfprintf_r+0x1d00>
  103548:	e3560066 	cmp	r6, #102	; 0x66
  10354c:	e58d3048 	str	r3, [sp, #72]	; 0x48
  103550:	1afffe9f 	bne	102fd4 <_vfprintf_r+0x173c>
  103554:	e3530000 	cmp	r3, #0
  103558:	da000065 	ble	1036f4 <_vfprintf_r+0x1e5c>
  10355c:	e3570000 	cmp	r7, #0
  103560:	1a000058 	bne	1036c8 <_vfprintf_r+0x1e30>
  103564:	e59d301c 	ldr	r3, [sp, #28]
  103568:	e3130001 	tst	r3, #1
  10356c:	1a000055 	bne	1036c8 <_vfprintf_r+0x1e30>
  103570:	e59d5048 	ldr	r5, [sp, #72]	; 0x48
  103574:	e1c53fc5 	bic	r3, r5, r5, asr #31
  103578:	eafffea1 	b	103004 <_vfprintf_r+0x176c>
  10357c:	e1c53fc5 	bic	r3, r5, r5, asr #31
  103580:	e58d0044 	str	r0, [sp, #68]	; 0x44
  103584:	e58d7034 	str	r7, [sp, #52]	; 0x34
  103588:	e58d0048 	str	r0, [sp, #72]	; 0x48
  10358c:	e5dda077 	ldrb	sl, [sp, #119]	; 0x77
  103590:	e58d3020 	str	r3, [sp, #32]
  103594:	eafff9f5 	b	101d70 <_vfprintf_r+0x4d8>
  103598:	e2433001 	sub	r3, r3, #1
  10359c:	e58d307c 	str	r3, [sp, #124]	; 0x7c
  1035a0:	e3530000 	cmp	r3, #0
  1035a4:	e5cd6084 	strb	r6, [sp, #132]	; 0x84
  1035a8:	b2633000 	rsblt	r3, r3, #0
  1035ac:	b3a0202d 	movlt	r2, #45	; 0x2d
  1035b0:	a3a0202b 	movge	r2, #43	; 0x2b
  1035b4:	e3530009 	cmp	r3, #9
  1035b8:	e5cd2085 	strb	r2, [sp, #133]	; 0x85
  1035bc:	da000046 	ble	1036dc <_vfprintf_r+0x1e44>
  1035c0:	e28de093 	add	lr, sp, #147	; 0x93
  1035c4:	e59d406c 	ldr	r4, [sp, #108]	; 0x6c
  1035c8:	e1a0c00e 	mov	ip, lr
  1035cc:	e0c10493 	smull	r0, r1, r3, r4
  1035d0:	e1a02fc3 	asr	r2, r3, #31
  1035d4:	e0621141 	rsb	r1, r2, r1, asr #2
  1035d8:	e3510009 	cmp	r1, #9
  1035dc:	e0812101 	add	r2, r1, r1, lsl #2
  1035e0:	e0432082 	sub	r2, r3, r2, lsl #1
  1035e4:	e1a03001 	mov	r3, r1
  1035e8:	e2822030 	add	r2, r2, #48	; 0x30
  1035ec:	e56c2001 	strb	r2, [ip, #-1]!
  1035f0:	cafffff5 	bgt	1035cc <_vfprintf_r+0x1d34>
  1035f4:	e2813030 	add	r3, r1, #48	; 0x30
  1035f8:	e1a0200c 	mov	r2, ip
  1035fc:	e6ef3073 	uxtb	r3, r3
  103600:	e5623001 	strb	r3, [r2, #-1]!
  103604:	e15e0002 	cmp	lr, r2
  103608:	9a00004f 	bls	10374c <_vfprintf_r+0x1eb4>
  10360c:	e1a0200c 	mov	r2, ip
  103610:	e28d1086 	add	r1, sp, #134	; 0x86
  103614:	ea000000 	b	10361c <_vfprintf_r+0x1d84>
  103618:	e4d23001 	ldrb	r3, [r2], #1
  10361c:	e152000e 	cmp	r2, lr
  103620:	e4c13001 	strb	r3, [r1], #1
  103624:	1afffffb 	bne	103618 <_vfprintf_r+0x1d80>
  103628:	e28d3094 	add	r3, sp, #148	; 0x94
  10362c:	e28d2086 	add	r2, sp, #134	; 0x86
  103630:	e06c3003 	rsb	r3, ip, r3
  103634:	e0823003 	add	r3, r2, r3
  103638:	e59d104c 	ldr	r1, [sp, #76]	; 0x4c
  10363c:	e28d2084 	add	r2, sp, #132	; 0x84
  103640:	e0623003 	rsb	r3, r2, r3
  103644:	e58d3068 	str	r3, [sp, #104]	; 0x68
  103648:	e3510001 	cmp	r1, #1
  10364c:	e0815003 	add	r5, r1, r3
  103650:	da000039 	ble	10373c <_vfprintf_r+0x1ea4>
  103654:	e2855001 	add	r5, r5, #1
  103658:	e3a03000 	mov	r3, #0
  10365c:	e58d3048 	str	r3, [sp, #72]	; 0x48
  103660:	e1c53fc5 	bic	r3, r5, r5, asr #31
  103664:	eafffe66 	b	103004 <_vfprintf_r+0x176c>
  103668:	e59d0028 	ldr	r0, [sp, #40]	; 0x28
  10366c:	e1a0100b 	mov	r1, fp
  103670:	e28d2094 	add	r2, sp, #148	; 0x94
  103674:	eb0011aa 	bl	107d24 <__sprint_r>
  103678:	e3500000 	cmp	r0, #0
  10367c:	1afff958 	bne	101be4 <_vfprintf_r+0x34c>
  103680:	e59d507c 	ldr	r5, [sp, #124]	; 0x7c
  103684:	e1a09008 	mov	r9, r8
  103688:	e59d309c 	ldr	r3, [sp, #156]	; 0x9c
  10368c:	e59d2098 	ldr	r2, [sp, #152]	; 0x98
  103690:	eafffec8 	b	1031b8 <_vfprintf_r+0x1920>
  103694:	eeb19b48 	vneg.f64	d9, d8
  103698:	e3a0a02d 	mov	sl, #45	; 0x2d
  10369c:	eaffff1f 	b	103320 <_vfprintf_r+0x1a88>
  1036a0:	e59d3048 	ldr	r3, [sp, #72]	; 0x48
  1036a4:	e3530000 	cmp	r3, #0
  1036a8:	d2635002 	rsble	r5, r3, #2
  1036ac:	e59d304c 	ldr	r3, [sp, #76]	; 0x4c
  1036b0:	c3a05001 	movgt	r5, #1
  1036b4:	e0855003 	add	r5, r5, r3
  1036b8:	e1c53fc5 	bic	r3, r5, r5, asr #31
  1036bc:	eafffe50 	b	103004 <_vfprintf_r+0x176c>
  1036c0:	e59d308c 	ldr	r3, [sp, #140]	; 0x8c
  1036c4:	eafffe36 	b	102fa4 <_vfprintf_r+0x170c>
  1036c8:	e59d3048 	ldr	r3, [sp, #72]	; 0x48
  1036cc:	e2875001 	add	r5, r7, #1
  1036d0:	e0835005 	add	r5, r3, r5
  1036d4:	e1c53fc5 	bic	r3, r5, r5, asr #31
  1036d8:	eafffe49 	b	103004 <_vfprintf_r+0x176c>
  1036dc:	e2833030 	add	r3, r3, #48	; 0x30
  1036e0:	e5cd3087 	strb	r3, [sp, #135]	; 0x87
  1036e4:	e3a03030 	mov	r3, #48	; 0x30
  1036e8:	e5cd3086 	strb	r3, [sp, #134]	; 0x86
  1036ec:	e28d3088 	add	r3, sp, #136	; 0x88
  1036f0:	eaffffd0 	b	103638 <_vfprintf_r+0x1da0>
  1036f4:	e3570000 	cmp	r7, #0
  1036f8:	1a000004 	bne	103710 <_vfprintf_r+0x1e78>
  1036fc:	e59d301c 	ldr	r3, [sp, #28]
  103700:	e3130001 	tst	r3, #1
  103704:	03a03001 	moveq	r3, #1
  103708:	01a05003 	moveq	r5, r3
  10370c:	0afffe3c 	beq	103004 <_vfprintf_r+0x176c>
  103710:	e2875002 	add	r5, r7, #2
  103714:	e1c53fc5 	bic	r3, r5, r5, asr #31
  103718:	eafffe39 	b	103004 <_vfprintf_r+0x176c>
  10371c:	e59d0034 	ldr	r0, [sp, #52]	; 0x34
  103720:	e5d36001 	ldrb	r6, [r3, #1]
  103724:	e2800004 	add	r0, r0, #4
  103728:	e5107004 	ldr	r7, [r0, #-4]
  10372c:	e58d0034 	str	r0, [sp, #52]	; 0x34
  103730:	e3570000 	cmp	r7, #0
  103734:	aafff8b3 	bge	101a08 <_vfprintf_r+0x170>
  103738:	eafff8b1 	b	101a04 <_vfprintf_r+0x16c>
  10373c:	e59d301c 	ldr	r3, [sp, #28]
  103740:	e2133001 	ands	r3, r3, #1
  103744:	0affffc4 	beq	10365c <_vfprintf_r+0x1dc4>
  103748:	eaffffc1 	b	103654 <_vfprintf_r+0x1dbc>
  10374c:	e28d3086 	add	r3, sp, #134	; 0x86
  103750:	eaffffb8 	b	103638 <_vfprintf_r+0x1da0>
  103754:	e1a04007 	mov	r4, r7
  103758:	eaffff02 	b	103368 <_vfprintf_r+0x1ad0>
  10375c:	0010ad88 	andseq	sl, r0, r8, lsl #27

00103760 <vfprintf>:
  103760:	e30acf90 	movw	ip, #44944	; 0xaf90
  103764:	e1a03002 	mov	r3, r2
  103768:	e52de004 	push	{lr}		; (str lr, [sp, #-4]!)
  10376c:	e340c010 	movt	ip, #16
  103770:	e1a0e001 	mov	lr, r1
  103774:	e1a01000 	mov	r1, r0
  103778:	e1a0200e 	mov	r2, lr
  10377c:	e59c0000 	ldr	r0, [ip]
  103780:	e49de004 	pop	{lr}		; (ldr lr, [sp], #4)
  103784:	eafff843 	b	101898 <_vfprintf_r>

00103788 <__sbprintf>:
  103788:	e92d47f0 	push	{r4, r5, r6, r7, r8, r9, sl, lr}
  10378c:	e1a04001 	mov	r4, r1
  103790:	e24dde46 	sub	sp, sp, #1120	; 0x460
  103794:	e1d470be 	ldrh	r7, [r4, #14]
  103798:	e24dd008 	sub	sp, sp, #8
  10379c:	e5949064 	ldr	r9, [r4, #100]	; 0x64
  1037a0:	e594a01c 	ldr	sl, [r4, #28]
  1037a4:	e28d6068 	add	r6, sp, #104	; 0x68
  1037a8:	e5948024 	ldr	r8, [r4, #36]	; 0x24
  1037ac:	e1a0100d 	mov	r1, sp
  1037b0:	e1d4c0bc 	ldrh	ip, [r4, #12]
  1037b4:	e3a0eb01 	mov	lr, #1024	; 0x400
  1037b8:	e1cd70be 	strh	r7, [sp, #14]
  1037bc:	e3a07000 	mov	r7, #0
  1037c0:	e3ccc002 	bic	ip, ip, #2
  1037c4:	e58d9064 	str	r9, [sp, #100]	; 0x64
  1037c8:	e58d6000 	str	r6, [sp]
  1037cc:	e1a09000 	mov	r9, r0
  1037d0:	e58d6010 	str	r6, [sp, #16]
  1037d4:	e1cdc0bc 	strh	ip, [sp, #12]
  1037d8:	e58da01c 	str	sl, [sp, #28]
  1037dc:	e58d8024 	str	r8, [sp, #36]	; 0x24
  1037e0:	e58de008 	str	lr, [sp, #8]
  1037e4:	e58de014 	str	lr, [sp, #20]
  1037e8:	e58d7018 	str	r7, [sp, #24]
  1037ec:	ebfff829 	bl	101898 <_vfprintf_r>
  1037f0:	e2506000 	subs	r6, r0, #0
  1037f4:	ba000004 	blt	10380c <__sbprintf+0x84>
  1037f8:	e1a00009 	mov	r0, r9
  1037fc:	e1a0100d 	mov	r1, sp
  103800:	eb000659 	bl	10516c <_fflush_r>
  103804:	e1500007 	cmp	r0, r7
  103808:	13e06000 	mvnne	r6, #0
  10380c:	e1dd30bc 	ldrh	r3, [sp, #12]
  103810:	e1a00006 	mov	r0, r6
  103814:	e3130040 	tst	r3, #64	; 0x40
  103818:	11d430bc 	ldrhne	r3, [r4, #12]
  10381c:	13833040 	orrne	r3, r3, #64	; 0x40
  103820:	11c430bc 	strhne	r3, [r4, #12]
  103824:	e28dde46 	add	sp, sp, #1120	; 0x460
  103828:	e28dd008 	add	sp, sp, #8
  10382c:	e8bd87f0 	pop	{r4, r5, r6, r7, r8, r9, sl, pc}

00103830 <__swsetup_r>:
  103830:	e92d4038 	push	{r3, r4, r5, lr}
  103834:	e30a3f90 	movw	r3, #44944	; 0xaf90
  103838:	e3403010 	movt	r3, #16
  10383c:	e1a05000 	mov	r5, r0
  103840:	e5930000 	ldr	r0, [r3]
  103844:	e1a04001 	mov	r4, r1
  103848:	e3500000 	cmp	r0, #0
  10384c:	0a000002 	beq	10385c <__swsetup_r+0x2c>
  103850:	e5903038 	ldr	r3, [r0, #56]	; 0x38
  103854:	e3530000 	cmp	r3, #0
  103858:	0a000030 	beq	103920 <__swsetup_r+0xf0>
  10385c:	e1d4c0bc 	ldrh	ip, [r4, #12]
  103860:	e6ff307c 	uxth	r3, ip
  103864:	e3130008 	tst	r3, #8
  103868:	0a00000b 	beq	10389c <__swsetup_r+0x6c>
  10386c:	e5942010 	ldr	r2, [r4, #16]
  103870:	e3520000 	cmp	r2, #0
  103874:	0a000012 	beq	1038c4 <__swsetup_r+0x94>
  103878:	e2131001 	ands	r1, r3, #1
  10387c:	1a000019 	bne	1038e8 <__swsetup_r+0xb8>
  103880:	e3130002 	tst	r3, #2
  103884:	05941014 	ldreq	r1, [r4, #20]
  103888:	e3520000 	cmp	r2, #0
  10388c:	e5841008 	str	r1, [r4, #8]
  103890:	0a00001b 	beq	103904 <__swsetup_r+0xd4>
  103894:	e3a00000 	mov	r0, #0
  103898:	e8bd8038 	pop	{r3, r4, r5, pc}
  10389c:	e3130010 	tst	r3, #16
  1038a0:	0a000032 	beq	103970 <__swsetup_r+0x140>
  1038a4:	e3130004 	tst	r3, #4
  1038a8:	1a00001e 	bne	103928 <__swsetup_r+0xf8>
  1038ac:	e5942010 	ldr	r2, [r4, #16]
  1038b0:	e38c3008 	orr	r3, ip, #8
  1038b4:	e3520000 	cmp	r2, #0
  1038b8:	e1c430bc 	strh	r3, [r4, #12]
  1038bc:	e6ff3073 	uxth	r3, r3
  1038c0:	1affffec 	bne	103878 <__swsetup_r+0x48>
  1038c4:	e2031d0a 	and	r1, r3, #640	; 0x280
  1038c8:	e3510c02 	cmp	r1, #512	; 0x200
  1038cc:	0affffe9 	beq	103878 <__swsetup_r+0x48>
  1038d0:	e1a00005 	mov	r0, r5
  1038d4:	e1a01004 	mov	r1, r4
  1038d8:	eb000869 	bl	105a84 <__smakebuf_r>
  1038dc:	e1d430bc 	ldrh	r3, [r4, #12]
  1038e0:	e5942010 	ldr	r2, [r4, #16]
  1038e4:	eaffffe3 	b	103878 <__swsetup_r+0x48>
  1038e8:	e5943014 	ldr	r3, [r4, #20]
  1038ec:	e3520000 	cmp	r2, #0
  1038f0:	e3a01000 	mov	r1, #0
  1038f4:	e5841008 	str	r1, [r4, #8]
  1038f8:	e2633000 	rsb	r3, r3, #0
  1038fc:	e5843018 	str	r3, [r4, #24]
  103900:	1affffe3 	bne	103894 <__swsetup_r+0x64>
  103904:	e1d430bc 	ldrh	r3, [r4, #12]
  103908:	e3130080 	tst	r3, #128	; 0x80
  10390c:	0affffe0 	beq	103894 <__swsetup_r+0x64>
  103910:	e3833040 	orr	r3, r3, #64	; 0x40
  103914:	e3e00000 	mvn	r0, #0
  103918:	e1c430bc 	strh	r3, [r4, #12]
  10391c:	e8bd8038 	pop	{r3, r4, r5, pc}
  103920:	eb0006e2 	bl	1054b0 <__sinit>
  103924:	eaffffcc 	b	10385c <__swsetup_r+0x2c>
  103928:	e5941030 	ldr	r1, [r4, #48]	; 0x30
  10392c:	e3510000 	cmp	r1, #0
  103930:	0a000007 	beq	103954 <__swsetup_r+0x124>
  103934:	e2843040 	add	r3, r4, #64	; 0x40
  103938:	e1510003 	cmp	r1, r3
  10393c:	0a000002 	beq	10394c <__swsetup_r+0x11c>
  103940:	e1a00005 	mov	r0, r5
  103944:	eb00072c 	bl	1055fc <_free_r>
  103948:	e1d4c0bc 	ldrh	ip, [r4, #12]
  10394c:	e3a03000 	mov	r3, #0
  103950:	e5843030 	str	r3, [r4, #48]	; 0x30
  103954:	e5942010 	ldr	r2, [r4, #16]
  103958:	e3ccc024 	bic	ip, ip, #36	; 0x24
  10395c:	e3a03000 	mov	r3, #0
  103960:	e5843004 	str	r3, [r4, #4]
  103964:	e6ffc07c 	uxth	ip, ip
  103968:	e5842000 	str	r2, [r4]
  10396c:	eaffffcf 	b	1038b0 <__swsetup_r+0x80>
  103970:	e38cc040 	orr	ip, ip, #64	; 0x40
  103974:	e3a03009 	mov	r3, #9
  103978:	e3e00000 	mvn	r0, #0
  10397c:	e5853000 	str	r3, [r5]
  103980:	e1c4c0bc 	strh	ip, [r4, #12]
  103984:	e8bd8038 	pop	{r3, r4, r5, pc}

00103988 <__call_exitprocs>:
  103988:	e30a3d74 	movw	r3, #44404	; 0xad74
  10398c:	e3002000 	movw	r2, #0
  103990:	e3403010 	movt	r3, #16
  103994:	e3402000 	movt	r2, #0
  103998:	e5933000 	ldr	r3, [r3]
  10399c:	e92d4ff0 	push	{r4, r5, r6, r7, r8, r9, sl, fp, lr}
  1039a0:	e24dd014 	sub	sp, sp, #20
  1039a4:	e1a0a000 	mov	sl, r0
  1039a8:	e1a06001 	mov	r6, r1
  1039ac:	e58d3008 	str	r3, [sp, #8]
  1039b0:	e2833f52 	add	r3, r3, #328	; 0x148
  1039b4:	e58d2004 	str	r2, [sp, #4]
  1039b8:	e58d300c 	str	r3, [sp, #12]
  1039bc:	e59d3008 	ldr	r3, [sp, #8]
  1039c0:	e5937148 	ldr	r7, [r3, #328]	; 0x148
  1039c4:	e3570000 	cmp	r7, #0
  1039c8:	0a000039 	beq	103ab4 <__call_exitprocs+0x12c>
  1039cc:	e59db00c 	ldr	fp, [sp, #12]
  1039d0:	e1a0900b 	mov	r9, fp
  1039d4:	e5974004 	ldr	r4, [r7, #4]
  1039d8:	e2545001 	subs	r5, r4, #1
  1039dc:	52844001 	addpl	r4, r4, #1
  1039e0:	53a08000 	movpl	r8, #0
  1039e4:	50874104 	addpl	r4, r7, r4, lsl #2
  1039e8:	5a000007 	bpl	103a0c <__call_exitprocs+0x84>
  1039ec:	ea000021 	b	103a78 <__call_exitprocs+0xf0>
  1039f0:	e5943100 	ldr	r3, [r4, #256]	; 0x100
  1039f4:	e1530006 	cmp	r3, r6
  1039f8:	0a000005 	beq	103a14 <__call_exitprocs+0x8c>
  1039fc:	e2455001 	sub	r5, r5, #1
  103a00:	e2444004 	sub	r4, r4, #4
  103a04:	e3750001 	cmn	r5, #1
  103a08:	0a00001a 	beq	103a78 <__call_exitprocs+0xf0>
  103a0c:	e3560000 	cmp	r6, #0
  103a10:	1afffff6 	bne	1039f0 <__call_exitprocs+0x68>
  103a14:	e5973004 	ldr	r3, [r7, #4]
  103a18:	e5942000 	ldr	r2, [r4]
  103a1c:	e2433001 	sub	r3, r3, #1
  103a20:	e1530005 	cmp	r3, r5
  103a24:	05875004 	streq	r5, [r7, #4]
  103a28:	15848000 	strne	r8, [r4]
  103a2c:	e3520000 	cmp	r2, #0
  103a30:	0afffff1 	beq	1039fc <__call_exitprocs+0x74>
  103a34:	e5973188 	ldr	r3, [r7, #392]	; 0x188
  103a38:	e3a01001 	mov	r1, #1
  103a3c:	e1a01511 	lsl	r1, r1, r5
  103a40:	e597b004 	ldr	fp, [r7, #4]
  103a44:	e1110003 	tst	r1, r3
  103a48:	1a00001b 	bne	103abc <__call_exitprocs+0x134>
  103a4c:	e12fff32 	blx	r2
  103a50:	e5973004 	ldr	r3, [r7, #4]
  103a54:	e153000b 	cmp	r3, fp
  103a58:	1affffd7 	bne	1039bc <__call_exitprocs+0x34>
  103a5c:	e5993000 	ldr	r3, [r9]
  103a60:	e1530007 	cmp	r3, r7
  103a64:	1affffd4 	bne	1039bc <__call_exitprocs+0x34>
  103a68:	e2455001 	sub	r5, r5, #1
  103a6c:	e2444004 	sub	r4, r4, #4
  103a70:	e3750001 	cmn	r5, #1
  103a74:	1affffe4 	bne	103a0c <__call_exitprocs+0x84>
  103a78:	e59d3004 	ldr	r3, [sp, #4]
  103a7c:	e3530000 	cmp	r3, #0
  103a80:	0a00000b 	beq	103ab4 <__call_exitprocs+0x12c>
  103a84:	e5973004 	ldr	r3, [r7, #4]
  103a88:	e3530000 	cmp	r3, #0
  103a8c:	e5973000 	ldr	r3, [r7]
  103a90:	1a000013 	bne	103ae4 <__call_exitprocs+0x15c>
  103a94:	e3530000 	cmp	r3, #0
  103a98:	0a000011 	beq	103ae4 <__call_exitprocs+0x15c>
  103a9c:	e1a00007 	mov	r0, r7
  103aa0:	e5893000 	str	r3, [r9]
  103aa4:	e320f000 	nop	{0}
  103aa8:	e5997000 	ldr	r7, [r9]
  103aac:	e3570000 	cmp	r7, #0
  103ab0:	1affffc7 	bne	1039d4 <__call_exitprocs+0x4c>
  103ab4:	e28dd014 	add	sp, sp, #20
  103ab8:	e8bd8ff0 	pop	{r4, r5, r6, r7, r8, r9, sl, fp, pc}
  103abc:	e597318c 	ldr	r3, [r7, #396]	; 0x18c
  103ac0:	e1110003 	tst	r1, r3
  103ac4:	1a000003 	bne	103ad8 <__call_exitprocs+0x150>
  103ac8:	e1a0000a 	mov	r0, sl
  103acc:	e5941080 	ldr	r1, [r4, #128]	; 0x80
  103ad0:	e12fff32 	blx	r2
  103ad4:	eaffffdd 	b	103a50 <__call_exitprocs+0xc8>
  103ad8:	e5940080 	ldr	r0, [r4, #128]	; 0x80
  103adc:	e12fff32 	blx	r2
  103ae0:	eaffffda 	b	103a50 <__call_exitprocs+0xc8>
  103ae4:	e1a09007 	mov	r9, r7
  103ae8:	e1a07003 	mov	r7, r3
  103aec:	eaffffee 	b	103aac <__call_exitprocs+0x124>

00103af0 <atexit>:
  103af0:	e1a01000 	mov	r1, r0
  103af4:	e3a00000 	mov	r0, #0
  103af8:	e1a02000 	mov	r2, r0
  103afc:	e1a03000 	mov	r3, r0
  103b00:	ea001545 	b	10901c <__register_exitproc>
  103b04:	00000000 	andeq	r0, r0, r0

00103b08 <quorem>:
  103b08:	e92d4ff0 	push	{r4, r5, r6, r7, r8, r9, sl, fp, lr}
  103b0c:	e24dd00c 	sub	sp, sp, #12
  103b10:	e5903010 	ldr	r3, [r0, #16]
  103b14:	e5915010 	ldr	r5, [r1, #16]
  103b18:	e1550003 	cmp	r5, r3
  103b1c:	c3a00000 	movgt	r0, #0
  103b20:	ca000067 	bgt	103cc4 <quorem+0x1bc>
  103b24:	e2455001 	sub	r5, r5, #1
  103b28:	e2814014 	add	r4, r1, #20
  103b2c:	e58d1000 	str	r1, [sp]
  103b30:	e2809014 	add	r9, r0, #20
  103b34:	e7941105 	ldr	r1, [r4, r5, lsl #2]
  103b38:	e1a0a105 	lsl	sl, r5, #2
  103b3c:	e1a08000 	mov	r8, r0
  103b40:	e7990105 	ldr	r0, [r9, r5, lsl #2]
  103b44:	e2811001 	add	r1, r1, #1
  103b48:	e089300a 	add	r3, r9, sl
  103b4c:	e58d3004 	str	r3, [sp, #4]
  103b50:	ebfff673 	bl	101524 <__aeabi_uidiv>
  103b54:	e084700a 	add	r7, r4, sl
  103b58:	e2506000 	subs	r6, r0, #0
  103b5c:	0a00002c 	beq	103c14 <quorem+0x10c>
  103b60:	e3a0c000 	mov	ip, #0
  103b64:	e1a0b004 	mov	fp, r4
  103b68:	e1a0200c 	mov	r2, ip
  103b6c:	e1a0e009 	mov	lr, r9
  103b70:	e49b3004 	ldr	r3, [fp], #4
  103b74:	e59e0000 	ldr	r0, [lr]
  103b78:	e157000b 	cmp	r7, fp
  103b7c:	e6ff1073 	uxth	r1, r3
  103b80:	e1a03823 	lsr	r3, r3, #16
  103b84:	e021c691 	mla	r1, r1, r6, ip
  103b88:	e00c0693 	mul	ip, r3, r6
  103b8c:	e6ff3071 	uxth	r3, r1
  103b90:	e08cc821 	add	ip, ip, r1, lsr #16
  103b94:	e0633002 	rsb	r3, r3, r2
  103b98:	e6f33070 	uxtah	r3, r3, r0
  103b9c:	e6ff207c 	uxth	r2, ip
  103ba0:	e0622820 	rsb	r2, r2, r0, lsr #16
  103ba4:	e1a0c82c 	lsr	ip, ip, #16
  103ba8:	e0822843 	add	r2, r2, r3, asr #16
  103bac:	e6ff3073 	uxth	r3, r3
  103bb0:	e1830802 	orr	r0, r3, r2, lsl #16
  103bb4:	e1a02842 	asr	r2, r2, #16
  103bb8:	e48e0004 	str	r0, [lr], #4
  103bbc:	2affffeb 	bcs	103b70 <quorem+0x68>
  103bc0:	e799300a 	ldr	r3, [r9, sl]
  103bc4:	e3530000 	cmp	r3, #0
  103bc8:	1a000011 	bne	103c14 <quorem+0x10c>
  103bcc:	e59d2004 	ldr	r2, [sp, #4]
  103bd0:	e2423004 	sub	r3, r2, #4
  103bd4:	e1590003 	cmp	r9, r3
  103bd8:	2a00000c 	bcs	103c10 <quorem+0x108>
  103bdc:	e5123004 	ldr	r3, [r2, #-4]
  103be0:	e3530000 	cmp	r3, #0
  103be4:	1a000009 	bne	103c10 <quorem+0x108>
  103be8:	e2423008 	sub	r3, r2, #8
  103bec:	ea000002 	b	103bfc <quorem+0xf4>
  103bf0:	e5922000 	ldr	r2, [r2]
  103bf4:	e3520000 	cmp	r2, #0
  103bf8:	1a000004 	bne	103c10 <quorem+0x108>
  103bfc:	e1590003 	cmp	r9, r3
  103c00:	e1a02003 	mov	r2, r3
  103c04:	e2455001 	sub	r5, r5, #1
  103c08:	e2433004 	sub	r3, r3, #4
  103c0c:	3afffff7 	bcc	103bf0 <quorem+0xe8>
  103c10:	e5885010 	str	r5, [r8, #16]
  103c14:	e59d1000 	ldr	r1, [sp]
  103c18:	e1a00008 	mov	r0, r8
  103c1c:	eb000d57 	bl	107180 <__mcmp>
  103c20:	e3500000 	cmp	r0, #0
  103c24:	ba000025 	blt	103cc0 <quorem+0x1b8>
  103c28:	e2866001 	add	r6, r6, #1
  103c2c:	e1a0c009 	mov	ip, r9
  103c30:	e3a03000 	mov	r3, #0
  103c34:	e4940004 	ldr	r0, [r4], #4
  103c38:	e59c1000 	ldr	r1, [ip]
  103c3c:	e1570004 	cmp	r7, r4
  103c40:	e6ff2070 	uxth	r2, r0
  103c44:	e1a00820 	lsr	r0, r0, #16
  103c48:	e0622003 	rsb	r2, r2, r3
  103c4c:	e0603821 	rsb	r3, r0, r1, lsr #16
  103c50:	e6f22071 	uxtah	r2, r2, r1
  103c54:	e0833842 	add	r3, r3, r2, asr #16
  103c58:	e6ff2072 	uxth	r2, r2
  103c5c:	e1821803 	orr	r1, r2, r3, lsl #16
  103c60:	e1a03843 	asr	r3, r3, #16
  103c64:	e48c1004 	str	r1, [ip], #4
  103c68:	2afffff1 	bcs	103c34 <quorem+0x12c>
  103c6c:	e7992105 	ldr	r2, [r9, r5, lsl #2]
  103c70:	e0893105 	add	r3, r9, r5, lsl #2
  103c74:	e3520000 	cmp	r2, #0
  103c78:	1a000010 	bne	103cc0 <quorem+0x1b8>
  103c7c:	e2432004 	sub	r2, r3, #4
  103c80:	e1590002 	cmp	r9, r2
  103c84:	2a00000c 	bcs	103cbc <quorem+0x1b4>
  103c88:	e5132004 	ldr	r2, [r3, #-4]
  103c8c:	e3520000 	cmp	r2, #0
  103c90:	1a000009 	bne	103cbc <quorem+0x1b4>
  103c94:	e2433008 	sub	r3, r3, #8
  103c98:	ea000002 	b	103ca8 <quorem+0x1a0>
  103c9c:	e5922000 	ldr	r2, [r2]
  103ca0:	e3520000 	cmp	r2, #0
  103ca4:	1a000004 	bne	103cbc <quorem+0x1b4>
  103ca8:	e1590003 	cmp	r9, r3
  103cac:	e1a02003 	mov	r2, r3
  103cb0:	e2455001 	sub	r5, r5, #1
  103cb4:	e2433004 	sub	r3, r3, #4
  103cb8:	3afffff7 	bcc	103c9c <quorem+0x194>
  103cbc:	e5885010 	str	r5, [r8, #16]
  103cc0:	e1a00006 	mov	r0, r6
  103cc4:	e28dd00c 	add	sp, sp, #12
  103cc8:	e8bd8ff0 	pop	{r4, r5, r6, r7, r8, r9, sl, fp, pc}

00103ccc <_dtoa_r>:
  103ccc:	e92d4ff0 	push	{r4, r5, r6, r7, r8, r9, sl, fp, lr}
  103cd0:	e1a04000 	mov	r4, r0
  103cd4:	ed2d8b02 	vpush	{d8}
  103cd8:	e1a0a002 	mov	sl, r2
  103cdc:	e590c040 	ldr	ip, [r0, #64]	; 0x40
  103ce0:	e1a0b003 	mov	fp, r3
  103ce4:	e35c0000 	cmp	ip, #0
  103ce8:	e24dd03c 	sub	sp, sp, #60	; 0x3c
  103cec:	e59d6074 	ldr	r6, [sp, #116]	; 0x74
  103cf0:	0a000007 	beq	103d14 <_dtoa_r+0x48>
  103cf4:	e5902044 	ldr	r2, [r0, #68]	; 0x44
  103cf8:	e3a03001 	mov	r3, #1
  103cfc:	e1a0100c 	mov	r1, ip
  103d00:	e1a03213 	lsl	r3, r3, r2
  103d04:	e98c000c 	stmib	ip, {r2, r3}
  103d08:	eb000b6e 	bl	106ac8 <_Bfree>
  103d0c:	e3a03000 	mov	r3, #0
  103d10:	e5843040 	str	r3, [r4, #64]	; 0x40
  103d14:	e35b0000 	cmp	fp, #0
  103d18:	e1a0500b 	mov	r5, fp
  103d1c:	b3cb5102 	biclt	r5, fp, #-2147483648	; 0x80000000
  103d20:	b3a03001 	movlt	r3, #1
  103d24:	a3a03000 	movge	r3, #0
  103d28:	b5863000 	strlt	r3, [r6]
  103d2c:	b1a0b005 	movlt	fp, r5
  103d30:	a5863000 	strge	r3, [r6]
  103d34:	e3a03000 	mov	r3, #0
  103d38:	e1a02003 	mov	r2, r3
  103d3c:	e3473ff0 	movt	r3, #32752	; 0x7ff0
  103d40:	e0033005 	and	r3, r3, r5
  103d44:	e3472ff0 	movt	r2, #32752	; 0x7ff0
  103d48:	e1530002 	cmp	r3, r2
  103d4c:	0a000010 	beq	103d94 <_dtoa_r+0xc8>
  103d50:	ec4bab18 	vmov	d8, sl, fp
  103d54:	eeb58b40 	vcmp.f64	d8, #0.0
  103d58:	eef1fa10 	vmrs	APSR_nzcv, fpscr
  103d5c:	1a00001b 	bne	103dd0 <_dtoa_r+0x104>
  103d60:	e59d3078 	ldr	r3, [sp, #120]	; 0x78
  103d64:	e59d2070 	ldr	r2, [sp, #112]	; 0x70
  103d68:	e3530000 	cmp	r3, #0
  103d6c:	e3a03001 	mov	r3, #1
  103d70:	e5823000 	str	r3, [r2]
  103d74:	0a00008b 	beq	103fa8 <_dtoa_r+0x2dc>
  103d78:	e59f3328 	ldr	r3, [pc, #808]	; 1040a8 <_dtoa_r+0x3dc>
  103d7c:	e2430001 	sub	r0, r3, #1
  103d80:	e59d2078 	ldr	r2, [sp, #120]	; 0x78
  103d84:	e5823000 	str	r3, [r2]
  103d88:	e28dd03c 	add	sp, sp, #60	; 0x3c
  103d8c:	ecbd8b02 	vpop	{d8}
  103d90:	e8bd8ff0 	pop	{r4, r5, r6, r7, r8, r9, sl, fp, pc}
  103d94:	e35a0000 	cmp	sl, #0
  103d98:	e59d2070 	ldr	r2, [sp, #112]	; 0x70
  103d9c:	e302370f 	movw	r3, #9999	; 0x270f
  103da0:	130a0f34 	movwne	r0, #44852	; 0xaf34
  103da4:	e5823000 	str	r3, [r2]
  103da8:	13400010 	movtne	r0, #16
  103dac:	0a000069 	beq	103f58 <_dtoa_r+0x28c>
  103db0:	e59d3078 	ldr	r3, [sp, #120]	; 0x78
  103db4:	e3530000 	cmp	r3, #0
  103db8:	0afffff2 	beq	103d88 <_dtoa_r+0xbc>
  103dbc:	e5d03003 	ldrb	r3, [r0, #3]
  103dc0:	e3530000 	cmp	r3, #0
  103dc4:	12803008 	addne	r3, r0, #8
  103dc8:	02803003 	addeq	r3, r0, #3
  103dcc:	eaffffeb 	b	103d80 <_dtoa_r+0xb4>
  103dd0:	e28d2034 	add	r2, sp, #52	; 0x34
  103dd4:	e28d3030 	add	r3, sp, #48	; 0x30
  103dd8:	e58d2000 	str	r2, [sp]
  103ddc:	e1a00004 	mov	r0, r4
  103de0:	e58d3004 	str	r3, [sp, #4]
  103de4:	e1a0200a 	mov	r2, sl
  103de8:	e1a0300b 	mov	r3, fp
  103dec:	eb000d9c 	bl	107464 <__d2b>
  103df0:	e1b08a25 	lsrs	r8, r5, #20
  103df4:	e1a09000 	mov	r9, r0
  103df8:	1a00005f 	bne	103f7c <_dtoa_r+0x2b0>
  103dfc:	e59d8030 	ldr	r8, [sp, #48]	; 0x30
  103e00:	e3e03e41 	mvn	r3, #1040	; 0x410
  103e04:	e59d1034 	ldr	r1, [sp, #52]	; 0x34
  103e08:	e0881001 	add	r1, r8, r1
  103e0c:	e1510003 	cmp	r1, r3
  103e10:	ba00014b 	blt	104344 <_dtoa_r+0x678>
  103e14:	e2813e41 	add	r3, r1, #1040	; 0x410
  103e18:	e30f2c0e 	movw	r2, #64526	; 0xfc0e
  103e1c:	e2833002 	add	r3, r3, #2
  103e20:	e34f2fff 	movt	r2, #65535	; 0xffff
  103e24:	e1a0333a 	lsr	r3, sl, r3
  103e28:	e0612002 	rsb	r2, r1, r2
  103e2c:	e1833215 	orr	r3, r3, r5, lsl r2
  103e30:	ee073a90 	vmov	s15, r3
  103e34:	eef80b67 	vcvt.f64.u32	d16, s15
  103e38:	e2411001 	sub	r1, r1, #1
  103e3c:	e3a00001 	mov	r0, #1
  103e40:	e58d0020 	str	r0, [sp, #32]
  103e44:	ec532b30 	vmov	r2, r3, d16
  103e48:	e243361f 	sub	r3, r3, #32505856	; 0x1f00000
  103e4c:	eef71b08 	vmov.f64	d17, #120	; 0x78
  103e50:	ec432b34 	vmov	d20, r2, r3
  103e54:	eddf3b8d 	vldr	d19, [pc, #564]	; 104090 <_dtoa_r+0x3c4>
  103e58:	eddf0b8e 	vldr	d16, [pc, #568]	; 104098 <_dtoa_r+0x3cc>
  103e5c:	ee071a90 	vmov	s15, r1
  103e60:	ee741be1 	vsub.f64	d17, d20, d17
  103e64:	eddf2b8d 	vldr	d18, [pc, #564]	; 1040a0 <_dtoa_r+0x3d4>
  103e68:	ee410ba3 	vmla.f64	d16, d17, d19
  103e6c:	eef81be7 	vcvt.f64.s32	d17, s15
  103e70:	ee410ba2 	vmla.f64	d16, d17, d18
  103e74:	eefd7be0 	vcvt.s32.f64	s15, d16
  103e78:	eef50bc0 	vcmpe.f64	d16, #0.0
  103e7c:	edcd7a02 	vstr	s15, [sp, #8]
  103e80:	eef1fa10 	vmrs	APSR_nzcv, fpscr
  103e84:	4a000127 	bmi	104328 <_dtoa_r+0x65c>
  103e88:	e59d3008 	ldr	r3, [sp, #8]
  103e8c:	e3530016 	cmp	r3, #22
  103e90:	83a03001 	movhi	r3, #1
  103e94:	858d301c 	strhi	r3, [sp, #28]
  103e98:	8a00000c 	bhi	103ed0 <_dtoa_r+0x204>
  103e9c:	e59d2008 	ldr	r2, [sp, #8]
  103ea0:	e30a3da8 	movw	r3, #44456	; 0xada8
  103ea4:	e3403010 	movt	r3, #16
  103ea8:	ec4bab31 	vmov	d17, sl, fp
  103eac:	e0833182 	add	r3, r3, r2, lsl #3
  103eb0:	edd30b00 	vldr	d16, [r3]
  103eb4:	eef40be1 	vcmpe.f64	d16, d17
  103eb8:	eef1fa10 	vmrs	APSR_nzcv, fpscr
  103ebc:	c1a03002 	movgt	r3, r2
  103ec0:	c2433001 	subgt	r3, r3, #1
  103ec4:	c58d3008 	strgt	r3, [sp, #8]
  103ec8:	e3a03000 	mov	r3, #0
  103ecc:	e58d301c 	str	r3, [sp, #28]
  103ed0:	e0618008 	rsb	r8, r1, r8
  103ed4:	e59d3008 	ldr	r3, [sp, #8]
  103ed8:	e2588001 	subs	r8, r8, #1
  103edc:	42687000 	rsbmi	r7, r8, #0
  103ee0:	53a07000 	movpl	r7, #0
  103ee4:	43a08000 	movmi	r8, #0
  103ee8:	e3530000 	cmp	r3, #0
  103eec:	a58d3018 	strge	r3, [sp, #24]
  103ef0:	a0888003 	addge	r8, r8, r3
  103ef4:	b59d3008 	ldrlt	r3, [sp, #8]
  103ef8:	a3a03000 	movge	r3, #0
  103efc:	a58d300c 	strge	r3, [sp, #12]
  103f00:	b0637007 	rsblt	r7, r3, r7
  103f04:	b2633000 	rsblt	r3, r3, #0
  103f08:	b58d300c 	strlt	r3, [sp, #12]
  103f0c:	b3a03000 	movlt	r3, #0
  103f10:	b58d3018 	strlt	r3, [sp, #24]
  103f14:	e59d3068 	ldr	r3, [sp, #104]	; 0x68
  103f18:	e3530009 	cmp	r3, #9
  103f1c:	8a000024 	bhi	103fb4 <_dtoa_r+0x2e8>
  103f20:	e3530005 	cmp	r3, #5
  103f24:	d3a05001 	movle	r5, #1
  103f28:	c3a05000 	movgt	r5, #0
  103f2c:	c2433004 	subgt	r3, r3, #4
  103f30:	c58d3068 	strgt	r3, [sp, #104]	; 0x68
  103f34:	e59d3068 	ldr	r3, [sp, #104]	; 0x68
  103f38:	e2433002 	sub	r3, r3, #2
  103f3c:	e3530003 	cmp	r3, #3
  103f40:	979ff103 	ldrls	pc, [pc, r3, lsl #2]
  103f44:	ea000104 	b	10435c <_dtoa_r+0x690>
  103f48:	0010467c 	andseq	r4, r0, ip, ror r6
  103f4c:	0010463c 	andseq	r4, r0, ip, lsr r6
  103f50:	0010442c 	andseq	r4, r0, ip, lsr #8
  103f54:	00104f14 	andseq	r4, r0, r4, lsl pc
  103f58:	e7f30055 	ubfx	r0, r5, #0, #20
  103f5c:	e30a3f34 	movw	r3, #44852	; 0xaf34
  103f60:	e3500000 	cmp	r0, #0
  103f64:	e30a2f28 	movw	r2, #44840	; 0xaf28
  103f68:	e3403010 	movt	r3, #16
  103f6c:	e3402010 	movt	r2, #16
  103f70:	11a00003 	movne	r0, r3
  103f74:	01a00002 	moveq	r0, r2
  103f78:	eaffff8c 	b	103db0 <_dtoa_r+0xe4>
  103f7c:	e1a0300b 	mov	r3, fp
  103f80:	e7f30053 	ubfx	r0, r3, #0, #20
  103f84:	e2481fff 	sub	r1, r8, #1020	; 0x3fc
  103f88:	e38035ff 	orr	r3, r0, #1069547520	; 0x3fc00000
  103f8c:	e1a0200a 	mov	r2, sl
  103f90:	e3a00000 	mov	r0, #0
  103f94:	e2411003 	sub	r1, r1, #3
  103f98:	e59d8030 	ldr	r8, [sp, #48]	; 0x30
  103f9c:	e3833603 	orr	r3, r3, #3145728	; 0x300000
  103fa0:	e58d0020 	str	r0, [sp, #32]
  103fa4:	eaffffa8 	b	103e4c <_dtoa_r+0x180>
  103fa8:	e30a0f24 	movw	r0, #44836	; 0xaf24
  103fac:	e3400010 	movt	r0, #16
  103fb0:	eaffff74 	b	103d88 <_dtoa_r+0xbc>
  103fb4:	e3e03000 	mvn	r3, #0
  103fb8:	e3a01000 	mov	r1, #0
  103fbc:	e1a00004 	mov	r0, r4
  103fc0:	e5841044 	str	r1, [r4, #68]	; 0x44
  103fc4:	e1a05003 	mov	r5, r3
  103fc8:	e58d3024 	str	r3, [sp, #36]	; 0x24
  103fcc:	e58d106c 	str	r1, [sp, #108]	; 0x6c
  103fd0:	eb000a99 	bl	106a3c <_Balloc>
  103fd4:	e59d306c 	ldr	r3, [sp, #108]	; 0x6c
  103fd8:	e58d5010 	str	r5, [sp, #16]
  103fdc:	e58d3068 	str	r3, [sp, #104]	; 0x68
  103fe0:	e3a03001 	mov	r3, #1
  103fe4:	e58d3014 	str	r3, [sp, #20]
  103fe8:	e1a06000 	mov	r6, r0
  103fec:	e5840040 	str	r0, [r4, #64]	; 0x40
  103ff0:	e59d2008 	ldr	r2, [sp, #8]
  103ff4:	e59d3034 	ldr	r3, [sp, #52]	; 0x34
  103ff8:	e352000e 	cmp	r2, #14
  103ffc:	c3a02000 	movgt	r2, #0
  104000:	d3a02001 	movle	r2, #1
  104004:	e3530000 	cmp	r3, #0
  104008:	b3a02000 	movlt	r2, #0
  10400c:	e3520000 	cmp	r2, #0
  104010:	0a000025 	beq	1040ac <_dtoa_r+0x3e0>
  104014:	e59d206c 	ldr	r2, [sp, #108]	; 0x6c
  104018:	e30a3da8 	movw	r3, #44456	; 0xada8
  10401c:	e59d1010 	ldr	r1, [sp, #16]
  104020:	e3403010 	movt	r3, #16
  104024:	e1a02fa2 	lsr	r2, r2, #31
  104028:	e3510000 	cmp	r1, #0
  10402c:	c3a02000 	movgt	r2, #0
  104030:	d2022001 	andle	r2, r2, #1
  104034:	e3520000 	cmp	r2, #0
  104038:	e59d2008 	ldr	r2, [sp, #8]
  10403c:	e0833182 	add	r3, r3, r2, lsl #3
  104040:	edd32b00 	vldr	d18, [r3]
  104044:	0a00018f 	beq	104688 <_dtoa_r+0x9bc>
  104048:	e59d3010 	ldr	r3, [sp, #16]
  10404c:	e3530000 	cmp	r3, #0
  104050:	1a0001df 	bne	1047d4 <_dtoa_r+0xb08>
  104054:	eef10b04 	vmov.f64	d16, #20
  104058:	ee622ba0 	vmul.f64	d18, d18, d16
  10405c:	ec4bab30 	vmov	d16, sl, fp
  104060:	eef42be0 	vcmpe.f64	d18, d16
  104064:	eef1fa10 	vmrs	APSR_nzcv, fpscr
  104068:	ba000220 	blt	1048f0 <_dtoa_r+0xc24>
  10406c:	e59d3010 	ldr	r3, [sp, #16]
  104070:	e1a05003 	mov	r5, r3
  104074:	e58d300c 	str	r3, [sp, #12]
  104078:	e59d306c 	ldr	r3, [sp, #108]	; 0x6c
  10407c:	e1e03003 	mvn	r3, r3
  104080:	e58d3008 	str	r3, [sp, #8]
  104084:	e1a03006 	mov	r3, r6
  104088:	ea000085 	b	1042a4 <_dtoa_r+0x5d8>
  10408c:	e320f000 	nop	{0}
  104090:	636f4361 	cmnvs	pc, #-2080374783	; 0x84000001
  104094:	3fd287a7 	svccc	0x00d287a7
  104098:	8b60c8b3 	blhi	193636c <__undef_stack+0x181f80c>
  10409c:	3fc68a28 	svccc	0x00c68a28
  1040a0:	509f79fb 			; <UNDEFINED> instruction: 0x509f79fb
  1040a4:	3fd34413 	svccc	0x00d34413
  1040a8:	0010af25 	andseq	sl, r0, r5, lsr #30
  1040ac:	e59d2014 	ldr	r2, [sp, #20]
  1040b0:	e3520000 	cmp	r2, #0
  1040b4:	1a0000be 	bne	1043b4 <_dtoa_r+0x6e8>
  1040b8:	e59d300c 	ldr	r3, [sp, #12]
  1040bc:	e59d5014 	ldr	r5, [sp, #20]
  1040c0:	e58d7020 	str	r7, [sp, #32]
  1040c4:	e58d3028 	str	r3, [sp, #40]	; 0x28
  1040c8:	e59d3020 	ldr	r3, [sp, #32]
  1040cc:	e3580000 	cmp	r8, #0
  1040d0:	c3530000 	cmpgt	r3, #0
  1040d4:	da000006 	ble	1040f4 <_dtoa_r+0x428>
  1040d8:	e1580003 	cmp	r8, r3
  1040dc:	e1a02003 	mov	r2, r3
  1040e0:	b1a03008 	movlt	r3, r8
  1040e4:	e0637007 	rsb	r7, r3, r7
  1040e8:	e0638008 	rsb	r8, r3, r8
  1040ec:	e0632002 	rsb	r2, r3, r2
  1040f0:	e58d2020 	str	r2, [sp, #32]
  1040f4:	e59d300c 	ldr	r3, [sp, #12]
  1040f8:	e3530000 	cmp	r3, #0
  1040fc:	da000018 	ble	104164 <_dtoa_r+0x498>
  104100:	e59d3014 	ldr	r3, [sp, #20]
  104104:	e3530000 	cmp	r3, #0
  104108:	0a0002f2 	beq	104cd8 <_dtoa_r+0x100c>
  10410c:	e59d3028 	ldr	r3, [sp, #40]	; 0x28
  104110:	e3530000 	cmp	r3, #0
  104114:	da00000e 	ble	104154 <_dtoa_r+0x488>
  104118:	e1a02003 	mov	r2, r3
  10411c:	e1a01005 	mov	r1, r5
  104120:	e1a00004 	mov	r0, r4
  104124:	eb000b97 	bl	106f88 <__pow5mult>
  104128:	e1a02009 	mov	r2, r9
  10412c:	e1a05000 	mov	r5, r0
  104130:	e1a00004 	mov	r0, r4
  104134:	e1a01005 	mov	r1, r5
  104138:	eb000b1b 	bl	106dac <__multiply>
  10413c:	e1a01009 	mov	r1, r9
  104140:	e58d002c 	str	r0, [sp, #44]	; 0x2c
  104144:	e1a00004 	mov	r0, r4
  104148:	eb000a5e 	bl	106ac8 <_Bfree>
  10414c:	e59d302c 	ldr	r3, [sp, #44]	; 0x2c
  104150:	e1a09003 	mov	r9, r3
  104154:	e59d300c 	ldr	r3, [sp, #12]
  104158:	e59d2028 	ldr	r2, [sp, #40]	; 0x28
  10415c:	e0532002 	subs	r2, r3, r2
  104160:	1a0002fb 	bne	104d54 <_dtoa_r+0x1088>
  104164:	e1a00004 	mov	r0, r4
  104168:	e3a01001 	mov	r1, #1
  10416c:	eb000b06 	bl	106d8c <__i2b>
  104170:	e59d3018 	ldr	r3, [sp, #24]
  104174:	e3530000 	cmp	r3, #0
  104178:	e58d000c 	str	r0, [sp, #12]
  10417c:	da00017a 	ble	10476c <_dtoa_r+0xaa0>
  104180:	e1a01000 	mov	r1, r0
  104184:	e1a02003 	mov	r2, r3
  104188:	e1a00004 	mov	r0, r4
  10418c:	eb000b7d 	bl	106f88 <__pow5mult>
  104190:	e59d3068 	ldr	r3, [sp, #104]	; 0x68
  104194:	e3530001 	cmp	r3, #1
  104198:	e58d000c 	str	r0, [sp, #12]
  10419c:	da0002f1 	ble	104d68 <_dtoa_r+0x109c>
  1041a0:	e3a03000 	mov	r3, #0
  1041a4:	e58d3028 	str	r3, [sp, #40]	; 0x28
  1041a8:	e59d200c 	ldr	r2, [sp, #12]
  1041ac:	e5923010 	ldr	r3, [r2, #16]
  1041b0:	e0823103 	add	r3, r2, r3, lsl #2
  1041b4:	e5930010 	ldr	r0, [r3, #16]
  1041b8:	eb000ab6 	bl	106c98 <__hi0bits>
  1041bc:	e2600020 	rsb	r0, r0, #32
  1041c0:	e0800008 	add	r0, r0, r8
  1041c4:	e210001f 	ands	r0, r0, #31
  1041c8:	0a0001c5 	beq	1048e4 <_dtoa_r+0xc18>
  1041cc:	e2603020 	rsb	r3, r0, #32
  1041d0:	e3530004 	cmp	r3, #4
  1041d4:	da00034b 	ble	104f08 <_dtoa_r+0x123c>
  1041d8:	e260001c 	rsb	r0, r0, #28
  1041dc:	e59d3020 	ldr	r3, [sp, #32]
  1041e0:	e0877000 	add	r7, r7, r0
  1041e4:	e0888000 	add	r8, r8, r0
  1041e8:	e0833000 	add	r3, r3, r0
  1041ec:	e58d3020 	str	r3, [sp, #32]
  1041f0:	e3570000 	cmp	r7, #0
  1041f4:	da000004 	ble	10420c <_dtoa_r+0x540>
  1041f8:	e1a01009 	mov	r1, r9
  1041fc:	e1a02007 	mov	r2, r7
  104200:	e1a00004 	mov	r0, r4
  104204:	eb000b9e 	bl	107084 <__lshift>
  104208:	e1a09000 	mov	r9, r0
  10420c:	e3580000 	cmp	r8, #0
  104210:	da000004 	ble	104228 <_dtoa_r+0x55c>
  104214:	e59d100c 	ldr	r1, [sp, #12]
  104218:	e1a02008 	mov	r2, r8
  10421c:	e1a00004 	mov	r0, r4
  104220:	eb000b97 	bl	107084 <__lshift>
  104224:	e58d000c 	str	r0, [sp, #12]
  104228:	e59d301c 	ldr	r3, [sp, #28]
  10422c:	e3530000 	cmp	r3, #0
  104230:	1a0001f9 	bne	104a1c <_dtoa_r+0xd50>
  104234:	e59d3068 	ldr	r3, [sp, #104]	; 0x68
  104238:	e59d2010 	ldr	r2, [sp, #16]
  10423c:	e3530002 	cmp	r3, #2
  104240:	c3a03001 	movgt	r3, #1
  104244:	d3a03000 	movle	r3, #0
  104248:	e3520000 	cmp	r2, #0
  10424c:	c3a03000 	movgt	r3, #0
  104250:	e3530000 	cmp	r3, #0
  104254:	0a000162 	beq	1047e4 <_dtoa_r+0xb18>
  104258:	e59d3010 	ldr	r3, [sp, #16]
  10425c:	e3530000 	cmp	r3, #0
  104260:	1affff84 	bne	104078 <_dtoa_r+0x3ac>
  104264:	e59d100c 	ldr	r1, [sp, #12]
  104268:	e3a02005 	mov	r2, #5
  10426c:	e1a00004 	mov	r0, r4
  104270:	eb000a1b 	bl	106ae4 <__multadd>
  104274:	e1a01000 	mov	r1, r0
  104278:	e58d000c 	str	r0, [sp, #12]
  10427c:	e1a00009 	mov	r0, r9
  104280:	eb000bbe 	bl	107180 <__mcmp>
  104284:	e3500000 	cmp	r0, #0
  104288:	daffff7a 	ble	104078 <_dtoa_r+0x3ac>
  10428c:	e59d3008 	ldr	r3, [sp, #8]
  104290:	e3a02031 	mov	r2, #49	; 0x31
  104294:	e5c62000 	strb	r2, [r6]
  104298:	e2833001 	add	r3, r3, #1
  10429c:	e58d3008 	str	r3, [sp, #8]
  1042a0:	e2863001 	add	r3, r6, #1
  1042a4:	e59d100c 	ldr	r1, [sp, #12]
  1042a8:	e1a00004 	mov	r0, r4
  1042ac:	e58d3010 	str	r3, [sp, #16]
  1042b0:	eb000a04 	bl	106ac8 <_Bfree>
  1042b4:	e3550000 	cmp	r5, #0
  1042b8:	e59d3010 	ldr	r3, [sp, #16]
  1042bc:	0a000004 	beq	1042d4 <_dtoa_r+0x608>
  1042c0:	e1a01005 	mov	r1, r5
  1042c4:	e1a00004 	mov	r0, r4
  1042c8:	e58d300c 	str	r3, [sp, #12]
  1042cc:	eb0009fd 	bl	106ac8 <_Bfree>
  1042d0:	e59d300c 	ldr	r3, [sp, #12]
  1042d4:	e1a00004 	mov	r0, r4
  1042d8:	e1a01009 	mov	r1, r9
  1042dc:	e58d300c 	str	r3, [sp, #12]
  1042e0:	eb0009f8 	bl	106ac8 <_Bfree>
  1042e4:	e59d3078 	ldr	r3, [sp, #120]	; 0x78
  1042e8:	e3a01000 	mov	r1, #0
  1042ec:	e3530000 	cmp	r3, #0
  1042f0:	e59d3008 	ldr	r3, [sp, #8]
  1042f4:	e2832001 	add	r2, r3, #1
  1042f8:	e59d300c 	ldr	r3, [sp, #12]
  1042fc:	01a00006 	moveq	r0, r6
  104300:	e5c31000 	strb	r1, [r3]
  104304:	e59d1070 	ldr	r1, [sp, #112]	; 0x70
  104308:	e5812000 	str	r2, [r1]
  10430c:	0afffe9d 	beq	103d88 <_dtoa_r+0xbc>
  104310:	e59d2078 	ldr	r2, [sp, #120]	; 0x78
  104314:	e1a00006 	mov	r0, r6
  104318:	e5823000 	str	r3, [r2]
  10431c:	e28dd03c 	add	sp, sp, #60	; 0x3c
  104320:	ecbd8b02 	vpop	{d8}
  104324:	e8bd8ff0 	pop	{r4, r5, r6, r7, r8, r9, sl, fp, pc}
  104328:	eef81be7 	vcvt.f64.s32	d17, s15
  10432c:	eef41b60 	vcmp.f64	d17, d16
  104330:	eef1fa10 	vmrs	APSR_nzcv, fpscr
  104334:	1e173a90 	vmovne	r3, s15
  104338:	12433001 	subne	r3, r3, #1
  10433c:	158d3008 	strne	r3, [sp, #8]
  104340:	eafffed0 	b	103e88 <_dtoa_r+0x1bc>
  104344:	e30f3bee 	movw	r3, #64494	; 0xfbee
  104348:	e34f3fff 	movt	r3, #65535	; 0xffff
  10434c:	e0613003 	rsb	r3, r1, r3
  104350:	e1a0331a 	lsl	r3, sl, r3
  104354:	ee073a90 	vmov	s15, r3
  104358:	eafffeb5 	b	103e34 <_dtoa_r+0x168>
  10435c:	e3a05000 	mov	r5, #0
  104360:	e1a00004 	mov	r0, r4
  104364:	e5845044 	str	r5, [r4, #68]	; 0x44
  104368:	e1a01005 	mov	r1, r5
  10436c:	eb0009b2 	bl	106a3c <_Balloc>
  104370:	e59d2008 	ldr	r2, [sp, #8]
  104374:	e59d3034 	ldr	r3, [sp, #52]	; 0x34
  104378:	e352000e 	cmp	r2, #14
  10437c:	c3a02000 	movgt	r2, #0
  104380:	d3a02001 	movle	r2, #1
  104384:	e1530005 	cmp	r3, r5
  104388:	b3a02000 	movlt	r2, #0
  10438c:	e1520005 	cmp	r2, r5
  104390:	e1a06000 	mov	r6, r0
  104394:	e5840040 	str	r0, [r4, #64]	; 0x40
  104398:	1a0002e0 	bne	104f20 <_dtoa_r+0x1254>
  10439c:	e3e01000 	mvn	r1, #0
  1043a0:	e58d206c 	str	r2, [sp, #108]	; 0x6c
  1043a4:	e58d1010 	str	r1, [sp, #16]
  1043a8:	e3a02001 	mov	r2, #1
  1043ac:	e58d1024 	str	r1, [sp, #36]	; 0x24
  1043b0:	e58d2014 	str	r2, [sp, #20]
  1043b4:	e59d2068 	ldr	r2, [sp, #104]	; 0x68
  1043b8:	e3520001 	cmp	r2, #1
  1043bc:	da000272 	ble	104d8c <_dtoa_r+0x10c0>
  1043c0:	e59d3010 	ldr	r3, [sp, #16]
  1043c4:	e2432001 	sub	r2, r3, #1
  1043c8:	e59d300c 	ldr	r3, [sp, #12]
  1043cc:	e1530002 	cmp	r3, r2
  1043d0:	a0623003 	rsbge	r3, r2, r3
  1043d4:	b59d300c 	ldrlt	r3, [sp, #12]
  1043d8:	b58d200c 	strlt	r2, [sp, #12]
  1043dc:	b0633002 	rsblt	r3, r3, r2
  1043e0:	b59d2018 	ldrlt	r2, [sp, #24]
  1043e4:	b0823003 	addlt	r3, r2, r3
  1043e8:	b58d3018 	strlt	r3, [sp, #24]
  1043ec:	b3a03000 	movlt	r3, #0
  1043f0:	e58d3028 	str	r3, [sp, #40]	; 0x28
  1043f4:	e59d3010 	ldr	r3, [sp, #16]
  1043f8:	e3530000 	cmp	r3, #0
  1043fc:	a58d7020 	strge	r7, [sp, #32]
  104400:	b0633007 	rsblt	r3, r3, r7
  104404:	b58d3020 	strlt	r3, [sp, #32]
  104408:	a59d3010 	ldrge	r3, [sp, #16]
  10440c:	b3a03000 	movlt	r3, #0
  104410:	e1a00004 	mov	r0, r4
  104414:	e3a01001 	mov	r1, #1
  104418:	e0877003 	add	r7, r7, r3
  10441c:	e0888003 	add	r8, r8, r3
  104420:	eb000a59 	bl	106d8c <__i2b>
  104424:	e1a05000 	mov	r5, r0
  104428:	eaffff26 	b	1040c8 <_dtoa_r+0x3fc>
  10442c:	e3a03001 	mov	r3, #1
  104430:	e58d3014 	str	r3, [sp, #20]
  104434:	e59d306c 	ldr	r3, [sp, #108]	; 0x6c
  104438:	e3530000 	cmp	r3, #0
  10443c:	da000220 	ble	104cc4 <_dtoa_r+0xff8>
  104440:	e353000e 	cmp	r3, #14
  104444:	83a05000 	movhi	r5, #0
  104448:	92055001 	andls	r5, r5, #1
  10444c:	e1a0c003 	mov	ip, r3
  104450:	e58d3024 	str	r3, [sp, #36]	; 0x24
  104454:	e58d3010 	str	r3, [sp, #16]
  104458:	e35c0017 	cmp	ip, #23
  10445c:	e3a01000 	mov	r1, #0
  104460:	e5841044 	str	r1, [r4, #68]	; 0x44
  104464:	9a000008 	bls	10448c <_dtoa_r+0x7c0>
  104468:	e3a02001 	mov	r2, #1
  10446c:	e3a03004 	mov	r3, #4
  104470:	e1a03083 	lsl	r3, r3, #1
  104474:	e1a01002 	mov	r1, r2
  104478:	e2830014 	add	r0, r3, #20
  10447c:	e2822001 	add	r2, r2, #1
  104480:	e150000c 	cmp	r0, ip
  104484:	9afffff9 	bls	104470 <_dtoa_r+0x7a4>
  104488:	e5841044 	str	r1, [r4, #68]	; 0x44
  10448c:	e1a00004 	mov	r0, r4
  104490:	eb000969 	bl	106a3c <_Balloc>
  104494:	e3550000 	cmp	r5, #0
  104498:	e1a06000 	mov	r6, r0
  10449c:	e5840040 	str	r0, [r4, #64]	; 0x40
  1044a0:	0afffed2 	beq	103ff0 <_dtoa_r+0x324>
  1044a4:	e59d3008 	ldr	r3, [sp, #8]
  1044a8:	ec4bab35 	vmov	d21, sl, fp
  1044ac:	e3530000 	cmp	r3, #0
  1044b0:	da000113 	ble	104904 <_dtoa_r+0xc38>
  1044b4:	e203100f 	and	r1, r3, #15
  1044b8:	e30a2da8 	movw	r2, #44456	; 0xada8
  1044bc:	e1a03243 	asr	r3, r3, #4
  1044c0:	e3402010 	movt	r2, #16
  1044c4:	e3130010 	tst	r3, #16
  1044c8:	e0822181 	add	r2, r2, r1, lsl #3
  1044cc:	1203300f 	andne	r3, r3, #15
  1044d0:	edd20b00 	vldr	d16, [r2]
  1044d4:	130a2e98 	movwne	r2, #44696	; 0xae98
  1044d8:	13402010 	movtne	r2, #16
  1044dc:	13a01003 	movne	r1, #3
  1044e0:	03a01002 	moveq	r1, #2
  1044e4:	1dd23b08 	vldrne	d19, [r2, #32]
  1044e8:	0ef03b65 	vmoveq.f64	d19, d21
  1044ec:	1ec53ba3 	vdivne.f64	d19, d21, d19
  1044f0:	e3530000 	cmp	r3, #0
  1044f4:	0a000008 	beq	10451c <_dtoa_r+0x850>
  1044f8:	e30a2e98 	movw	r2, #44696	; 0xae98
  1044fc:	e3402010 	movt	r2, #16
  104500:	e3130001 	tst	r3, #1
  104504:	e2822008 	add	r2, r2, #8
  104508:	12811001 	addne	r1, r1, #1
  10450c:	1d521b02 	vldrne	d17, [r2, #-8]
  104510:	1e600ba1 	vmulne.f64	d16, d16, d17
  104514:	e1b030c3 	asrs	r3, r3, #1
  104518:	1afffff8 	bne	104500 <_dtoa_r+0x834>
  10451c:	eec33ba0 	vdiv.f64	d19, d19, d16
  104520:	e59d301c 	ldr	r3, [sp, #28]
  104524:	e3530000 	cmp	r3, #0
  104528:	0a000003 	beq	10453c <_dtoa_r+0x870>
  10452c:	eef70b00 	vmov.f64	d16, #112	; 0x70
  104530:	eef43be0 	vcmpe.f64	d19, d16
  104534:	eef1fa10 	vmrs	APSR_nzcv, fpscr
  104538:	4a0001f2 	bmi	104d08 <_dtoa_r+0x103c>
  10453c:	eef12b0c 	vmov.f64	d18, #28
  104540:	e59d3010 	ldr	r3, [sp, #16]
  104544:	ee071a90 	vmov	s15, r1
  104548:	e3530000 	cmp	r3, #0
  10454c:	eef80be7 	vcvt.f64.s32	d16, s15
  104550:	ee402ba3 	vmla.f64	d18, d16, d19
  104554:	ec5bab32 	vmov	sl, fp, d18
  104558:	e24bb50d 	sub	fp, fp, #54525952	; 0x3400000
  10455c:	0a000092 	beq	1047ac <_dtoa_r+0xae0>
  104560:	e59de008 	ldr	lr, [sp, #8]
  104564:	e59d0010 	ldr	r0, [sp, #16]
  104568:	e59d3014 	ldr	r3, [sp, #20]
  10456c:	e3530000 	cmp	r3, #0
  104570:	0a0000fc 	beq	104968 <_dtoa_r+0xc9c>
  104574:	eef61b00 	vmov.f64	d17, #96	; 0x60
  104578:	e2402001 	sub	r2, r0, #1
  10457c:	e30a1da8 	movw	r1, #44456	; 0xada8
  104580:	e2863001 	add	r3, r6, #1
  104584:	e3401010 	movt	r1, #16
  104588:	e0812182 	add	r2, r1, r2, lsl #3
  10458c:	edd22b00 	vldr	d18, [r2]
  104590:	eec11ba2 	vdiv.f64	d17, d17, d18
  104594:	ec4bab32 	vmov	d18, sl, fp
  104598:	eefd7be3 	vcvt.s32.f64	s15, d19
  10459c:	ee172a90 	vmov	r2, s15
  1045a0:	eef80be7 	vcvt.f64.s32	d16, s15
  1045a4:	ee712be2 	vsub.f64	d18, d17, d18
  1045a8:	ee730be0 	vsub.f64	d16, d19, d16
  1045ac:	e2822030 	add	r2, r2, #48	; 0x30
  1045b0:	e6ef2072 	uxtb	r2, r2
  1045b4:	e5c62000 	strb	r2, [r6]
  1045b8:	eef42be0 	vcmpe.f64	d18, d16
  1045bc:	eef1fa10 	vmrs	APSR_nzcv, fpscr
  1045c0:	ca00001b 	bgt	104634 <_dtoa_r+0x968>
  1045c4:	eef74b00 	vmov.f64	d20, #112	; 0x70
  1045c8:	ee741be0 	vsub.f64	d17, d20, d16
  1045cc:	eef42be1 	vcmpe.f64	d18, d17
  1045d0:	eef1fa10 	vmrs	APSR_nzcv, fpscr
  1045d4:	ca000057 	bgt	104738 <_dtoa_r+0xa6c>
  1045d8:	e3500001 	cmp	r0, #1
  1045dc:	da0000c6 	ble	1048fc <_dtoa_r+0xc30>
  1045e0:	e0860000 	add	r0, r6, r0
  1045e4:	eef23b04 	vmov.f64	d19, #36	; 0x24
  1045e8:	ea000005 	b	104604 <_dtoa_r+0x938>
  1045ec:	ee741be0 	vsub.f64	d17, d20, d16
  1045f0:	eef41be2 	vcmpe.f64	d17, d18
  1045f4:	eef1fa10 	vmrs	APSR_nzcv, fpscr
  1045f8:	4a00004e 	bmi	104738 <_dtoa_r+0xa6c>
  1045fc:	e1530000 	cmp	r3, r0
  104600:	0a0000bd 	beq	1048fc <_dtoa_r+0xc30>
  104604:	ee600ba3 	vmul.f64	d16, d16, d19
  104608:	eefd7be0 	vcvt.s32.f64	s15, d16
  10460c:	ee172a90 	vmov	r2, s15
  104610:	ee622ba3 	vmul.f64	d18, d18, d19
  104614:	eef81be7 	vcvt.f64.s32	d17, s15
  104618:	e2822030 	add	r2, r2, #48	; 0x30
  10461c:	e6ef2072 	uxtb	r2, r2
  104620:	e4c32001 	strb	r2, [r3], #1
  104624:	ee700be1 	vsub.f64	d16, d16, d17
  104628:	eef40be2 	vcmpe.f64	d16, d18
  10462c:	eef1fa10 	vmrs	APSR_nzcv, fpscr
  104630:	5affffed 	bpl	1045ec <_dtoa_r+0x920>
  104634:	e58de008 	str	lr, [sp, #8]
  104638:	eaffff25 	b	1042d4 <_dtoa_r+0x608>
  10463c:	e3a03000 	mov	r3, #0
  104640:	e58d3014 	str	r3, [sp, #20]
  104644:	e59d306c 	ldr	r3, [sp, #108]	; 0x6c
  104648:	e59d2008 	ldr	r2, [sp, #8]
  10464c:	e0833002 	add	r3, r3, r2
  104650:	e58d3024 	str	r3, [sp, #36]	; 0x24
  104654:	e2833001 	add	r3, r3, #1
  104658:	e58d3010 	str	r3, [sp, #16]
  10465c:	e3530000 	cmp	r3, #0
  104660:	da000190 	ble	104ca8 <_dtoa_r+0xfdc>
  104664:	e59d3010 	ldr	r3, [sp, #16]
  104668:	e353000e 	cmp	r3, #14
  10466c:	83a05000 	movhi	r5, #0
  104670:	92055001 	andls	r5, r5, #1
  104674:	e1a0c003 	mov	ip, r3
  104678:	eaffff76 	b	104458 <_dtoa_r+0x78c>
  10467c:	e3a03000 	mov	r3, #0
  104680:	e58d3014 	str	r3, [sp, #20]
  104684:	eaffff6a 	b	104434 <_dtoa_r+0x768>
  104688:	ec4bab30 	vmov	d16, sl, fp
  10468c:	e3510001 	cmp	r1, #1
  104690:	e2863001 	add	r3, r6, #1
  104694:	eec01ba2 	vdiv.f64	d17, d16, d18
  104698:	eefd7be1 	vcvt.s32.f64	s15, d17
  10469c:	ee172a90 	vmov	r2, s15
  1046a0:	eef81be7 	vcvt.f64.s32	d17, s15
  1046a4:	ee410be2 	vmls.f64	d16, d17, d18
  1046a8:	e2822030 	add	r2, r2, #48	; 0x30
  1046ac:	e5c62000 	strb	r2, [r6]
  1046b0:	0a000014 	beq	104708 <_dtoa_r+0xa3c>
  1046b4:	eef23b04 	vmov.f64	d19, #36	; 0x24
  1046b8:	ee600ba3 	vmul.f64	d16, d16, d19
  1046bc:	eef50b40 	vcmp.f64	d16, #0.0
  1046c0:	eef1fa10 	vmrs	APSR_nzcv, fpscr
  1046c4:	159d1010 	ldrne	r1, [sp, #16]
  1046c8:	1a000004 	bne	1046e0 <_dtoa_r+0xa14>
  1046cc:	eaffff00 	b	1042d4 <_dtoa_r+0x608>
  1046d0:	ee600ba3 	vmul.f64	d16, d16, d19
  1046d4:	eef50b40 	vcmp.f64	d16, #0.0
  1046d8:	eef1fa10 	vmrs	APSR_nzcv, fpscr
  1046dc:	0afffefc 	beq	1042d4 <_dtoa_r+0x608>
  1046e0:	eec01ba2 	vdiv.f64	d17, d16, d18
  1046e4:	eefd7be1 	vcvt.s32.f64	s15, d17
  1046e8:	ee172a90 	vmov	r2, s15
  1046ec:	eef81be7 	vcvt.f64.s32	d17, s15
  1046f0:	ee410be2 	vmls.f64	d16, d17, d18
  1046f4:	e2822030 	add	r2, r2, #48	; 0x30
  1046f8:	e4c32001 	strb	r2, [r3], #1
  1046fc:	e0662003 	rsb	r2, r6, r3
  104700:	e1510002 	cmp	r1, r2
  104704:	1afffff1 	bne	1046d0 <_dtoa_r+0xa04>
  104708:	ee700ba0 	vadd.f64	d16, d16, d16
  10470c:	eef42be0 	vcmpe.f64	d18, d16
  104710:	eef1fa10 	vmrs	APSR_nzcv, fpscr
  104714:	4a000005 	bmi	104730 <_dtoa_r+0xa64>
  104718:	eef42b60 	vcmp.f64	d18, d16
  10471c:	eef1fa10 	vmrs	APSR_nzcv, fpscr
  104720:	1afffeeb 	bne	1042d4 <_dtoa_r+0x608>
  104724:	ee172a90 	vmov	r2, s15
  104728:	e3120001 	tst	r2, #1
  10472c:	0afffee8 	beq	1042d4 <_dtoa_r+0x608>
  104730:	e59de008 	ldr	lr, [sp, #8]
  104734:	e5532001 	ldrb	r2, [r3, #-1]
  104738:	e2431001 	sub	r1, r3, #1
  10473c:	ea000002 	b	10474c <_dtoa_r+0xa80>
  104740:	e1510006 	cmp	r1, r6
  104744:	0a000169 	beq	104cf0 <_dtoa_r+0x1024>
  104748:	e5712001 	ldrb	r2, [r1, #-1]!
  10474c:	e3520039 	cmp	r2, #57	; 0x39
  104750:	e2813001 	add	r3, r1, #1
  104754:	0afffff9 	beq	104740 <_dtoa_r+0xa74>
  104758:	e2822001 	add	r2, r2, #1
  10475c:	e58de008 	str	lr, [sp, #8]
  104760:	e6ef2072 	uxtb	r2, r2
  104764:	e5c12000 	strb	r2, [r1]
  104768:	eafffed9 	b	1042d4 <_dtoa_r+0x608>
  10476c:	e59d3068 	ldr	r3, [sp, #104]	; 0x68
  104770:	e3530001 	cmp	r3, #1
  104774:	da0000c7 	ble	104a98 <_dtoa_r+0xdcc>
  104778:	e3a03000 	mov	r3, #0
  10477c:	e58d3028 	str	r3, [sp, #40]	; 0x28
  104780:	e59d3018 	ldr	r3, [sp, #24]
  104784:	e3530000 	cmp	r3, #0
  104788:	03a00001 	moveq	r0, #1
  10478c:	0afffe8b 	beq	1041c0 <_dtoa_r+0x4f4>
  104790:	eafffe84 	b	1041a8 <_dtoa_r+0x4dc>
  104794:	eef12b0c 	vmov.f64	d18, #28
  104798:	ee071a90 	vmov	s15, r1
  10479c:	eef81be7 	vcvt.f64.s32	d17, s15
  1047a0:	ee432ba1 	vmla.f64	d18, d19, d17
  1047a4:	ec5bab32 	vmov	sl, fp, d18
  1047a8:	e24bb50d 	sub	fp, fp, #54525952	; 0x3400000
  1047ac:	eef10b04 	vmov.f64	d16, #20
  1047b0:	ec4bab32 	vmov	d18, sl, fp
  1047b4:	ee730be0 	vsub.f64	d16, d19, d16
  1047b8:	eef40be2 	vcmpe.f64	d16, d18
  1047bc:	eef1fa10 	vmrs	APSR_nzcv, fpscr
  1047c0:	ca000049 	bgt	1048ec <_dtoa_r+0xc20>
  1047c4:	eef12b62 	vneg.f64	d18, d18
  1047c8:	eef40be2 	vcmpe.f64	d16, d18
  1047cc:	eef1fa10 	vmrs	APSR_nzcv, fpscr
  1047d0:	5a000049 	bpl	1048fc <_dtoa_r+0xc30>
  1047d4:	e3a03000 	mov	r3, #0
  1047d8:	e58d300c 	str	r3, [sp, #12]
  1047dc:	e1a05003 	mov	r5, r3
  1047e0:	eafffe24 	b	104078 <_dtoa_r+0x3ac>
  1047e4:	e59d3014 	ldr	r3, [sp, #20]
  1047e8:	e3530000 	cmp	r3, #0
  1047ec:	1a0000c9 	bne	104b18 <_dtoa_r+0xe4c>
  1047f0:	e1a07006 	mov	r7, r6
  1047f4:	e59da00c 	ldr	sl, [sp, #12]
  1047f8:	e59db010 	ldr	fp, [sp, #16]
  1047fc:	ea000001 	b	104808 <_dtoa_r+0xb3c>
  104800:	eb0008b7 	bl	106ae4 <__multadd>
  104804:	e1a09000 	mov	r9, r0
  104808:	e1a0100a 	mov	r1, sl
  10480c:	e1a00009 	mov	r0, r9
  104810:	ebfffcbc 	bl	103b08 <quorem>
  104814:	e1a01009 	mov	r1, r9
  104818:	e3a0200a 	mov	r2, #10
  10481c:	e3a03000 	mov	r3, #0
  104820:	e2808030 	add	r8, r0, #48	; 0x30
  104824:	e4c78001 	strb	r8, [r7], #1
  104828:	e066c007 	rsb	ip, r6, r7
  10482c:	e1a00004 	mov	r0, r4
  104830:	e15c000b 	cmp	ip, fp
  104834:	bafffff1 	blt	104800 <_dtoa_r+0xb34>
  104838:	e59d3010 	ldr	r3, [sp, #16]
  10483c:	e3a0a000 	mov	sl, #0
  104840:	e3530001 	cmp	r3, #1
  104844:	a0863003 	addge	r3, r6, r3
  104848:	b2863001 	addlt	r3, r6, #1
  10484c:	e1a01009 	mov	r1, r9
  104850:	e3a02001 	mov	r2, #1
  104854:	e1a00004 	mov	r0, r4
  104858:	e58d3010 	str	r3, [sp, #16]
  10485c:	eb000a08 	bl	107084 <__lshift>
  104860:	e59d100c 	ldr	r1, [sp, #12]
  104864:	e1a09000 	mov	r9, r0
  104868:	eb000a44 	bl	107180 <__mcmp>
  10486c:	e59d3010 	ldr	r3, [sp, #16]
  104870:	e3500000 	cmp	r0, #0
  104874:	da000167 	ble	104e18 <_dtoa_r+0x114c>
  104878:	e5531001 	ldrb	r1, [r3, #-1]
  10487c:	e2432001 	sub	r2, r3, #1
  104880:	ea000002 	b	104890 <_dtoa_r+0xbc4>
  104884:	e1520006 	cmp	r2, r6
  104888:	0a000139 	beq	104d74 <_dtoa_r+0x10a8>
  10488c:	e5721001 	ldrb	r1, [r2, #-1]!
  104890:	e3510039 	cmp	r1, #57	; 0x39
  104894:	e2823001 	add	r3, r2, #1
  104898:	0afffff9 	beq	104884 <_dtoa_r+0xbb8>
  10489c:	e2811001 	add	r1, r1, #1
  1048a0:	e5c21000 	strb	r1, [r2]
  1048a4:	e59d100c 	ldr	r1, [sp, #12]
  1048a8:	e1a00004 	mov	r0, r4
  1048ac:	e58d3010 	str	r3, [sp, #16]
  1048b0:	eb000884 	bl	106ac8 <_Bfree>
  1048b4:	e3550000 	cmp	r5, #0
  1048b8:	e59d3010 	ldr	r3, [sp, #16]
  1048bc:	0afffe84 	beq	1042d4 <_dtoa_r+0x608>
  1048c0:	e15a0005 	cmp	sl, r5
  1048c4:	135a0000 	cmpne	sl, #0
  1048c8:	0afffe7c 	beq	1042c0 <_dtoa_r+0x5f4>
  1048cc:	e1a0100a 	mov	r1, sl
  1048d0:	e1a00004 	mov	r0, r4
  1048d4:	e58d300c 	str	r3, [sp, #12]
  1048d8:	eb00087a 	bl	106ac8 <_Bfree>
  1048dc:	e59d300c 	ldr	r3, [sp, #12]
  1048e0:	eafffe76 	b	1042c0 <_dtoa_r+0x5f4>
  1048e4:	e3a0001c 	mov	r0, #28
  1048e8:	eafffe3b 	b	1041dc <_dtoa_r+0x510>
  1048ec:	e3a03000 	mov	r3, #0
  1048f0:	e58d300c 	str	r3, [sp, #12]
  1048f4:	e1a05003 	mov	r5, r3
  1048f8:	eafffe63 	b	10428c <_dtoa_r+0x5c0>
  1048fc:	ec5bab35 	vmov	sl, fp, d21
  104900:	eafffdba 	b	103ff0 <_dtoa_r+0x324>
  104904:	e59d3008 	ldr	r3, [sp, #8]
  104908:	e2633000 	rsb	r3, r3, #0
  10490c:	e3530000 	cmp	r3, #0
  104910:	0ef03b65 	vmoveq.f64	d19, d21
  104914:	03a01002 	moveq	r1, #2
  104918:	0affff00 	beq	104520 <_dtoa_r+0x854>
  10491c:	e203100f 	and	r1, r3, #15
  104920:	e30a2da8 	movw	r2, #44456	; 0xada8
  104924:	e3402010 	movt	r2, #16
  104928:	e1b00243 	asrs	r0, r3, #4
  10492c:	e0822181 	add	r2, r2, r1, lsl #3
  104930:	edd20b00 	vldr	d16, [r2]
  104934:	ee653ba0 	vmul.f64	d19, d21, d16
  104938:	0a00016c 	beq	104ef0 <_dtoa_r+0x1224>
  10493c:	e30a3e98 	movw	r3, #44696	; 0xae98
  104940:	e3a01002 	mov	r1, #2
  104944:	e3403010 	movt	r3, #16
  104948:	e3100001 	tst	r0, #1
  10494c:	e2833008 	add	r3, r3, #8
  104950:	12811001 	addne	r1, r1, #1
  104954:	1d530b02 	vldrne	d16, [r3, #-8]
  104958:	1e633ba0 	vmulne.f64	d19, d19, d16
  10495c:	e1b000c0 	asrs	r0, r0, #1
  104960:	1afffff8 	bne	104948 <_dtoa_r+0xc7c>
  104964:	eafffeed 	b	104520 <_dtoa_r+0x854>
  104968:	eefd7be3 	vcvt.s32.f64	s15, d19
  10496c:	e240c001 	sub	ip, r0, #1
  104970:	e30a3da8 	movw	r3, #44456	; 0xada8
  104974:	e3500001 	cmp	r0, #1
  104978:	e3403010 	movt	r3, #16
  10497c:	e083218c 	add	r2, r3, ip, lsl #3
  104980:	ec4bab30 	vmov	d16, sl, fp
  104984:	e2863001 	add	r3, r6, #1
  104988:	10860000 	addne	r0, r6, r0
  10498c:	edd22b00 	vldr	d18, [r2]
  104990:	11a01003 	movne	r1, r3
  104994:	ee172a90 	vmov	r2, s15
  104998:	eef81be7 	vcvt.f64.s32	d17, s15
  10499c:	ee622ba0 	vmul.f64	d18, d18, d16
  1049a0:	e2822030 	add	r2, r2, #48	; 0x30
  1049a4:	e5c62000 	strb	r2, [r6]
  1049a8:	ee730be1 	vsub.f64	d16, d19, d17
  1049ac:	1ef23b04 	vmovne.f64	d19, #36	; 0x24
  1049b0:	0a000009 	beq	1049dc <_dtoa_r+0xd10>
  1049b4:	ee600ba3 	vmul.f64	d16, d16, d19
  1049b8:	eefd7be0 	vcvt.s32.f64	s15, d16
  1049bc:	ee172a90 	vmov	r2, s15
  1049c0:	eef81be7 	vcvt.f64.s32	d17, s15
  1049c4:	ee700be1 	vsub.f64	d16, d16, d17
  1049c8:	e2822030 	add	r2, r2, #48	; 0x30
  1049cc:	e4c12001 	strb	r2, [r1], #1
  1049d0:	e1510000 	cmp	r1, r0
  1049d4:	1afffff6 	bne	1049b4 <_dtoa_r+0xce8>
  1049d8:	e083300c 	add	r3, r3, ip
  1049dc:	eef61b00 	vmov.f64	d17, #96	; 0x60
  1049e0:	ee723ba1 	vadd.f64	d19, d18, d17
  1049e4:	eef43be0 	vcmpe.f64	d19, d16
  1049e8:	eef1fa10 	vmrs	APSR_nzcv, fpscr
  1049ec:	4affff50 	bmi	104734 <_dtoa_r+0xa68>
  1049f0:	ee711be2 	vsub.f64	d17, d17, d18
  1049f4:	eef41be0 	vcmpe.f64	d17, d16
  1049f8:	eef1fa10 	vmrs	APSR_nzcv, fpscr
  1049fc:	ca000001 	bgt	104a08 <_dtoa_r+0xd3c>
  104a00:	eaffffbd 	b	1048fc <_dtoa_r+0xc30>
  104a04:	e1a03001 	mov	r3, r1
  104a08:	e5532001 	ldrb	r2, [r3, #-1]
  104a0c:	e2431001 	sub	r1, r3, #1
  104a10:	e3520030 	cmp	r2, #48	; 0x30
  104a14:	0afffffa 	beq	104a04 <_dtoa_r+0xd38>
  104a18:	eaffff05 	b	104634 <_dtoa_r+0x968>
  104a1c:	e1a00009 	mov	r0, r9
  104a20:	e59d100c 	ldr	r1, [sp, #12]
  104a24:	eb0009d5 	bl	107180 <__mcmp>
  104a28:	e3500000 	cmp	r0, #0
  104a2c:	aafffe00 	bge	104234 <_dtoa_r+0x568>
  104a30:	e1a01009 	mov	r1, r9
  104a34:	e3a03000 	mov	r3, #0
  104a38:	e1a00004 	mov	r0, r4
  104a3c:	e3a0200a 	mov	r2, #10
  104a40:	eb000827 	bl	106ae4 <__multadd>
  104a44:	e59d3014 	ldr	r3, [sp, #20]
  104a48:	e3530000 	cmp	r3, #0
  104a4c:	e59d3008 	ldr	r3, [sp, #8]
  104a50:	e2433001 	sub	r3, r3, #1
  104a54:	e58d3008 	str	r3, [sp, #8]
  104a58:	e1a09000 	mov	r9, r0
  104a5c:	1a00001c 	bne	104ad4 <_dtoa_r+0xe08>
  104a60:	e59d3068 	ldr	r3, [sp, #104]	; 0x68
  104a64:	e59d2024 	ldr	r2, [sp, #36]	; 0x24
  104a68:	e3530002 	cmp	r3, #2
  104a6c:	c3a03001 	movgt	r3, #1
  104a70:	d3a03000 	movle	r3, #0
  104a74:	e3520000 	cmp	r2, #0
  104a78:	c3a03000 	movgt	r3, #0
  104a7c:	e3530000 	cmp	r3, #0
  104a80:	01a03002 	moveq	r3, r2
  104a84:	058d3010 	streq	r3, [sp, #16]
  104a88:	0affff58 	beq	1047f0 <_dtoa_r+0xb24>
  104a8c:	e59d3024 	ldr	r3, [sp, #36]	; 0x24
  104a90:	e58d3010 	str	r3, [sp, #16]
  104a94:	eafffdef 	b	104258 <_dtoa_r+0x58c>
  104a98:	e35a0000 	cmp	sl, #0
  104a9c:	1affff35 	bne	104778 <_dtoa_r+0xaac>
  104aa0:	e7f3305b 	ubfx	r3, fp, #0, #20
  104aa4:	e3530000 	cmp	r3, #0
  104aa8:	1affff32 	bne	104778 <_dtoa_r+0xaac>
  104aac:	e3cb3102 	bic	r3, fp, #-2147483648	; 0x80000000
  104ab0:	e1a03a23 	lsr	r3, r3, #20
  104ab4:	e1a03a03 	lsl	r3, r3, #20
  104ab8:	e3530000 	cmp	r3, #0
  104abc:	058d3028 	streq	r3, [sp, #40]	; 0x28
  104ac0:	13a03001 	movne	r3, #1
  104ac4:	12877001 	addne	r7, r7, #1
  104ac8:	12888001 	addne	r8, r8, #1
  104acc:	158d3028 	strne	r3, [sp, #40]	; 0x28
  104ad0:	eaffff2a 	b	104780 <_dtoa_r+0xab4>
  104ad4:	e1a01005 	mov	r1, r5
  104ad8:	e3a0200a 	mov	r2, #10
  104adc:	e3a03000 	mov	r3, #0
  104ae0:	e1a00004 	mov	r0, r4
  104ae4:	eb0007fe 	bl	106ae4 <__multadd>
  104ae8:	e59d3068 	ldr	r3, [sp, #104]	; 0x68
  104aec:	e59d2024 	ldr	r2, [sp, #36]	; 0x24
  104af0:	e3530002 	cmp	r3, #2
  104af4:	c3a03001 	movgt	r3, #1
  104af8:	d3a03000 	movle	r3, #0
  104afc:	e3520000 	cmp	r2, #0
  104b00:	c3a03000 	movgt	r3, #0
  104b04:	e3530000 	cmp	r3, #0
  104b08:	01a03002 	moveq	r3, r2
  104b0c:	058d3010 	streq	r3, [sp, #16]
  104b10:	e1a05000 	mov	r5, r0
  104b14:	1affffdc 	bne	104a8c <_dtoa_r+0xdc0>
  104b18:	e59d3020 	ldr	r3, [sp, #32]
  104b1c:	e3530000 	cmp	r3, #0
  104b20:	da000004 	ble	104b38 <_dtoa_r+0xe6c>
  104b24:	e1a01005 	mov	r1, r5
  104b28:	e1a02003 	mov	r2, r3
  104b2c:	e1a00004 	mov	r0, r4
  104b30:	eb000953 	bl	107084 <__lshift>
  104b34:	e1a05000 	mov	r5, r0
  104b38:	e59d3028 	ldr	r3, [sp, #40]	; 0x28
  104b3c:	e3530000 	cmp	r3, #0
  104b40:	058d501c 	streq	r5, [sp, #28]
  104b44:	1a0000bd 	bne	104e40 <_dtoa_r+0x1174>
  104b48:	e59d3010 	ldr	r3, [sp, #16]
  104b4c:	e20a2001 	and	r2, sl, #1
  104b50:	e1a07006 	mov	r7, r6
  104b54:	e58d6020 	str	r6, [sp, #32]
  104b58:	e2433001 	sub	r3, r3, #1
  104b5c:	e58d2014 	str	r2, [sp, #20]
  104b60:	e0863003 	add	r3, r6, r3
  104b64:	e59d601c 	ldr	r6, [sp, #28]
  104b68:	e58d3018 	str	r3, [sp, #24]
  104b6c:	ea000008 	b	104b94 <_dtoa_r+0xec8>
  104b70:	eb0007db 	bl	106ae4 <__multadd>
  104b74:	e1a01006 	mov	r1, r6
  104b78:	e3a0200a 	mov	r2, #10
  104b7c:	e3a03000 	mov	r3, #0
  104b80:	e1a05000 	mov	r5, r0
  104b84:	e1a00004 	mov	r0, r4
  104b88:	eb0007d5 	bl	106ae4 <__multadd>
  104b8c:	e1a06000 	mov	r6, r0
  104b90:	e1a0700a 	mov	r7, sl
  104b94:	e59d800c 	ldr	r8, [sp, #12]
  104b98:	e1a00009 	mov	r0, r9
  104b9c:	e1a01008 	mov	r1, r8
  104ba0:	ebfffbd8 	bl	103b08 <quorem>
  104ba4:	e1a01005 	mov	r1, r5
  104ba8:	e1a0b000 	mov	fp, r0
  104bac:	e1a00009 	mov	r0, r9
  104bb0:	eb000972 	bl	107180 <__mcmp>
  104bb4:	e1a01008 	mov	r1, r8
  104bb8:	e1a02006 	mov	r2, r6
  104bbc:	e28b8030 	add	r8, fp, #48	; 0x30
  104bc0:	e1a0a000 	mov	sl, r0
  104bc4:	e1a00004 	mov	r0, r4
  104bc8:	eb000985 	bl	1071e4 <__mdiff>
  104bcc:	e590300c 	ldr	r3, [r0, #12]
  104bd0:	e1a02000 	mov	r2, r0
  104bd4:	e3530000 	cmp	r3, #0
  104bd8:	1a000030 	bne	104ca0 <_dtoa_r+0xfd4>
  104bdc:	e1a01002 	mov	r1, r2
  104be0:	e1a00009 	mov	r0, r9
  104be4:	e58d2010 	str	r2, [sp, #16]
  104be8:	eb000964 	bl	107180 <__mcmp>
  104bec:	e59d2010 	ldr	r2, [sp, #16]
  104bf0:	e1a03000 	mov	r3, r0
  104bf4:	e1a01002 	mov	r1, r2
  104bf8:	e1a00004 	mov	r0, r4
  104bfc:	e58d3010 	str	r3, [sp, #16]
  104c00:	eb0007b0 	bl	106ac8 <_Bfree>
  104c04:	e59d2068 	ldr	r2, [sp, #104]	; 0x68
  104c08:	e59d3010 	ldr	r3, [sp, #16]
  104c0c:	e1932002 	orrs	r2, r3, r2
  104c10:	1a000002 	bne	104c20 <_dtoa_r+0xf54>
  104c14:	e59d2014 	ldr	r2, [sp, #20]
  104c18:	e3520000 	cmp	r2, #0
  104c1c:	0a0000ac 	beq	104ed4 <_dtoa_r+0x1208>
  104c20:	e35a0000 	cmp	sl, #0
  104c24:	ba000065 	blt	104dc0 <_dtoa_r+0x10f4>
  104c28:	e59d2068 	ldr	r2, [sp, #104]	; 0x68
  104c2c:	e19a2002 	orrs	r2, sl, r2
  104c30:	1a000002 	bne	104c40 <_dtoa_r+0xf74>
  104c34:	e59d2014 	ldr	r2, [sp, #20]
  104c38:	e3520000 	cmp	r2, #0
  104c3c:	0a00005f 	beq	104dc0 <_dtoa_r+0x10f4>
  104c40:	e3530000 	cmp	r3, #0
  104c44:	ca00008d 	bgt	104e80 <_dtoa_r+0x11b4>
  104c48:	e59d3018 	ldr	r3, [sp, #24]
  104c4c:	e287a001 	add	sl, r7, #1
  104c50:	e5c78000 	strb	r8, [r7]
  104c54:	e1570003 	cmp	r7, r3
  104c58:	e1a0300a 	mov	r3, sl
  104c5c:	0a000091 	beq	104ea8 <_dtoa_r+0x11dc>
  104c60:	e1a01009 	mov	r1, r9
  104c64:	e3a0200a 	mov	r2, #10
  104c68:	e3a03000 	mov	r3, #0
  104c6c:	e1a00004 	mov	r0, r4
  104c70:	eb00079b 	bl	106ae4 <__multadd>
  104c74:	e1550006 	cmp	r5, r6
  104c78:	e1a01005 	mov	r1, r5
  104c7c:	e3a0200a 	mov	r2, #10
  104c80:	e3a03000 	mov	r3, #0
  104c84:	e1a09000 	mov	r9, r0
  104c88:	e1a00004 	mov	r0, r4
  104c8c:	1affffb7 	bne	104b70 <_dtoa_r+0xea4>
  104c90:	eb000793 	bl	106ae4 <__multadd>
  104c94:	e1a05000 	mov	r5, r0
  104c98:	e1a06000 	mov	r6, r0
  104c9c:	eaffffbb 	b	104b90 <_dtoa_r+0xec4>
  104ca0:	e3a03001 	mov	r3, #1
  104ca4:	eaffffd2 	b	104bf4 <_dtoa_r+0xf28>
  104ca8:	e353000e 	cmp	r3, #14
  104cac:	83a03000 	movhi	r3, #0
  104cb0:	93a03001 	movls	r3, #1
  104cb4:	e3a01000 	mov	r1, #0
  104cb8:	e0055003 	and	r5, r5, r3
  104cbc:	e5841044 	str	r1, [r4, #68]	; 0x44
  104cc0:	eafffdf1 	b	10448c <_dtoa_r+0x7c0>
  104cc4:	e3a03001 	mov	r3, #1
  104cc8:	e58d306c 	str	r3, [sp, #108]	; 0x6c
  104ccc:	e58d3024 	str	r3, [sp, #36]	; 0x24
  104cd0:	e58d3010 	str	r3, [sp, #16]
  104cd4:	eafffff6 	b	104cb4 <_dtoa_r+0xfe8>
  104cd8:	e1a01009 	mov	r1, r9
  104cdc:	e59d200c 	ldr	r2, [sp, #12]
  104ce0:	e1a00004 	mov	r0, r4
  104ce4:	eb0008a7 	bl	106f88 <__pow5mult>
  104ce8:	e1a09000 	mov	r9, r0
  104cec:	eafffd1c 	b	104164 <_dtoa_r+0x498>
  104cf0:	e28e2001 	add	r2, lr, #1
  104cf4:	e3a00030 	mov	r0, #48	; 0x30
  104cf8:	e58d2008 	str	r2, [sp, #8]
  104cfc:	e3a02031 	mov	r2, #49	; 0x31
  104d00:	e5c10000 	strb	r0, [r1]
  104d04:	eafffe96 	b	104764 <_dtoa_r+0xa98>
  104d08:	e59d3010 	ldr	r3, [sp, #16]
  104d0c:	e3530000 	cmp	r3, #0
  104d10:	0afffe9f 	beq	104794 <_dtoa_r+0xac8>
  104d14:	e59d3024 	ldr	r3, [sp, #36]	; 0x24
  104d18:	e3530000 	cmp	r3, #0
  104d1c:	dafffef6 	ble	1048fc <_dtoa_r+0xc30>
  104d20:	eef20b04 	vmov.f64	d16, #36	; 0x24
  104d24:	e2811001 	add	r1, r1, #1
  104d28:	e59d2008 	ldr	r2, [sp, #8]
  104d2c:	e1a00003 	mov	r0, r3
  104d30:	ee071a90 	vmov	s15, r1
  104d34:	e242e001 	sub	lr, r2, #1
  104d38:	ee633ba0 	vmul.f64	d19, d19, d16
  104d3c:	eef12b0c 	vmov.f64	d18, #28
  104d40:	eef80be7 	vcvt.f64.s32	d16, s15
  104d44:	ee432ba0 	vmla.f64	d18, d19, d16
  104d48:	ec5bab32 	vmov	sl, fp, d18
  104d4c:	e24bb50d 	sub	fp, fp, #54525952	; 0x3400000
  104d50:	eafffe04 	b	104568 <_dtoa_r+0x89c>
  104d54:	e1a01009 	mov	r1, r9
  104d58:	e1a00004 	mov	r0, r4
  104d5c:	eb000889 	bl	106f88 <__pow5mult>
  104d60:	e1a09000 	mov	r9, r0
  104d64:	eafffcfe 	b	104164 <_dtoa_r+0x498>
  104d68:	e35a0000 	cmp	sl, #0
  104d6c:	0affff4b 	beq	104aa0 <_dtoa_r+0xdd4>
  104d70:	eafffd0a 	b	1041a0 <_dtoa_r+0x4d4>
  104d74:	e59d2008 	ldr	r2, [sp, #8]
  104d78:	e2822001 	add	r2, r2, #1
  104d7c:	e58d2008 	str	r2, [sp, #8]
  104d80:	e3a02031 	mov	r2, #49	; 0x31
  104d84:	e5c62000 	strb	r2, [r6]
  104d88:	eafffec5 	b	1048a4 <_dtoa_r+0xbd8>
  104d8c:	e59d2020 	ldr	r2, [sp, #32]
  104d90:	e3520000 	cmp	r2, #0
  104d94:	158d7020 	strne	r7, [sp, #32]
  104d98:	12833e43 	addne	r3, r3, #1072	; 0x430
  104d9c:	058d7020 	streq	r7, [sp, #32]
  104da0:	159d200c 	ldrne	r2, [sp, #12]
  104da4:	12833003 	addne	r3, r3, #3
  104da8:	059d200c 	ldreq	r2, [sp, #12]
  104dac:	059d3030 	ldreq	r3, [sp, #48]	; 0x30
  104db0:	158d2028 	strne	r2, [sp, #40]	; 0x28
  104db4:	058d2028 	streq	r2, [sp, #40]	; 0x28
  104db8:	02633036 	rsbeq	r3, r3, #54	; 0x36
  104dbc:	eafffd93 	b	104410 <_dtoa_r+0x744>
  104dc0:	e3530000 	cmp	r3, #0
  104dc4:	e58d601c 	str	r6, [sp, #28]
  104dc8:	e1a0b008 	mov	fp, r8
  104dcc:	e59d6020 	ldr	r6, [sp, #32]
  104dd0:	da00000b 	ble	104e04 <_dtoa_r+0x1138>
  104dd4:	e1a01009 	mov	r1, r9
  104dd8:	e3a02001 	mov	r2, #1
  104ddc:	e1a00004 	mov	r0, r4
  104de0:	eb0008a7 	bl	107084 <__lshift>
  104de4:	e59d100c 	ldr	r1, [sp, #12]
  104de8:	e1a09000 	mov	r9, r0
  104dec:	eb0008e3 	bl	107180 <__mcmp>
  104df0:	e3500000 	cmp	r0, #0
  104df4:	da00003f 	ble	104ef8 <_dtoa_r+0x122c>
  104df8:	e3580039 	cmp	r8, #57	; 0x39
  104dfc:	0a00002e 	beq	104ebc <_dtoa_r+0x11f0>
  104e00:	e288b001 	add	fp, r8, #1
  104e04:	e1a0a005 	mov	sl, r5
  104e08:	e5c7b000 	strb	fp, [r7]
  104e0c:	e2873001 	add	r3, r7, #1
  104e10:	e59d501c 	ldr	r5, [sp, #28]
  104e14:	eafffea2 	b	1048a4 <_dtoa_r+0xbd8>
  104e18:	1a000003 	bne	104e2c <_dtoa_r+0x1160>
  104e1c:	e3180001 	tst	r8, #1
  104e20:	0a000001 	beq	104e2c <_dtoa_r+0x1160>
  104e24:	eafffe93 	b	104878 <_dtoa_r+0xbac>
  104e28:	e1a03001 	mov	r3, r1
  104e2c:	e5532001 	ldrb	r2, [r3, #-1]
  104e30:	e2431001 	sub	r1, r3, #1
  104e34:	e3520030 	cmp	r2, #48	; 0x30
  104e38:	0afffffa 	beq	104e28 <_dtoa_r+0x115c>
  104e3c:	eafffe98 	b	1048a4 <_dtoa_r+0xbd8>
  104e40:	e5951004 	ldr	r1, [r5, #4]
  104e44:	e1a00004 	mov	r0, r4
  104e48:	eb0006fb 	bl	106a3c <_Balloc>
  104e4c:	e5952010 	ldr	r2, [r5, #16]
  104e50:	e285100c 	add	r1, r5, #12
  104e54:	e2822002 	add	r2, r2, #2
  104e58:	e1a02102 	lsl	r2, r2, #2
  104e5c:	e1a07000 	mov	r7, r0
  104e60:	e280000c 	add	r0, r0, #12
  104e64:	eb000575 	bl	106440 <memcpy>
  104e68:	e1a00004 	mov	r0, r4
  104e6c:	e1a01007 	mov	r1, r7
  104e70:	e3a02001 	mov	r2, #1
  104e74:	eb000882 	bl	107084 <__lshift>
  104e78:	e58d001c 	str	r0, [sp, #28]
  104e7c:	eaffff31 	b	104b48 <_dtoa_r+0xe7c>
  104e80:	e3580039 	cmp	r8, #57	; 0x39
  104e84:	e58d601c 	str	r6, [sp, #28]
  104e88:	12888001 	addne	r8, r8, #1
  104e8c:	e59d6020 	ldr	r6, [sp, #32]
  104e90:	0a000009 	beq	104ebc <_dtoa_r+0x11f0>
  104e94:	e5c78000 	strb	r8, [r7]
  104e98:	e1a0a005 	mov	sl, r5
  104e9c:	e2873001 	add	r3, r7, #1
  104ea0:	e59d501c 	ldr	r5, [sp, #28]
  104ea4:	eafffe7e 	b	1048a4 <_dtoa_r+0xbd8>
  104ea8:	e1a02006 	mov	r2, r6
  104eac:	e1a0a005 	mov	sl, r5
  104eb0:	e59d6020 	ldr	r6, [sp, #32]
  104eb4:	e1a05002 	mov	r5, r2
  104eb8:	eafffe63 	b	10484c <_dtoa_r+0xb80>
  104ebc:	e1a0a005 	mov	sl, r5
  104ec0:	e3a01039 	mov	r1, #57	; 0x39
  104ec4:	e59d501c 	ldr	r5, [sp, #28]
  104ec8:	e2873001 	add	r3, r7, #1
  104ecc:	e5c71000 	strb	r1, [r7]
  104ed0:	eafffe69 	b	10487c <_dtoa_r+0xbb0>
  104ed4:	e3580039 	cmp	r8, #57	; 0x39
  104ed8:	e58d601c 	str	r6, [sp, #28]
  104edc:	e59d6020 	ldr	r6, [sp, #32]
  104ee0:	0afffff5 	beq	104ebc <_dtoa_r+0x11f0>
  104ee4:	e35a0000 	cmp	sl, #0
  104ee8:	c28b8031 	addgt	r8, fp, #49	; 0x31
  104eec:	eaffffe8 	b	104e94 <_dtoa_r+0x11c8>
  104ef0:	e3a01002 	mov	r1, #2
  104ef4:	eafffd89 	b	104520 <_dtoa_r+0x854>
  104ef8:	1affffc1 	bne	104e04 <_dtoa_r+0x1138>
  104efc:	e3180001 	tst	r8, #1
  104f00:	0affffbf 	beq	104e04 <_dtoa_r+0x1138>
  104f04:	eaffffbb 	b	104df8 <_dtoa_r+0x112c>
  104f08:	1260003c 	rsbne	r0, r0, #60	; 0x3c
  104f0c:	0afffcb7 	beq	1041f0 <_dtoa_r+0x524>
  104f10:	eafffcb1 	b	1041dc <_dtoa_r+0x510>
  104f14:	e3a03001 	mov	r3, #1
  104f18:	e58d3014 	str	r3, [sp, #20]
  104f1c:	eafffdc8 	b	104644 <_dtoa_r+0x978>
  104f20:	e3e03000 	mvn	r3, #0
  104f24:	e58d506c 	str	r5, [sp, #108]	; 0x6c
  104f28:	e58d3010 	str	r3, [sp, #16]
  104f2c:	eafffc38 	b	104014 <_dtoa_r+0x348>

00104f30 <__sflush_r>:
  104f30:	e1d130bc 	ldrh	r3, [r1, #12]
  104f34:	e92d41f0 	push	{r4, r5, r6, r7, r8, lr}
  104f38:	e1a05001 	mov	r5, r1
  104f3c:	e6ff2073 	uxth	r2, r3
  104f40:	e1a08000 	mov	r8, r0
  104f44:	e3120008 	tst	r2, #8
  104f48:	1a000034 	bne	105020 <__sflush_r+0xf0>
  104f4c:	e5912004 	ldr	r2, [r1, #4]
  104f50:	e3833b02 	orr	r3, r3, #2048	; 0x800
  104f54:	e1c130bc 	strh	r3, [r1, #12]
  104f58:	e3520000 	cmp	r2, #0
  104f5c:	da00004d 	ble	105098 <__sflush_r+0x168>
  104f60:	e5957028 	ldr	r7, [r5, #40]	; 0x28
  104f64:	e3570000 	cmp	r7, #0
  104f68:	0a00004d 	beq	1050a4 <__sflush_r+0x174>
  104f6c:	e6ff3073 	uxth	r3, r3
  104f70:	e3a02000 	mov	r2, #0
  104f74:	e2030a01 	and	r0, r3, #4096	; 0x1000
  104f78:	e5984000 	ldr	r4, [r8]
  104f7c:	e5882000 	str	r2, [r8]
  104f80:	e6ff6070 	uxth	r6, r0
  104f84:	e1560002 	cmp	r6, r2
  104f88:	0a00005f 	beq	10510c <__sflush_r+0x1dc>
  104f8c:	e5952050 	ldr	r2, [r5, #80]	; 0x50
  104f90:	e3130004 	tst	r3, #4
  104f94:	0a000005 	beq	104fb0 <__sflush_r+0x80>
  104f98:	e5951030 	ldr	r1, [r5, #48]	; 0x30
  104f9c:	e5953004 	ldr	r3, [r5, #4]
  104fa0:	e3510000 	cmp	r1, #0
  104fa4:	e0632002 	rsb	r2, r3, r2
  104fa8:	1595303c 	ldrne	r3, [r5, #60]	; 0x3c
  104fac:	10632002 	rsbne	r2, r3, r2
  104fb0:	e1a00008 	mov	r0, r8
  104fb4:	e595101c 	ldr	r1, [r5, #28]
  104fb8:	e3a03000 	mov	r3, #0
  104fbc:	e12fff37 	blx	r7
  104fc0:	e3700001 	cmn	r0, #1
  104fc4:	0a000038 	beq	1050ac <__sflush_r+0x17c>
  104fc8:	e1d530bc 	ldrh	r3, [r5, #12]
  104fcc:	e3a01000 	mov	r1, #0
  104fd0:	e5952010 	ldr	r2, [r5, #16]
  104fd4:	e3c33b02 	bic	r3, r3, #2048	; 0x800
  104fd8:	e5851004 	str	r1, [r5, #4]
  104fdc:	e6ff3073 	uxth	r3, r3
  104fe0:	e5852000 	str	r2, [r5]
  104fe4:	e3130a01 	tst	r3, #4096	; 0x1000
  104fe8:	e1c530bc 	strh	r3, [r5, #12]
  104fec:	1a000044 	bne	105104 <__sflush_r+0x1d4>
  104ff0:	e5951030 	ldr	r1, [r5, #48]	; 0x30
  104ff4:	e5884000 	str	r4, [r8]
  104ff8:	e3510000 	cmp	r1, #0
  104ffc:	0a000028 	beq	1050a4 <__sflush_r+0x174>
  105000:	e2853040 	add	r3, r5, #64	; 0x40
  105004:	e1510003 	cmp	r1, r3
  105008:	0a000001 	beq	105014 <__sflush_r+0xe4>
  10500c:	e1a00008 	mov	r0, r8
  105010:	eb000179 	bl	1055fc <_free_r>
  105014:	e3a00000 	mov	r0, #0
  105018:	e5850030 	str	r0, [r5, #48]	; 0x30
  10501c:	e8bd81f0 	pop	{r4, r5, r6, r7, r8, pc}
  105020:	e5916010 	ldr	r6, [r1, #16]
  105024:	e3560000 	cmp	r6, #0
  105028:	0a00001d 	beq	1050a4 <__sflush_r+0x174>
  10502c:	e3120003 	tst	r2, #3
  105030:	e5914000 	ldr	r4, [r1]
  105034:	e5816000 	str	r6, [r1]
  105038:	05913014 	ldreq	r3, [r1, #20]
  10503c:	e0664004 	rsb	r4, r6, r4
  105040:	13a03000 	movne	r3, #0
  105044:	e3540000 	cmp	r4, #0
  105048:	e5813008 	str	r3, [r1, #8]
  10504c:	ca000002 	bgt	10505c <__sflush_r+0x12c>
  105050:	ea000013 	b	1050a4 <__sflush_r+0x174>
  105054:	e3540000 	cmp	r4, #0
  105058:	da000011 	ble	1050a4 <__sflush_r+0x174>
  10505c:	e1a02006 	mov	r2, r6
  105060:	e1a03004 	mov	r3, r4
  105064:	e5957024 	ldr	r7, [r5, #36]	; 0x24
  105068:	e1a00008 	mov	r0, r8
  10506c:	e595101c 	ldr	r1, [r5, #28]
  105070:	e12fff37 	blx	r7
  105074:	e3500000 	cmp	r0, #0
  105078:	e0604004 	rsb	r4, r0, r4
  10507c:	e0866000 	add	r6, r6, r0
  105080:	cafffff3 	bgt	105054 <__sflush_r+0x124>
  105084:	e1d530bc 	ldrh	r3, [r5, #12]
  105088:	e3e00000 	mvn	r0, #0
  10508c:	e3833040 	orr	r3, r3, #64	; 0x40
  105090:	e1c530bc 	strh	r3, [r5, #12]
  105094:	e8bd81f0 	pop	{r4, r5, r6, r7, r8, pc}
  105098:	e591203c 	ldr	r2, [r1, #60]	; 0x3c
  10509c:	e3520000 	cmp	r2, #0
  1050a0:	caffffae 	bgt	104f60 <__sflush_r+0x30>
  1050a4:	e3a00000 	mov	r0, #0
  1050a8:	e8bd81f0 	pop	{r4, r5, r6, r7, r8, pc}
  1050ac:	e5981000 	ldr	r1, [r8]
  1050b0:	e16f2f11 	clz	r2, r1
  1050b4:	e1a022a2 	lsr	r2, r2, #5
  1050b8:	e351001d 	cmp	r1, #29
  1050bc:	11a03002 	movne	r3, r2
  1050c0:	03823001 	orreq	r3, r2, #1
  1050c4:	e3510016 	cmp	r1, #22
  1050c8:	03833001 	orreq	r3, r3, #1
  1050cc:	e3530000 	cmp	r3, #0
  1050d0:	0a000021 	beq	10515c <__sflush_r+0x22c>
  1050d4:	e1d530bc 	ldrh	r3, [r5, #12]
  1050d8:	e3a0c000 	mov	ip, #0
  1050dc:	e5951010 	ldr	r1, [r5, #16]
  1050e0:	e3c33b02 	bic	r3, r3, #2048	; 0x800
  1050e4:	e585c004 	str	ip, [r5, #4]
  1050e8:	e6ff3073 	uxth	r3, r3
  1050ec:	e5851000 	str	r1, [r5]
  1050f0:	e3130a01 	tst	r3, #4096	; 0x1000
  1050f4:	e1c530bc 	strh	r3, [r5, #12]
  1050f8:	0affffbc 	beq	104ff0 <__sflush_r+0xc0>
  1050fc:	e3520000 	cmp	r2, #0
  105100:	0affffba 	beq	104ff0 <__sflush_r+0xc0>
  105104:	e5850050 	str	r0, [r5, #80]	; 0x50
  105108:	eaffffb8 	b	104ff0 <__sflush_r+0xc0>
  10510c:	e1a02006 	mov	r2, r6
  105110:	e1a00008 	mov	r0, r8
  105114:	e595101c 	ldr	r1, [r5, #28]
  105118:	e3a03001 	mov	r3, #1
  10511c:	e12fff37 	blx	r7
  105120:	e3700001 	cmn	r0, #1
  105124:	e1a02000 	mov	r2, r0
  105128:	0a000002 	beq	105138 <__sflush_r+0x208>
  10512c:	e1d530bc 	ldrh	r3, [r5, #12]
  105130:	e5957028 	ldr	r7, [r5, #40]	; 0x28
  105134:	eaffff95 	b	104f90 <__sflush_r+0x60>
  105138:	e5983000 	ldr	r3, [r8]
  10513c:	e3530000 	cmp	r3, #0
  105140:	0afffff9 	beq	10512c <__sflush_r+0x1fc>
  105144:	e353001d 	cmp	r3, #29
  105148:	13530016 	cmpne	r3, #22
  10514c:	1affffcc 	bne	105084 <__sflush_r+0x154>
  105150:	e5884000 	str	r4, [r8]
  105154:	e1a00006 	mov	r0, r6
  105158:	e8bd81f0 	pop	{r4, r5, r6, r7, r8, pc}
  10515c:	e1d530bc 	ldrh	r3, [r5, #12]
  105160:	e3833040 	orr	r3, r3, #64	; 0x40
  105164:	e1c530bc 	strh	r3, [r5, #12]
  105168:	e8bd81f0 	pop	{r4, r5, r6, r7, r8, pc}

0010516c <_fflush_r>:
  10516c:	e92d4010 	push	{r4, lr}
  105170:	e2504000 	subs	r4, r0, #0
  105174:	e24dd008 	sub	sp, sp, #8
  105178:	0a000002 	beq	105188 <_fflush_r+0x1c>
  10517c:	e5943038 	ldr	r3, [r4, #56]	; 0x38
  105180:	e3530000 	cmp	r3, #0
  105184:	0a000008 	beq	1051ac <_fflush_r+0x40>
  105188:	e1d100fc 	ldrsh	r0, [r1, #12]
  10518c:	e3500000 	cmp	r0, #0
  105190:	1a000001 	bne	10519c <_fflush_r+0x30>
  105194:	e28dd008 	add	sp, sp, #8
  105198:	e8bd8010 	pop	{r4, pc}
  10519c:	e1a00004 	mov	r0, r4
  1051a0:	e28dd008 	add	sp, sp, #8
  1051a4:	e8bd4010 	pop	{r4, lr}
  1051a8:	eaffff60 	b	104f30 <__sflush_r>
  1051ac:	e58d1004 	str	r1, [sp, #4]
  1051b0:	eb0000be 	bl	1054b0 <__sinit>
  1051b4:	e59d1004 	ldr	r1, [sp, #4]
  1051b8:	eafffff2 	b	105188 <_fflush_r+0x1c>

001051bc <fflush>:
  1051bc:	e2501000 	subs	r1, r0, #0
  1051c0:	0a000003 	beq	1051d4 <fflush+0x18>
  1051c4:	e30a3f90 	movw	r3, #44944	; 0xaf90
  1051c8:	e3403010 	movt	r3, #16
  1051cc:	e5930000 	ldr	r0, [r3]
  1051d0:	eaffffe5 	b	10516c <_fflush_r>
  1051d4:	e30a3d74 	movw	r3, #44404	; 0xad74
  1051d8:	e305116c 	movw	r1, #20844	; 0x516c
  1051dc:	e3403010 	movt	r3, #16
  1051e0:	e3401010 	movt	r1, #16
  1051e4:	e5930000 	ldr	r0, [r3]
  1051e8:	ea0001cd 	b	105924 <_fwalk_reent>

001051ec <__fp_lock>:
  1051ec:	e3a00000 	mov	r0, #0
  1051f0:	e12fff1e 	bx	lr

001051f4 <__fp_unlock>:
  1051f4:	e3a00000 	mov	r0, #0
  1051f8:	e12fff1e 	bx	lr

001051fc <_cleanup_r>:
  1051fc:	e30911c0 	movw	r1, #37312	; 0x91c0
  105200:	e3401010 	movt	r1, #16
  105204:	ea0001c6 	b	105924 <_fwalk_reent>

00105208 <__sinit.part.1>:
  105208:	e92d4ff0 	push	{r4, r5, r6, r7, r8, r9, sl, fp, lr}
  10520c:	e30531fc 	movw	r3, #20988	; 0x51fc
  105210:	e5905004 	ldr	r5, [r0, #4]
  105214:	e3a04000 	mov	r4, #0
  105218:	e1a07000 	mov	r7, r0
  10521c:	e24dd00c 	sub	sp, sp, #12
  105220:	e2802fbb 	add	r2, r0, #748	; 0x2ec
  105224:	e3403010 	movt	r3, #16
  105228:	e58022e8 	str	r2, [r0, #744]	; 0x2e8
  10522c:	e3a01003 	mov	r1, #3
  105230:	e580303c 	str	r3, [r0, #60]	; 0x3c
  105234:	e3a02008 	mov	r2, #8
  105238:	e58012e4 	str	r1, [r0, #740]	; 0x2e4
  10523c:	e3a03004 	mov	r3, #4
  105240:	e58742e0 	str	r4, [r7, #736]	; 0x2e0
  105244:	e1a01004 	mov	r1, r4
  105248:	e5854000 	str	r4, [r5]
  10524c:	e285005c 	add	r0, r5, #92	; 0x5c
  105250:	e5854004 	str	r4, [r5, #4]
  105254:	e307b7a8 	movw	fp, #30632	; 0x77a8
  105258:	e5854008 	str	r4, [r5, #8]
  10525c:	e307a7e0 	movw	sl, #30688	; 0x77e0
  105260:	e5854064 	str	r4, [r5, #100]	; 0x64
  105264:	e3079834 	movw	r9, #30772	; 0x7834
  105268:	e1c540be 	strh	r4, [r5, #14]
  10526c:	e3078860 	movw	r8, #30816	; 0x7860
  105270:	e5854010 	str	r4, [r5, #16]
  105274:	e340b010 	movt	fp, #16
  105278:	e5854014 	str	r4, [r5, #20]
  10527c:	e340a010 	movt	sl, #16
  105280:	e5854018 	str	r4, [r5, #24]
  105284:	e3409010 	movt	r9, #16
  105288:	e1c530bc 	strh	r3, [r5, #12]
  10528c:	e3408010 	movt	r8, #16
  105290:	eb0005aa 	bl	106940 <memset>
  105294:	e5976008 	ldr	r6, [r7, #8]
  105298:	e3a03001 	mov	r3, #1
  10529c:	e585b020 	str	fp, [r5, #32]
  1052a0:	e585a024 	str	sl, [r5, #36]	; 0x24
  1052a4:	e3a0c009 	mov	ip, #9
  1052a8:	e5859028 	str	r9, [r5, #40]	; 0x28
  1052ac:	e1a01004 	mov	r1, r4
  1052b0:	e585802c 	str	r8, [r5, #44]	; 0x2c
  1052b4:	e286005c 	add	r0, r6, #92	; 0x5c
  1052b8:	e585501c 	str	r5, [r5, #28]
  1052bc:	e3a02008 	mov	r2, #8
  1052c0:	e1c630be 	strh	r3, [r6, #14]
  1052c4:	e1c6c0bc 	strh	ip, [r6, #12]
  1052c8:	e5864000 	str	r4, [r6]
  1052cc:	e5864004 	str	r4, [r6, #4]
  1052d0:	e5864008 	str	r4, [r6, #8]
  1052d4:	e5864064 	str	r4, [r6, #100]	; 0x64
  1052d8:	e5864010 	str	r4, [r6, #16]
  1052dc:	e5864014 	str	r4, [r6, #20]
  1052e0:	e5864018 	str	r4, [r6, #24]
  1052e4:	e58d3004 	str	r3, [sp, #4]
  1052e8:	eb000594 	bl	106940 <memset>
  1052ec:	e597500c 	ldr	r5, [r7, #12]
  1052f0:	e3a0e012 	mov	lr, #18
  1052f4:	e586601c 	str	r6, [r6, #28]
  1052f8:	e3a0c002 	mov	ip, #2
  1052fc:	e586b020 	str	fp, [r6, #32]
  105300:	e1a01004 	mov	r1, r4
  105304:	e586a024 	str	sl, [r6, #36]	; 0x24
  105308:	e285005c 	add	r0, r5, #92	; 0x5c
  10530c:	e5869028 	str	r9, [r6, #40]	; 0x28
  105310:	e3a02008 	mov	r2, #8
  105314:	e586802c 	str	r8, [r6, #44]	; 0x2c
  105318:	e5854000 	str	r4, [r5]
  10531c:	e5854004 	str	r4, [r5, #4]
  105320:	e5854008 	str	r4, [r5, #8]
  105324:	e5854064 	str	r4, [r5, #100]	; 0x64
  105328:	e5854010 	str	r4, [r5, #16]
  10532c:	e5854014 	str	r4, [r5, #20]
  105330:	e5854018 	str	r4, [r5, #24]
  105334:	e1c5e0bc 	strh	lr, [r5, #12]
  105338:	e1c5c0be 	strh	ip, [r5, #14]
  10533c:	eb00057f 	bl	106940 <memset>
  105340:	e59d3004 	ldr	r3, [sp, #4]
  105344:	e585501c 	str	r5, [r5, #28]
  105348:	e585b020 	str	fp, [r5, #32]
  10534c:	e585a024 	str	sl, [r5, #36]	; 0x24
  105350:	e5859028 	str	r9, [r5, #40]	; 0x28
  105354:	e585802c 	str	r8, [r5, #44]	; 0x2c
  105358:	e5873038 	str	r3, [r7, #56]	; 0x38
  10535c:	e28dd00c 	add	sp, sp, #12
  105360:	e8bd8ff0 	pop	{r4, r5, r6, r7, r8, r9, sl, fp, pc}

00105364 <__sfmoreglue>:
  105364:	e2413001 	sub	r3, r1, #1
  105368:	e92d4070 	push	{r4, r5, r6, lr}
  10536c:	e0834083 	add	r4, r3, r3, lsl #1
  105370:	e1a06001 	mov	r6, r1
  105374:	e0833104 	add	r3, r3, r4, lsl #2
  105378:	e1a04183 	lsl	r4, r3, #3
  10537c:	e2841074 	add	r1, r4, #116	; 0x74
  105380:	eb00021b 	bl	105bf4 <_malloc_r>
  105384:	e2505000 	subs	r5, r0, #0
  105388:	0a000006 	beq	1053a8 <__sfmoreglue+0x44>
  10538c:	e285000c 	add	r0, r5, #12
  105390:	e3a01000 	mov	r1, #0
  105394:	e5856004 	str	r6, [r5, #4]
  105398:	e2842068 	add	r2, r4, #104	; 0x68
  10539c:	e5850008 	str	r0, [r5, #8]
  1053a0:	e5851000 	str	r1, [r5]
  1053a4:	eb000565 	bl	106940 <memset>
  1053a8:	e1a00005 	mov	r0, r5
  1053ac:	e8bd8070 	pop	{r4, r5, r6, pc}

001053b0 <__sfp>:
  1053b0:	e30a3d74 	movw	r3, #44404	; 0xad74
  1053b4:	e3403010 	movt	r3, #16
  1053b8:	e92d4070 	push	{r4, r5, r6, lr}
  1053bc:	e1a06000 	mov	r6, r0
  1053c0:	e5935000 	ldr	r5, [r3]
  1053c4:	e5953038 	ldr	r3, [r5, #56]	; 0x38
  1053c8:	e3530000 	cmp	r3, #0
  1053cc:	1a000001 	bne	1053d8 <__sfp+0x28>
  1053d0:	e1a00005 	mov	r0, r5
  1053d4:	ebffff8b 	bl	105208 <__sinit.part.1>
  1053d8:	e2855e2e 	add	r5, r5, #736	; 0x2e0
  1053dc:	e9950018 	ldmib	r5, {r3, r4}
  1053e0:	e2533001 	subs	r3, r3, #1
  1053e4:	5a000004 	bpl	1053fc <__sfp+0x4c>
  1053e8:	ea00001c 	b	105460 <__sfp+0xb0>
  1053ec:	e2433001 	sub	r3, r3, #1
  1053f0:	e2844068 	add	r4, r4, #104	; 0x68
  1053f4:	e3730001 	cmn	r3, #1
  1053f8:	0a000018 	beq	105460 <__sfp+0xb0>
  1053fc:	e1d420fc 	ldrsh	r2, [r4, #12]
  105400:	e3520000 	cmp	r2, #0
  105404:	1afffff8 	bne	1053ec <__sfp+0x3c>
  105408:	e3a05000 	mov	r5, #0
  10540c:	e3e0c000 	mvn	ip, #0
  105410:	e3a03001 	mov	r3, #1
  105414:	e5845064 	str	r5, [r4, #100]	; 0x64
  105418:	e1a01005 	mov	r1, r5
  10541c:	e5845000 	str	r5, [r4]
  105420:	e5845008 	str	r5, [r4, #8]
  105424:	e284005c 	add	r0, r4, #92	; 0x5c
  105428:	e5845004 	str	r5, [r4, #4]
  10542c:	e3a02008 	mov	r2, #8
  105430:	e5845010 	str	r5, [r4, #16]
  105434:	e5845014 	str	r5, [r4, #20]
  105438:	e5845018 	str	r5, [r4, #24]
  10543c:	e1c4c0be 	strh	ip, [r4, #14]
  105440:	e1c430bc 	strh	r3, [r4, #12]
  105444:	eb00053d 	bl	106940 <memset>
  105448:	e1a00004 	mov	r0, r4
  10544c:	e5845030 	str	r5, [r4, #48]	; 0x30
  105450:	e5845034 	str	r5, [r4, #52]	; 0x34
  105454:	e5845044 	str	r5, [r4, #68]	; 0x44
  105458:	e5845048 	str	r5, [r4, #72]	; 0x48
  10545c:	e8bd8070 	pop	{r4, r5, r6, pc}
  105460:	e5953000 	ldr	r3, [r5]
  105464:	e3530000 	cmp	r3, #0
  105468:	11a05003 	movne	r5, r3
  10546c:	1affffda 	bne	1053dc <__sfp+0x2c>
  105470:	e1a00006 	mov	r0, r6
  105474:	e3a01004 	mov	r1, #4
  105478:	ebffffb9 	bl	105364 <__sfmoreglue>
  10547c:	e3500000 	cmp	r0, #0
  105480:	e5850000 	str	r0, [r5]
  105484:	11a05000 	movne	r5, r0
  105488:	1affffd3 	bne	1053dc <__sfp+0x2c>
  10548c:	e3a0300c 	mov	r3, #12
  105490:	e5863000 	str	r3, [r6]
  105494:	e8bd8070 	pop	{r4, r5, r6, pc}

00105498 <_cleanup>:
  105498:	e30a3d74 	movw	r3, #44404	; 0xad74
  10549c:	e30911c0 	movw	r1, #37312	; 0x91c0
  1054a0:	e3403010 	movt	r3, #16
  1054a4:	e3401010 	movt	r1, #16
  1054a8:	e5930000 	ldr	r0, [r3]
  1054ac:	ea00011c 	b	105924 <_fwalk_reent>

001054b0 <__sinit>:
  1054b0:	e5903038 	ldr	r3, [r0, #56]	; 0x38
  1054b4:	e3530000 	cmp	r3, #0
  1054b8:	112fff1e 	bxne	lr
  1054bc:	eaffff51 	b	105208 <__sinit.part.1>

001054c0 <__sfp_lock_acquire>:
  1054c0:	e12fff1e 	bx	lr

001054c4 <__sfp_lock_release>:
  1054c4:	e12fff1e 	bx	lr

001054c8 <__sinit_lock_acquire>:
  1054c8:	e12fff1e 	bx	lr

001054cc <__sinit_lock_release>:
  1054cc:	e12fff1e 	bx	lr

001054d0 <__fp_lock_all>:
  1054d0:	e30a3f90 	movw	r3, #44944	; 0xaf90
  1054d4:	e30511ec 	movw	r1, #20972	; 0x51ec
  1054d8:	e3403010 	movt	r3, #16
  1054dc:	e3401010 	movt	r1, #16
  1054e0:	e5930000 	ldr	r0, [r3]
  1054e4:	ea0000f0 	b	1058ac <_fwalk>

001054e8 <__fp_unlock_all>:
  1054e8:	e30a3f90 	movw	r3, #44944	; 0xaf90
  1054ec:	e30511f4 	movw	r1, #20980	; 0x51f4
  1054f0:	e3403010 	movt	r3, #16
  1054f4:	e3401010 	movt	r1, #16
  1054f8:	e5930000 	ldr	r0, [r3]
  1054fc:	ea0000ea 	b	1058ac <_fwalk>

00105500 <_malloc_trim_r>:
  105500:	e92d40f8 	push	{r3, r4, r5, r6, r7, lr}
  105504:	e30b743c 	movw	r7, #46140	; 0xb43c
  105508:	e3407010 	movt	r7, #16
  10550c:	e1a04001 	mov	r4, r1
  105510:	e1a06000 	mov	r6, r0
  105514:	eb000546 	bl	106a34 <__malloc_lock>
  105518:	e5973008 	ldr	r3, [r7, #8]
  10551c:	e5935004 	ldr	r5, [r3, #4]
  105520:	e3c55003 	bic	r5, r5, #3
  105524:	e0641005 	rsb	r1, r4, r5
  105528:	e2811efe 	add	r1, r1, #4064	; 0xfe0
  10552c:	e281100f 	add	r1, r1, #15
  105530:	e3c11eff 	bic	r1, r1, #4080	; 0xff0
  105534:	e3c1100f 	bic	r1, r1, #15
  105538:	e2414a01 	sub	r4, r1, #4096	; 0x1000
  10553c:	e3540a01 	cmp	r4, #4096	; 0x1000
  105540:	ba000006 	blt	105560 <_malloc_trim_r+0x60>
  105544:	e1a00006 	mov	r0, r6
  105548:	e3a01000 	mov	r1, #0
  10554c:	eb000887 	bl	107770 <_sbrk_r>
  105550:	e5973008 	ldr	r3, [r7, #8]
  105554:	e0833005 	add	r3, r3, r5
  105558:	e1500003 	cmp	r0, r3
  10555c:	0a000003 	beq	105570 <_malloc_trim_r+0x70>
  105560:	e1a00006 	mov	r0, r6
  105564:	eb000533 	bl	106a38 <__malloc_unlock>
  105568:	e3a00000 	mov	r0, #0
  10556c:	e8bd80f8 	pop	{r3, r4, r5, r6, r7, pc}
  105570:	e1a00006 	mov	r0, r6
  105574:	e2641000 	rsb	r1, r4, #0
  105578:	eb00087c 	bl	107770 <_sbrk_r>
  10557c:	e3700001 	cmn	r0, #1
  105580:	0a00000c 	beq	1055b8 <_malloc_trim_r+0xb8>
  105584:	e5972008 	ldr	r2, [r7, #8]
  105588:	e3003040 	movw	r3, #64	; 0x40
  10558c:	e3403011 	movt	r3, #17
  105590:	e0645005 	rsb	r5, r4, r5
  105594:	e5931000 	ldr	r1, [r3]
  105598:	e1a00006 	mov	r0, r6
  10559c:	e3855001 	orr	r5, r5, #1
  1055a0:	e5825004 	str	r5, [r2, #4]
  1055a4:	e0641001 	rsb	r1, r4, r1
  1055a8:	e5831000 	str	r1, [r3]
  1055ac:	eb000521 	bl	106a38 <__malloc_unlock>
  1055b0:	e3a00001 	mov	r0, #1
  1055b4:	e8bd80f8 	pop	{r3, r4, r5, r6, r7, pc}
  1055b8:	e1a00006 	mov	r0, r6
  1055bc:	e3a01000 	mov	r1, #0
  1055c0:	eb00086a 	bl	107770 <_sbrk_r>
  1055c4:	e5972008 	ldr	r2, [r7, #8]
  1055c8:	e0623000 	rsb	r3, r2, r0
  1055cc:	e353000f 	cmp	r3, #15
  1055d0:	daffffe2 	ble	105560 <_malloc_trim_r+0x60>
  1055d4:	e30bc844 	movw	ip, #47172	; 0xb844
  1055d8:	e3001040 	movw	r1, #64	; 0x40
  1055dc:	e340c010 	movt	ip, #16
  1055e0:	e3401011 	movt	r1, #17
  1055e4:	e59cc000 	ldr	ip, [ip]
  1055e8:	e3833001 	orr	r3, r3, #1
  1055ec:	e5823004 	str	r3, [r2, #4]
  1055f0:	e06c0000 	rsb	r0, ip, r0
  1055f4:	e5810000 	str	r0, [r1]
  1055f8:	eaffffd8 	b	105560 <_malloc_trim_r+0x60>

001055fc <_free_r>:
  1055fc:	e3510000 	cmp	r1, #0
  105600:	012fff1e 	bxeq	lr
  105604:	e92d4070 	push	{r4, r5, r6, lr}
  105608:	e1a04001 	mov	r4, r1
  10560c:	e1a05000 	mov	r5, r0
  105610:	eb000507 	bl	106a34 <__malloc_lock>
  105614:	e5140004 	ldr	r0, [r4, #-4]
  105618:	e30b343c 	movw	r3, #46140	; 0xb43c
  10561c:	e244c008 	sub	ip, r4, #8
  105620:	e3403010 	movt	r3, #16
  105624:	e3c02001 	bic	r2, r0, #1
  105628:	e5936008 	ldr	r6, [r3, #8]
  10562c:	e08ce002 	add	lr, ip, r2
  105630:	e156000e 	cmp	r6, lr
  105634:	e59e1004 	ldr	r1, [lr, #4]
  105638:	e3c11003 	bic	r1, r1, #3
  10563c:	0a00004b 	beq	105770 <_free_r+0x174>
  105640:	e3100001 	tst	r0, #1
  105644:	e58e1004 	str	r1, [lr, #4]
  105648:	1a000009 	bne	105674 <_free_r+0x78>
  10564c:	e5140008 	ldr	r0, [r4, #-8]
  105650:	e2834008 	add	r4, r3, #8
  105654:	e060c00c 	rsb	ip, r0, ip
  105658:	e0822000 	add	r2, r2, r0
  10565c:	e59c0008 	ldr	r0, [ip, #8]
  105660:	e1500004 	cmp	r0, r4
  105664:	0a000059 	beq	1057d0 <_free_r+0x1d4>
  105668:	e59c400c 	ldr	r4, [ip, #12]
  10566c:	e580400c 	str	r4, [r0, #12]
  105670:	e5840008 	str	r0, [r4, #8]
  105674:	e08e0001 	add	r0, lr, r1
  105678:	e5900004 	ldr	r0, [r0, #4]
  10567c:	e3100001 	tst	r0, #1
  105680:	1a00000b 	bne	1056b4 <_free_r+0xb8>
  105684:	e59f021c 	ldr	r0, [pc, #540]	; 1058a8 <_free_r+0x2ac>
  105688:	e0822001 	add	r2, r2, r1
  10568c:	e59e1008 	ldr	r1, [lr, #8]
  105690:	e1510000 	cmp	r1, r0
  105694:	0a00006f 	beq	105858 <_free_r+0x25c>
  105698:	e59ee00c 	ldr	lr, [lr, #12]
  10569c:	e3820001 	orr	r0, r2, #1
  1056a0:	e581e00c 	str	lr, [r1, #12]
  1056a4:	e58e1008 	str	r1, [lr, #8]
  1056a8:	e58c0004 	str	r0, [ip, #4]
  1056ac:	e78c2002 	str	r2, [ip, r2]
  1056b0:	ea000002 	b	1056c0 <_free_r+0xc4>
  1056b4:	e3821001 	orr	r1, r2, #1
  1056b8:	e58c1004 	str	r1, [ip, #4]
  1056bc:	e78c2002 	str	r2, [ip, r2]
  1056c0:	e3520c02 	cmp	r2, #512	; 0x200
  1056c4:	2a00000e 	bcs	105704 <_free_r+0x108>
  1056c8:	e1a021a2 	lsr	r2, r2, #3
  1056cc:	e5930004 	ldr	r0, [r3, #4]
  1056d0:	e3a0e001 	mov	lr, #1
  1056d4:	e0831182 	add	r1, r3, r2, lsl #3
  1056d8:	e1a02142 	asr	r2, r2, #2
  1056dc:	e180221e 	orr	r2, r0, lr, lsl r2
  1056e0:	e5832004 	str	r2, [r3, #4]
  1056e4:	e5913008 	ldr	r3, [r1, #8]
  1056e8:	e58c100c 	str	r1, [ip, #12]
  1056ec:	e58c3008 	str	r3, [ip, #8]
  1056f0:	e581c008 	str	ip, [r1, #8]
  1056f4:	e583c00c 	str	ip, [r3, #12]
  1056f8:	e1a00005 	mov	r0, r5
  1056fc:	e8bd4070 	pop	{r4, r5, r6, lr}
  105700:	ea0004cc 	b	106a38 <__malloc_unlock>
  105704:	e1a014a2 	lsr	r1, r2, #9
  105708:	e3510004 	cmp	r1, #4
  10570c:	8a000040 	bhi	105814 <_free_r+0x218>
  105710:	e1a01322 	lsr	r1, r2, #6
  105714:	e2811038 	add	r1, r1, #56	; 0x38
  105718:	e1a00081 	lsl	r0, r1, #1
  10571c:	e0830100 	add	r0, r3, r0, lsl #2
  105720:	e30be43c 	movw	lr, #46140	; 0xb43c
  105724:	e340e010 	movt	lr, #16
  105728:	e5903008 	ldr	r3, [r0, #8]
  10572c:	e1530000 	cmp	r3, r0
  105730:	0a000041 	beq	10583c <_free_r+0x240>
  105734:	e5931004 	ldr	r1, [r3, #4]
  105738:	e3c11003 	bic	r1, r1, #3
  10573c:	e1510002 	cmp	r1, r2
  105740:	9a000002 	bls	105750 <_free_r+0x154>
  105744:	e5933008 	ldr	r3, [r3, #8]
  105748:	e1500003 	cmp	r0, r3
  10574c:	1afffff8 	bne	105734 <_free_r+0x138>
  105750:	e593200c 	ldr	r2, [r3, #12]
  105754:	e58c200c 	str	r2, [ip, #12]
  105758:	e1a00005 	mov	r0, r5
  10575c:	e58c3008 	str	r3, [ip, #8]
  105760:	e8bd4070 	pop	{r4, r5, r6, lr}
  105764:	e582c008 	str	ip, [r2, #8]
  105768:	e583c00c 	str	ip, [r3, #12]
  10576c:	ea0004b1 	b	106a38 <__malloc_unlock>
  105770:	e3100001 	tst	r0, #1
  105774:	e0812002 	add	r2, r1, r2
  105778:	1a000006 	bne	105798 <_free_r+0x19c>
  10577c:	e5141008 	ldr	r1, [r4, #-8]
  105780:	e061c00c 	rsb	ip, r1, ip
  105784:	e0822001 	add	r2, r2, r1
  105788:	e59c0008 	ldr	r0, [ip, #8]
  10578c:	e59c100c 	ldr	r1, [ip, #12]
  105790:	e580100c 	str	r1, [r0, #12]
  105794:	e5810008 	str	r0, [r1, #8]
  105798:	e30b0848 	movw	r0, #47176	; 0xb848
  10579c:	e3821001 	orr	r1, r2, #1
  1057a0:	e3400010 	movt	r0, #16
  1057a4:	e58c1004 	str	r1, [ip, #4]
  1057a8:	e5901000 	ldr	r1, [r0]
  1057ac:	e583c008 	str	ip, [r3, #8]
  1057b0:	e1520001 	cmp	r2, r1
  1057b4:	3affffcf 	bcc	1056f8 <_free_r+0xfc>
  1057b8:	e300303c 	movw	r3, #60	; 0x3c
  1057bc:	e1a00005 	mov	r0, r5
  1057c0:	e3403011 	movt	r3, #17
  1057c4:	e5931000 	ldr	r1, [r3]
  1057c8:	ebffff4c 	bl	105500 <_malloc_trim_r>
  1057cc:	eaffffc9 	b	1056f8 <_free_r+0xfc>
  1057d0:	e08e3001 	add	r3, lr, r1
  1057d4:	e5933004 	ldr	r3, [r3, #4]
  1057d8:	e3130001 	tst	r3, #1
  1057dc:	1a000008 	bne	105804 <_free_r+0x208>
  1057e0:	e59e300c 	ldr	r3, [lr, #12]
  1057e4:	e0822001 	add	r2, r2, r1
  1057e8:	e59e1008 	ldr	r1, [lr, #8]
  1057ec:	e3820001 	orr	r0, r2, #1
  1057f0:	e581300c 	str	r3, [r1, #12]
  1057f4:	e5831008 	str	r1, [r3, #8]
  1057f8:	e58c0004 	str	r0, [ip, #4]
  1057fc:	e78c2002 	str	r2, [ip, r2]
  105800:	eaffffbc 	b	1056f8 <_free_r+0xfc>
  105804:	e3823001 	orr	r3, r2, #1
  105808:	e58c3004 	str	r3, [ip, #4]
  10580c:	e78c2002 	str	r2, [ip, r2]
  105810:	eaffffb8 	b	1056f8 <_free_r+0xfc>
  105814:	e3510014 	cmp	r1, #20
  105818:	9281105b 	addls	r1, r1, #91	; 0x5b
  10581c:	91a00081 	lslls	r0, r1, #1
  105820:	9affffbd 	bls	10571c <_free_r+0x120>
  105824:	e3510054 	cmp	r1, #84	; 0x54
  105828:	8a000011 	bhi	105874 <_free_r+0x278>
  10582c:	e1a01622 	lsr	r1, r2, #12
  105830:	e281106e 	add	r1, r1, #110	; 0x6e
  105834:	e1a00081 	lsl	r0, r1, #1
  105838:	eaffffb7 	b	10571c <_free_r+0x120>
  10583c:	e59e0004 	ldr	r0, [lr, #4]
  105840:	e1a01141 	asr	r1, r1, #2
  105844:	e3a04001 	mov	r4, #1
  105848:	e1a02003 	mov	r2, r3
  10584c:	e1801114 	orr	r1, r0, r4, lsl r1
  105850:	e58e1004 	str	r1, [lr, #4]
  105854:	eaffffbe 	b	105754 <_free_r+0x158>
  105858:	e583c014 	str	ip, [r3, #20]
  10585c:	e3820001 	orr	r0, r2, #1
  105860:	e583c010 	str	ip, [r3, #16]
  105864:	e58c100c 	str	r1, [ip, #12]
  105868:	e98c0003 	stmib	ip, {r0, r1}
  10586c:	e78c2002 	str	r2, [ip, r2]
  105870:	eaffffa0 	b	1056f8 <_free_r+0xfc>
  105874:	e3510f55 	cmp	r1, #340	; 0x154
  105878:	91a017a2 	lsrls	r1, r2, #15
  10587c:	92811077 	addls	r1, r1, #119	; 0x77
  105880:	91a00081 	lslls	r0, r1, #1
  105884:	9affffa4 	bls	10571c <_free_r+0x120>
  105888:	e3000554 	movw	r0, #1364	; 0x554
  10588c:	e1510000 	cmp	r1, r0
  105890:	91a01922 	lsrls	r1, r2, #18
  105894:	9281107c 	addls	r1, r1, #124	; 0x7c
  105898:	83a000fc 	movhi	r0, #252	; 0xfc
  10589c:	83a0107e 	movhi	r1, #126	; 0x7e
  1058a0:	91a00081 	lslls	r0, r1, #1
  1058a4:	eaffff9c 	b	10571c <_free_r+0x120>
  1058a8:	0010b444 	andseq	fp, r0, r4, asr #8

001058ac <_fwalk>:
  1058ac:	e92d41f0 	push	{r4, r5, r6, r7, r8, lr}
  1058b0:	e2907e2e 	adds	r7, r0, #736	; 0x2e0
  1058b4:	0a000017 	beq	105918 <_fwalk+0x6c>
  1058b8:	e1a08001 	mov	r8, r1
  1058bc:	e3a06000 	mov	r6, #0
  1058c0:	e5975004 	ldr	r5, [r7, #4]
  1058c4:	e5974008 	ldr	r4, [r7, #8]
  1058c8:	e2555001 	subs	r5, r5, #1
  1058cc:	4a00000c 	bmi	105904 <_fwalk+0x58>
  1058d0:	e1d430bc 	ldrh	r3, [r4, #12]
  1058d4:	e2455001 	sub	r5, r5, #1
  1058d8:	e3530001 	cmp	r3, #1
  1058dc:	9a000005 	bls	1058f8 <_fwalk+0x4c>
  1058e0:	e1d430fe 	ldrsh	r3, [r4, #14]
  1058e4:	e1a00004 	mov	r0, r4
  1058e8:	e3730001 	cmn	r3, #1
  1058ec:	0a000001 	beq	1058f8 <_fwalk+0x4c>
  1058f0:	e12fff38 	blx	r8
  1058f4:	e1866000 	orr	r6, r6, r0
  1058f8:	e3750001 	cmn	r5, #1
  1058fc:	e2844068 	add	r4, r4, #104	; 0x68
  105900:	1afffff2 	bne	1058d0 <_fwalk+0x24>
  105904:	e5977000 	ldr	r7, [r7]
  105908:	e3570000 	cmp	r7, #0
  10590c:	1affffeb 	bne	1058c0 <_fwalk+0x14>
  105910:	e1a00006 	mov	r0, r6
  105914:	e8bd81f0 	pop	{r4, r5, r6, r7, r8, pc}
  105918:	e1a06007 	mov	r6, r7
  10591c:	e1a00006 	mov	r0, r6
  105920:	e8bd81f0 	pop	{r4, r5, r6, r7, r8, pc}

00105924 <_fwalk_reent>:
  105924:	e92d43f8 	push	{r3, r4, r5, r6, r7, r8, r9, lr}
  105928:	e2906e2e 	adds	r6, r0, #736	; 0x2e0
  10592c:	0a000019 	beq	105998 <_fwalk_reent+0x74>
  105930:	e1a08001 	mov	r8, r1
  105934:	e1a07000 	mov	r7, r0
  105938:	e3a09000 	mov	r9, #0
  10593c:	e5965004 	ldr	r5, [r6, #4]
  105940:	e5964008 	ldr	r4, [r6, #8]
  105944:	e2555001 	subs	r5, r5, #1
  105948:	4a00000d 	bmi	105984 <_fwalk_reent+0x60>
  10594c:	e1d430bc 	ldrh	r3, [r4, #12]
  105950:	e2455001 	sub	r5, r5, #1
  105954:	e3530001 	cmp	r3, #1
  105958:	9a000006 	bls	105978 <_fwalk_reent+0x54>
  10595c:	e1d430fe 	ldrsh	r3, [r4, #14]
  105960:	e1a01004 	mov	r1, r4
  105964:	e1a00007 	mov	r0, r7
  105968:	e3730001 	cmn	r3, #1
  10596c:	0a000001 	beq	105978 <_fwalk_reent+0x54>
  105970:	e12fff38 	blx	r8
  105974:	e1899000 	orr	r9, r9, r0
  105978:	e3750001 	cmn	r5, #1
  10597c:	e2844068 	add	r4, r4, #104	; 0x68
  105980:	1afffff1 	bne	10594c <_fwalk_reent+0x28>
  105984:	e5966000 	ldr	r6, [r6]
  105988:	e3560000 	cmp	r6, #0
  10598c:	1affffea 	bne	10593c <_fwalk_reent+0x18>
  105990:	e1a00009 	mov	r0, r9
  105994:	e8bd83f8 	pop	{r3, r4, r5, r6, r7, r8, r9, pc}
  105998:	e1a09006 	mov	r9, r6
  10599c:	e1a00009 	mov	r0, r9
  1059a0:	e8bd83f8 	pop	{r3, r4, r5, r6, r7, r8, r9, pc}

001059a4 <_setlocale_r>:
  1059a4:	e3520000 	cmp	r2, #0
  1059a8:	0a00001a 	beq	105a18 <_setlocale_r+0x74>
  1059ac:	e30a1f38 	movw	r1, #44856	; 0xaf38
  1059b0:	e1a00002 	mov	r0, r2
  1059b4:	e92d4010 	push	{r4, lr}
  1059b8:	e3401010 	movt	r1, #16
  1059bc:	e1a04002 	mov	r4, r2
  1059c0:	fa0007b0 	blx	107888 <strcmp>
  1059c4:	e3500000 	cmp	r0, #0
  1059c8:	1a000002 	bne	1059d8 <_setlocale_r+0x34>
  1059cc:	e30a0ee0 	movw	r0, #44768	; 0xaee0
  1059d0:	e3400010 	movt	r0, #16
  1059d4:	e8bd8010 	pop	{r4, pc}
  1059d8:	e30a1ee0 	movw	r1, #44768	; 0xaee0
  1059dc:	e1a00004 	mov	r0, r4
  1059e0:	e3401010 	movt	r1, #16
  1059e4:	fa0007a7 	blx	107888 <strcmp>
  1059e8:	e3500000 	cmp	r0, #0
  1059ec:	0afffff6 	beq	1059cc <_setlocale_r+0x28>
  1059f0:	e30a1f04 	movw	r1, #44804	; 0xaf04
  1059f4:	e1a00004 	mov	r0, r4
  1059f8:	e3401010 	movt	r1, #16
  1059fc:	fa0007a1 	blx	107888 <strcmp>
  105a00:	e30a3ee0 	movw	r3, #44768	; 0xaee0
  105a04:	e3403010 	movt	r3, #16
  105a08:	e3500000 	cmp	r0, #0
  105a0c:	01a00003 	moveq	r0, r3
  105a10:	13a00000 	movne	r0, #0
  105a14:	e8bd8010 	pop	{r4, pc}
  105a18:	e30a0ee0 	movw	r0, #44768	; 0xaee0
  105a1c:	e3400010 	movt	r0, #16
  105a20:	e12fff1e 	bx	lr

00105a24 <__locale_charset>:
  105a24:	e30b03c0 	movw	r0, #46016	; 0xb3c0
  105a28:	e3400010 	movt	r0, #16
  105a2c:	e12fff1e 	bx	lr

00105a30 <__locale_mb_cur_max>:
  105a30:	e30b33c0 	movw	r3, #46016	; 0xb3c0
  105a34:	e3403010 	movt	r3, #16
  105a38:	e5930020 	ldr	r0, [r3, #32]
  105a3c:	e12fff1e 	bx	lr

00105a40 <__locale_msgcharset>:
  105a40:	e59f0000 	ldr	r0, [pc]	; 105a48 <__locale_msgcharset+0x8>
  105a44:	e12fff1e 	bx	lr
  105a48:	0010b3e4 	andseq	fp, r0, r4, ror #7

00105a4c <__locale_cjk_lang>:
  105a4c:	e3a00000 	mov	r0, #0
  105a50:	e12fff1e 	bx	lr

00105a54 <_localeconv_r>:
  105a54:	e59f0000 	ldr	r0, [pc]	; 105a5c <_localeconv_r+0x8>
  105a58:	e12fff1e 	bx	lr
  105a5c:	0010b404 	andseq	fp, r0, r4, lsl #8

00105a60 <setlocale>:
  105a60:	e30a3f90 	movw	r3, #44944	; 0xaf90
  105a64:	e1a02001 	mov	r2, r1
  105a68:	e3403010 	movt	r3, #16
  105a6c:	e1a01000 	mov	r1, r0
  105a70:	e5930000 	ldr	r0, [r3]
  105a74:	eaffffca 	b	1059a4 <_setlocale_r>

00105a78 <localeconv>:
  105a78:	e59f0000 	ldr	r0, [pc]	; 105a80 <localeconv+0x8>
  105a7c:	e12fff1e 	bx	lr
  105a80:	0010b404 	andseq	fp, r0, r4, lsl #8

00105a84 <__smakebuf_r>:
  105a84:	e1d130bc 	ldrh	r3, [r1, #12]
  105a88:	e6ff2073 	uxth	r2, r3
  105a8c:	e3120002 	tst	r2, #2
  105a90:	1a000031 	bne	105b5c <__smakebuf_r+0xd8>
  105a94:	e92d40f0 	push	{r4, r5, r6, r7, lr}
  105a98:	e1a04001 	mov	r4, r1
  105a9c:	e1d110be 	ldrh	r1, [r1, #14]
  105aa0:	e24dd044 	sub	sp, sp, #68	; 0x44
  105aa4:	e1a05000 	mov	r5, r0
  105aa8:	e6bf1071 	sxth	r1, r1
  105aac:	e3510000 	cmp	r1, #0
  105ab0:	ba000011 	blt	105afc <__smakebuf_r+0x78>
  105ab4:	e28d2004 	add	r2, sp, #4
  105ab8:	eb000e64 	bl	109450 <_fstat_r>
  105abc:	e3500000 	cmp	r0, #0
  105ac0:	ba00000b 	blt	105af4 <__smakebuf_r+0x70>
  105ac4:	e59d3008 	ldr	r3, [sp, #8]
  105ac8:	e2033a0f 	and	r3, r3, #61440	; 0xf000
  105acc:	e2437a02 	sub	r7, r3, #8192	; 0x2000
  105ad0:	e3530902 	cmp	r3, #32768	; 0x8000
  105ad4:	e16f7f17 	clz	r7, r7
  105ad8:	e1a072a7 	lsr	r7, r7, #5
  105adc:	0a000024 	beq	105b74 <__smakebuf_r+0xf0>
  105ae0:	e1d430bc 	ldrh	r3, [r4, #12]
  105ae4:	e3a06b01 	mov	r6, #1024	; 0x400
  105ae8:	e3833b02 	orr	r3, r3, #2048	; 0x800
  105aec:	e1c430bc 	strh	r3, [r4, #12]
  105af0:	ea000007 	b	105b14 <__smakebuf_r+0x90>
  105af4:	e1d430bc 	ldrh	r3, [r4, #12]
  105af8:	e6ff2073 	uxth	r2, r3
  105afc:	e3120080 	tst	r2, #128	; 0x80
  105b00:	e3a07000 	mov	r7, #0
  105b04:	e3833b02 	orr	r3, r3, #2048	; 0x800
  105b08:	e1c430bc 	strh	r3, [r4, #12]
  105b0c:	03a06b01 	moveq	r6, #1024	; 0x400
  105b10:	13a06040 	movne	r6, #64	; 0x40
  105b14:	e1a00005 	mov	r0, r5
  105b18:	e1a01006 	mov	r1, r6
  105b1c:	eb000034 	bl	105bf4 <_malloc_r>
  105b20:	e3500000 	cmp	r0, #0
  105b24:	0a000027 	beq	105bc8 <__smakebuf_r+0x144>
  105b28:	e1d430bc 	ldrh	r3, [r4, #12]
  105b2c:	e3570000 	cmp	r7, #0
  105b30:	e30521fc 	movw	r2, #20988	; 0x51fc
  105b34:	e3402010 	movt	r2, #16
  105b38:	e3833080 	orr	r3, r3, #128	; 0x80
  105b3c:	e585203c 	str	r2, [r5, #60]	; 0x3c
  105b40:	e5840000 	str	r0, [r4]
  105b44:	e5840010 	str	r0, [r4, #16]
  105b48:	e5846014 	str	r6, [r4, #20]
  105b4c:	e1c430bc 	strh	r3, [r4, #12]
  105b50:	1a000013 	bne	105ba4 <__smakebuf_r+0x120>
  105b54:	e28dd044 	add	sp, sp, #68	; 0x44
  105b58:	e8bd80f0 	pop	{r4, r5, r6, r7, pc}
  105b5c:	e2813043 	add	r3, r1, #67	; 0x43
  105b60:	e3a02001 	mov	r2, #1
  105b64:	e5813000 	str	r3, [r1]
  105b68:	e5813010 	str	r3, [r1, #16]
  105b6c:	e5812014 	str	r2, [r1, #20]
  105b70:	e12fff1e 	bx	lr
  105b74:	e5942028 	ldr	r2, [r4, #40]	; 0x28
  105b78:	e3073834 	movw	r3, #30772	; 0x7834
  105b7c:	e3403010 	movt	r3, #16
  105b80:	e1520003 	cmp	r2, r3
  105b84:	1affffd5 	bne	105ae0 <__smakebuf_r+0x5c>
  105b88:	e1d430bc 	ldrh	r3, [r4, #12]
  105b8c:	e3a02b01 	mov	r2, #1024	; 0x400
  105b90:	e1a06002 	mov	r6, r2
  105b94:	e584204c 	str	r2, [r4, #76]	; 0x4c
  105b98:	e1833002 	orr	r3, r3, r2
  105b9c:	e1c430bc 	strh	r3, [r4, #12]
  105ba0:	eaffffdb 	b	105b14 <__smakebuf_r+0x90>
  105ba4:	e1a00005 	mov	r0, r5
  105ba8:	e1d410fe 	ldrsh	r1, [r4, #14]
  105bac:	eb000f60 	bl	109934 <_isatty_r>
  105bb0:	e3500000 	cmp	r0, #0
  105bb4:	11d430bc 	ldrhne	r3, [r4, #12]
  105bb8:	13833001 	orrne	r3, r3, #1
  105bbc:	11c430bc 	strhne	r3, [r4, #12]
  105bc0:	e28dd044 	add	sp, sp, #68	; 0x44
  105bc4:	e8bd80f0 	pop	{r4, r5, r6, r7, pc}
  105bc8:	e1d430bc 	ldrh	r3, [r4, #12]
  105bcc:	e3130c02 	tst	r3, #512	; 0x200
  105bd0:	1affffdf 	bne	105b54 <__smakebuf_r+0xd0>
  105bd4:	e3833002 	orr	r3, r3, #2
  105bd8:	e2842043 	add	r2, r4, #67	; 0x43
  105bdc:	e1c430bc 	strh	r3, [r4, #12]
  105be0:	e3a03001 	mov	r3, #1
  105be4:	e5842000 	str	r2, [r4]
  105be8:	e5842010 	str	r2, [r4, #16]
  105bec:	e5843014 	str	r3, [r4, #20]
  105bf0:	eaffffd7 	b	105b54 <__smakebuf_r+0xd0>

00105bf4 <_malloc_r>:
  105bf4:	e92d4ff0 	push	{r4, r5, r6, r7, r8, r9, sl, fp, lr}
  105bf8:	e281400b 	add	r4, r1, #11
  105bfc:	e3540016 	cmp	r4, #22
  105c00:	e24dd00c 	sub	sp, sp, #12
  105c04:	e1a05000 	mov	r5, r0
  105c08:	9a00001f 	bls	105c8c <_malloc_r+0x98>
  105c0c:	e3c44007 	bic	r4, r4, #7
  105c10:	e1510004 	cmp	r1, r4
  105c14:	93a01000 	movls	r1, #0
  105c18:	83a01001 	movhi	r1, #1
  105c1c:	e1913fa4 	orrs	r3, r1, r4, lsr #31
  105c20:	1a000085 	bne	105e3c <_malloc_r+0x248>
  105c24:	eb000382 	bl	106a34 <__malloc_lock>
  105c28:	e3540f7e 	cmp	r4, #504	; 0x1f8
  105c2c:	2a00001b 	bcs	105ca0 <_malloc_r+0xac>
  105c30:	e1a011a4 	lsr	r1, r4, #3
  105c34:	e30b643c 	movw	r6, #46140	; 0xb43c
  105c38:	e3406010 	movt	r6, #16
  105c3c:	e0863181 	add	r3, r6, r1, lsl #3
  105c40:	e593200c 	ldr	r2, [r3, #12]
  105c44:	e1520003 	cmp	r2, r3
  105c48:	0a000117 	beq	1060ac <_malloc_r+0x4b8>
  105c4c:	e5923004 	ldr	r3, [r2, #4]
  105c50:	e2828008 	add	r8, r2, #8
  105c54:	e592100c 	ldr	r1, [r2, #12]
  105c58:	e1a00005 	mov	r0, r5
  105c5c:	e3c33003 	bic	r3, r3, #3
  105c60:	e592c008 	ldr	ip, [r2, #8]
  105c64:	e0822003 	add	r2, r2, r3
  105c68:	e5923004 	ldr	r3, [r2, #4]
  105c6c:	e58c100c 	str	r1, [ip, #12]
  105c70:	e3833001 	orr	r3, r3, #1
  105c74:	e581c008 	str	ip, [r1, #8]
  105c78:	e5823004 	str	r3, [r2, #4]
  105c7c:	eb00036d 	bl	106a38 <__malloc_unlock>
  105c80:	e1a00008 	mov	r0, r8
  105c84:	e28dd00c 	add	sp, sp, #12
  105c88:	e8bd8ff0 	pop	{r4, r5, r6, r7, r8, r9, sl, fp, pc}
  105c8c:	e3510010 	cmp	r1, #16
  105c90:	8a000069 	bhi	105e3c <_malloc_r+0x248>
  105c94:	eb000366 	bl	106a34 <__malloc_lock>
  105c98:	e3a04010 	mov	r4, #16
  105c9c:	eaffffe3 	b	105c30 <_malloc_r+0x3c>
  105ca0:	e1b014a4 	lsrs	r1, r4, #9
  105ca4:	03a0007e 	moveq	r0, #126	; 0x7e
  105ca8:	03a0c03f 	moveq	ip, #63	; 0x3f
  105cac:	1a000068 	bne	105e54 <_malloc_r+0x260>
  105cb0:	e30b643c 	movw	r6, #46140	; 0xb43c
  105cb4:	e3406010 	movt	r6, #16
  105cb8:	e0860100 	add	r0, r6, r0, lsl #2
  105cbc:	e590300c 	ldr	r3, [r0, #12]
  105cc0:	e1500003 	cmp	r0, r3
  105cc4:	1a000005 	bne	105ce0 <_malloc_r+0xec>
  105cc8:	ea00000a 	b	105cf8 <_malloc_r+0x104>
  105ccc:	e3510000 	cmp	r1, #0
  105cd0:	aa0000a5 	bge	105f6c <_malloc_r+0x378>
  105cd4:	e593300c 	ldr	r3, [r3, #12]
  105cd8:	e1500003 	cmp	r0, r3
  105cdc:	0a000005 	beq	105cf8 <_malloc_r+0x104>
  105ce0:	e5932004 	ldr	r2, [r3, #4]
  105ce4:	e3c22003 	bic	r2, r2, #3
  105ce8:	e0641002 	rsb	r1, r4, r2
  105cec:	e351000f 	cmp	r1, #15
  105cf0:	dafffff5 	ble	105ccc <_malloc_r+0xd8>
  105cf4:	e24cc001 	sub	ip, ip, #1
  105cf8:	e28c1001 	add	r1, ip, #1
  105cfc:	e30be43c 	movw	lr, #46140	; 0xb43c
  105d00:	e5963010 	ldr	r3, [r6, #16]
  105d04:	e340e010 	movt	lr, #16
  105d08:	e28e7008 	add	r7, lr, #8
  105d0c:	e1530007 	cmp	r3, r7
  105d10:	059e2004 	ldreq	r2, [lr, #4]
  105d14:	0a000016 	beq	105d74 <_malloc_r+0x180>
  105d18:	e5932004 	ldr	r2, [r3, #4]
  105d1c:	e3c22003 	bic	r2, r2, #3
  105d20:	e064c002 	rsb	ip, r4, r2
  105d24:	e35c000f 	cmp	ip, #15
  105d28:	ca0000cd 	bgt	106064 <_malloc_r+0x470>
  105d2c:	e35c0000 	cmp	ip, #0
  105d30:	e58e7014 	str	r7, [lr, #20]
  105d34:	e58e7010 	str	r7, [lr, #16]
  105d38:	aa00004b 	bge	105e6c <_malloc_r+0x278>
  105d3c:	e3520c02 	cmp	r2, #512	; 0x200
  105d40:	2a0000ad 	bcs	105ffc <_malloc_r+0x408>
  105d44:	e1a0c1a2 	lsr	ip, r2, #3
  105d48:	e59e0004 	ldr	r0, [lr, #4]
  105d4c:	e3a09001 	mov	r9, #1
  105d50:	e08e818c 	add	r8, lr, ip, lsl #3
  105d54:	e1a0214c 	asr	r2, ip, #2
  105d58:	e1802219 	orr	r2, r0, r9, lsl r2
  105d5c:	e58e2004 	str	r2, [lr, #4]
  105d60:	e5980008 	ldr	r0, [r8, #8]
  105d64:	e583800c 	str	r8, [r3, #12]
  105d68:	e5830008 	str	r0, [r3, #8]
  105d6c:	e5883008 	str	r3, [r8, #8]
  105d70:	e580300c 	str	r3, [r0, #12]
  105d74:	e1a03141 	asr	r3, r1, #2
  105d78:	e3a00001 	mov	r0, #1
  105d7c:	e1a00310 	lsl	r0, r0, r3
  105d80:	e1500002 	cmp	r0, r2
  105d84:	8a000042 	bhi	105e94 <_malloc_r+0x2a0>
  105d88:	e1120000 	tst	r2, r0
  105d8c:	1a000008 	bne	105db4 <_malloc_r+0x1c0>
  105d90:	e1a00080 	lsl	r0, r0, #1
  105d94:	e3c11003 	bic	r1, r1, #3
  105d98:	e1120000 	tst	r2, r0
  105d9c:	e2811004 	add	r1, r1, #4
  105da0:	1a000003 	bne	105db4 <_malloc_r+0x1c0>
  105da4:	e1a00080 	lsl	r0, r0, #1
  105da8:	e2811004 	add	r1, r1, #4
  105dac:	e1120000 	tst	r2, r0
  105db0:	0afffffb 	beq	105da4 <_malloc_r+0x1b0>
  105db4:	e0868181 	add	r8, r6, r1, lsl #3
  105db8:	e1a09001 	mov	r9, r1
  105dbc:	e1a0c008 	mov	ip, r8
  105dc0:	e59ce00c 	ldr	lr, [ip, #12]
  105dc4:	e15c000e 	cmp	ip, lr
  105dc8:	1a000005 	bne	105de4 <_malloc_r+0x1f0>
  105dcc:	ea0000b1 	b	106098 <_malloc_r+0x4a4>
  105dd0:	e3520000 	cmp	r2, #0
  105dd4:	aa0000ba 	bge	1060c4 <_malloc_r+0x4d0>
  105dd8:	e59ee00c 	ldr	lr, [lr, #12]
  105ddc:	e15c000e 	cmp	ip, lr
  105de0:	0a0000ac 	beq	106098 <_malloc_r+0x4a4>
  105de4:	e59e3004 	ldr	r3, [lr, #4]
  105de8:	e3c33003 	bic	r3, r3, #3
  105dec:	e0642003 	rsb	r2, r4, r3
  105df0:	e352000f 	cmp	r2, #15
  105df4:	dafffff5 	ble	105dd0 <_malloc_r+0x1dc>
  105df8:	e1a0800e 	mov	r8, lr
  105dfc:	e59e100c 	ldr	r1, [lr, #12]
  105e00:	e5b8c008 	ldr	ip, [r8, #8]!
  105e04:	e08e3004 	add	r3, lr, r4
  105e08:	e1a00005 	mov	r0, r5
  105e0c:	e3844001 	orr	r4, r4, #1
  105e10:	e3825001 	orr	r5, r2, #1
  105e14:	e58e4004 	str	r4, [lr, #4]
  105e18:	e58c100c 	str	r1, [ip, #12]
  105e1c:	e581c008 	str	ip, [r1, #8]
  105e20:	e5863014 	str	r3, [r6, #20]
  105e24:	e5863010 	str	r3, [r6, #16]
  105e28:	e583700c 	str	r7, [r3, #12]
  105e2c:	e98300a0 	stmib	r3, {r5, r7}
  105e30:	e7832002 	str	r2, [r3, r2]
  105e34:	eb0002ff 	bl	106a38 <__malloc_unlock>
  105e38:	eaffff90 	b	105c80 <_malloc_r+0x8c>
  105e3c:	e3a08000 	mov	r8, #0
  105e40:	e3a0300c 	mov	r3, #12
  105e44:	e1a00008 	mov	r0, r8
  105e48:	e5853000 	str	r3, [r5]
  105e4c:	e28dd00c 	add	sp, sp, #12
  105e50:	e8bd8ff0 	pop	{r4, r5, r6, r7, r8, r9, sl, fp, pc}
  105e54:	e3510004 	cmp	r1, #4
  105e58:	8a00005d 	bhi	105fd4 <_malloc_r+0x3e0>
  105e5c:	e1a01324 	lsr	r1, r4, #6
  105e60:	e281c038 	add	ip, r1, #56	; 0x38
  105e64:	e1a0008c 	lsl	r0, ip, #1
  105e68:	eaffff90 	b	105cb0 <_malloc_r+0xbc>
  105e6c:	e0832002 	add	r2, r3, r2
  105e70:	e2838008 	add	r8, r3, #8
  105e74:	e1a00005 	mov	r0, r5
  105e78:	e5923004 	ldr	r3, [r2, #4]
  105e7c:	e3833001 	orr	r3, r3, #1
  105e80:	e5823004 	str	r3, [r2, #4]
  105e84:	eb0002eb 	bl	106a38 <__malloc_unlock>
  105e88:	e1a00008 	mov	r0, r8
  105e8c:	e28dd00c 	add	sp, sp, #12
  105e90:	e8bd8ff0 	pop	{r4, r5, r6, r7, r8, r9, sl, fp, pc}
  105e94:	e5968008 	ldr	r8, [r6, #8]
  105e98:	e30b143c 	movw	r1, #46140	; 0xb43c
  105e9c:	e3401010 	movt	r1, #16
  105ea0:	e5987004 	ldr	r7, [r8, #4]
  105ea4:	e3c77003 	bic	r7, r7, #3
  105ea8:	e1570004 	cmp	r7, r4
  105eac:	e0642007 	rsb	r2, r4, r7
  105eb0:	23a03000 	movcs	r3, #0
  105eb4:	33a03001 	movcc	r3, #1
  105eb8:	e352000f 	cmp	r2, #15
  105ebc:	d3833001 	orrle	r3, r3, #1
  105ec0:	e3530000 	cmp	r3, #0
  105ec4:	0a000036 	beq	105fa4 <_malloc_r+0x3b0>
  105ec8:	e300903c 	movw	r9, #60	; 0x3c
  105ecc:	e5913408 	ldr	r3, [r1, #1032]	; 0x408
  105ed0:	e3409011 	movt	r9, #17
  105ed4:	e1a00005 	mov	r0, r5
  105ed8:	e5992000 	ldr	r2, [r9]
  105edc:	e3730001 	cmn	r3, #1
  105ee0:	e0842002 	add	r2, r4, r2
  105ee4:	12822a01 	addne	r2, r2, #4096	; 0x1000
  105ee8:	0282a010 	addeq	sl, r2, #16
  105eec:	1282200f 	addne	r2, r2, #15
  105ef0:	13c2aeff 	bicne	sl, r2, #4080	; 0xff0
  105ef4:	13caa00f 	bicne	sl, sl, #15
  105ef8:	e1a0100a 	mov	r1, sl
  105efc:	eb00061b 	bl	107770 <_sbrk_r>
  105f00:	e3700001 	cmn	r0, #1
  105f04:	e1a0b000 	mov	fp, r0
  105f08:	0a000008 	beq	105f30 <_malloc_r+0x33c>
  105f0c:	e0582006 	subs	r2, r8, r6
  105f10:	e0883007 	add	r3, r8, r7
  105f14:	13a02001 	movne	r2, #1
  105f18:	e1580006 	cmp	r8, r6
  105f1c:	11530000 	cmpne	r3, r0
  105f20:	e30b043c 	movw	r0, #46140	; 0xb43c
  105f24:	e58d2000 	str	r2, [sp]
  105f28:	e3400010 	movt	r0, #16
  105f2c:	9a000094 	bls	106184 <_malloc_r+0x590>
  105f30:	e5968008 	ldr	r8, [r6, #8]
  105f34:	e5983004 	ldr	r3, [r8, #4]
  105f38:	e3c33003 	bic	r3, r3, #3
  105f3c:	e1540003 	cmp	r4, r3
  105f40:	e0642003 	rsb	r2, r4, r3
  105f44:	93a03000 	movls	r3, #0
  105f48:	83a03001 	movhi	r3, #1
  105f4c:	e352000f 	cmp	r2, #15
  105f50:	d3833001 	orrle	r3, r3, #1
  105f54:	e3530000 	cmp	r3, #0
  105f58:	0a000011 	beq	105fa4 <_malloc_r+0x3b0>
  105f5c:	e1a00005 	mov	r0, r5
  105f60:	e3a08000 	mov	r8, #0
  105f64:	eb0002b3 	bl	106a38 <__malloc_unlock>
  105f68:	eaffff44 	b	105c80 <_malloc_r+0x8c>
  105f6c:	e0832002 	add	r2, r3, r2
  105f70:	e593c00c 	ldr	ip, [r3, #12]
  105f74:	e593e008 	ldr	lr, [r3, #8]
  105f78:	e1a00005 	mov	r0, r5
  105f7c:	e5921004 	ldr	r1, [r2, #4]
  105f80:	e2838008 	add	r8, r3, #8
  105f84:	e58ec00c 	str	ip, [lr, #12]
  105f88:	e3813001 	orr	r3, r1, #1
  105f8c:	e58ce008 	str	lr, [ip, #8]
  105f90:	e5823004 	str	r3, [r2, #4]
  105f94:	eb0002a7 	bl	106a38 <__malloc_unlock>
  105f98:	e1a00008 	mov	r0, r8
  105f9c:	e28dd00c 	add	sp, sp, #12
  105fa0:	e8bd8ff0 	pop	{r4, r5, r6, r7, r8, r9, sl, fp, pc}
  105fa4:	e0883004 	add	r3, r8, r4
  105fa8:	e3822001 	orr	r2, r2, #1
  105fac:	e1a00005 	mov	r0, r5
  105fb0:	e3844001 	orr	r4, r4, #1
  105fb4:	e5884004 	str	r4, [r8, #4]
  105fb8:	e2888008 	add	r8, r8, #8
  105fbc:	e5863008 	str	r3, [r6, #8]
  105fc0:	e5832004 	str	r2, [r3, #4]
  105fc4:	eb00029b 	bl	106a38 <__malloc_unlock>
  105fc8:	e1a00008 	mov	r0, r8
  105fcc:	e28dd00c 	add	sp, sp, #12
  105fd0:	e8bd8ff0 	pop	{r4, r5, r6, r7, r8, r9, sl, fp, pc}
  105fd4:	e3510014 	cmp	r1, #20
  105fd8:	9281c05b 	addls	ip, r1, #91	; 0x5b
  105fdc:	91a0008c 	lslls	r0, ip, #1
  105fe0:	9affff32 	bls	105cb0 <_malloc_r+0xbc>
  105fe4:	e3510054 	cmp	r1, #84	; 0x54
  105fe8:	8a0000ae 	bhi	1062a8 <_malloc_r+0x6b4>
  105fec:	e1a01624 	lsr	r1, r4, #12
  105ff0:	e281c06e 	add	ip, r1, #110	; 0x6e
  105ff4:	e1a0008c 	lsl	r0, ip, #1
  105ff8:	eaffff2c 	b	105cb0 <_malloc_r+0xbc>
  105ffc:	e1a004a2 	lsr	r0, r2, #9
  106000:	e3500004 	cmp	r0, #4
  106004:	8a00003a 	bhi	1060f4 <_malloc_r+0x500>
  106008:	e1a00322 	lsr	r0, r2, #6
  10600c:	e280e038 	add	lr, r0, #56	; 0x38
  106010:	e1a0008e 	lsl	r0, lr, #1
  106014:	e0860100 	add	r0, r6, r0, lsl #2
  106018:	e30b843c 	movw	r8, #46140	; 0xb43c
  10601c:	e3408010 	movt	r8, #16
  106020:	e590c008 	ldr	ip, [r0, #8]
  106024:	e15c0000 	cmp	ip, r0
  106028:	0a0000a4 	beq	1062c0 <_malloc_r+0x6cc>
  10602c:	e59ce004 	ldr	lr, [ip, #4]
  106030:	e3cee003 	bic	lr, lr, #3
  106034:	e152000e 	cmp	r2, lr
  106038:	2a000002 	bcs	106048 <_malloc_r+0x454>
  10603c:	e59cc008 	ldr	ip, [ip, #8]
  106040:	e150000c 	cmp	r0, ip
  106044:	1afffff8 	bne	10602c <_malloc_r+0x438>
  106048:	e59c900c 	ldr	r9, [ip, #12]
  10604c:	e5962004 	ldr	r2, [r6, #4]
  106050:	e583900c 	str	r9, [r3, #12]
  106054:	e583c008 	str	ip, [r3, #8]
  106058:	e5893008 	str	r3, [r9, #8]
  10605c:	e58c300c 	str	r3, [ip, #12]
  106060:	eaffff43 	b	105d74 <_malloc_r+0x180>
  106064:	e0832004 	add	r2, r3, r4
  106068:	e38c1001 	orr	r1, ip, #1
  10606c:	e3844001 	orr	r4, r4, #1
  106070:	e1a00005 	mov	r0, r5
  106074:	e5834004 	str	r4, [r3, #4]
  106078:	e2838008 	add	r8, r3, #8
  10607c:	e58e2014 	str	r2, [lr, #20]
  106080:	e58e2010 	str	r2, [lr, #16]
  106084:	e582700c 	str	r7, [r2, #12]
  106088:	e9820082 	stmib	r2, {r1, r7}
  10608c:	e782c00c 	str	ip, [r2, ip]
  106090:	eb000268 	bl	106a38 <__malloc_unlock>
  106094:	eafffef9 	b	105c80 <_malloc_r+0x8c>
  106098:	e2899001 	add	r9, r9, #1
  10609c:	e28cc008 	add	ip, ip, #8
  1060a0:	e3190003 	tst	r9, #3
  1060a4:	1affff45 	bne	105dc0 <_malloc_r+0x1cc>
  1060a8:	ea00001e 	b	106128 <_malloc_r+0x534>
  1060ac:	e2823008 	add	r3, r2, #8
  1060b0:	e5922014 	ldr	r2, [r2, #20]
  1060b4:	e1530002 	cmp	r3, r2
  1060b8:	02811002 	addeq	r1, r1, #2
  1060bc:	0affff0e 	beq	105cfc <_malloc_r+0x108>
  1060c0:	eafffee1 	b	105c4c <_malloc_r+0x58>
  1060c4:	e08e2003 	add	r2, lr, r3
  1060c8:	e1a0800e 	mov	r8, lr
