
AesClockCycles.elf:     file format elf32-littlearm


Disassembly of section .text:

00100000 <_vector_table>:
  100000:	ea00003d 	b	1000fc <_boot>
  100004:	ea000025 	b	1000a0 <Undefined>
  100008:	ea000028 	b	1000b0 <SVCHandler>
  10000c:	ea000035 	b	1000e8 <PrefetchAbortHandler>
  100010:	ea00002f 	b	1000d4 <DataAbortHandler>
  100014:	e320f000 	nop	{0}
  100018:	ea000000 	b	100020 <IRQHandler>
  10001c:	ea00000f 	b	100060 <FIQHandler>

00100020 <IRQHandler>:
  100020:	e92d500f 	push	{r0, r1, r2, r3, ip, lr}
  100024:	ed2d0b10 	vpush	{d0-d7}
  100028:	ed6d0b20 	vpush	{d16-d31}
  10002c:	eef11a10 	vmrs	r1, fpscr
  100030:	e52d1004 	push	{r1}		; (str r1, [sp, #-4]!)
  100034:	eef81a10 	vmrs	r1, fpexc
  100038:	e52d1004 	push	{r1}		; (str r1, [sp, #-4]!)
  10003c:	eb0006c4 	bl	101b54 <IRQInterrupt>
  100040:	e49d1004 	pop	{r1}		; (ldr r1, [sp], #4)
  100044:	eee81a10 	vmsr	fpexc, r1
  100048:	e49d1004 	pop	{r1}		; (ldr r1, [sp], #4)
  10004c:	eee11a10 	vmsr	fpscr, r1
  100050:	ecfd0b20 	vpop	{d16-d31}
  100054:	ecbd0b10 	vpop	{d0-d7}
  100058:	e8bd500f 	pop	{r0, r1, r2, r3, ip, lr}
  10005c:	e25ef004 	subs	pc, lr, #4

00100060 <FIQHandler>:
  100060:	e92d500f 	push	{r0, r1, r2, r3, ip, lr}
  100064:	ed2d0b10 	vpush	{d0-d7}
  100068:	ed6d0b20 	vpush	{d16-d31}
  10006c:	eef11a10 	vmrs	r1, fpscr
  100070:	e52d1004 	push	{r1}		; (str r1, [sp, #-4]!)
  100074:	eef81a10 	vmrs	r1, fpexc
  100078:	e52d1004 	push	{r1}		; (str r1, [sp, #-4]!)

0010007c <FIQLoop>:
  10007c:	eb0006ad 	bl	101b38 <FIQInterrupt>
  100080:	e49d1004 	pop	{r1}		; (ldr r1, [sp], #4)
  100084:	eee81a10 	vmsr	fpexc, r1
  100088:	e49d1004 	pop	{r1}		; (ldr r1, [sp], #4)
  10008c:	eee11a10 	vmsr	fpscr, r1
  100090:	ecfd0b20 	vpop	{d16-d31}
  100094:	ecbd0b10 	vpop	{d0-d7}
  100098:	e8bd500f 	pop	{r0, r1, r2, r3, ip, lr}
  10009c:	e25ef004 	subs	pc, lr, #4

001000a0 <Undefined>:
  1000a0:	e92d500f 	push	{r0, r1, r2, r3, ip, lr}
  1000a4:	e8bd500f 	pop	{r0, r1, r2, r3, ip, lr}
  1000a8:	ea000013 	b	1000fc <_boot>
  1000ac:	e1b0f00e 	movs	pc, lr

001000b0 <SVCHandler>:
  1000b0:	e92d500f 	push	{r0, r1, r2, r3, ip, lr}
  1000b4:	e3100020 	tst	r0, #32
  1000b8:	115e00b2 	ldrhne	r0, [lr, #-2]
  1000bc:	13c00cff 	bicne	r0, r0, #65280	; 0xff00
  1000c0:	051e0004 	ldreq	r0, [lr, #-4]
  1000c4:	03c004ff 	biceq	r0, r0, #-16777216	; 0xff000000
  1000c8:	eb0006a8 	bl	101b70 <SWInterrupt>
  1000cc:	e8bd500f 	pop	{r0, r1, r2, r3, ip, lr}
  1000d0:	e1b0f00e 	movs	pc, lr

001000d4 <DataAbortHandler>:
  1000d4:	f57ff04f 	dsb	sy
  1000d8:	e92d500f 	push	{r0, r1, r2, r3, ip, lr}
  1000dc:	eb0006aa 	bl	101b8c <DataAbortInterrupt>
  1000e0:	e8bd500f 	pop	{r0, r1, r2, r3, ip, lr}
  1000e4:	e25ef008 	subs	pc, lr, #8

001000e8 <PrefetchAbortHandler>:
  1000e8:	f57ff04f 	dsb	sy
  1000ec:	e92d500f 	push	{r0, r1, r2, r3, ip, lr}
  1000f0:	eb0006ac 	bl	101ba8 <PrefetchAbortInterrupt>
  1000f4:	e8bd500f 	pop	{r0, r1, r2, r3, ip, lr}
  1000f8:	e25ef004 	subs	pc, lr, #4

001000fc <_boot>:
  1000fc:	ee101fb0 	mrc	15, 0, r1, cr0, cr0, {5}
  100100:	e201100f 	and	r1, r1, #15
  100104:	e3510000 	cmp	r1, #0
  100108:	0a000001 	beq	100114 <OKToRun>

0010010c <EndlessLoop0>:
  10010c:	e320f002 	wfe
  100110:	eafffffd 	b	10010c <EndlessLoop0>

00100114 <OKToRun>:
  100114:	ee100f10 	mrc	15, 0, r0, cr0, cr0, {0}
  100118:	e200560f 	and	r5, r0, #15728640	; 0xf00000
  10011c:	e200600f 	and	r6, r0, #15
  100120:	e1866825 	orr	r6, r6, r5, lsr #16
  100124:	e3560022 	cmp	r6, #34	; 0x22
  100128:	de1faf30 	mrcle	15, 0, sl, cr15, cr0, {1}
  10012c:	d38aa010 	orrle	sl, sl, #16
  100130:	de0faf30 	mcrle	15, 0, sl, cr15, cr0, {1}
  100134:	e3350602 	teq	r5, #2097152	; 0x200000
  100138:	0e1faf30 	mrceq	15, 0, sl, cr15, cr0, {1}
  10013c:	038aa040 	orreq	sl, sl, #64	; 0x40
  100140:	0e0faf30 	mcreq	15, 0, sl, cr15, cr0, {1}
  100144:	e59f027c 	ldr	r0, [pc, #636]	; 1003c8 <finished+0x14>
  100148:	ee0c0f10 	mcr	15, 0, r0, cr12, cr0, {0}
  10014c:	e59f7278 	ldr	r7, [pc, #632]	; 1003cc <finished+0x18>
  100150:	e5970000 	ldr	r0, [r7]
  100154:	e3800001 	orr	r0, r0, #1
  100158:	e5870000 	str	r0, [r7]
  10015c:	e59f726c 	ldr	r7, [pc, #620]	; 1003d0 <finished+0x1c>
  100160:	e59f626c 	ldr	r6, [pc, #620]	; 1003d4 <finished+0x20>
  100164:	e5876000 	str	r6, [r7]
  100168:	ee110f30 	mrc	15, 0, r0, cr1, cr0, {1}
  10016c:	e3800040 	orr	r0, r0, #64	; 0x40
  100170:	e3800001 	orr	r0, r0, #1
  100174:	ee010f30 	mcr	15, 0, r0, cr1, cr0, {1}
  100178:	e3a00000 	mov	r0, #0
  10017c:	ee080f17 	mcr	15, 0, r0, cr8, cr7, {0}
  100180:	ee070f15 	mcr	15, 0, r0, cr7, cr5, {0}
  100184:	ee070fd5 	mcr	15, 0, r0, cr7, cr5, {6}
  100188:	eb00006a 	bl	100338 <invalidate_dcache>
  10018c:	e59f0244 	ldr	r0, [pc, #580]	; 1003d8 <finished+0x24>
  100190:	e3a01000 	mov	r1, #0
  100194:	e5801000 	str	r1, [r0]
  100198:	e59f023c 	ldr	r0, [pc, #572]	; 1003dc <finished+0x28>
  10019c:	e5901000 	ldr	r1, [r0]
  1001a0:	e59f2238 	ldr	r2, [pc, #568]	; 1003e0 <finished+0x2c>
  1001a4:	e1811002 	orr	r1, r1, r2
  1001a8:	e5801000 	str	r1, [r0]
  1001ac:	e59f0230 	ldr	r0, [pc, #560]	; 1003e4 <finished+0x30>
  1001b0:	e59f1230 	ldr	r1, [pc, #560]	; 1003e8 <finished+0x34>
  1001b4:	e5801000 	str	r1, [r0]
  1001b8:	e59f022c 	ldr	r0, [pc, #556]	; 1003ec <finished+0x38>
  1001bc:	e59f122c 	ldr	r1, [pc, #556]	; 1003f0 <finished+0x3c>
  1001c0:	e5801000 	str	r1, [r0]
  1001c4:	e59f0228 	ldr	r0, [pc, #552]	; 1003f4 <finished+0x40>
  1001c8:	e59f2204 	ldr	r2, [pc, #516]	; 1003d4 <finished+0x20>
  1001cc:	e5802000 	str	r2, [r0]
  1001d0:	e59f0220 	ldr	r0, [pc, #544]	; 1003f8 <finished+0x44>

001001d4 <Sync>:
  1001d4:	e5901000 	ldr	r1, [r0]
  1001d8:	e3510000 	cmp	r1, #0
  1001dc:	1afffffc 	bne	1001d4 <Sync>
  1001e0:	e59f0214 	ldr	r0, [pc, #532]	; 1003fc <finished+0x48>
  1001e4:	e5901000 	ldr	r1, [r0]
  1001e8:	e59f0210 	ldr	r0, [pc, #528]	; 100400 <finished+0x4c>
  1001ec:	e5801000 	str	r1, [r0]
  1001f0:	ee110f10 	mrc	15, 0, r0, cr1, cr0, {0}
  1001f4:	e3c00001 	bic	r0, r0, #1
  1001f8:	ee010f10 	mcr	15, 0, r0, cr1, cr0, {0}
  1001fc:	e10f0000 	mrs	r0, CPSR
  100200:	e3e0101f 	mvn	r1, #31
  100204:	e0012000 	and	r2, r1, r0
  100208:	e3822012 	orr	r2, r2, #18
  10020c:	e129f002 	msr	CPSR_fc, r2
  100210:	e59fd1ec 	ldr	sp, [pc, #492]	; 100404 <finished+0x50>
  100214:	e10f0000 	mrs	r0, CPSR
  100218:	e3e0101f 	mvn	r1, #31
  10021c:	e0012000 	and	r2, r1, r0
  100220:	e3822013 	orr	r2, r2, #19
  100224:	e129f002 	msr	CPSR_fc, r2
  100228:	e59fd1d8 	ldr	sp, [pc, #472]	; 100408 <finished+0x54>
  10022c:	e10f0000 	mrs	r0, CPSR
  100230:	e3e0101f 	mvn	r1, #31
  100234:	e0012000 	and	r2, r1, r0
  100238:	e3822017 	orr	r2, r2, #23
  10023c:	e129f002 	msr	CPSR_fc, r2
  100240:	e59fd1c4 	ldr	sp, [pc, #452]	; 10040c <finished+0x58>
  100244:	e10f0000 	mrs	r0, CPSR
  100248:	e3e0101f 	mvn	r1, #31
  10024c:	e0012000 	and	r2, r1, r0
  100250:	e3822011 	orr	r2, r2, #17
  100254:	e129f002 	msr	CPSR_fc, r2
  100258:	e59fd1b0 	ldr	sp, [pc, #432]	; 100410 <finished+0x5c>
  10025c:	e10f0000 	mrs	r0, CPSR
  100260:	e3e0101f 	mvn	r1, #31
  100264:	e0012000 	and	r2, r1, r0
  100268:	e382201b 	orr	r2, r2, #27
  10026c:	e129f002 	msr	CPSR_fc, r2
  100270:	e59fd19c 	ldr	sp, [pc, #412]	; 100414 <finished+0x60>
  100274:	e10f0000 	mrs	r0, CPSR
  100278:	e3e0101f 	mvn	r1, #31
  10027c:	e0012000 	and	r2, r1, r0
  100280:	e382201f 	orr	r2, r2, #31
  100284:	e129f002 	msr	CPSR_fc, r2
  100288:	e59fd188 	ldr	sp, [pc, #392]	; 100418 <finished+0x64>
  10028c:	e59f0188 	ldr	r0, [pc, #392]	; 10041c <finished+0x68>
  100290:	e380005b 	orr	r0, r0, #91	; 0x5b
  100294:	ee020f10 	mcr	15, 0, r0, cr2, cr0, {0}
  100298:	e3e00000 	mvn	r0, #0
  10029c:	ee030f10 	mcr	15, 0, r0, cr3, cr0, {0}
  1002a0:	e59f0178 	ldr	r0, [pc, #376]	; 100420 <finished+0x6c>
  1002a4:	ee010f10 	mcr	15, 0, r0, cr1, cr0, {0}
  1002a8:	f57ff04f 	dsb	sy
  1002ac:	f57ff06f 	isb	sy
  1002b0:	e59f016c 	ldr	r0, [pc, #364]	; 100424 <finished+0x70>
  1002b4:	e59f116c 	ldr	r1, [pc, #364]	; 100428 <finished+0x74>
  1002b8:	e5801000 	str	r1, [r0]
  1002bc:	e59f0168 	ldr	r0, [pc, #360]	; 10042c <finished+0x78>
  1002c0:	e59f1168 	ldr	r1, [pc, #360]	; 100430 <finished+0x7c>
  1002c4:	e5801000 	str	r1, [r0]
  1002c8:	e59f0164 	ldr	r0, [pc, #356]	; 100434 <finished+0x80>
  1002cc:	e59f1164 	ldr	r1, [pc, #356]	; 100438 <finished+0x84>
  1002d0:	e5801000 	str	r1, [r0]
  1002d4:	e59f00fc 	ldr	r0, [pc, #252]	; 1003d8 <finished+0x24>
  1002d8:	e5901000 	ldr	r1, [r0]
  1002dc:	e3a02001 	mov	r2, #1
  1002e0:	e1811002 	orr	r1, r1, r2
  1002e4:	e5801000 	str	r1, [r0]
  1002e8:	e1a00000 	nop			; (mov r0, r0)
  1002ec:	ee111f50 	mrc	15, 0, r1, cr1, cr0, {2}
  1002f0:	e381160f 	orr	r1, r1, #15728640	; 0xf00000
  1002f4:	ee011f50 	mcr	15, 0, r1, cr1, cr0, {2}
  1002f8:	eef81a10 	vmrs	r1, fpexc
  1002fc:	e3811101 	orr	r1, r1, #1073741824	; 0x40000000
  100300:	eee81a10 	vmsr	fpexc, r1
  100304:	ee110f10 	mrc	15, 0, r0, cr1, cr0, {0}
  100308:	e3800b02 	orr	r0, r0, #2048	; 0x800
  10030c:	ee010f10 	mcr	15, 0, r0, cr1, cr0, {0}
  100310:	ee110f30 	mrc	15, 0, r0, cr1, cr0, {1}
  100314:	e3800004 	orr	r0, r0, #4
  100318:	e3800002 	orr	r0, r0, #2
  10031c:	ee010f30 	mcr	15, 0, r0, cr1, cr0, {1}
  100320:	e10f0000 	mrs	r0, CPSR
  100324:	e3c00c01 	bic	r0, r0, #256	; 0x100
  100328:	e12ef000 	msr	CPSR_fsx, r0
  10032c:	ea000629 	b	101bd8 <_start>
  100330:	e0000000 	and	r0, r0, r0
  100334:	eafffffe 	b	100334 <Sync+0x160>

00100338 <invalidate_dcache>:
  100338:	ee300f30 	mrc	15, 1, r0, cr0, cr0, {1}
  10033c:	e2103407 	ands	r3, r0, #117440512	; 0x7000000
  100340:	e1a03ba3 	lsr	r3, r3, #23
  100344:	0a00001a 	beq	1003b4 <finished>
  100348:	e3a0a000 	mov	sl, #0

0010034c <loop1>:
  10034c:	e08a20aa 	add	r2, sl, sl, lsr #1
  100350:	e1a01230 	lsr	r1, r0, r2
  100354:	e2011007 	and	r1, r1, #7
  100358:	e3510002 	cmp	r1, #2
  10035c:	ba000011 	blt	1003a8 <skip>
  100360:	ee40af10 	mcr	15, 2, sl, cr0, cr0, {0}
  100364:	f57ff06f 	isb	sy
  100368:	ee301f10 	mrc	15, 1, r1, cr0, cr0, {0}
  10036c:	e2012007 	and	r2, r1, #7
  100370:	e2822004 	add	r2, r2, #4
  100374:	e59f40c0 	ldr	r4, [pc, #192]	; 10043c <finished+0x88>
  100378:	e01441a1 	ands	r4, r4, r1, lsr #3
  10037c:	e16f5f14 	clz	r5, r4
  100380:	e59f70b8 	ldr	r7, [pc, #184]	; 100440 <finished+0x8c>
  100384:	e01776a1 	ands	r7, r7, r1, lsr #13

00100388 <loop2>:
  100388:	e1a09004 	mov	r9, r4

0010038c <loop3>:
  10038c:	e18ab519 	orr	fp, sl, r9, lsl r5
  100390:	e18bb217 	orr	fp, fp, r7, lsl r2
  100394:	ee07bf56 	mcr	15, 0, fp, cr7, cr6, {2}
  100398:	e2599001 	subs	r9, r9, #1
  10039c:	aafffffa 	bge	10038c <loop3>
  1003a0:	e2577001 	subs	r7, r7, #1
  1003a4:	aafffff7 	bge	100388 <loop2>

001003a8 <skip>:
  1003a8:	e28aa002 	add	sl, sl, #2
  1003ac:	e153000a 	cmp	r3, sl
  1003b0:	caffffe5 	bgt	10034c <loop1>

001003b4 <finished>:
  1003b4:	e3a0a000 	mov	sl, #0
  1003b8:	ee40af10 	mcr	15, 2, sl, cr0, cr0, {0}
  1003bc:	f57ff04f 	dsb	sy
  1003c0:	f57ff06f 	isb	sy
  1003c4:	e12fff1e 	bx	lr
  1003c8:	00100000 	andseq	r0, r0, r0
  1003cc:	f8f00000 			; <UNDEFINED> instruction: 0xf8f00000
  1003d0:	f8f0000c 			; <UNDEFINED> instruction: 0xf8f0000c
  1003d4:	0000ffff 	strdeq	pc, [r0], -pc	; <UNPREDICTABLE>
  1003d8:	f8f02100 			; <UNDEFINED> instruction: 0xf8f02100
  1003dc:	f8f02104 			; <UNDEFINED> instruction: 0xf8f02104
  1003e0:	72360000 	eorsvc	r0, r6, #0
  1003e4:	f8f02108 			; <UNDEFINED> instruction: 0xf8f02108
  1003e8:	00000111 	andeq	r0, r0, r1, lsl r1
  1003ec:	f8f0210c 			; <UNDEFINED> instruction: 0xf8f0210c
  1003f0:	00000121 	andeq	r0, r0, r1, lsr #2
  1003f4:	f8f0277c 			; <UNDEFINED> instruction: 0xf8f0277c
  1003f8:	f8f02730 			; <UNDEFINED> instruction: 0xf8f02730
  1003fc:	f8f0221c 			; <UNDEFINED> instruction: 0xf8f0221c
  100400:	f8f02220 			; <UNDEFINED> instruction: 0xf8f02220
  100404:	0010cbc0 	andseq	ip, r0, r0, asr #23
  100408:	0010d3c0 	andseq	sp, r0, r0, asr #7
  10040c:	0010d7c0 	andseq	sp, r0, r0, asr #15
  100410:	0010dbc0 	andseq	sp, r0, r0, asr #23
  100414:	0010dfc0 	andseq	sp, r0, r0, asr #31
  100418:	0010c7c0 	andseq	ip, r0, r0, asr #15
  10041c:	00104000 	andseq	r4, r0, r0
  100420:	00001005 	andeq	r1, r0, r5
  100424:	f8000008 			; <UNDEFINED> instruction: 0xf8000008
  100428:	0000df0d 	andeq	sp, r0, sp, lsl #30
  10042c:	f8000a1c 			; <UNDEFINED> instruction: 0xf8000a1c
  100430:	00020202 	andeq	r0, r2, r2, lsl #4
  100434:	f8000004 			; <UNDEFINED> instruction: 0xf8000004
  100438:	0000767b 	andeq	r7, r0, fp, ror r6
  10043c:	000003ff 	strdeq	r0, [r0], -pc	; <UNPREDICTABLE>
  100440:	00007fff 	strdeq	r7, [r0], -pc	; <UNPREDICTABLE>

00100444 <deregister_tm_clones>:
  100444:	e92d4008 	push	{r3, lr}
  100448:	e3030dec 	movw	r0, #15852	; 0x3dec
  10044c:	e59f3024 	ldr	r3, [pc, #36]	; 100478 <deregister_tm_clones+0x34>
  100450:	e3400010 	movt	r0, #16
  100454:	e0603003 	rsb	r3, r0, r3
  100458:	e3530006 	cmp	r3, #6
  10045c:	98bd8008 	popls	{r3, pc}
  100460:	e3003000 	movw	r3, #0
  100464:	e3403000 	movt	r3, #0
  100468:	e3530000 	cmp	r3, #0
  10046c:	08bd8008 	popeq	{r3, pc}
  100470:	e12fff33 	blx	r3
  100474:	e8bd8008 	pop	{r3, pc}
  100478:	00103def 	andseq	r3, r0, pc, ror #27

0010047c <register_tm_clones>:
  10047c:	e92d4008 	push	{r3, lr}
  100480:	e3030dec 	movw	r0, #15852	; 0x3dec
  100484:	e3033dec 	movw	r3, #15852	; 0x3dec
  100488:	e3400010 	movt	r0, #16
  10048c:	e3403010 	movt	r3, #16
  100490:	e0603003 	rsb	r3, r0, r3
  100494:	e1a03143 	asr	r3, r3, #2
  100498:	e0833fa3 	add	r3, r3, r3, lsr #31
  10049c:	e1b010c3 	asrs	r1, r3, #1
  1004a0:	08bd8008 	popeq	{r3, pc}
  1004a4:	e3002000 	movw	r2, #0
  1004a8:	e3402000 	movt	r2, #0
  1004ac:	e3520000 	cmp	r2, #0
  1004b0:	08bd8008 	popeq	{r3, pc}
  1004b4:	e12fff32 	blx	r2
  1004b8:	e8bd8008 	pop	{r3, pc}

001004bc <__do_global_dtors_aux>:
  1004bc:	e92d4010 	push	{r4, lr}
  1004c0:	e308400c 	movw	r4, #32780	; 0x800c
  1004c4:	e3404010 	movt	r4, #16
  1004c8:	e5d43000 	ldrb	r3, [r4]
  1004cc:	e3530000 	cmp	r3, #0
  1004d0:	18bd8010 	popne	{r4, pc}
  1004d4:	ebffffda 	bl	100444 <deregister_tm_clones>
  1004d8:	e3003000 	movw	r3, #0
  1004dc:	e3403000 	movt	r3, #0
  1004e0:	e3530000 	cmp	r3, #0
  1004e4:	0a000002 	beq	1004f4 <__do_global_dtors_aux+0x38>
  1004e8:	e3030dec 	movw	r0, #15852	; 0x3dec
  1004ec:	e3400010 	movt	r0, #16
  1004f0:	e320f000 	nop	{0}
  1004f4:	e3a03001 	mov	r3, #1
  1004f8:	e5c43000 	strb	r3, [r4]
  1004fc:	e8bd8010 	pop	{r4, pc}

00100500 <frame_dummy>:
  100500:	e92d4008 	push	{r3, lr}
  100504:	e3003000 	movw	r3, #0
  100508:	e3403000 	movt	r3, #0
  10050c:	e3530000 	cmp	r3, #0
  100510:	0a000004 	beq	100528 <frame_dummy+0x28>
  100514:	e3030dec 	movw	r0, #15852	; 0x3dec
  100518:	e3081010 	movw	r1, #32784	; 0x8010
  10051c:	e3400010 	movt	r0, #16
  100520:	e3401010 	movt	r1, #16
  100524:	e320f000 	nop	{0}
  100528:	e3030de8 	movw	r0, #15848	; 0x3de8
  10052c:	e3400010 	movt	r0, #16
  100530:	e5903000 	ldr	r3, [r0]
  100534:	e3530000 	cmp	r3, #0
  100538:	0a000004 	beq	100550 <frame_dummy+0x50>
  10053c:	e3003000 	movw	r3, #0
  100540:	e3403000 	movt	r3, #0
  100544:	e3530000 	cmp	r3, #0
  100548:	0a000000 	beq	100550 <frame_dummy+0x50>
  10054c:	e12fff33 	blx	r3
  100550:	e8bd4008 	pop	{r3, lr}
  100554:	eaffffc8 	b	10047c <register_tm_clones>

00100558 <aes_main>:
  100558:	e92d4070 	push	{r4, r5, r6, lr}
  10055c:	e1a04001 	mov	r4, r1
  100560:	e1a06002 	mov	r6, r2
  100564:	e1a01002 	mov	r1, r2
  100568:	e1a05000 	mov	r5, r0
  10056c:	e30f2480 	movw	r2, #62592	; 0xf480
  100570:	e1a00004 	mov	r0, r4
  100574:	e3402001 	movt	r2, #1
  100578:	eb00009d 	bl	1007f4 <encrypt>
  10057c:	e3a03000 	mov	r3, #0
  100580:	e794c003 	ldr	ip, [r4, r3]
  100584:	e785c003 	str	ip, [r5, r3]
  100588:	e2833004 	add	r3, r3, #4
  10058c:	e3530040 	cmp	r3, #64	; 0x40
  100590:	1afffffa 	bne	100580 <aes_main+0x28>
  100594:	e1a01006 	mov	r1, r6
  100598:	e30f2480 	movw	r2, #62592	; 0xf480
  10059c:	e1a00004 	mov	r0, r4
  1005a0:	e3402001 	movt	r2, #1
  1005a4:	eb000008 	bl	1005cc <decrypt>
  1005a8:	e285203c 	add	r2, r5, #60	; 0x3c
  1005ac:	e3a03000 	mov	r3, #0
  1005b0:	e7941003 	ldr	r1, [r4, r3]
  1005b4:	e2833004 	add	r3, r3, #4
  1005b8:	e3530040 	cmp	r3, #64	; 0x40
  1005bc:	e5a21004 	str	r1, [r2, #4]!
  1005c0:	1afffffa 	bne	1005b0 <aes_main+0x58>
  1005c4:	e3a00000 	mov	r0, #0
  1005c8:	e8bd8070 	pop	{r4, r5, r6, pc}

001005cc <decrypt>:
  1005cc:	e92d40f8 	push	{r3, r4, r5, r6, r7, lr}
  1005d0:	e1a06000 	mov	r6, r0
  1005d4:	e1a00002 	mov	r0, r2
  1005d8:	e1a07002 	mov	r7, r2
  1005dc:	eb000498 	bl	101844 <KeySchedule>
  1005e0:	e30e3ec0 	movw	r3, #61120	; 0xeec0
  1005e4:	e3403002 	movt	r3, #2
  1005e8:	e1570003 	cmp	r7, r3
  1005ec:	0a000077 	beq	1007d0 <decrypt+0x204>
  1005f0:	da000016 	ble	100650 <decrypt+0x84>
  1005f4:	e30e3880 	movw	r3, #59520	; 0xe880
  1005f8:	e3403003 	movt	r3, #3
  1005fc:	e1570003 	cmp	r7, r3
  100600:	0a000040 	beq	100708 <decrypt+0x13c>
  100604:	da000051 	ble	100750 <decrypt+0x184>
  100608:	e30e38c0 	movw	r3, #59584	; 0xe8c0
  10060c:	e3403003 	movt	r3, #3
  100610:	e1570003 	cmp	r7, r3
  100614:	0a000044 	beq	10072c <decrypt+0x160>
  100618:	e3a03ce9 	mov	r3, #59648	; 0xe900
  10061c:	e3403003 	movt	r3, #3
  100620:	e1570003 	cmp	r7, r3
  100624:	1a000063 	bne	1007b8 <decrypt+0x1ec>
  100628:	e308402c 	movw	r4, #32812	; 0x802c
  10062c:	e3085030 	movw	r5, #32816	; 0x8030
  100630:	e3404010 	movt	r4, #16
  100634:	e3405010 	movt	r5, #16
  100638:	e3a0300e 	mov	r3, #14
  10063c:	e1a02003 	mov	r2, r3
  100640:	e5843000 	str	r3, [r4]
  100644:	e3a03008 	mov	r3, #8
  100648:	e5853000 	str	r3, [r5]
  10064c:	ea000014 	b	1006a4 <decrypt+0xd8>
  100650:	e30f34c0 	movw	r3, #62656	; 0xf4c0
  100654:	e3403001 	movt	r3, #1
  100658:	e1570003 	cmp	r7, r3
  10065c:	0a00005b 	beq	1007d0 <decrypt+0x204>
  100660:	da000047 	ble	100784 <decrypt+0x1b8>
  100664:	e3a03cf5 	mov	r3, #62720	; 0xf500
  100668:	e3403001 	movt	r3, #1
  10066c:	e1570003 	cmp	r7, r3
  100670:	0a00003a 	beq	100760 <decrypt+0x194>
  100674:	e30e3e80 	movw	r3, #61056	; 0xee80
  100678:	e3403002 	movt	r3, #2
  10067c:	e1570003 	cmp	r7, r3
  100680:	1a00004c 	bne	1007b8 <decrypt+0x1ec>
  100684:	e308402c 	movw	r4, #32812	; 0x802c
  100688:	e3085030 	movw	r5, #32816	; 0x8030
  10068c:	e3404010 	movt	r4, #16
  100690:	e3405010 	movt	r5, #16
  100694:	e3a0200c 	mov	r2, #12
  100698:	e3a03004 	mov	r3, #4
  10069c:	e5842000 	str	r2, [r4]
  1006a0:	e5853000 	str	r3, [r5]
  1006a4:	e1a01007 	mov	r1, r7
  1006a8:	e1a00006 	mov	r0, r6
  1006ac:	eb000418 	bl	101714 <AddRoundKey>
  1006b0:	e1a00006 	mov	r0, r6
  1006b4:	e5951000 	ldr	r1, [r5]
  1006b8:	eb0001c7 	bl	100ddc <InversShiftRow_ByteSub>
  1006bc:	e5944000 	ldr	r4, [r4]
  1006c0:	e2444001 	sub	r4, r4, #1
  1006c4:	e3540000 	cmp	r4, #0
  1006c8:	da000008 	ble	1006f0 <decrypt+0x124>
  1006cc:	e1a02004 	mov	r2, r4
  1006d0:	e5951000 	ldr	r1, [r5]
  1006d4:	e1a00006 	mov	r0, r6
  1006d8:	eb00036d 	bl	101494 <AddRoundKey_InversMixColumn>
  1006dc:	e1a00006 	mov	r0, r6
  1006e0:	e5951000 	ldr	r1, [r5]
  1006e4:	eb0001bc 	bl	100ddc <InversShiftRow_ByteSub>
  1006e8:	e2544001 	subs	r4, r4, #1
  1006ec:	1afffff6 	bne	1006cc <decrypt+0x100>
  1006f0:	e1a00006 	mov	r0, r6
  1006f4:	e1a01007 	mov	r1, r7
  1006f8:	e3a02000 	mov	r2, #0
  1006fc:	eb000404 	bl	101714 <AddRoundKey>
  100700:	e3a00000 	mov	r0, #0
  100704:	e8bd80f8 	pop	{r3, r4, r5, r6, r7, pc}
  100708:	e308402c 	movw	r4, #32812	; 0x802c
  10070c:	e3085030 	movw	r5, #32816	; 0x8030
  100710:	e3404010 	movt	r4, #16
  100714:	e3405010 	movt	r5, #16
  100718:	e3a0200e 	mov	r2, #14
  10071c:	e3a03004 	mov	r3, #4
  100720:	e5842000 	str	r2, [r4]
  100724:	e5853000 	str	r3, [r5]
  100728:	eaffffdd 	b	1006a4 <decrypt+0xd8>
  10072c:	e308402c 	movw	r4, #32812	; 0x802c
  100730:	e3085030 	movw	r5, #32816	; 0x8030
  100734:	e3404010 	movt	r4, #16
  100738:	e3405010 	movt	r5, #16
  10073c:	e3a0200e 	mov	r2, #14
  100740:	e3a03006 	mov	r3, #6
  100744:	e5842000 	str	r2, [r4]
  100748:	e5853000 	str	r3, [r5]
  10074c:	eaffffd4 	b	1006a4 <decrypt+0xd8>
  100750:	e3a03cef 	mov	r3, #61184	; 0xef00
  100754:	e3403002 	movt	r3, #2
  100758:	e1570003 	cmp	r7, r3
  10075c:	1a000015 	bne	1007b8 <decrypt+0x1ec>
  100760:	e308402c 	movw	r4, #32812	; 0x802c
  100764:	e3085030 	movw	r5, #32816	; 0x8030
  100768:	e3404010 	movt	r4, #16
  10076c:	e3405010 	movt	r5, #16
  100770:	e3a0200e 	mov	r2, #14
  100774:	e3a03008 	mov	r3, #8
  100778:	e5842000 	str	r2, [r4]
  10077c:	e5853000 	str	r3, [r5]
  100780:	eaffffc7 	b	1006a4 <decrypt+0xd8>
  100784:	e30f3480 	movw	r3, #62592	; 0xf480
  100788:	e3403001 	movt	r3, #1
  10078c:	e1570003 	cmp	r7, r3
  100790:	1a000008 	bne	1007b8 <decrypt+0x1ec>
  100794:	e308402c 	movw	r4, #32812	; 0x802c
  100798:	e3085030 	movw	r5, #32816	; 0x8030
  10079c:	e3404010 	movt	r4, #16
  1007a0:	e3405010 	movt	r5, #16
  1007a4:	e3a0200a 	mov	r2, #10
  1007a8:	e3a03004 	mov	r3, #4
  1007ac:	e5842000 	str	r2, [r4]
  1007b0:	e5853000 	str	r3, [r5]
  1007b4:	eaffffba 	b	1006a4 <decrypt+0xd8>
  1007b8:	e308402c 	movw	r4, #32812	; 0x802c
  1007bc:	e3404010 	movt	r4, #16
  1007c0:	e3085030 	movw	r5, #32816	; 0x8030
  1007c4:	e3405010 	movt	r5, #16
  1007c8:	e5942000 	ldr	r2, [r4]
  1007cc:	eaffffb4 	b	1006a4 <decrypt+0xd8>
  1007d0:	e308402c 	movw	r4, #32812	; 0x802c
  1007d4:	e3085030 	movw	r5, #32816	; 0x8030
  1007d8:	e3404010 	movt	r4, #16
  1007dc:	e3405010 	movt	r5, #16
  1007e0:	e3a0200c 	mov	r2, #12
  1007e4:	e3a03006 	mov	r3, #6
  1007e8:	e5842000 	str	r2, [r4]
  1007ec:	e5853000 	str	r3, [r5]
  1007f0:	eaffffab 	b	1006a4 <decrypt+0xd8>

001007f4 <encrypt>:
  1007f4:	e92d41f0 	push	{r4, r5, r6, r7, r8, lr}
  1007f8:	e1a06000 	mov	r6, r0
  1007fc:	e1a00002 	mov	r0, r2
  100800:	e1a08002 	mov	r8, r2
  100804:	eb00040e 	bl	101844 <KeySchedule>
  100808:	e30e3ec0 	movw	r3, #61120	; 0xeec0
  10080c:	e3403002 	movt	r3, #2
  100810:	e1580003 	cmp	r8, r3
  100814:	0a000065 	beq	1009b0 <encrypt+0x1bc>
  100818:	ca000030 	bgt	1008e0 <encrypt+0xec>
  10081c:	e30f34c0 	movw	r3, #62656	; 0xf4c0
  100820:	e3403001 	movt	r3, #1
  100824:	e1580003 	cmp	r8, r3
  100828:	0a000060 	beq	1009b0 <encrypt+0x1bc>
  10082c:	da000053 	ble	100980 <encrypt+0x18c>
  100830:	e3a03cf5 	mov	r3, #62720	; 0xf500
  100834:	e3403001 	movt	r3, #1
  100838:	e1580003 	cmp	r8, r3
  10083c:	0a00003d 	beq	100938 <encrypt+0x144>
  100840:	e30e3e80 	movw	r3, #61056	; 0xee80
  100844:	e3403002 	movt	r3, #2
  100848:	e1580003 	cmp	r8, r3
  10084c:	e308702c 	movw	r7, #32812	; 0x802c
  100850:	e3085030 	movw	r5, #32816	; 0x8030
  100854:	e3407010 	movt	r7, #16
  100858:	e3405010 	movt	r5, #16
  10085c:	03a02002 	moveq	r2, #2
  100860:	03a03004 	moveq	r3, #4
  100864:	05872000 	streq	r2, [r7]
  100868:	05853000 	streq	r3, [r5]
  10086c:	e1a00006 	mov	r0, r6
  100870:	e1a01008 	mov	r1, r8
  100874:	e3a02000 	mov	r2, #0
  100878:	e3a04001 	mov	r4, #1
  10087c:	eb0003a4 	bl	101714 <AddRoundKey>
  100880:	e5973000 	ldr	r3, [r7]
  100884:	e3730008 	cmn	r3, #8
  100888:	ba00000b 	blt	1008bc <encrypt+0xc8>
  10088c:	e1a00006 	mov	r0, r6
  100890:	e5951000 	ldr	r1, [r5]
  100894:	eb000056 	bl	1009f4 <ByteSub_ShiftRow>
  100898:	e1a02004 	mov	r2, r4
  10089c:	e1a00006 	mov	r0, r6
  1008a0:	e5951000 	ldr	r1, [r5]
  1008a4:	eb000281 	bl	1012b0 <MixColumn_AddRoundKey>
  1008a8:	e5973000 	ldr	r3, [r7]
  1008ac:	e2844001 	add	r4, r4, #1
  1008b0:	e2833009 	add	r3, r3, #9
  1008b4:	e1530004 	cmp	r3, r4
  1008b8:	aafffff3 	bge	10088c <encrypt+0x98>
  1008bc:	e5951000 	ldr	r1, [r5]
  1008c0:	e1a00006 	mov	r0, r6
  1008c4:	eb00004a 	bl	1009f4 <ByteSub_ShiftRow>
  1008c8:	e1a00006 	mov	r0, r6
  1008cc:	e1a01008 	mov	r1, r8
  1008d0:	e1a02004 	mov	r2, r4
  1008d4:	eb00038e 	bl	101714 <AddRoundKey>
  1008d8:	e3a00000 	mov	r0, #0
  1008dc:	e8bd81f0 	pop	{r4, r5, r6, r7, r8, pc}
  1008e0:	e30e3880 	movw	r3, #59520	; 0xe880
  1008e4:	e3403003 	movt	r3, #3
  1008e8:	e1580003 	cmp	r8, r3
  1008ec:	0a000038 	beq	1009d4 <encrypt+0x1e0>
  1008f0:	da000019 	ble	10095c <encrypt+0x168>
  1008f4:	e30e38c0 	movw	r3, #59584	; 0xe8c0
  1008f8:	e3403003 	movt	r3, #3
  1008fc:	e1580003 	cmp	r8, r3
  100900:	1a000008 	bne	100928 <encrypt+0x134>
  100904:	e308702c 	movw	r7, #32812	; 0x802c
  100908:	e3085030 	movw	r5, #32816	; 0x8030
  10090c:	e3407010 	movt	r7, #16
  100910:	e3405010 	movt	r5, #16
  100914:	e3a02004 	mov	r2, #4
  100918:	e3a03006 	mov	r3, #6
  10091c:	e5872000 	str	r2, [r7]
  100920:	e5853000 	str	r3, [r5]
  100924:	eaffffd0 	b	10086c <encrypt+0x78>
  100928:	e3a03ce9 	mov	r3, #59648	; 0xe900
  10092c:	e3403003 	movt	r3, #3
  100930:	e1580003 	cmp	r8, r3
  100934:	1a00000c 	bne	10096c <encrypt+0x178>
  100938:	e308702c 	movw	r7, #32812	; 0x802c
  10093c:	e3085030 	movw	r5, #32816	; 0x8030
  100940:	e3407010 	movt	r7, #16
  100944:	e3405010 	movt	r5, #16
  100948:	e3a02004 	mov	r2, #4
  10094c:	e3a03008 	mov	r3, #8
  100950:	e5872000 	str	r2, [r7]
  100954:	e5853000 	str	r3, [r5]
  100958:	eaffffc3 	b	10086c <encrypt+0x78>
  10095c:	e3a03cef 	mov	r3, #61184	; 0xef00
  100960:	e3403002 	movt	r3, #2
  100964:	e1580003 	cmp	r8, r3
  100968:	0afffff2 	beq	100938 <encrypt+0x144>
  10096c:	e308702c 	movw	r7, #32812	; 0x802c
  100970:	e3085030 	movw	r5, #32816	; 0x8030
  100974:	e3407010 	movt	r7, #16
  100978:	e3405010 	movt	r5, #16
  10097c:	eaffffba 	b	10086c <encrypt+0x78>
  100980:	e30f3480 	movw	r3, #62592	; 0xf480
  100984:	e3403001 	movt	r3, #1
  100988:	e1580003 	cmp	r8, r3
  10098c:	e308702c 	movw	r7, #32812	; 0x802c
  100990:	e3085030 	movw	r5, #32816	; 0x8030
  100994:	e3407010 	movt	r7, #16
  100998:	e3405010 	movt	r5, #16
  10099c:	03a02000 	moveq	r2, #0
  1009a0:	03a03004 	moveq	r3, #4
  1009a4:	05872000 	streq	r2, [r7]
  1009a8:	05853000 	streq	r3, [r5]
  1009ac:	eaffffae 	b	10086c <encrypt+0x78>
  1009b0:	e308702c 	movw	r7, #32812	; 0x802c
  1009b4:	e3085030 	movw	r5, #32816	; 0x8030
  1009b8:	e3407010 	movt	r7, #16
  1009bc:	e3405010 	movt	r5, #16
  1009c0:	e3a02002 	mov	r2, #2
  1009c4:	e3a03006 	mov	r3, #6
  1009c8:	e5872000 	str	r2, [r7]
  1009cc:	e5853000 	str	r3, [r5]
  1009d0:	eaffffa5 	b	10086c <encrypt+0x78>
  1009d4:	e308702c 	movw	r7, #32812	; 0x802c
  1009d8:	e3085030 	movw	r5, #32816	; 0x8030
  1009dc:	e3407010 	movt	r7, #16
  1009e0:	e3405010 	movt	r5, #16
  1009e4:	e3a03004 	mov	r3, #4
  1009e8:	e5873000 	str	r3, [r7]
  1009ec:	e5853000 	str	r3, [r5]
  1009f0:	eaffff9d 	b	10086c <encrypt+0x78>

001009f4 <ByteSub_ShiftRow>:
  1009f4:	e3510006 	cmp	r1, #6
  1009f8:	e92d0ff0 	push	{r4, r5, r6, r7, r8, r9, sl, fp}
  1009fc:	0a00009c 	beq	100c74 <ByteSub_ShiftRow+0x280>
  100a00:	e3510008 	cmp	r1, #8
  100a04:	0a000037 	beq	100ae8 <ByteSub_ShiftRow+0xf4>
  100a08:	e3510004 	cmp	r1, #4
  100a0c:	0a000001 	beq	100a18 <ByteSub_ShiftRow+0x24>
  100a10:	e8bd0ff0 	pop	{r4, r5, r6, r7, r8, r9, sl, fp}
  100a14:	e12fff1e 	bx	lr
  100a18:	e590101c 	ldr	r1, [r0, #28]
  100a1c:	e30330f8 	movw	r3, #12536	; 0x30f8
  100a20:	e3403010 	movt	r3, #16
  100a24:	e590b004 	ldr	fp, [r0, #4]
  100a28:	e590a034 	ldr	sl, [r0, #52]	; 0x34
  100a2c:	e7931101 	ldr	r1, [r3, r1, lsl #2]
  100a30:	e5909024 	ldr	r9, [r0, #36]	; 0x24
  100a34:	e5908014 	ldr	r8, [r0, #20]
  100a38:	e5907008 	ldr	r7, [r0, #8]
  100a3c:	e5906028 	ldr	r6, [r0, #40]	; 0x28
  100a40:	e5905018 	ldr	r5, [r0, #24]
  100a44:	e5904038 	ldr	r4, [r0, #56]	; 0x38
  100a48:	e590202c 	ldr	r2, [r0, #44]	; 0x2c
  100a4c:	e590c03c 	ldr	ip, [r0, #60]	; 0x3c
  100a50:	e793b10b 	ldr	fp, [r3, fp, lsl #2]
  100a54:	e793a10a 	ldr	sl, [r3, sl, lsl #2]
  100a58:	e7939109 	ldr	r9, [r3, r9, lsl #2]
  100a5c:	e7938108 	ldr	r8, [r3, r8, lsl #2]
  100a60:	e7937107 	ldr	r7, [r3, r7, lsl #2]
  100a64:	e7936106 	ldr	r6, [r3, r6, lsl #2]
  100a68:	e7935105 	ldr	r5, [r3, r5, lsl #2]
  100a6c:	e7934104 	ldr	r4, [r3, r4, lsl #2]
  100a70:	e793c10c 	ldr	ip, [r3, ip, lsl #2]
  100a74:	e7932102 	ldr	r2, [r3, r2, lsl #2]
  100a78:	e580102c 	str	r1, [r0, #44]	; 0x2c
  100a7c:	e590100c 	ldr	r1, [r0, #12]
  100a80:	e580b034 	str	fp, [r0, #52]	; 0x34
  100a84:	e580a024 	str	sl, [r0, #36]	; 0x24
  100a88:	e5809014 	str	r9, [r0, #20]
  100a8c:	e5808004 	str	r8, [r0, #4]
  100a90:	e5807028 	str	r7, [r0, #40]	; 0x28
  100a94:	e5806008 	str	r6, [r0, #8]
  100a98:	e5805038 	str	r5, [r0, #56]	; 0x38
  100a9c:	e5804018 	str	r4, [r0, #24]
  100aa0:	e580c00c 	str	ip, [r0, #12]
  100aa4:	e7934101 	ldr	r4, [r3, r1, lsl #2]
  100aa8:	e580203c 	str	r2, [r0, #60]	; 0x3c
  100aac:	e5905030 	ldr	r5, [r0, #48]	; 0x30
  100ab0:	e590c000 	ldr	ip, [r0]
  100ab4:	e5901010 	ldr	r1, [r0, #16]
  100ab8:	e5902020 	ldr	r2, [r0, #32]
  100abc:	e793c10c 	ldr	ip, [r3, ip, lsl #2]
  100ac0:	e7931101 	ldr	r1, [r3, r1, lsl #2]
  100ac4:	e7932102 	ldr	r2, [r3, r2, lsl #2]
  100ac8:	e7933105 	ldr	r3, [r3, r5, lsl #2]
  100acc:	e580401c 	str	r4, [r0, #28]
  100ad0:	e580c000 	str	ip, [r0]
  100ad4:	e5801010 	str	r1, [r0, #16]
  100ad8:	e5802020 	str	r2, [r0, #32]
  100adc:	e5803030 	str	r3, [r0, #48]	; 0x30
  100ae0:	e8bd0ff0 	pop	{r4, r5, r6, r7, r8, r9, sl, fp}
  100ae4:	e12fff1e 	bx	lr
  100ae8:	e5901018 	ldr	r1, [r0, #24]
  100aec:	e30330f8 	movw	r3, #12536	; 0x30f8
  100af0:	e3403010 	movt	r3, #16
  100af4:	e590b004 	ldr	fp, [r0, #4]
  100af8:	e590a074 	ldr	sl, [r0, #116]	; 0x74
  100afc:	e7931101 	ldr	r1, [r3, r1, lsl #2]
  100b00:	e5909064 	ldr	r9, [r0, #100]	; 0x64
  100b04:	e5908054 	ldr	r8, [r0, #84]	; 0x54
  100b08:	e5907044 	ldr	r7, [r0, #68]	; 0x44
  100b0c:	e5906034 	ldr	r6, [r0, #52]	; 0x34
  100b10:	e5905024 	ldr	r5, [r0, #36]	; 0x24
  100b14:	e5904014 	ldr	r4, [r0, #20]
  100b18:	e5902068 	ldr	r2, [r0, #104]	; 0x68
  100b1c:	e590c038 	ldr	ip, [r0, #56]	; 0x38
  100b20:	e793b10b 	ldr	fp, [r3, fp, lsl #2]
  100b24:	e793a10a 	ldr	sl, [r3, sl, lsl #2]
  100b28:	e7939109 	ldr	r9, [r3, r9, lsl #2]
  100b2c:	e7938108 	ldr	r8, [r3, r8, lsl #2]
  100b30:	e7937107 	ldr	r7, [r3, r7, lsl #2]
  100b34:	e7936106 	ldr	r6, [r3, r6, lsl #2]
  100b38:	e7935105 	ldr	r5, [r3, r5, lsl #2]
  100b3c:	e7934104 	ldr	r4, [r3, r4, lsl #2]
  100b40:	e793c10c 	ldr	ip, [r3, ip, lsl #2]
  100b44:	e7932102 	ldr	r2, [r3, r2, lsl #2]
  100b48:	e5801068 	str	r1, [r0, #104]	; 0x68
  100b4c:	e5901008 	ldr	r1, [r0, #8]
  100b50:	e580b074 	str	fp, [r0, #116]	; 0x74
  100b54:	e9801010 	stmib	r0, {r4, ip}
  100b58:	e580a064 	str	sl, [r0, #100]	; 0x64
  100b5c:	e7934101 	ldr	r4, [r3, r1, lsl #2]
  100b60:	e5809054 	str	r9, [r0, #84]	; 0x54
  100b64:	e5808044 	str	r8, [r0, #68]	; 0x44
  100b68:	e5807034 	str	r7, [r0, #52]	; 0x34
  100b6c:	e5806024 	str	r6, [r0, #36]	; 0x24
  100b70:	e5805014 	str	r5, [r0, #20]
  100b74:	e5802038 	str	r2, [r0, #56]	; 0x38
  100b78:	e590b048 	ldr	fp, [r0, #72]	; 0x48
  100b7c:	e590506c 	ldr	r5, [r0, #108]	; 0x6c
  100b80:	e590c058 	ldr	ip, [r0, #88]	; 0x58
  100b84:	e793b10b 	ldr	fp, [r3, fp, lsl #2]
  100b88:	e7935105 	ldr	r5, [r3, r5, lsl #2]
  100b8c:	e5901028 	ldr	r1, [r0, #40]	; 0x28
  100b90:	e580b018 	str	fp, [r0, #24]
  100b94:	e590b02c 	ldr	fp, [r0, #44]	; 0x2c
  100b98:	e5902078 	ldr	r2, [r0, #120]	; 0x78
  100b9c:	e590a00c 	ldr	sl, [r0, #12]
  100ba0:	e793610b 	ldr	r6, [r3, fp, lsl #2]
  100ba4:	e590904c 	ldr	r9, [r0, #76]	; 0x4c
  100ba8:	e590801c 	ldr	r8, [r0, #28]
  100bac:	e590705c 	ldr	r7, [r0, #92]	; 0x5c
  100bb0:	e590b07c 	ldr	fp, [r0, #124]	; 0x7c
  100bb4:	e793c10c 	ldr	ip, [r3, ip, lsl #2]
  100bb8:	e7931101 	ldr	r1, [r3, r1, lsl #2]
  100bbc:	e7932102 	ldr	r2, [r3, r2, lsl #2]
  100bc0:	e793a10a 	ldr	sl, [r3, sl, lsl #2]
  100bc4:	e7939109 	ldr	r9, [r3, r9, lsl #2]
  100bc8:	e7938108 	ldr	r8, [r3, r8, lsl #2]
  100bcc:	e7937107 	ldr	r7, [r3, r7, lsl #2]
  100bd0:	e580502c 	str	r5, [r0, #44]	; 0x2c
  100bd4:	e5804058 	str	r4, [r0, #88]	; 0x58
  100bd8:	e793510b 	ldr	r5, [r3, fp, lsl #2]
  100bdc:	e590403c 	ldr	r4, [r0, #60]	; 0x3c
  100be0:	e580c028 	str	ip, [r0, #40]	; 0x28
  100be4:	e5801078 	str	r1, [r0, #120]	; 0x78
  100be8:	e5802048 	str	r2, [r0, #72]	; 0x48
  100bec:	e580a04c 	str	sl, [r0, #76]	; 0x4c
  100bf0:	e580900c 	str	r9, [r0, #12]
  100bf4:	e580805c 	str	r8, [r0, #92]	; 0x5c
  100bf8:	e580701c 	str	r7, [r0, #28]
  100bfc:	e580606c 	str	r6, [r0, #108]	; 0x6c
  100c00:	e7938104 	ldr	r8, [r3, r4, lsl #2]
  100c04:	e5909070 	ldr	r9, [r0, #112]	; 0x70
  100c08:	e5907000 	ldr	r7, [r0]
  100c0c:	e5906010 	ldr	r6, [r0, #16]
  100c10:	e5904030 	ldr	r4, [r0, #48]	; 0x30
  100c14:	e590c040 	ldr	ip, [r0, #64]	; 0x40
  100c18:	e5901050 	ldr	r1, [r0, #80]	; 0x50
  100c1c:	e5902060 	ldr	r2, [r0, #96]	; 0x60
  100c20:	e580503c 	str	r5, [r0, #60]	; 0x3c
  100c24:	e5905020 	ldr	r5, [r0, #32]
  100c28:	e7937107 	ldr	r7, [r3, r7, lsl #2]
  100c2c:	e7936106 	ldr	r6, [r3, r6, lsl #2]
  100c30:	e7935105 	ldr	r5, [r3, r5, lsl #2]
  100c34:	e7934104 	ldr	r4, [r3, r4, lsl #2]
  100c38:	e793c10c 	ldr	ip, [r3, ip, lsl #2]
  100c3c:	e7931101 	ldr	r1, [r3, r1, lsl #2]
  100c40:	e7932102 	ldr	r2, [r3, r2, lsl #2]
  100c44:	e7933109 	ldr	r3, [r3, r9, lsl #2]
  100c48:	e580807c 	str	r8, [r0, #124]	; 0x7c
  100c4c:	e5807000 	str	r7, [r0]
  100c50:	e5806010 	str	r6, [r0, #16]
  100c54:	e5805020 	str	r5, [r0, #32]
  100c58:	e5804030 	str	r4, [r0, #48]	; 0x30
  100c5c:	e580c040 	str	ip, [r0, #64]	; 0x40
  100c60:	e5801050 	str	r1, [r0, #80]	; 0x50
  100c64:	e5802060 	str	r2, [r0, #96]	; 0x60
  100c68:	e5803070 	str	r3, [r0, #112]	; 0x70
  100c6c:	e8bd0ff0 	pop	{r4, r5, r6, r7, r8, r9, sl, fp}
  100c70:	e12fff1e 	bx	lr
  100c74:	e5902058 	ldr	r2, [r0, #88]	; 0x58
  100c78:	e30330f8 	movw	r3, #12536	; 0x30f8
  100c7c:	e3403010 	movt	r3, #16
  100c80:	e590b004 	ldr	fp, [r0, #4]
  100c84:	e590a054 	ldr	sl, [r0, #84]	; 0x54
  100c88:	e7932102 	ldr	r2, [r3, r2, lsl #2]
  100c8c:	e5909044 	ldr	r9, [r0, #68]	; 0x44
  100c90:	e5908034 	ldr	r8, [r0, #52]	; 0x34
  100c94:	e5907024 	ldr	r7, [r0, #36]	; 0x24
  100c98:	e5906014 	ldr	r6, [r0, #20]
  100c9c:	e5905008 	ldr	r5, [r0, #8]
  100ca0:	e5904048 	ldr	r4, [r0, #72]	; 0x48
  100ca4:	e590c028 	ldr	ip, [r0, #40]	; 0x28
  100ca8:	e5901038 	ldr	r1, [r0, #56]	; 0x38
  100cac:	e793b10b 	ldr	fp, [r3, fp, lsl #2]
  100cb0:	e793a10a 	ldr	sl, [r3, sl, lsl #2]
  100cb4:	e7939109 	ldr	r9, [r3, r9, lsl #2]
  100cb8:	e7938108 	ldr	r8, [r3, r8, lsl #2]
  100cbc:	e7937107 	ldr	r7, [r3, r7, lsl #2]
  100cc0:	e7936106 	ldr	r6, [r3, r6, lsl #2]
  100cc4:	e7935105 	ldr	r5, [r3, r5, lsl #2]
  100cc8:	e7934104 	ldr	r4, [r3, r4, lsl #2]
  100ccc:	e793c10c 	ldr	ip, [r3, ip, lsl #2]
  100cd0:	e7931101 	ldr	r1, [r3, r1, lsl #2]
  100cd4:	e5802038 	str	r2, [r0, #56]	; 0x38
  100cd8:	e5902018 	ldr	r2, [r0, #24]
  100cdc:	e580b054 	str	fp, [r0, #84]	; 0x54
  100ce0:	e580a044 	str	sl, [r0, #68]	; 0x44
  100ce4:	e5809034 	str	r9, [r0, #52]	; 0x34
  100ce8:	e5808024 	str	r8, [r0, #36]	; 0x24
  100cec:	e5807014 	str	r7, [r0, #20]
  100cf0:	e5806004 	str	r6, [r0, #4]
  100cf4:	e5805048 	str	r5, [r0, #72]	; 0x48
  100cf8:	e5804028 	str	r4, [r0, #40]	; 0x28
  100cfc:	e580c008 	str	ip, [r0, #8]
  100d00:	e5801018 	str	r1, [r0, #24]
  100d04:	e7932102 	ldr	r2, [r3, r2, lsl #2]
  100d08:	e590b03c 	ldr	fp, [r0, #60]	; 0x3c
  100d0c:	e590a01c 	ldr	sl, [r0, #28]
  100d10:	e590904c 	ldr	r9, [r0, #76]	; 0x4c
  100d14:	e590802c 	ldr	r8, [r0, #44]	; 0x2c
  100d18:	e590705c 	ldr	r7, [r0, #92]	; 0x5c
  100d1c:	e5906000 	ldr	r6, [r0]
  100d20:	e5905010 	ldr	r5, [r0, #16]
  100d24:	e5904020 	ldr	r4, [r0, #32]
  100d28:	e5802058 	str	r2, [r0, #88]	; 0x58
  100d2c:	e590c030 	ldr	ip, [r0, #48]	; 0x30
  100d30:	e590200c 	ldr	r2, [r0, #12]
  100d34:	e793b10b 	ldr	fp, [r3, fp, lsl #2]
  100d38:	e793a10a 	ldr	sl, [r3, sl, lsl #2]
  100d3c:	e7932102 	ldr	r2, [r3, r2, lsl #2]
  100d40:	e7939109 	ldr	r9, [r3, r9, lsl #2]
  100d44:	e7938108 	ldr	r8, [r3, r8, lsl #2]
  100d48:	e7937107 	ldr	r7, [r3, r7, lsl #2]
  100d4c:	e7936106 	ldr	r6, [r3, r6, lsl #2]
  100d50:	e7935105 	ldr	r5, [r3, r5, lsl #2]
  100d54:	e7934104 	ldr	r4, [r3, r4, lsl #2]
  100d58:	e5901040 	ldr	r1, [r0, #64]	; 0x40
  100d5c:	e793c10c 	ldr	ip, [r3, ip, lsl #2]
  100d60:	e580b00c 	str	fp, [r0, #12]
  100d64:	e7931101 	ldr	r1, [r3, r1, lsl #2]
  100d68:	e580203c 	str	r2, [r0, #60]	; 0x3c
  100d6c:	e580a04c 	str	sl, [r0, #76]	; 0x4c
  100d70:	e580901c 	str	r9, [r0, #28]
  100d74:	e580805c 	str	r8, [r0, #92]	; 0x5c
  100d78:	e580702c 	str	r7, [r0, #44]	; 0x2c
  100d7c:	e5806000 	str	r6, [r0]
  100d80:	e5805010 	str	r5, [r0, #16]
  100d84:	e5804020 	str	r4, [r0, #32]
  100d88:	e580c030 	str	ip, [r0, #48]	; 0x30
  100d8c:	e5902050 	ldr	r2, [r0, #80]	; 0x50
  100d90:	e5801040 	str	r1, [r0, #64]	; 0x40
  100d94:	e8bd0ff0 	pop	{r4, r5, r6, r7, r8, r9, sl, fp}
  100d98:	e7933102 	ldr	r3, [r3, r2, lsl #2]
  100d9c:	e5803050 	str	r3, [r0, #80]	; 0x50
  100da0:	e12fff1e 	bx	lr

00100da4 <SubByte>:
  100da4:	e1a02fc0 	asr	r2, r0, #31
  100da8:	e3500000 	cmp	r0, #0
  100dac:	e280100f 	add	r1, r0, #15
  100db0:	e30330f8 	movw	r3, #12536	; 0x30f8
  100db4:	e1a02e22 	lsr	r2, r2, #28
  100db8:	a1a01000 	movge	r1, r0
  100dbc:	e0800002 	add	r0, r0, r2
  100dc0:	e3c1100f 	bic	r1, r1, #15
  100dc4:	e200000f 	and	r0, r0, #15
  100dc8:	e3403010 	movt	r3, #16
  100dcc:	e0622000 	rsb	r2, r2, r0
  100dd0:	e0812002 	add	r2, r1, r2
  100dd4:	e7930102 	ldr	r0, [r3, r2, lsl #2]
  100dd8:	e12fff1e 	bx	lr

00100ddc <InversShiftRow_ByteSub>:
  100ddc:	e3510006 	cmp	r1, #6
  100de0:	e92d0ff0 	push	{r4, r5, r6, r7, r8, r9, sl, fp}
  100de4:	0a0000cd 	beq	101120 <InversShiftRow_ByteSub+0x344>
  100de8:	e3510008 	cmp	r1, #8
  100dec:	0a000047 	beq	100f10 <InversShiftRow_ByteSub+0x134>
  100df0:	e3510004 	cmp	r1, #4
  100df4:	0a000001 	beq	100e00 <InversShiftRow_ByteSub+0x24>
  100df8:	e8bd0ff0 	pop	{r4, r5, r6, r7, r8, r9, sl, fp}
  100dfc:	e12fff1e 	bx	lr
  100e00:	e5908004 	ldr	r8, [r0, #4]
  100e04:	e30330f8 	movw	r3, #12536	; 0x30f8
  100e08:	e3403010 	movt	r3, #16
  100e0c:	e5902034 	ldr	r2, [r0, #52]	; 0x34
  100e10:	e590b014 	ldr	fp, [r0, #20]
  100e14:	e0838108 	add	r8, r3, r8, lsl #2
  100e18:	e590a024 	ldr	sl, [r0, #36]	; 0x24
  100e1c:	e5909038 	ldr	r9, [r0, #56]	; 0x38
  100e20:	e0832102 	add	r2, r3, r2, lsl #2
  100e24:	e5907018 	ldr	r7, [r0, #24]
  100e28:	e083b10b 	add	fp, r3, fp, lsl #2
  100e2c:	e5906008 	ldr	r6, [r0, #8]
  100e30:	e083a10a 	add	sl, r3, sl, lsl #2
  100e34:	e5905028 	ldr	r5, [r0, #40]	; 0x28
  100e38:	e0839109 	add	r9, r3, r9, lsl #2
  100e3c:	e5988400 	ldr	r8, [r8, #1024]	; 0x400
  100e40:	e0837107 	add	r7, r3, r7, lsl #2
  100e44:	e590400c 	ldr	r4, [r0, #12]
  100e48:	e0836106 	add	r6, r3, r6, lsl #2
  100e4c:	e590c01c 	ldr	ip, [r0, #28]
  100e50:	e0835105 	add	r5, r3, r5, lsl #2
  100e54:	e590102c 	ldr	r1, [r0, #44]	; 0x2c
  100e58:	e0834104 	add	r4, r3, r4, lsl #2
  100e5c:	e5808014 	str	r8, [r0, #20]
  100e60:	e083c10c 	add	ip, r3, ip, lsl #2
  100e64:	e590803c 	ldr	r8, [r0, #60]	; 0x3c
  100e68:	e0831101 	add	r1, r3, r1, lsl #2
  100e6c:	e5922400 	ldr	r2, [r2, #1024]	; 0x400
  100e70:	e59bb400 	ldr	fp, [fp, #1024]	; 0x400
  100e74:	e59aa400 	ldr	sl, [sl, #1024]	; 0x400
  100e78:	e0838108 	add	r8, r3, r8, lsl #2
  100e7c:	e5999400 	ldr	r9, [r9, #1024]	; 0x400
  100e80:	e5977400 	ldr	r7, [r7, #1024]	; 0x400
  100e84:	e5966400 	ldr	r6, [r6, #1024]	; 0x400
  100e88:	e5955400 	ldr	r5, [r5, #1024]	; 0x400
  100e8c:	e5944400 	ldr	r4, [r4, #1024]	; 0x400
  100e90:	e5911400 	ldr	r1, [r1, #1024]	; 0x400
  100e94:	e59cc400 	ldr	ip, [ip, #1024]	; 0x400
  100e98:	e5802004 	str	r2, [r0, #4]
  100e9c:	e580b024 	str	fp, [r0, #36]	; 0x24
  100ea0:	e580a034 	str	sl, [r0, #52]	; 0x34
  100ea4:	e5809018 	str	r9, [r0, #24]
  100ea8:	e5807038 	str	r7, [r0, #56]	; 0x38
  100eac:	e5806028 	str	r6, [r0, #40]	; 0x28
  100eb0:	e5805008 	str	r5, [r0, #8]
  100eb4:	e580403c 	str	r4, [r0, #60]	; 0x3c
  100eb8:	e5985400 	ldr	r5, [r8, #1024]	; 0x400
  100ebc:	e580c00c 	str	ip, [r0, #12]
  100ec0:	e5904030 	ldr	r4, [r0, #48]	; 0x30
  100ec4:	e590c000 	ldr	ip, [r0]
  100ec8:	e5902020 	ldr	r2, [r0, #32]
  100ecc:	e580101c 	str	r1, [r0, #28]
  100ed0:	e5901010 	ldr	r1, [r0, #16]
  100ed4:	e083c10c 	add	ip, r3, ip, lsl #2
  100ed8:	e0832102 	add	r2, r3, r2, lsl #2
  100edc:	e580502c 	str	r5, [r0, #44]	; 0x2c
  100ee0:	e59cc400 	ldr	ip, [ip, #1024]	; 0x400
  100ee4:	e0831101 	add	r1, r3, r1, lsl #2
  100ee8:	e0833104 	add	r3, r3, r4, lsl #2
  100eec:	e5922400 	ldr	r2, [r2, #1024]	; 0x400
  100ef0:	e5911400 	ldr	r1, [r1, #1024]	; 0x400
  100ef4:	e5933400 	ldr	r3, [r3, #1024]	; 0x400
  100ef8:	e580c000 	str	ip, [r0]
  100efc:	e5801010 	str	r1, [r0, #16]
  100f00:	e5802020 	str	r2, [r0, #32]
  100f04:	e5803030 	str	r3, [r0, #48]	; 0x30
  100f08:	e8bd0ff0 	pop	{r4, r5, r6, r7, r8, r9, sl, fp}
  100f0c:	e12fff1e 	bx	lr
  100f10:	e5908004 	ldr	r8, [r0, #4]
  100f14:	e30330f8 	movw	r3, #12536	; 0x30f8
  100f18:	e3403010 	movt	r3, #16
  100f1c:	e5902074 	ldr	r2, [r0, #116]	; 0x74
  100f20:	e590b014 	ldr	fp, [r0, #20]
  100f24:	e0838108 	add	r8, r3, r8, lsl #2
  100f28:	e590a024 	ldr	sl, [r0, #36]	; 0x24
  100f2c:	e5909034 	ldr	r9, [r0, #52]	; 0x34
  100f30:	e0832102 	add	r2, r3, r2, lsl #2
  100f34:	e5907044 	ldr	r7, [r0, #68]	; 0x44
  100f38:	e083b10b 	add	fp, r3, fp, lsl #2
  100f3c:	e5906054 	ldr	r6, [r0, #84]	; 0x54
  100f40:	e083a10a 	add	sl, r3, sl, lsl #2
  100f44:	e5905064 	ldr	r5, [r0, #100]	; 0x64
  100f48:	e0839109 	add	r9, r3, r9, lsl #2
  100f4c:	e5988400 	ldr	r8, [r8, #1024]	; 0x400
  100f50:	e0837107 	add	r7, r3, r7, lsl #2
  100f54:	e5904048 	ldr	r4, [r0, #72]	; 0x48
  100f58:	e0836106 	add	r6, r3, r6, lsl #2
  100f5c:	e590c018 	ldr	ip, [r0, #24]
  100f60:	e0835105 	add	r5, r3, r5, lsl #2
  100f64:	e5901068 	ldr	r1, [r0, #104]	; 0x68
  100f68:	e0834104 	add	r4, r3, r4, lsl #2
  100f6c:	e5808014 	str	r8, [r0, #20]
  100f70:	e083c10c 	add	ip, r3, ip, lsl #2
  100f74:	e5908078 	ldr	r8, [r0, #120]	; 0x78
  100f78:	e5922400 	ldr	r2, [r2, #1024]	; 0x400
  100f7c:	e0831101 	add	r1, r3, r1, lsl #2
  100f80:	e59bb400 	ldr	fp, [fp, #1024]	; 0x400
  100f84:	e59aa400 	ldr	sl, [sl, #1024]	; 0x400
  100f88:	e0838108 	add	r8, r3, r8, lsl #2
  100f8c:	e5999400 	ldr	r9, [r9, #1024]	; 0x400
  100f90:	e5977400 	ldr	r7, [r7, #1024]	; 0x400
  100f94:	e5966400 	ldr	r6, [r6, #1024]	; 0x400
  100f98:	e5955400 	ldr	r5, [r5, #1024]	; 0x400
  100f9c:	e5944400 	ldr	r4, [r4, #1024]	; 0x400
  100fa0:	e59cc400 	ldr	ip, [ip, #1024]	; 0x400
  100fa4:	e5911400 	ldr	r1, [r1, #1024]	; 0x400
  100fa8:	e5802004 	str	r2, [r0, #4]
  100fac:	e580b024 	str	fp, [r0, #36]	; 0x24
  100fb0:	e5982400 	ldr	r2, [r8, #1024]	; 0x400
  100fb4:	e580a034 	str	sl, [r0, #52]	; 0x34
  100fb8:	e5809044 	str	r9, [r0, #68]	; 0x44
  100fbc:	e5807054 	str	r7, [r0, #84]	; 0x54
  100fc0:	e5806064 	str	r6, [r0, #100]	; 0x64
  100fc4:	e5805074 	str	r5, [r0, #116]	; 0x74
  100fc8:	e5804078 	str	r4, [r0, #120]	; 0x78
  100fcc:	e580c048 	str	ip, [r0, #72]	; 0x48
  100fd0:	e590b028 	ldr	fp, [r0, #40]	; 0x28
  100fd4:	e5909058 	ldr	r9, [r0, #88]	; 0x58
  100fd8:	e5801018 	str	r1, [r0, #24]
  100fdc:	e083b10b 	add	fp, r3, fp, lsl #2
  100fe0:	e590105c 	ldr	r1, [r0, #92]	; 0x5c
  100fe4:	e0839109 	add	r9, r3, r9, lsl #2
  100fe8:	e5908008 	ldr	r8, [r0, #8]
  100fec:	e59bb400 	ldr	fp, [fp, #1024]	; 0x400
  100ff0:	e5999400 	ldr	r9, [r9, #1024]	; 0x400
  100ff4:	e0831101 	add	r1, r3, r1, lsl #2
  100ff8:	e5907038 	ldr	r7, [r0, #56]	; 0x38
  100ffc:	e0838108 	add	r8, r3, r8, lsl #2
  101000:	e580b058 	str	fp, [r0, #88]	; 0x58
  101004:	e590b01c 	ldr	fp, [r0, #28]
  101008:	e590607c 	ldr	r6, [r0, #124]	; 0x7c
  10100c:	e0837107 	add	r7, r3, r7, lsl #2
  101010:	e590503c 	ldr	r5, [r0, #60]	; 0x3c
  101014:	e083a10b 	add	sl, r3, fp, lsl #2
  101018:	e590b00c 	ldr	fp, [r0, #12]
  10101c:	e590406c 	ldr	r4, [r0, #108]	; 0x6c
  101020:	e0836106 	add	r6, r3, r6, lsl #2
  101024:	e590c02c 	ldr	ip, [r0, #44]	; 0x2c
  101028:	e0835105 	add	r5, r3, r5, lsl #2
  10102c:	e5809008 	str	r9, [r0, #8]
  101030:	e083910b 	add	r9, r3, fp, lsl #2
  101034:	e0834104 	add	r4, r3, r4, lsl #2
  101038:	e591b400 	ldr	fp, [r1, #1024]	; 0x400
  10103c:	e083c10c 	add	ip, r3, ip, lsl #2
  101040:	e5991400 	ldr	r1, [r9, #1024]	; 0x400
  101044:	e590904c 	ldr	r9, [r0, #76]	; 0x4c
  101048:	e5988400 	ldr	r8, [r8, #1024]	; 0x400
  10104c:	e5977400 	ldr	r7, [r7, #1024]	; 0x400
  101050:	e5966400 	ldr	r6, [r6, #1024]	; 0x400
  101054:	e0839109 	add	r9, r3, r9, lsl #2
  101058:	e5955400 	ldr	r5, [r5, #1024]	; 0x400
  10105c:	e5944400 	ldr	r4, [r4, #1024]	; 0x400
  101060:	e59cc400 	ldr	ip, [ip, #1024]	; 0x400
  101064:	e59aa400 	ldr	sl, [sl, #1024]	; 0x400
  101068:	e5802028 	str	r2, [r0, #40]	; 0x28
  10106c:	e5808038 	str	r8, [r0, #56]	; 0x38
  101070:	e5807068 	str	r7, [r0, #104]	; 0x68
  101074:	e580603c 	str	r6, [r0, #60]	; 0x3c
  101078:	e580507c 	str	r5, [r0, #124]	; 0x7c
  10107c:	e580402c 	str	r4, [r0, #44]	; 0x2c
  101080:	e580c06c 	str	ip, [r0, #108]	; 0x6c
  101084:	e580b01c 	str	fp, [r0, #28]
  101088:	e5998400 	ldr	r8, [r9, #1024]	; 0x400
  10108c:	e5907000 	ldr	r7, [r0]
  101090:	e5909070 	ldr	r9, [r0, #112]	; 0x70
  101094:	e5906010 	ldr	r6, [r0, #16]
  101098:	e5905020 	ldr	r5, [r0, #32]
  10109c:	e0837107 	add	r7, r3, r7, lsl #2
  1010a0:	e5904030 	ldr	r4, [r0, #48]	; 0x30
  1010a4:	e590c040 	ldr	ip, [r0, #64]	; 0x40
  1010a8:	e0836106 	add	r6, r3, r6, lsl #2
  1010ac:	e5902060 	ldr	r2, [r0, #96]	; 0x60
  1010b0:	e0835105 	add	r5, r3, r5, lsl #2
  1010b4:	e580104c 	str	r1, [r0, #76]	; 0x4c
  1010b8:	e0834104 	add	r4, r3, r4, lsl #2
  1010bc:	e5901050 	ldr	r1, [r0, #80]	; 0x50
  1010c0:	e083c10c 	add	ip, r3, ip, lsl #2
  1010c4:	e0832102 	add	r2, r3, r2, lsl #2
  1010c8:	e5977400 	ldr	r7, [r7, #1024]	; 0x400
  1010cc:	e5966400 	ldr	r6, [r6, #1024]	; 0x400
  1010d0:	e0831101 	add	r1, r3, r1, lsl #2
  1010d4:	e0833109 	add	r3, r3, r9, lsl #2
  1010d8:	e5955400 	ldr	r5, [r5, #1024]	; 0x400
  1010dc:	e5944400 	ldr	r4, [r4, #1024]	; 0x400
  1010e0:	e59cc400 	ldr	ip, [ip, #1024]	; 0x400
  1010e4:	e5911400 	ldr	r1, [r1, #1024]	; 0x400
  1010e8:	e5922400 	ldr	r2, [r2, #1024]	; 0x400
  1010ec:	e5933400 	ldr	r3, [r3, #1024]	; 0x400
  1010f0:	e580a05c 	str	sl, [r0, #92]	; 0x5c
  1010f4:	e580800c 	str	r8, [r0, #12]
  1010f8:	e5807000 	str	r7, [r0]
  1010fc:	e5806010 	str	r6, [r0, #16]
  101100:	e5805020 	str	r5, [r0, #32]
  101104:	e5804030 	str	r4, [r0, #48]	; 0x30
  101108:	e580c040 	str	ip, [r0, #64]	; 0x40
  10110c:	e5801050 	str	r1, [r0, #80]	; 0x50
  101110:	e5802060 	str	r2, [r0, #96]	; 0x60
  101114:	e5803070 	str	r3, [r0, #112]	; 0x70
  101118:	e8bd0ff0 	pop	{r4, r5, r6, r7, r8, r9, sl, fp}
  10111c:	e12fff1e 	bx	lr
  101120:	e5908004 	ldr	r8, [r0, #4]
  101124:	e30330f8 	movw	r3, #12536	; 0x30f8
  101128:	e3403010 	movt	r3, #16
  10112c:	e5902054 	ldr	r2, [r0, #84]	; 0x54
  101130:	e590b014 	ldr	fp, [r0, #20]
  101134:	e0838108 	add	r8, r3, r8, lsl #2
  101138:	e590a024 	ldr	sl, [r0, #36]	; 0x24
  10113c:	e5909034 	ldr	r9, [r0, #52]	; 0x34
  101140:	e0832102 	add	r2, r3, r2, lsl #2
  101144:	e5988400 	ldr	r8, [r8, #1024]	; 0x400
  101148:	e083b10b 	add	fp, r3, fp, lsl #2
  10114c:	e5907044 	ldr	r7, [r0, #68]	; 0x44
  101150:	e083a10a 	add	sl, r3, sl, lsl #2
  101154:	e5906058 	ldr	r6, [r0, #88]	; 0x58
  101158:	e0839109 	add	r9, r3, r9, lsl #2
  10115c:	e5905018 	ldr	r5, [r0, #24]
  101160:	e5904038 	ldr	r4, [r0, #56]	; 0x38
  101164:	e0837107 	add	r7, r3, r7, lsl #2
  101168:	e590c028 	ldr	ip, [r0, #40]	; 0x28
  10116c:	e0836106 	add	r6, r3, r6, lsl #2
  101170:	e5901008 	ldr	r1, [r0, #8]
  101174:	e0835105 	add	r5, r3, r5, lsl #2
  101178:	e5808014 	str	r8, [r0, #20]
  10117c:	e0834104 	add	r4, r3, r4, lsl #2
  101180:	e5908048 	ldr	r8, [r0, #72]	; 0x48
  101184:	e083c10c 	add	ip, r3, ip, lsl #2
  101188:	e0831101 	add	r1, r3, r1, lsl #2
  10118c:	e5922400 	ldr	r2, [r2, #1024]	; 0x400
  101190:	e59bb400 	ldr	fp, [fp, #1024]	; 0x400
  101194:	e0838108 	add	r8, r3, r8, lsl #2
  101198:	e59aa400 	ldr	sl, [sl, #1024]	; 0x400
  10119c:	e5999400 	ldr	r9, [r9, #1024]	; 0x400
  1011a0:	e5977400 	ldr	r7, [r7, #1024]	; 0x400
  1011a4:	e5966400 	ldr	r6, [r6, #1024]	; 0x400
  1011a8:	e5955400 	ldr	r5, [r5, #1024]	; 0x400
  1011ac:	e5944400 	ldr	r4, [r4, #1024]	; 0x400
  1011b0:	e59cc400 	ldr	ip, [ip, #1024]	; 0x400
  1011b4:	e5911400 	ldr	r1, [r1, #1024]	; 0x400
  1011b8:	e5988400 	ldr	r8, [r8, #1024]	; 0x400
  1011bc:	e5802004 	str	r2, [r0, #4]
  1011c0:	e580b024 	str	fp, [r0, #36]	; 0x24
  1011c4:	e580a034 	str	sl, [r0, #52]	; 0x34
  1011c8:	e5809044 	str	r9, [r0, #68]	; 0x44
  1011cc:	e5807054 	str	r7, [r0, #84]	; 0x54
  1011d0:	e5806018 	str	r6, [r0, #24]
  1011d4:	e5805038 	str	r5, [r0, #56]	; 0x38
  1011d8:	e5804058 	str	r4, [r0, #88]	; 0x58
  1011dc:	e580c048 	str	ip, [r0, #72]	; 0x48
  1011e0:	e5808008 	str	r8, [r0, #8]
  1011e4:	e590b03c 	ldr	fp, [r0, #60]	; 0x3c
  1011e8:	e590900c 	ldr	r9, [r0, #12]
  1011ec:	e590704c 	ldr	r7, [r0, #76]	; 0x4c
  1011f0:	e590601c 	ldr	r6, [r0, #28]
  1011f4:	e083b10b 	add	fp, r3, fp, lsl #2
  1011f8:	e590505c 	ldr	r5, [r0, #92]	; 0x5c
  1011fc:	e0839109 	add	r9, r3, r9, lsl #2
  101200:	e590402c 	ldr	r4, [r0, #44]	; 0x2c
  101204:	e0837107 	add	r7, r3, r7, lsl #2
  101208:	e590c000 	ldr	ip, [r0]
  10120c:	e0836106 	add	r6, r3, r6, lsl #2
  101210:	e5902020 	ldr	r2, [r0, #32]
  101214:	e0835105 	add	r5, r3, r5, lsl #2
  101218:	e590a030 	ldr	sl, [r0, #48]	; 0x30
  10121c:	e0834104 	add	r4, r3, r4, lsl #2
  101220:	e5801028 	str	r1, [r0, #40]	; 0x28
  101224:	e083c10c 	add	ip, r3, ip, lsl #2
  101228:	e5901010 	ldr	r1, [r0, #16]
  10122c:	e0832102 	add	r2, r3, r2, lsl #2
  101230:	e5908040 	ldr	r8, [r0, #64]	; 0x40
  101234:	e083a10a 	add	sl, r3, sl, lsl #2
  101238:	e59bb400 	ldr	fp, [fp, #1024]	; 0x400
  10123c:	e0831101 	add	r1, r3, r1, lsl #2
  101240:	e5999400 	ldr	r9, [r9, #1024]	; 0x400
  101244:	e0838108 	add	r8, r3, r8, lsl #2
  101248:	e5977400 	ldr	r7, [r7, #1024]	; 0x400
  10124c:	e5966400 	ldr	r6, [r6, #1024]	; 0x400
  101250:	e5955400 	ldr	r5, [r5, #1024]	; 0x400
  101254:	e5944400 	ldr	r4, [r4, #1024]	; 0x400
  101258:	e5922400 	ldr	r2, [r2, #1024]	; 0x400
  10125c:	e59aa400 	ldr	sl, [sl, #1024]	; 0x400
  101260:	e59cc400 	ldr	ip, [ip, #1024]	; 0x400
  101264:	e5911400 	ldr	r1, [r1, #1024]	; 0x400
  101268:	e5988400 	ldr	r8, [r8, #1024]	; 0x400
  10126c:	e580b00c 	str	fp, [r0, #12]
  101270:	e580903c 	str	r9, [r0, #60]	; 0x3c
  101274:	e580701c 	str	r7, [r0, #28]
  101278:	e580604c 	str	r6, [r0, #76]	; 0x4c
  10127c:	e580502c 	str	r5, [r0, #44]	; 0x2c
  101280:	e580405c 	str	r4, [r0, #92]	; 0x5c
  101284:	e5802020 	str	r2, [r0, #32]
  101288:	e580a030 	str	sl, [r0, #48]	; 0x30
  10128c:	e580c000 	str	ip, [r0]
  101290:	e5801010 	str	r1, [r0, #16]
  101294:	e5808040 	str	r8, [r0, #64]	; 0x40
  101298:	e5902050 	ldr	r2, [r0, #80]	; 0x50
  10129c:	e8bd0ff0 	pop	{r4, r5, r6, r7, r8, r9, sl, fp}
  1012a0:	e0833102 	add	r3, r3, r2, lsl #2
  1012a4:	e5933400 	ldr	r3, [r3, #1024]	; 0x400
  1012a8:	e5803050 	str	r3, [r0, #80]	; 0x50
  1012ac:	e12fff1e 	bx	lr

001012b0 <MixColumn_AddRoundKey>:
  1012b0:	e92d0ff0 	push	{r4, r5, r6, r7, r8, r9, sl, fp}
  1012b4:	e3510000 	cmp	r1, #0
  1012b8:	e24dd088 	sub	sp, sp, #136	; 0x88
  1012bc:	e58d0000 	str	r0, [sp]
  1012c0:	da00006f 	ble	101484 <MixColumn_AddRoundKey+0x1d4>
  1012c4:	e0020192 	mul	r2, r2, r1
  1012c8:	e3080034 	movw	r0, #32820	; 0x8034
  1012cc:	e59d4000 	ldr	r4, [sp]
  1012d0:	e3400010 	movt	r0, #16
  1012d4:	e28d3008 	add	r3, sp, #8
  1012d8:	e1a01201 	lsl	r1, r1, #4
  1012dc:	e58d1004 	str	r1, [sp, #4]
  1012e0:	e3a01000 	mov	r1, #0
  1012e4:	e0802102 	add	r2, r0, r2, lsl #2
  1012e8:	e59d0000 	ldr	r0, [sp]
  1012ec:	e2844010 	add	r4, r4, #16
  1012f0:	e2822004 	add	r2, r2, #4
  1012f4:	e2833010 	add	r3, r3, #16
  1012f8:	e7907001 	ldr	r7, [r0, r1]
  1012fc:	e1a09087 	lsl	r9, r7, #1
  101300:	e1a00449 	asr	r0, r9, #8
  101304:	e3500001 	cmp	r0, #1
  101308:	1281b008 	addne	fp, r1, #8
  10130c:	02815008 	addeq	r5, r1, #8
  101310:	02290f46 	eoreq	r0, r9, #280	; 0x118
  101314:	11a0500d 	movne	r5, sp
  101318:	01a0c00d 	moveq	ip, sp
  10131c:	178b9005 	strne	r9, [fp, r5]
  101320:	02200003 	eoreq	r0, r0, #3
  101324:	0785000c 	streq	r0, [r5, ip]
  101328:	e514500c 	ldr	r5, [r4, #-12]
  10132c:	11a00009 	movne	r0, r9
  101330:	e1a0c085 	lsl	ip, r5, #1
  101334:	e02c6005 	eor	r6, ip, r5
  101338:	e1a0a44c 	asr	sl, ip, #8
  10133c:	e1a08446 	asr	r8, r6, #8
  101340:	e3580001 	cmp	r8, #1
  101344:	e5148004 	ldr	r8, [r4, #-4]
  101348:	02266f46 	eoreq	r6, r6, #280	; 0x118
  10134c:	02266003 	eoreq	r6, r6, #3
  101350:	e35a0001 	cmp	sl, #1
  101354:	e0200006 	eor	r0, r0, r6
  101358:	e5146008 	ldr	r6, [r4, #-8]
  10135c:	e512a004 	ldr	sl, [r2, #-4]
  101360:	022ccf46 	eoreq	ip, ip, #280	; 0x118
  101364:	e028b006 	eor	fp, r8, r6
  101368:	022cc003 	eoreq	ip, ip, #3
  10136c:	e02ba00a 	eor	sl, fp, sl
  101370:	e1a0b00d 	mov	fp, sp
  101374:	e02aa000 	eor	sl, sl, r0
  101378:	e2810008 	add	r0, r1, #8
  10137c:	e2811010 	add	r1, r1, #16
  101380:	e780a00b 	str	sl, [r0, fp]
  101384:	e1a00086 	lsl	r0, r6, #1
  101388:	e020a006 	eor	sl, r0, r6
  10138c:	e503c00c 	str	ip, [r3, #-12]
  101390:	e1a0b44a 	asr	fp, sl, #8
  101394:	e35b0001 	cmp	fp, #1
  101398:	e1a0b440 	asr	fp, r0, #8
  10139c:	022aaf46 	eoreq	sl, sl, #280	; 0x118
  1013a0:	022aa003 	eoreq	sl, sl, #3
  1013a4:	e35b0001 	cmp	fp, #1
  1013a8:	e02cc00a 	eor	ip, ip, sl
  1013ac:	e503c00c 	str	ip, [r3, #-12]
  1013b0:	e592a1dc 	ldr	sl, [r2, #476]	; 0x1dc
  1013b4:	02200f46 	eoreq	r0, r0, #280	; 0x118
  1013b8:	02200003 	eoreq	r0, r0, #3
  1013bc:	e5030008 	str	r0, [r3, #-8]
  1013c0:	e028a00a 	eor	sl, r8, sl
  1013c4:	e02aa007 	eor	sl, sl, r7
  1013c8:	e02ac00c 	eor	ip, sl, ip
  1013cc:	e503c00c 	str	ip, [r3, #-12]
  1013d0:	e1a0c088 	lsl	ip, r8, #1
  1013d4:	e02c8008 	eor	r8, ip, r8
  1013d8:	e1a0a448 	asr	sl, r8, #8
  1013dc:	e35a0001 	cmp	sl, #1
  1013e0:	e1a0a44c 	asr	sl, ip, #8
  1013e4:	02288f46 	eoreq	r8, r8, #280	; 0x118
  1013e8:	02288003 	eoreq	r8, r8, #3
  1013ec:	e35a0001 	cmp	sl, #1
  1013f0:	e0200008 	eor	r0, r0, r8
  1013f4:	e59283bc 	ldr	r8, [r2, #956]	; 0x3bc
  1013f8:	022ccf46 	eoreq	ip, ip, #280	; 0x118
  1013fc:	e0258008 	eor	r8, r5, r8
  101400:	022cc003 	eoreq	ip, ip, #3
  101404:	e0288007 	eor	r8, r8, r7
  101408:	e0297007 	eor	r7, r9, r7
  10140c:	e0280000 	eor	r0, r8, r0
  101410:	e5030008 	str	r0, [r3, #-8]
  101414:	e1a00447 	asr	r0, r7, #8
  101418:	e503c004 	str	ip, [r3, #-4]
  10141c:	e3500001 	cmp	r0, #1
  101420:	e592059c 	ldr	r0, [r2, #1436]	; 0x59c
  101424:	02277f46 	eoreq	r7, r7, #280	; 0x118
  101428:	02277003 	eoreq	r7, r7, #3
  10142c:	e02cc007 	eor	ip, ip, r7
  101430:	e0267005 	eor	r7, r6, r5
  101434:	e59d5004 	ldr	r5, [sp, #4]
  101438:	e0277000 	eor	r7, r7, r0
  10143c:	e027700c 	eor	r7, r7, ip
  101440:	e5037004 	str	r7, [r3, #-4]
  101444:	e1510005 	cmp	r1, r5
  101448:	1affffa6 	bne	1012e8 <MixColumn_AddRoundKey+0x38>
  10144c:	e59db000 	ldr	fp, [sp]
  101450:	e28d2008 	add	r2, sp, #8
  101454:	e08b1001 	add	r1, fp, r1
  101458:	e1a0300b 	mov	r3, fp
  10145c:	e5925000 	ldr	r5, [r2]
  101460:	e9921010 	ldmib	r2, {r4, ip}
  101464:	e2822010 	add	r2, r2, #16
  101468:	e5120004 	ldr	r0, [r2, #-4]
  10146c:	e5835000 	str	r5, [r3]
  101470:	e9831010 	stmib	r3, {r4, ip}
  101474:	e2833010 	add	r3, r3, #16
  101478:	e5030004 	str	r0, [r3, #-4]
  10147c:	e1530001 	cmp	r3, r1
  101480:	1afffff5 	bne	10145c <MixColumn_AddRoundKey+0x1ac>
  101484:	e3a00000 	mov	r0, #0
  101488:	e28dd088 	add	sp, sp, #136	; 0x88
  10148c:	e8bd0ff0 	pop	{r4, r5, r6, r7, r8, r9, sl, fp}
  101490:	e12fff1e 	bx	lr

00101494 <AddRoundKey_InversMixColumn>:
  101494:	e3510000 	cmp	r1, #0
  101498:	e92d0ff0 	push	{r4, r5, r6, r7, r8, r9, sl, fp}
  10149c:	e1a0a000 	mov	sl, r0
  1014a0:	e24dd098 	sub	sp, sp, #152	; 0x98
  1014a4:	da000096 	ble	101704 <AddRoundKey_InversMixColumn+0x270>
  1014a8:	e00c0192 	mul	ip, r2, r1
  1014ac:	e3080034 	movw	r0, #32820	; 0x8034
  1014b0:	e3400010 	movt	r0, #16
  1014b4:	e1a0200a 	mov	r2, sl
  1014b8:	e3a03000 	mov	r3, #0
  1014bc:	e080010c 	add	r0, r0, ip, lsl #2
  1014c0:	e590c000 	ldr	ip, [r0]
  1014c4:	e2833001 	add	r3, r3, #1
  1014c8:	e5925000 	ldr	r5, [r2]
  1014cc:	e1530001 	cmp	r3, r1
  1014d0:	e5924004 	ldr	r4, [r2, #4]
  1014d4:	e2800004 	add	r0, r0, #4
  1014d8:	e025c00c 	eor	ip, r5, ip
  1014dc:	e582c000 	str	ip, [r2]
  1014e0:	e590c1dc 	ldr	ip, [r0, #476]	; 0x1dc
  1014e4:	e2822010 	add	r2, r2, #16
  1014e8:	e5125008 	ldr	r5, [r2, #-8]
  1014ec:	e024c00c 	eor	ip, r4, ip
  1014f0:	e502c00c 	str	ip, [r2, #-12]
  1014f4:	e590c3bc 	ldr	ip, [r0, #956]	; 0x3bc
  1014f8:	e5124004 	ldr	r4, [r2, #-4]
  1014fc:	e025c00c 	eor	ip, r5, ip
  101500:	e502c008 	str	ip, [r2, #-8]
  101504:	e590c59c 	ldr	ip, [r0, #1436]	; 0x59c
  101508:	e024c00c 	eor	ip, r4, ip
  10150c:	e502c004 	str	ip, [r2, #-4]
  101510:	1affffea 	bne	1014c0 <AddRoundKey_InversMixColumn+0x2c>
  101514:	e3a09000 	mov	r9, #0
  101518:	e24a2004 	sub	r2, sl, #4
  10151c:	e58d3014 	str	r3, [sp, #20]
  101520:	e58d2008 	str	r2, [sp, #8]
  101524:	e28d2014 	add	r2, sp, #20
  101528:	e58d200c 	str	r2, [sp, #12]
  10152c:	e1a02103 	lsl	r2, r3, #2
  101530:	e58d2010 	str	r2, [sp, #16]
  101534:	e59d3008 	ldr	r3, [sp, #8]
  101538:	e59d800c 	ldr	r8, [sp, #12]
  10153c:	e58d3004 	str	r3, [sp, #4]
  101540:	e3a03001 	mov	r3, #1
  101544:	e59d2004 	ldr	r2, [sp, #4]
  101548:	e1a07003 	mov	r7, r3
  10154c:	e5b21004 	ldr	r1, [r2, #4]!
  101550:	e58d2004 	str	r2, [sp, #4]
  101554:	e1a02081 	lsl	r2, r1, #1
  101558:	e1a00442 	asr	r0, r2, #8
  10155c:	e3500001 	cmp	r0, #1
  101560:	02222f46 	eoreq	r2, r2, #280	; 0x118
  101564:	02222003 	eoreq	r2, r2, #3
  101568:	e022c001 	eor	ip, r2, r1
  10156c:	e1a0c08c 	lsl	ip, ip, #1
  101570:	e1a0244c 	asr	r2, ip, #8
  101574:	e3520001 	cmp	r2, #1
  101578:	022ccf46 	eoreq	ip, ip, #280	; 0x118
  10157c:	022cc003 	eoreq	ip, ip, #3
  101580:	e02cc001 	eor	ip, ip, r1
  101584:	e1a0c08c 	lsl	ip, ip, #1
  101588:	e1a0244c 	asr	r2, ip, #8
  10158c:	e3520001 	cmp	r2, #1
  101590:	e2032003 	and	r2, r3, #3
  101594:	e0822009 	add	r2, r2, r9
  101598:	022ccf46 	eoreq	ip, ip, #280	; 0x118
  10159c:	022cc003 	eoreq	ip, ip, #3
  1015a0:	e2833001 	add	r3, r3, #1
  1015a4:	e79a4102 	ldr	r4, [sl, r2, lsl #2]
  1015a8:	e1a00084 	lsl	r0, r4, #1
  1015ac:	e1a02440 	asr	r2, r0, #8
  1015b0:	e3520001 	cmp	r2, #1
  1015b4:	02200f46 	eoreq	r0, r0, #280	; 0x118
  1015b8:	02200003 	eoreq	r0, r0, #3
  1015bc:	e1a00080 	lsl	r0, r0, #1
  1015c0:	e1a02440 	asr	r2, r0, #8
  1015c4:	e3520001 	cmp	r2, #1
  1015c8:	02200f46 	eoreq	r0, r0, #280	; 0x118
  1015cc:	02200003 	eoreq	r0, r0, #3
  1015d0:	e0200004 	eor	r0, r0, r4
  1015d4:	e1a00080 	lsl	r0, r0, #1
  1015d8:	e1a02440 	asr	r2, r0, #8
  1015dc:	e3520001 	cmp	r2, #1
  1015e0:	e2032003 	and	r2, r3, #3
  1015e4:	e0822009 	add	r2, r2, r9
  1015e8:	02200f46 	eoreq	r0, r0, #280	; 0x118
  1015ec:	02200003 	eoreq	r0, r0, #3
  1015f0:	e79a5102 	ldr	r5, [sl, r2, lsl #2]
  1015f4:	e0254004 	eor	r4, r5, r4
  1015f8:	e1a01085 	lsl	r1, r5, #1
  1015fc:	e1a02441 	asr	r2, r1, #8
  101600:	e3520001 	cmp	r2, #1
  101604:	02211f46 	eoreq	r1, r1, #280	; 0x118
  101608:	02211003 	eoreq	r1, r1, #3
  10160c:	e0211005 	eor	r1, r1, r5
  101610:	e1a01081 	lsl	r1, r1, #1
  101614:	e1a02441 	asr	r2, r1, #8
  101618:	e3520001 	cmp	r2, #1
  10161c:	02211f46 	eoreq	r1, r1, #280	; 0x118
  101620:	02211003 	eoreq	r1, r1, #3
  101624:	e1a01081 	lsl	r1, r1, #1
  101628:	e1a02441 	asr	r2, r1, #8
  10162c:	e3520001 	cmp	r2, #1
  101630:	e2872002 	add	r2, r7, #2
  101634:	e2022003 	and	r2, r2, #3
  101638:	02211f46 	eoreq	r1, r1, #280	; 0x118
  10163c:	e0822009 	add	r2, r2, r9
  101640:	02211003 	eoreq	r1, r1, #3
  101644:	e79a6102 	ldr	r6, [sl, r2, lsl #2]
  101648:	e1a02086 	lsl	r2, r6, #1
  10164c:	e0246006 	eor	r6, r4, r6
  101650:	e026c00c 	eor	ip, r6, ip
  101654:	e1a0b442 	asr	fp, r2, #8
  101658:	e02c0000 	eor	r0, ip, r0
  10165c:	e35b0001 	cmp	fp, #1
  101660:	e0201001 	eor	r1, r0, r1
  101664:	02222f46 	eoreq	r2, r2, #280	; 0x118
  101668:	02222003 	eoreq	r2, r2, #3
  10166c:	e1a02082 	lsl	r2, r2, #1
  101670:	e1a0b442 	asr	fp, r2, #8
  101674:	e35b0001 	cmp	fp, #1
  101678:	02222f46 	eoreq	r2, r2, #280	; 0x118
  10167c:	02222003 	eoreq	r2, r2, #3
  101680:	e1a02082 	lsl	r2, r2, #1
  101684:	e1a0b442 	asr	fp, r2, #8
  101688:	e35b0001 	cmp	fp, #1
  10168c:	02222f46 	eoreq	r2, r2, #280	; 0x118
  101690:	02222003 	eoreq	r2, r2, #3
  101694:	e3570004 	cmp	r7, #4
  101698:	e0212002 	eor	r2, r1, r2
  10169c:	e5a82004 	str	r2, [r8, #4]!
  1016a0:	1affffa7 	bne	101544 <AddRoundKey_InversMixColumn+0xb0>
  1016a4:	e59d3008 	ldr	r3, [sp, #8]
  1016a8:	e2899004 	add	r9, r9, #4
  1016ac:	e59d2010 	ldr	r2, [sp, #16]
  1016b0:	e2833010 	add	r3, r3, #16
  1016b4:	e58d3008 	str	r3, [sp, #8]
  1016b8:	e1590002 	cmp	r9, r2
  1016bc:	e59d300c 	ldr	r3, [sp, #12]
  1016c0:	e2833010 	add	r3, r3, #16
  1016c4:	e58d300c 	str	r3, [sp, #12]
  1016c8:	1affff99 	bne	101534 <AddRoundKey_InversMixColumn+0xa0>
  1016cc:	e59d3014 	ldr	r3, [sp, #20]
  1016d0:	e28d1018 	add	r1, sp, #24
  1016d4:	e1a0200a 	mov	r2, sl
  1016d8:	e08a3203 	add	r3, sl, r3, lsl #4
  1016dc:	e5915000 	ldr	r5, [r1]
  1016e0:	e9911010 	ldmib	r1, {r4, ip}
  1016e4:	e2811010 	add	r1, r1, #16
  1016e8:	e5110004 	ldr	r0, [r1, #-4]
  1016ec:	e5825000 	str	r5, [r2]
  1016f0:	e9821010 	stmib	r2, {r4, ip}
  1016f4:	e2822010 	add	r2, r2, #16
  1016f8:	e5020004 	str	r0, [r2, #-4]
  1016fc:	e1520003 	cmp	r2, r3
  101700:	1afffff5 	bne	1016dc <AddRoundKey_InversMixColumn+0x248>
  101704:	e3a00000 	mov	r0, #0
  101708:	e28dd098 	add	sp, sp, #152	; 0x98
  10170c:	e8bd0ff0 	pop	{r4, r5, r6, r7, r8, r9, sl, fp}
  101710:	e12fff1e 	bx	lr

00101714 <AddRoundKey>:
  101714:	e30e3ec0 	movw	r3, #61120	; 0xeec0
  101718:	e3403002 	movt	r3, #2
  10171c:	e1510003 	cmp	r1, r3
  101720:	e92d0030 	push	{r4, r5}
  101724:	0a00001e 	beq	1017a4 <AddRoundKey+0x90>
  101728:	da00000e 	ble	101768 <AddRoundKey+0x54>
  10172c:	e30e3880 	movw	r3, #59520	; 0xe880
  101730:	e3403003 	movt	r3, #3
  101734:	e1510003 	cmp	r1, r3
  101738:	0a000017 	beq	10179c <AddRoundKey+0x88>
  10173c:	da000036 	ble	10181c <AddRoundKey+0x108>
  101740:	e30e38c0 	movw	r3, #59584	; 0xe8c0
  101744:	e3403003 	movt	r3, #3
  101748:	e1510003 	cmp	r1, r3
  10174c:	0a000014 	beq	1017a4 <AddRoundKey+0x90>
  101750:	e3a03ce9 	mov	r3, #59648	; 0xe900
  101754:	e3403003 	movt	r3, #3
  101758:	e1510003 	cmp	r1, r3
  10175c:	1a000011 	bne	1017a8 <AddRoundKey+0x94>
  101760:	e3a05008 	mov	r5, #8
  101764:	ea00000f 	b	1017a8 <AddRoundKey+0x94>
  101768:	e30f34c0 	movw	r3, #62656	; 0xf4c0
  10176c:	e3403001 	movt	r3, #1
  101770:	e1510003 	cmp	r1, r3
  101774:	0a00000a 	beq	1017a4 <AddRoundKey+0x90>
  101778:	da00002c 	ble	101830 <AddRoundKey+0x11c>
  10177c:	e3a03cf5 	mov	r3, #62720	; 0xf500
  101780:	e3403001 	movt	r3, #1
  101784:	e1510003 	cmp	r1, r3
  101788:	0afffff4 	beq	101760 <AddRoundKey+0x4c>
  10178c:	e30e3e80 	movw	r3, #61056	; 0xee80
  101790:	e3403002 	movt	r3, #2
  101794:	e1510003 	cmp	r1, r3
  101798:	1a000002 	bne	1017a8 <AddRoundKey+0x94>
  10179c:	e3a05004 	mov	r5, #4
  1017a0:	ea000000 	b	1017a8 <AddRoundKey+0x94>
  1017a4:	e3a05006 	mov	r5, #6
  1017a8:	e0010592 	mul	r1, r2, r5
  1017ac:	e3083034 	movw	r3, #32820	; 0x8034
  1017b0:	e3403010 	movt	r3, #16
  1017b4:	e3a02000 	mov	r2, #0
  1017b8:	e0833101 	add	r3, r3, r1, lsl #2
  1017bc:	e5931000 	ldr	r1, [r3]
  1017c0:	e2822001 	add	r2, r2, #1
  1017c4:	e5904000 	ldr	r4, [r0]
  1017c8:	e1550002 	cmp	r5, r2
  1017cc:	e590c004 	ldr	ip, [r0, #4]
  1017d0:	e2833004 	add	r3, r3, #4
  1017d4:	e0241001 	eor	r1, r4, r1
  1017d8:	e5801000 	str	r1, [r0]
  1017dc:	e59311dc 	ldr	r1, [r3, #476]	; 0x1dc
  1017e0:	e2800010 	add	r0, r0, #16
  1017e4:	e5104008 	ldr	r4, [r0, #-8]
  1017e8:	e02c1001 	eor	r1, ip, r1
  1017ec:	e500100c 	str	r1, [r0, #-12]
  1017f0:	e59313bc 	ldr	r1, [r3, #956]	; 0x3bc
  1017f4:	e510c004 	ldr	ip, [r0, #-4]
  1017f8:	e0241001 	eor	r1, r4, r1
  1017fc:	e5001008 	str	r1, [r0, #-8]
  101800:	e593159c 	ldr	r1, [r3, #1436]	; 0x59c
  101804:	e02c1001 	eor	r1, ip, r1
  101808:	e5001004 	str	r1, [r0, #-4]
  10180c:	caffffea 	bgt	1017bc <AddRoundKey+0xa8>
  101810:	e3a00000 	mov	r0, #0
  101814:	e8bd0030 	pop	{r4, r5}
  101818:	e12fff1e 	bx	lr
  10181c:	e3a03cef 	mov	r3, #61184	; 0xef00
  101820:	e3403002 	movt	r3, #2
  101824:	e1510003 	cmp	r1, r3
  101828:	0affffcc 	beq	101760 <AddRoundKey+0x4c>
  10182c:	eaffffdd 	b	1017a8 <AddRoundKey+0x94>
  101830:	e30f3480 	movw	r3, #62592	; 0xf480
  101834:	e3403001 	movt	r3, #1
  101838:	e1510003 	cmp	r1, r3
  10183c:	0affffd6 	beq	10179c <AddRoundKey+0x88>
  101840:	eaffffd8 	b	1017a8 <AddRoundKey+0x94>

00101844 <KeySchedule>:
  101844:	e30e3ec0 	movw	r3, #61120	; 0xeec0
  101848:	e3403002 	movt	r3, #2
  10184c:	e1500003 	cmp	r0, r3
  101850:	e92d4ff0 	push	{r4, r5, r6, r7, r8, r9, sl, fp, lr}
  101854:	e24dd024 	sub	sp, sp, #36	; 0x24
  101858:	0a0000a7 	beq	101afc <KeySchedule+0x2b8>
  10185c:	da000048 	ble	101984 <KeySchedule+0x140>
  101860:	e30e3880 	movw	r3, #59520	; 0xe880
  101864:	e3403003 	movt	r3, #3
  101868:	e1500003 	cmp	r0, r3
  10186c:	0a00009a 	beq	101adc <KeySchedule+0x298>
  101870:	da000089 	ble	101a9c <KeySchedule+0x258>
  101874:	e30e38c0 	movw	r3, #59584	; 0xe8c0
  101878:	e3403003 	movt	r3, #3
  10187c:	e1500003 	cmp	r0, r3
  101880:	0a000056 	beq	1019e0 <KeySchedule+0x19c>
  101884:	e3a03ce9 	mov	r3, #59648	; 0xe900
  101888:	e3403003 	movt	r3, #3
  10188c:	e1500003 	cmp	r0, r3
  101890:	03a03078 	moveq	r3, #120	; 0x78
  101894:	03a06008 	moveq	r6, #8
  101898:	058d3004 	streq	r3, [sp, #4]
  10189c:	1a000048 	bne	1019c4 <KeySchedule+0x180>
  1018a0:	e3087034 	movw	r7, #32820	; 0x8034
  1018a4:	e3407010 	movt	r7, #16
  1018a8:	e2411004 	sub	r1, r1, #4
  1018ac:	e3a0e000 	mov	lr, #0
  1018b0:	e1a05007 	mov	r5, r7
  1018b4:	e1a0c007 	mov	ip, r7
  1018b8:	e1a02001 	mov	r2, r1
  1018bc:	e3a03000 	mov	r3, #0
  1018c0:	e5b20004 	ldr	r0, [r2, #4]!
  1018c4:	e78c0003 	str	r0, [ip, r3]
  1018c8:	e2833e1e 	add	r3, r3, #480	; 0x1e0
  1018cc:	e3530d1e 	cmp	r3, #1920	; 0x780
  1018d0:	1afffffa 	bne	1018c0 <KeySchedule+0x7c>
  1018d4:	e28ee001 	add	lr, lr, #1
  1018d8:	e2811010 	add	r1, r1, #16
  1018dc:	e156000e 	cmp	r6, lr
  1018e0:	e28cc004 	add	ip, ip, #4
  1018e4:	cafffff3 	bgt	1018b8 <KeySchedule+0x74>
  1018e8:	e0663f06 	rsb	r3, r6, r6, lsl #30
  1018ec:	e0855106 	add	r5, r5, r6, lsl #2
  1018f0:	e28db01c 	add	fp, sp, #28
  1018f4:	e1a0a006 	mov	sl, r6
  1018f8:	e3a09000 	mov	r9, #0
  1018fc:	e30328f8 	movw	r2, #14584	; 0x38f8
  101900:	e1a03103 	lsl	r3, r3, #2
  101904:	e3402010 	movt	r2, #16
  101908:	e58d3008 	str	r3, [sp, #8]
  10190c:	e58d200c 	str	r2, [sp, #12]
  101910:	e1a0000a 	mov	r0, sl
  101914:	e1a01006 	mov	r1, r6
  101918:	eb0004bc 	bl	102c10 <__aeabi_idivmod>
  10191c:	e3510000 	cmp	r1, #0
  101920:	0a00003b 	beq	101a14 <KeySchedule+0x1d0>
  101924:	e5154004 	ldr	r4, [r5, #-4]
  101928:	e3560006 	cmp	r6, #6
  10192c:	e59521dc 	ldr	r2, [r5, #476]	; 0x1dc
  101930:	e59533bc 	ldr	r3, [r5, #956]	; 0x3bc
  101934:	e595059c 	ldr	r0, [r5, #1436]	; 0x59c
  101938:	e58d4010 	str	r4, [sp, #16]
  10193c:	e58d2014 	str	r2, [sp, #20]
  101940:	e58d3018 	str	r3, [sp, #24]
  101944:	e58d001c 	str	r0, [sp, #28]
  101948:	da000001 	ble	101954 <KeySchedule+0x110>
  10194c:	e3510004 	cmp	r1, #4
  101950:	0a000044 	beq	101a68 <KeySchedule+0x224>
  101954:	e59d2008 	ldr	r2, [sp, #8]
  101958:	e067c005 	rsb	ip, r7, r5
  10195c:	e0853002 	add	r3, r5, r2
  101960:	e28d2010 	add	r2, sp, #16
  101964:	e0831009 	add	r1, r3, r9
  101968:	e152000b 	cmp	r2, fp
  10196c:	e49301e0 	ldr	r0, [r3], #480	; 0x1e0
  101970:	e0244000 	eor	r4, r4, r0
  101974:	e781400c 	str	r4, [r1, ip]
  101978:	0a00001c 	beq	1019f0 <KeySchedule+0x1ac>
  10197c:	e5b24004 	ldr	r4, [r2, #4]!
  101980:	eafffff7 	b	101964 <KeySchedule+0x120>
  101984:	e30f34c0 	movw	r3, #62656	; 0xf4c0
  101988:	e3403001 	movt	r3, #1
  10198c:	e1500003 	cmp	r0, r3
  101990:	0a000055 	beq	101aec <KeySchedule+0x2a8>
  101994:	da000048 	ble	101abc <KeySchedule+0x278>
  101998:	e3a03cf5 	mov	r3, #62720	; 0xf500
  10199c:	e3403001 	movt	r3, #1
  1019a0:	e1500003 	cmp	r0, r3
  1019a4:	0a000009 	beq	1019d0 <KeySchedule+0x18c>
  1019a8:	e30e3e80 	movw	r3, #61056	; 0xee80
  1019ac:	e3403002 	movt	r3, #2
  1019b0:	e1500003 	cmp	r0, r3
  1019b4:	03a02034 	moveq	r2, #52	; 0x34
  1019b8:	03a06006 	moveq	r6, #6
  1019bc:	058d2004 	streq	r2, [sp, #4]
  1019c0:	0affffb6 	beq	1018a0 <KeySchedule+0x5c>
  1019c4:	e3e00000 	mvn	r0, #0
  1019c8:	e28dd024 	add	sp, sp, #36	; 0x24
  1019cc:	e8bd8ff0 	pop	{r4, r5, r6, r7, r8, r9, sl, fp, pc}
  1019d0:	e3a03078 	mov	r3, #120	; 0x78
  1019d4:	e3a06004 	mov	r6, #4
  1019d8:	e58d3004 	str	r3, [sp, #4]
  1019dc:	eaffffaf 	b	1018a0 <KeySchedule+0x5c>
  1019e0:	e3a0205a 	mov	r2, #90	; 0x5a
  1019e4:	e3a06008 	mov	r6, #8
  1019e8:	e58d2004 	str	r2, [sp, #4]
  1019ec:	eaffffab 	b	1018a0 <KeySchedule+0x5c>
  1019f0:	e59d3004 	ldr	r3, [sp, #4]
  1019f4:	e28aa001 	add	sl, sl, #1
  1019f8:	e2499004 	sub	r9, r9, #4
  1019fc:	e2855004 	add	r5, r5, #4
  101a00:	e15a0003 	cmp	sl, r3
  101a04:	1affffc1 	bne	101910 <KeySchedule+0xcc>
  101a08:	e3a00000 	mov	r0, #0
  101a0c:	e28dd024 	add	sp, sp, #36	; 0x24
  101a10:	e8bd8ff0 	pop	{r4, r5, r6, r7, r8, r9, sl, fp, pc}
  101a14:	e59501dc 	ldr	r0, [r5, #476]	; 0x1dc
  101a18:	ebfffce1 	bl	100da4 <SubByte>
  101a1c:	e1a01006 	mov	r1, r6
  101a20:	e1a04000 	mov	r4, r0
  101a24:	e1a0000a 	mov	r0, sl
  101a28:	eb0003f0 	bl	1029f0 <__aeabi_idiv>
  101a2c:	e59d200c 	ldr	r2, [sp, #12]
  101a30:	e2403001 	sub	r3, r0, #1
  101a34:	e59503bc 	ldr	r0, [r5, #956]	; 0x3bc
  101a38:	e7923103 	ldr	r3, [r2, r3, lsl #2]
  101a3c:	e0244003 	eor	r4, r4, r3
  101a40:	e58d4010 	str	r4, [sp, #16]
  101a44:	ebfffcd6 	bl	100da4 <SubByte>
  101a48:	e58d0014 	str	r0, [sp, #20]
  101a4c:	e595059c 	ldr	r0, [r5, #1436]	; 0x59c
  101a50:	ebfffcd3 	bl	100da4 <SubByte>
  101a54:	e58d0018 	str	r0, [sp, #24]
  101a58:	e5150004 	ldr	r0, [r5, #-4]
  101a5c:	ebfffcd0 	bl	100da4 <SubByte>
  101a60:	e58d001c 	str	r0, [sp, #28]
  101a64:	eaffffba 	b	101954 <KeySchedule+0x110>
  101a68:	e3a08000 	mov	r8, #0
  101a6c:	e1a00004 	mov	r0, r4
  101a70:	ebfffccb 	bl	100da4 <SubByte>
  101a74:	e28d3010 	add	r3, sp, #16
  101a78:	e7830008 	str	r0, [r3, r8]
  101a7c:	e2888004 	add	r8, r8, #4
  101a80:	e3580010 	cmp	r8, #16
  101a84:	12883010 	addne	r3, r8, #16
  101a88:	11a0200d 	movne	r2, sp
  101a8c:	17930002 	ldrne	r0, [r3, r2]
  101a90:	1afffff6 	bne	101a70 <KeySchedule+0x22c>
  101a94:	e59d4010 	ldr	r4, [sp, #16]
  101a98:	eaffffad 	b	101954 <KeySchedule+0x110>
  101a9c:	e3a03cef 	mov	r3, #61184	; 0xef00
  101aa0:	e3403002 	movt	r3, #2
  101aa4:	e1500003 	cmp	r0, r3
  101aa8:	03a02078 	moveq	r2, #120	; 0x78
  101aac:	03a06006 	moveq	r6, #6
  101ab0:	058d2004 	streq	r2, [sp, #4]
  101ab4:	0affff79 	beq	1018a0 <KeySchedule+0x5c>
  101ab8:	eaffffc1 	b	1019c4 <KeySchedule+0x180>
  101abc:	e30f3480 	movw	r3, #62592	; 0xf480
  101ac0:	e3403001 	movt	r3, #1
  101ac4:	e1500003 	cmp	r0, r3
  101ac8:	03a0202c 	moveq	r2, #44	; 0x2c
  101acc:	03a06004 	moveq	r6, #4
  101ad0:	058d2004 	streq	r2, [sp, #4]
  101ad4:	0affff71 	beq	1018a0 <KeySchedule+0x5c>
  101ad8:	eaffffb9 	b	1019c4 <KeySchedule+0x180>
  101adc:	e3a0303c 	mov	r3, #60	; 0x3c
  101ae0:	e3a06008 	mov	r6, #8
  101ae4:	e58d3004 	str	r3, [sp, #4]
  101ae8:	eaffff6c 	b	1018a0 <KeySchedule+0x5c>
  101aec:	e3a0204e 	mov	r2, #78	; 0x4e
  101af0:	e3a06004 	mov	r6, #4
  101af4:	e58d2004 	str	r2, [sp, #4]
  101af8:	eaffff68 	b	1018a0 <KeySchedule+0x5c>
  101afc:	e3a0304e 	mov	r3, #78	; 0x4e
  101b00:	e3a06006 	mov	r6, #6
  101b04:	e58d3004 	str	r3, [sp, #4]
  101b08:	eaffff64 	b	1018a0 <KeySchedule+0x5c>

00101b0c <enable_caches>:
  101b0c:	e12fff1e 	bx	lr

00101b10 <disable_caches>:
  101b10:	e92d4008 	push	{r3, lr}
  101b14:	eb000213 	bl	102368 <Xil_DCacheDisable>
  101b18:	e8bd4008 	pop	{r3, lr}
  101b1c:	ea000218 	b	102384 <Xil_ICacheDisable>

00101b20 <init_uart>:
  101b20:	e12fff1e 	bx	lr

00101b24 <init_platform>:
  101b24:	e12fff1e 	bx	lr

00101b28 <cleanup_platform>:
  101b28:	e92d4008 	push	{r3, lr}
  101b2c:	eb00020d 	bl	102368 <Xil_DCacheDisable>
  101b30:	e8bd4008 	pop	{r3, lr}
  101b34:	ea000212 	b	102384 <Xil_ICacheDisable>

00101b38 <FIQInterrupt>:
  101b38:	e92d4008 	push	{r3, lr}
  101b3c:	e303397c 	movw	r3, #14716	; 0x397c
  101b40:	e3403010 	movt	r3, #16
  101b44:	e5932030 	ldr	r2, [r3, #48]	; 0x30
  101b48:	e5930034 	ldr	r0, [r3, #52]	; 0x34
  101b4c:	e12fff32 	blx	r2
  101b50:	e8bd8008 	pop	{r3, pc}

00101b54 <IRQInterrupt>:
  101b54:	e92d4008 	push	{r3, lr}
  101b58:	e303397c 	movw	r3, #14716	; 0x397c
  101b5c:	e3403010 	movt	r3, #16
  101b60:	e5932028 	ldr	r2, [r3, #40]	; 0x28
  101b64:	e593002c 	ldr	r0, [r3, #44]	; 0x2c
  101b68:	e12fff32 	blx	r2
  101b6c:	e8bd8008 	pop	{r3, pc}

00101b70 <SWInterrupt>:
  101b70:	e92d4008 	push	{r3, lr}
  101b74:	e303397c 	movw	r3, #14716	; 0x397c
  101b78:	e3403010 	movt	r3, #16
  101b7c:	e5932010 	ldr	r2, [r3, #16]
  101b80:	e5930014 	ldr	r0, [r3, #20]
  101b84:	e12fff32 	blx	r2
  101b88:	e8bd8008 	pop	{r3, pc}

00101b8c <DataAbortInterrupt>:
  101b8c:	e92d4008 	push	{r3, lr}
  101b90:	e303397c 	movw	r3, #14716	; 0x397c
  101b94:	e3403010 	movt	r3, #16
  101b98:	e5932020 	ldr	r2, [r3, #32]
  101b9c:	e5930024 	ldr	r0, [r3, #36]	; 0x24
  101ba0:	e12fff32 	blx	r2
  101ba4:	e8bd8008 	pop	{r3, pc}

00101ba8 <PrefetchAbortInterrupt>:
  101ba8:	e92d4008 	push	{r3, lr}
  101bac:	e303397c 	movw	r3, #14716	; 0x397c
  101bb0:	e3403010 	movt	r3, #16
  101bb4:	e5932018 	ldr	r2, [r3, #24]
  101bb8:	e593001c 	ldr	r0, [r3, #28]
  101bbc:	e12fff32 	blx	r2
  101bc0:	e8bd8008 	pop	{r3, pc}
  101bc4:	0010800c 	andseq	r8, r0, ip
  101bc8:	0010800c 	andseq	r8, r0, ip
  101bcc:	0010800c 	andseq	r8, r0, ip
  101bd0:	001087b4 			; <UNDEFINED> instruction: 0x001087b4
  101bd4:	0010c7c0 	andseq	ip, r0, r0, asr #15

00101bd8 <_start>:
  101bd8:	eb0002f1 	bl	1027a4 <__cpu_init>
  101bdc:	e3a00000 	mov	r0, #0
  101be0:	e51f1024 	ldr	r1, [pc, #-36]	; 101bc4 <PrefetchAbortInterrupt+0x1c>
  101be4:	e51f2024 	ldr	r2, [pc, #-36]	; 101bc8 <PrefetchAbortInterrupt+0x20>
  101be8:	e1510002 	cmp	r1, r2
  101bec:	aa000001 	bge	101bf8 <_start+0x20>
  101bf0:	e4810004 	str	r0, [r1], #4
  101bf4:	eafffffb 	b	101be8 <_start+0x10>
  101bf8:	e51f1034 	ldr	r1, [pc, #-52]	; 101bcc <PrefetchAbortInterrupt+0x24>
  101bfc:	e51f2034 	ldr	r2, [pc, #-52]	; 101bd0 <PrefetchAbortInterrupt+0x28>
  101c00:	e1510002 	cmp	r1, r2
  101c04:	aa000001 	bge	101c10 <_start+0x38>
  101c08:	e4810004 	str	r0, [r1], #4
  101c0c:	eafffffb 	b	101c00 <_start+0x28>
  101c10:	e51fd044 	ldr	sp, [pc, #-68]	; 101bd4 <PrefetchAbortInterrupt+0x2c>
  101c14:	e3a00000 	mov	r0, #0
  101c18:	e3a01000 	mov	r1, #0
  101c1c:	eb0002b8 	bl	102704 <XTime_SetTime>
  101c20:	eb000420 	bl	102ca8 <__libc_init_array>
  101c24:	e3a00000 	mov	r0, #0
  101c28:	e3a01000 	mov	r1, #0
  101c2c:	eb0004d8 	bl	102f94 <main>
  101c30:	eb00040c 	bl	102c68 <__libc_fini_array>
  101c34:	eb0003fe 	bl	102c34 <exit>
  101c38:	eafffffe 	b	101c38 <_start+0x60>

00101c3c <Xil_DCacheInvalidateLine>:
  101c3c:	e92d4038 	push	{r3, r4, r5, lr}
  101c40:	e1a05000 	mov	r5, r0
  101c44:	e10f4000 	mrs	r4, CPSR
  101c48:	e38430c0 	orr	r3, r4, #192	; 0xc0
  101c4c:	e129f003 	msr	CPSR_fc, r3
  101c50:	e3020770 	movw	r0, #10096	; 0x2770
  101c54:	e1a01005 	mov	r1, r5
  101c58:	e34f08f0 	movt	r0, #63728	; 0xf8f0
  101c5c:	eb000282 	bl	10266c <Xil_Out32>
  101c60:	f57ff04f 	dsb	sy
  101c64:	e3a03000 	mov	r3, #0
  101c68:	ee403f10 	mcr	15, 2, r3, cr0, cr0, {0}
  101c6c:	e3c5501f 	bic	r5, r5, #31
  101c70:	ee075f36 	mcr	15, 0, r5, cr7, cr6, {1}
  101c74:	f57ff04f 	dsb	sy
  101c78:	e129f004 	msr	CPSR_fc, r4
  101c7c:	e8bd8038 	pop	{r3, r4, r5, pc}

00101c80 <Xil_DCacheFlushRange>:
  101c80:	e10f2000 	mrs	r2, CPSR
  101c84:	e38230c0 	orr	r3, r2, #192	; 0xc0
  101c88:	e129f003 	msr	CPSR_fc, r3
  101c8c:	e3510000 	cmp	r1, #0
  101c90:	0a00000b 	beq	101cc4 <Xil_DCacheFlushRange+0x44>
  101c94:	e0811000 	add	r1, r1, r0
  101c98:	e3c0001f 	bic	r0, r0, #31
  101c9c:	e1510000 	cmp	r1, r0
  101ca0:	9a000007 	bls	101cc4 <Xil_DCacheFlushRange+0x44>
  101ca4:	e3a03a02 	mov	r3, #8192	; 0x2000
  101ca8:	e34f38f0 	movt	r3, #63728	; 0xf8f0
  101cac:	ee070f3e 	mcr	15, 0, r0, cr7, cr14, {1}
  101cb0:	e58307f0 	str	r0, [r3, #2032]	; 0x7f0
  101cb4:	f57ff04f 	dsb	sy
  101cb8:	e2800020 	add	r0, r0, #32
  101cbc:	e1510000 	cmp	r1, r0
  101cc0:	8afffff9 	bhi	101cac <Xil_DCacheFlushRange+0x2c>
  101cc4:	f57ff04f 	dsb	sy
  101cc8:	e129f002 	msr	CPSR_fc, r2
  101ccc:	e12fff1e 	bx	lr

00101cd0 <Xil_DCacheStoreLine>:
  101cd0:	e92d4010 	push	{r4, lr}
  101cd4:	e1a01000 	mov	r1, r0
  101cd8:	e10f4000 	mrs	r4, CPSR
  101cdc:	e38430c0 	orr	r3, r4, #192	; 0xc0
  101ce0:	e129f003 	msr	CPSR_fc, r3
  101ce4:	e3a03000 	mov	r3, #0
  101ce8:	ee403f10 	mcr	15, 2, r3, cr0, cr0, {0}
  101cec:	e3c0301f 	bic	r3, r0, #31
  101cf0:	ee073f3a 	mcr	15, 0, r3, cr7, cr10, {1}
  101cf4:	f57ff04f 	dsb	sy
  101cf8:	e30207b0 	movw	r0, #10160	; 0x27b0
  101cfc:	e34f08f0 	movt	r0, #63728	; 0xf8f0
  101d00:	eb000259 	bl	10266c <Xil_Out32>
  101d04:	f57ff04f 	dsb	sy
  101d08:	e129f004 	msr	CPSR_fc, r4
  101d0c:	e8bd8010 	pop	{r4, pc}

00101d10 <Xil_ICacheInvalidateLine>:
  101d10:	e92d4038 	push	{r3, r4, r5, lr}
  101d14:	e1a05000 	mov	r5, r0
  101d18:	e10f4000 	mrs	r4, CPSR
  101d1c:	e38430c0 	orr	r3, r4, #192	; 0xc0
  101d20:	e129f003 	msr	CPSR_fc, r3
  101d24:	e3020770 	movw	r0, #10096	; 0x2770
  101d28:	e1a01005 	mov	r1, r5
  101d2c:	e34f08f0 	movt	r0, #63728	; 0xf8f0
  101d30:	eb00024d 	bl	10266c <Xil_Out32>
  101d34:	f57ff04f 	dsb	sy
  101d38:	e3a03001 	mov	r3, #1
  101d3c:	ee403f10 	mcr	15, 2, r3, cr0, cr0, {0}
  101d40:	e3c5501f 	bic	r5, r5, #31
  101d44:	ee075f35 	mcr	15, 0, r5, cr7, cr5, {1}
  101d48:	f57ff04f 	dsb	sy
  101d4c:	e129f004 	msr	CPSR_fc, r4
  101d50:	e8bd8038 	pop	{r3, r4, r5, pc}

00101d54 <Xil_ICacheInvalidateRange>:
  101d54:	e10f2000 	mrs	r2, CPSR
  101d58:	e38230c0 	orr	r3, r2, #192	; 0xc0
  101d5c:	e129f003 	msr	CPSR_fc, r3
  101d60:	e3510000 	cmp	r1, #0
  101d64:	0a00000d 	beq	101da0 <Xil_ICacheInvalidateRange+0x4c>
  101d68:	e0811000 	add	r1, r1, r0
  101d6c:	e3a03001 	mov	r3, #1
  101d70:	e3c0001f 	bic	r0, r0, #31
  101d74:	ee403f10 	mcr	15, 2, r3, cr0, cr0, {0}
  101d78:	e1510000 	cmp	r1, r0
  101d7c:	9a000007 	bls	101da0 <Xil_ICacheInvalidateRange+0x4c>
  101d80:	e3a03a02 	mov	r3, #8192	; 0x2000
  101d84:	e34f38f0 	movt	r3, #63728	; 0xf8f0
  101d88:	e5830770 	str	r0, [r3, #1904]	; 0x770
  101d8c:	f57ff04f 	dsb	sy
  101d90:	ee070f35 	mcr	15, 0, r0, cr7, cr5, {1}
  101d94:	e2800020 	add	r0, r0, #32
  101d98:	e1510000 	cmp	r1, r0
  101d9c:	8afffff9 	bhi	101d88 <Xil_ICacheInvalidateRange+0x34>
  101da0:	f57ff04f 	dsb	sy
  101da4:	e129f002 	msr	CPSR_fc, r2
  101da8:	e12fff1e 	bx	lr

00101dac <Xil_L1DCacheInvalidate>:
  101dac:	e92d41f0 	push	{r4, r5, r6, r7, r8, lr}
  101db0:	e10f8000 	mrs	r8, CPSR
  101db4:	e38830c0 	orr	r3, r8, #192	; 0xc0
  101db8:	e129f003 	msr	CPSR_fc, r3
  101dbc:	e30a07c0 	movw	r0, #42944	; 0xa7c0
  101dc0:	e30c17c0 	movw	r1, #51136	; 0xc7c0
  101dc4:	e3400010 	movt	r0, #16
  101dc8:	e3401010 	movt	r1, #16
  101dcc:	e0601001 	rsb	r1, r0, r1
  101dd0:	ebffffaa 	bl	101c80 <Xil_DCacheFlushRange>
  101dd4:	e3a03000 	mov	r3, #0
  101dd8:	ee403f10 	mcr	15, 2, r3, cr0, cr0, {0}
  101ddc:	ee304f10 	mrc	15, 1, r4, cr0, cr0, {0}
  101de0:	e7e806d4 	ubfx	r0, r4, #13, #9
  101de4:	e7e671d4 	ubfx	r7, r4, #3, #7
  101de8:	e2800001 	add	r0, r0, #1
  101dec:	e2877001 	add	r7, r7, #1
  101df0:	e3a05001 	mov	r5, #1
  101df4:	e3a06000 	mov	r6, #0
  101df8:	e1a00380 	lsl	r0, r0, #7
  101dfc:	e1a01007 	mov	r1, r7
  101e00:	eb000277 	bl	1027e4 <__aeabi_uidiv>
  101e04:	e2043007 	and	r3, r4, #7
  101e08:	e2833004 	add	r3, r3, #4
  101e0c:	e1a05315 	lsl	r5, r5, r3
  101e10:	e1a00330 	lsr	r0, r0, r3
  101e14:	e3500000 	cmp	r0, #0
  101e18:	e1a04f06 	lsl	r4, r6, #30
  101e1c:	0a000007 	beq	101e40 <Xil_L1DCacheInvalidate+0x94>
  101e20:	e3a03000 	mov	r3, #0
  101e24:	e1a02003 	mov	r2, r3
  101e28:	e182c004 	orr	ip, r2, r4
  101e2c:	ee07cf56 	mcr	15, 0, ip, cr7, cr6, {2}
  101e30:	e2833001 	add	r3, r3, #1
  101e34:	e0822005 	add	r2, r2, r5
  101e38:	e1530000 	cmp	r3, r0
  101e3c:	1afffff9 	bne	101e28 <Xil_L1DCacheInvalidate+0x7c>
  101e40:	e2866001 	add	r6, r6, #1
  101e44:	e1570006 	cmp	r7, r6
  101e48:	8afffff1 	bhi	101e14 <Xil_L1DCacheInvalidate+0x68>
  101e4c:	f57ff04f 	dsb	sy
  101e50:	e129f008 	msr	CPSR_fc, r8
  101e54:	e8bd81f0 	pop	{r4, r5, r6, r7, r8, pc}

00101e58 <Xil_L1DCacheEnable>:
  101e58:	e92d4010 	push	{r4, lr}
  101e5c:	ee114f10 	mrc	15, 0, r4, cr1, cr0, {0}
  101e60:	e3140004 	tst	r4, #4
  101e64:	18bd8010 	popne	{r4, pc}
  101e68:	ebffffcf 	bl	101dac <Xil_L1DCacheInvalidate>
  101e6c:	e3844004 	orr	r4, r4, #4
  101e70:	ee014f10 	mcr	15, 0, r4, cr1, cr0, {0}
  101e74:	e8bd8010 	pop	{r4, pc}

00101e78 <Xil_L1DCacheInvalidateLine>:
  101e78:	e3a03000 	mov	r3, #0
  101e7c:	ee403f10 	mcr	15, 2, r3, cr0, cr0, {0}
  101e80:	e3c0001f 	bic	r0, r0, #31
  101e84:	ee070f36 	mcr	15, 0, r0, cr7, cr6, {1}
  101e88:	f57ff04f 	dsb	sy
  101e8c:	e12fff1e 	bx	lr

00101e90 <Xil_L1DCacheInvalidateRange>:
  101e90:	e10f3000 	mrs	r3, CPSR
  101e94:	e38320c0 	orr	r2, r3, #192	; 0xc0
  101e98:	e129f002 	msr	CPSR_fc, r2
  101e9c:	e3510000 	cmp	r1, #0
  101ea0:	0a000009 	beq	101ecc <Xil_L1DCacheInvalidateRange+0x3c>
  101ea4:	e0811000 	add	r1, r1, r0
  101ea8:	e3a02000 	mov	r2, #0
  101eac:	e3c0001f 	bic	r0, r0, #31
  101eb0:	ee402f10 	mcr	15, 2, r2, cr0, cr0, {0}
  101eb4:	e1510000 	cmp	r1, r0
  101eb8:	9a000003 	bls	101ecc <Xil_L1DCacheInvalidateRange+0x3c>
  101ebc:	ee070f36 	mcr	15, 0, r0, cr7, cr6, {1}
  101ec0:	e2800020 	add	r0, r0, #32
  101ec4:	e1510000 	cmp	r1, r0
  101ec8:	8afffffb 	bhi	101ebc <Xil_L1DCacheInvalidateRange+0x2c>
  101ecc:	f57ff04f 	dsb	sy
  101ed0:	e129f003 	msr	CPSR_fc, r3
  101ed4:	e12fff1e 	bx	lr

00101ed8 <Xil_L1DCacheFlush>:
  101ed8:	e92d41f0 	push	{r4, r5, r6, r7, r8, lr}
  101edc:	e10f8000 	mrs	r8, CPSR
  101ee0:	e38830c0 	orr	r3, r8, #192	; 0xc0
  101ee4:	e129f003 	msr	CPSR_fc, r3
  101ee8:	e3a03000 	mov	r3, #0
  101eec:	ee403f10 	mcr	15, 2, r3, cr0, cr0, {0}
  101ef0:	ee304f10 	mrc	15, 1, r4, cr0, cr0, {0}
  101ef4:	e7e806d4 	ubfx	r0, r4, #13, #9
  101ef8:	e7e671d4 	ubfx	r7, r4, #3, #7
  101efc:	e2800001 	add	r0, r0, #1
  101f00:	e2877001 	add	r7, r7, #1
  101f04:	e3a05001 	mov	r5, #1
  101f08:	e3a06000 	mov	r6, #0
  101f0c:	e1a00380 	lsl	r0, r0, #7
  101f10:	e1a01007 	mov	r1, r7
  101f14:	eb000232 	bl	1027e4 <__aeabi_uidiv>
  101f18:	e2043007 	and	r3, r4, #7
  101f1c:	e2833004 	add	r3, r3, #4
  101f20:	e1a05315 	lsl	r5, r5, r3
  101f24:	e1a00330 	lsr	r0, r0, r3
  101f28:	e3500000 	cmp	r0, #0
  101f2c:	e1a04f06 	lsl	r4, r6, #30
  101f30:	0a000007 	beq	101f54 <Xil_L1DCacheFlush+0x7c>
  101f34:	e3a03000 	mov	r3, #0
  101f38:	e1a02003 	mov	r2, r3
  101f3c:	e182c004 	orr	ip, r2, r4
  101f40:	ee07cf5e 	mcr	15, 0, ip, cr7, cr14, {2}
  101f44:	e2833001 	add	r3, r3, #1
  101f48:	e0822005 	add	r2, r2, r5
  101f4c:	e1530000 	cmp	r3, r0
  101f50:	1afffff9 	bne	101f3c <Xil_L1DCacheFlush+0x64>
  101f54:	e2866001 	add	r6, r6, #1
  101f58:	e1570006 	cmp	r7, r6
  101f5c:	8afffff1 	bhi	101f28 <Xil_L1DCacheFlush+0x50>
  101f60:	f57ff04f 	dsb	sy
  101f64:	e129f008 	msr	CPSR_fc, r8
  101f68:	e8bd81f0 	pop	{r4, r5, r6, r7, r8, pc}

00101f6c <Xil_L1DCacheDisable>:
  101f6c:	e92d4008 	push	{r3, lr}
  101f70:	ebffffd8 	bl	101ed8 <Xil_L1DCacheFlush>
  101f74:	ee113f10 	mrc	15, 0, r3, cr1, cr0, {0}
  101f78:	e3c33004 	bic	r3, r3, #4
  101f7c:	ee013f10 	mcr	15, 0, r3, cr1, cr0, {0}
  101f80:	e8bd8008 	pop	{r3, pc}

00101f84 <Xil_L1DCacheFlushLine>:
  101f84:	e3a03000 	mov	r3, #0
  101f88:	ee403f10 	mcr	15, 2, r3, cr0, cr0, {0}
  101f8c:	e3c0001f 	bic	r0, r0, #31
  101f90:	ee070f3e 	mcr	15, 0, r0, cr7, cr14, {1}
  101f94:	f57ff04f 	dsb	sy
  101f98:	e12fff1e 	bx	lr

00101f9c <Xil_L1DCacheFlushRange>:
  101f9c:	e10f3000 	mrs	r3, CPSR
  101fa0:	e38320c0 	orr	r2, r3, #192	; 0xc0
  101fa4:	e129f002 	msr	CPSR_fc, r2
  101fa8:	e3510000 	cmp	r1, #0
  101fac:	0a000009 	beq	101fd8 <Xil_L1DCacheFlushRange+0x3c>
  101fb0:	e0811000 	add	r1, r1, r0
  101fb4:	e3a02000 	mov	r2, #0
  101fb8:	e3c0001f 	bic	r0, r0, #31
  101fbc:	ee402f10 	mcr	15, 2, r2, cr0, cr0, {0}
  101fc0:	e1510000 	cmp	r1, r0
  101fc4:	9a000003 	bls	101fd8 <Xil_L1DCacheFlushRange+0x3c>
  101fc8:	ee070f3e 	mcr	15, 0, r0, cr7, cr14, {1}
  101fcc:	e2800020 	add	r0, r0, #32
  101fd0:	e1510000 	cmp	r1, r0
  101fd4:	8afffffb 	bhi	101fc8 <Xil_L1DCacheFlushRange+0x2c>
  101fd8:	f57ff04f 	dsb	sy
  101fdc:	e129f003 	msr	CPSR_fc, r3
  101fe0:	e12fff1e 	bx	lr

00101fe4 <Xil_L1DCacheStoreLine>:
  101fe4:	e3a03000 	mov	r3, #0
  101fe8:	ee403f10 	mcr	15, 2, r3, cr0, cr0, {0}
  101fec:	e3c0001f 	bic	r0, r0, #31
  101ff0:	ee070f3a 	mcr	15, 0, r0, cr7, cr10, {1}
  101ff4:	f57ff04f 	dsb	sy
  101ff8:	e12fff1e 	bx	lr

00101ffc <Xil_L1ICacheEnable>:
  101ffc:	ee113f10 	mrc	15, 0, r3, cr1, cr0, {0}
  102000:	e2132a01 	ands	r2, r3, #4096	; 0x1000
  102004:	112fff1e 	bxne	lr
  102008:	ee072f15 	mcr	15, 0, r2, cr7, cr5, {0}
  10200c:	e3833a01 	orr	r3, r3, #4096	; 0x1000
  102010:	ee013f10 	mcr	15, 0, r3, cr1, cr0, {0}
  102014:	e12fff1e 	bx	lr

00102018 <Xil_L1ICacheDisable>:
  102018:	f57ff04f 	dsb	sy
  10201c:	e3a03000 	mov	r3, #0
  102020:	ee073f15 	mcr	15, 0, r3, cr7, cr5, {0}
  102024:	ee113f10 	mrc	15, 0, r3, cr1, cr0, {0}
  102028:	e3c33a01 	bic	r3, r3, #4096	; 0x1000
  10202c:	ee013f10 	mcr	15, 0, r3, cr1, cr0, {0}
  102030:	e12fff1e 	bx	lr

00102034 <Xil_L1ICacheInvalidate>:
  102034:	e3a03001 	mov	r3, #1
  102038:	ee403f10 	mcr	15, 2, r3, cr0, cr0, {0}
  10203c:	e3a03000 	mov	r3, #0
  102040:	ee073f15 	mcr	15, 0, r3, cr7, cr5, {0}
  102044:	f57ff04f 	dsb	sy
  102048:	e12fff1e 	bx	lr

0010204c <Xil_L1ICacheInvalidateLine>:
  10204c:	e3a03001 	mov	r3, #1
  102050:	ee403f10 	mcr	15, 2, r3, cr0, cr0, {0}
  102054:	e3c0001f 	bic	r0, r0, #31
  102058:	ee070f35 	mcr	15, 0, r0, cr7, cr5, {1}
  10205c:	f57ff04f 	dsb	sy
  102060:	e12fff1e 	bx	lr

00102064 <Xil_L1ICacheInvalidateRange>:
  102064:	e10f3000 	mrs	r3, CPSR
  102068:	e38320c0 	orr	r2, r3, #192	; 0xc0
  10206c:	e129f002 	msr	CPSR_fc, r2
  102070:	e3510000 	cmp	r1, #0
  102074:	0a000009 	beq	1020a0 <Xil_L1ICacheInvalidateRange+0x3c>
  102078:	e0811000 	add	r1, r1, r0
  10207c:	e3a02001 	mov	r2, #1
  102080:	e3c0001f 	bic	r0, r0, #31
  102084:	ee402f10 	mcr	15, 2, r2, cr0, cr0, {0}
  102088:	e1510000 	cmp	r1, r0
  10208c:	9a000003 	bls	1020a0 <Xil_L1ICacheInvalidateRange+0x3c>
  102090:	ee070f35 	mcr	15, 0, r0, cr7, cr5, {1}
  102094:	e2800020 	add	r0, r0, #32
  102098:	e1510000 	cmp	r1, r0
  10209c:	8afffffb 	bhi	102090 <Xil_L1ICacheInvalidateRange+0x2c>
  1020a0:	f57ff04f 	dsb	sy
  1020a4:	e129f003 	msr	CPSR_fc, r3
  1020a8:	e12fff1e 	bx	lr

001020ac <Xil_L2CacheInvalidate>:
  1020ac:	e302077c 	movw	r0, #10108	; 0x277c
  1020b0:	e30f1fff 	movw	r1, #65535	; 0xffff
  1020b4:	e92d4008 	push	{r3, lr}
  1020b8:	e34f08f0 	movt	r0, #63728	; 0xf8f0
  1020bc:	eb00016a 	bl	10266c <Xil_Out32>
  1020c0:	e302077c 	movw	r0, #10108	; 0x277c
  1020c4:	e34f08f0 	movt	r0, #63728	; 0xf8f0
  1020c8:	eb000161 	bl	102654 <Xil_In32>
  1020cc:	e6ff1070 	uxth	r1, r0
  1020d0:	e3510000 	cmp	r1, #0
  1020d4:	1afffff9 	bne	1020c0 <Xil_L2CacheInvalidate+0x14>
  1020d8:	e3a00d9d 	mov	r0, #10048	; 0x2740
  1020dc:	e34f08f0 	movt	r0, #63728	; 0xf8f0
  1020e0:	eb000161 	bl	10266c <Xil_Out32>
  1020e4:	f57ff04f 	dsb	sy
  1020e8:	e8bd8008 	pop	{r3, pc}

001020ec <Xil_DCacheInvalidate>:
  1020ec:	e92d4010 	push	{r4, lr}
  1020f0:	e10f4000 	mrs	r4, CPSR
  1020f4:	e38430c0 	orr	r3, r4, #192	; 0xc0
  1020f8:	e129f003 	msr	CPSR_fc, r3
  1020fc:	ebffffea 	bl	1020ac <Xil_L2CacheInvalidate>
  102100:	ebffff29 	bl	101dac <Xil_L1DCacheInvalidate>
  102104:	e129f004 	msr	CPSR_fc, r4
  102108:	e8bd8010 	pop	{r4, pc}

0010210c <Xil_ICacheInvalidate>:
  10210c:	e92d4010 	push	{r4, lr}
  102110:	e10f4000 	mrs	r4, CPSR
  102114:	e38430c0 	orr	r3, r4, #192	; 0xc0
  102118:	e129f003 	msr	CPSR_fc, r3
  10211c:	ebffffe2 	bl	1020ac <Xil_L2CacheInvalidate>
  102120:	e3a03001 	mov	r3, #1
  102124:	ee403f10 	mcr	15, 2, r3, cr0, cr0, {0}
  102128:	e3a03000 	mov	r3, #0
  10212c:	ee073f15 	mcr	15, 0, r3, cr7, cr5, {0}
  102130:	f57ff04f 	dsb	sy
  102134:	e129f004 	msr	CPSR_fc, r4
  102138:	e8bd8010 	pop	{r4, pc}

0010213c <Xil_L2CacheEnable>:
  10213c:	e92d4010 	push	{r4, lr}
  102140:	e3a00c21 	mov	r0, #8448	; 0x2100
  102144:	e34f08f0 	movt	r0, #63728	; 0xf8f0
  102148:	eb000141 	bl	102654 <Xil_In32>
  10214c:	e2104001 	ands	r4, r0, #1
  102150:	18bd8010 	popne	{r4, pc}
  102154:	e3020104 	movw	r0, #8452	; 0x2104
  102158:	e34f08f0 	movt	r0, #63728	; 0xf8f0
  10215c:	eb00013c 	bl	102654 <Xil_In32>
  102160:	e3c0180e 	bic	r1, r0, #917504	; 0xe0000
  102164:	e3020104 	movw	r0, #8452	; 0x2104
  102168:	e3811472 	orr	r1, r1, #1912602624	; 0x72000000
  10216c:	e34f08f0 	movt	r0, #63728	; 0xf8f0
  102170:	e3811836 	orr	r1, r1, #3538944	; 0x360000
  102174:	eb00013c 	bl	10266c <Xil_Out32>
  102178:	e3001111 	movw	r1, #273	; 0x111
  10217c:	e3020108 	movw	r0, #8456	; 0x2108
  102180:	e34f08f0 	movt	r0, #63728	; 0xf8f0
  102184:	eb000138 	bl	10266c <Xil_Out32>
  102188:	e3001121 	movw	r1, #289	; 0x121
  10218c:	e302010c 	movw	r0, #8460	; 0x210c
  102190:	e34f08f0 	movt	r0, #63728	; 0xf8f0
  102194:	eb000134 	bl	10266c <Xil_Out32>
  102198:	e302021c 	movw	r0, #8732	; 0x221c
  10219c:	e34f08f0 	movt	r0, #63728	; 0xf8f0
  1021a0:	eb00012b 	bl	102654 <Xil_In32>
  1021a4:	e1a01000 	mov	r1, r0
  1021a8:	e3020220 	movw	r0, #8736	; 0x2220
  1021ac:	e34f08f0 	movt	r0, #63728	; 0xf8f0
  1021b0:	eb00012d 	bl	10266c <Xil_Out32>
  1021b4:	ebffffbc 	bl	1020ac <Xil_L2CacheInvalidate>
  1021b8:	e3a00c21 	mov	r0, #8448	; 0x2100
  1021bc:	e34f08f0 	movt	r0, #63728	; 0xf8f0
  1021c0:	eb000123 	bl	102654 <Xil_In32>
  1021c4:	e3801001 	orr	r1, r0, #1
  1021c8:	e3a00c21 	mov	r0, #8448	; 0x2100
  1021cc:	e34f08f0 	movt	r0, #63728	; 0xf8f0
  1021d0:	eb000125 	bl	10266c <Xil_Out32>
  1021d4:	e1a01004 	mov	r1, r4
  1021d8:	e3a00d9d 	mov	r0, #10048	; 0x2740
  1021dc:	e34f08f0 	movt	r0, #63728	; 0xf8f0
  1021e0:	eb000121 	bl	10266c <Xil_Out32>
  1021e4:	f57ff04f 	dsb	sy
  1021e8:	e8bd8010 	pop	{r4, pc}

001021ec <Xil_DCacheEnable>:
  1021ec:	e92d4008 	push	{r3, lr}
  1021f0:	ebffff18 	bl	101e58 <Xil_L1DCacheEnable>
  1021f4:	e8bd4008 	pop	{r3, lr}
  1021f8:	eaffffcf 	b	10213c <Xil_L2CacheEnable>

001021fc <Xil_ICacheEnable>:
  1021fc:	ee113f10 	mrc	15, 0, r3, cr1, cr0, {0}
  102200:	e2132a01 	ands	r2, r3, #4096	; 0x1000
  102204:	1a000002 	bne	102214 <Xil_ICacheEnable+0x18>
  102208:	ee072f15 	mcr	15, 0, r2, cr7, cr5, {0}
  10220c:	e3833a01 	orr	r3, r3, #4096	; 0x1000
  102210:	ee013f10 	mcr	15, 0, r3, cr1, cr0, {0}
  102214:	eaffffc8 	b	10213c <Xil_L2CacheEnable>

00102218 <Xil_L2CacheInvalidateLine>:
  102218:	e1a01000 	mov	r1, r0
  10221c:	e3020770 	movw	r0, #10096	; 0x2770
  102220:	e92d4008 	push	{r3, lr}
  102224:	e34f08f0 	movt	r0, #63728	; 0xf8f0
  102228:	eb00010f 	bl	10266c <Xil_Out32>
  10222c:	f57ff04f 	dsb	sy
  102230:	e8bd8008 	pop	{r3, pc}

00102234 <Xil_L2CacheInvalidateRange>:
  102234:	e92d4070 	push	{r4, r5, r6, lr}
  102238:	e10f6000 	mrs	r6, CPSR
  10223c:	e38630c0 	orr	r3, r6, #192	; 0xc0
  102240:	e129f003 	msr	CPSR_fc, r3
  102244:	e3510000 	cmp	r1, #0
  102248:	1a000002 	bne	102258 <Xil_L2CacheInvalidateRange+0x24>
  10224c:	f57ff04f 	dsb	sy
  102250:	e129f006 	msr	CPSR_fc, r6
  102254:	e8bd8070 	pop	{r4, r5, r6, pc}
  102258:	e0815000 	add	r5, r1, r0
  10225c:	e3c0401f 	bic	r4, r0, #31
  102260:	e3a01003 	mov	r1, #3
  102264:	e3a00dbd 	mov	r0, #12096	; 0x2f40
  102268:	e34f08f0 	movt	r0, #63728	; 0xf8f0
  10226c:	eb0000fe 	bl	10266c <Xil_Out32>
  102270:	e1550004 	cmp	r5, r4
  102274:	83a03a02 	movhi	r3, #8192	; 0x2000
  102278:	834f38f0 	movthi	r3, #63728	; 0xf8f0
  10227c:	9a000003 	bls	102290 <Xil_L2CacheInvalidateRange+0x5c>
  102280:	e5834770 	str	r4, [r3, #1904]	; 0x770
  102284:	e2844020 	add	r4, r4, #32
  102288:	e1550004 	cmp	r5, r4
  10228c:	8afffffb 	bhi	102280 <Xil_L2CacheInvalidateRange+0x4c>
  102290:	e3a00dbd 	mov	r0, #12096	; 0x2f40
  102294:	e3a01000 	mov	r1, #0
  102298:	e34f08f0 	movt	r0, #63728	; 0xf8f0
  10229c:	eb0000f2 	bl	10266c <Xil_Out32>
  1022a0:	eaffffe9 	b	10224c <Xil_L2CacheInvalidateRange+0x18>

001022a4 <Xil_L2CacheFlush>:
  1022a4:	e3a01003 	mov	r1, #3
  1022a8:	e3a00dbd 	mov	r0, #12096	; 0x2f40
  1022ac:	e92d4010 	push	{r4, lr}
  1022b0:	e34f08f0 	movt	r0, #63728	; 0xf8f0
  1022b4:	eb0000ec 	bl	10266c <Xil_Out32>
  1022b8:	e30207fc 	movw	r0, #10236	; 0x27fc
  1022bc:	e30f1fff 	movw	r1, #65535	; 0xffff
  1022c0:	e34f08f0 	movt	r0, #63728	; 0xf8f0
  1022c4:	eb0000e8 	bl	10266c <Xil_Out32>
  1022c8:	e30207fc 	movw	r0, #10236	; 0x27fc
  1022cc:	e34f08f0 	movt	r0, #63728	; 0xf8f0
  1022d0:	eb0000df 	bl	102654 <Xil_In32>
  1022d4:	e6ff4070 	uxth	r4, r0
  1022d8:	e3540000 	cmp	r4, #0
  1022dc:	1afffff9 	bne	1022c8 <Xil_L2CacheFlush+0x24>
  1022e0:	e1a01004 	mov	r1, r4
  1022e4:	e3a00d9d 	mov	r0, #10048	; 0x2740
  1022e8:	e34f08f0 	movt	r0, #63728	; 0xf8f0
  1022ec:	eb0000de 	bl	10266c <Xil_Out32>
  1022f0:	e1a01004 	mov	r1, r4
  1022f4:	e3a00dbd 	mov	r0, #12096	; 0x2f40
  1022f8:	e34f08f0 	movt	r0, #63728	; 0xf8f0
  1022fc:	eb0000da 	bl	10266c <Xil_Out32>
  102300:	f57ff04f 	dsb	sy
  102304:	e8bd8010 	pop	{r4, pc}

00102308 <Xil_DCacheFlush>:
  102308:	e92d4010 	push	{r4, lr}
  10230c:	e10f4000 	mrs	r4, CPSR
  102310:	e38430c0 	orr	r3, r4, #192	; 0xc0
  102314:	e129f003 	msr	CPSR_fc, r3
  102318:	ebfffeee 	bl	101ed8 <Xil_L1DCacheFlush>
  10231c:	ebffffe0 	bl	1022a4 <Xil_L2CacheFlush>
  102320:	e129f004 	msr	CPSR_fc, r4
  102324:	e8bd8010 	pop	{r4, pc}

00102328 <Xil_L2CacheDisable>:
  102328:	e92d4008 	push	{r3, lr}
  10232c:	e3a00c21 	mov	r0, #8448	; 0x2100
  102330:	e34f08f0 	movt	r0, #63728	; 0xf8f0
  102334:	eb0000c6 	bl	102654 <Xil_In32>
  102338:	e3100001 	tst	r0, #1
  10233c:	08bd8008 	popeq	{r3, pc}
  102340:	ebffffd7 	bl	1022a4 <Xil_L2CacheFlush>
  102344:	e3a00c21 	mov	r0, #8448	; 0x2100
  102348:	e34f08f0 	movt	r0, #63728	; 0xf8f0
  10234c:	eb0000c0 	bl	102654 <Xil_In32>
  102350:	e3c01001 	bic	r1, r0, #1
  102354:	e3a00c21 	mov	r0, #8448	; 0x2100
  102358:	e34f08f0 	movt	r0, #63728	; 0xf8f0
  10235c:	eb0000c2 	bl	10266c <Xil_Out32>
  102360:	f57ff04f 	dsb	sy
  102364:	e8bd8008 	pop	{r3, pc}

00102368 <Xil_DCacheDisable>:
  102368:	e92d4008 	push	{r3, lr}
  10236c:	ebffffed 	bl	102328 <Xil_L2CacheDisable>
  102370:	ebfffed8 	bl	101ed8 <Xil_L1DCacheFlush>
  102374:	ee113f10 	mrc	15, 0, r3, cr1, cr0, {0}
  102378:	e3c33004 	bic	r3, r3, #4
  10237c:	ee013f10 	mcr	15, 0, r3, cr1, cr0, {0}
  102380:	e8bd8008 	pop	{r3, pc}

00102384 <Xil_ICacheDisable>:
  102384:	e92d4008 	push	{r3, lr}
  102388:	ebffffe6 	bl	102328 <Xil_L2CacheDisable>
  10238c:	f57ff04f 	dsb	sy
  102390:	e3a03000 	mov	r3, #0
  102394:	ee073f15 	mcr	15, 0, r3, cr7, cr5, {0}
  102398:	ee113f10 	mrc	15, 0, r3, cr1, cr0, {0}
  10239c:	e3c33a01 	bic	r3, r3, #4096	; 0x1000
  1023a0:	ee013f10 	mcr	15, 0, r3, cr1, cr0, {0}
  1023a4:	e8bd8008 	pop	{r3, pc}

001023a8 <Xil_L2CacheFlushLine>:
  1023a8:	e92d4010 	push	{r4, lr}
  1023ac:	e1a04000 	mov	r4, r0
  1023b0:	e1a01004 	mov	r1, r4
  1023b4:	e30207b0 	movw	r0, #10160	; 0x27b0
  1023b8:	e34f08f0 	movt	r0, #63728	; 0xf8f0
  1023bc:	eb0000aa 	bl	10266c <Xil_Out32>
  1023c0:	e1a01004 	mov	r1, r4
  1023c4:	e3020770 	movw	r0, #10096	; 0x2770
  1023c8:	e34f08f0 	movt	r0, #63728	; 0xf8f0
  1023cc:	eb0000a6 	bl	10266c <Xil_Out32>
  1023d0:	f57ff04f 	dsb	sy
  1023d4:	e8bd8010 	pop	{r4, pc}

001023d8 <Xil_DCacheInvalidateRange>:
  1023d8:	e92d40f8 	push	{r3, r4, r5, r6, r7, lr}
  1023dc:	e1a04000 	mov	r4, r0
  1023e0:	e10f6000 	mrs	r6, CPSR
  1023e4:	e38630c0 	orr	r3, r6, #192	; 0xc0
  1023e8:	e129f003 	msr	CPSR_fc, r3
  1023ec:	e3510000 	cmp	r1, #0
  1023f0:	0a000010 	beq	102438 <Xil_DCacheInvalidateRange+0x60>
  1023f4:	e0805001 	add	r5, r0, r1
  1023f8:	e3a03000 	mov	r3, #0
  1023fc:	ee403f10 	mcr	15, 2, r3, cr0, cr0, {0}
  102400:	e310001f 	tst	r0, #31
  102404:	1a000022 	bne	102494 <Xil_DCacheInvalidateRange+0xbc>
  102408:	e315001f 	tst	r5, #31
  10240c:	1a00000c 	bne	102444 <Xil_DCacheInvalidateRange+0x6c>
  102410:	e1540005 	cmp	r4, r5
  102414:	2a000007 	bcs	102438 <Xil_DCacheInvalidateRange+0x60>
  102418:	e3a03a02 	mov	r3, #8192	; 0x2000
  10241c:	e34f38f0 	movt	r3, #63728	; 0xf8f0
  102420:	e5834770 	str	r4, [r3, #1904]	; 0x770
  102424:	f57ff04f 	dsb	sy
  102428:	ee074f36 	mcr	15, 0, r4, cr7, cr6, {1}
  10242c:	e2844020 	add	r4, r4, #32
  102430:	e1540005 	cmp	r4, r5
  102434:	3afffff9 	bcc	102420 <Xil_DCacheInvalidateRange+0x48>
  102438:	f57ff04f 	dsb	sy
  10243c:	e129f006 	msr	CPSR_fc, r6
  102440:	e8bd80f8 	pop	{r3, r4, r5, r6, r7, pc}
  102444:	e3c5501f 	bic	r5, r5, #31
  102448:	e3a03000 	mov	r3, #0
  10244c:	ee403f10 	mcr	15, 2, r3, cr0, cr0, {0}
  102450:	ee075f3e 	mcr	15, 0, r5, cr7, cr14, {1}
  102454:	f57ff04f 	dsb	sy
  102458:	e3a01003 	mov	r1, #3
  10245c:	e3a00dbd 	mov	r0, #12096	; 0x2f40
  102460:	e34f08f0 	movt	r0, #63728	; 0xf8f0
  102464:	eb000080 	bl	10266c <Xil_Out32>
  102468:	e1a00005 	mov	r0, r5
  10246c:	ebffffcd 	bl	1023a8 <Xil_L2CacheFlushLine>
  102470:	e3a01000 	mov	r1, #0
  102474:	e3a00dbd 	mov	r0, #12096	; 0x2f40
  102478:	e34f08f0 	movt	r0, #63728	; 0xf8f0
  10247c:	eb00007a 	bl	10266c <Xil_Out32>
  102480:	e3a00d9d 	mov	r0, #10048	; 0x2740
  102484:	e3a01000 	mov	r1, #0
  102488:	e34f08f0 	movt	r0, #63728	; 0xf8f0
  10248c:	eb000076 	bl	10266c <Xil_Out32>
  102490:	eaffffde 	b	102410 <Xil_DCacheInvalidateRange+0x38>
  102494:	e3c0701f 	bic	r7, r0, #31
  102498:	ee403f10 	mcr	15, 2, r3, cr0, cr0, {0}
  10249c:	ee077f3e 	mcr	15, 0, r7, cr7, cr14, {1}
  1024a0:	f57ff04f 	dsb	sy
  1024a4:	e3a01003 	mov	r1, #3
  1024a8:	e3a00dbd 	mov	r0, #12096	; 0x2f40
  1024ac:	e34f08f0 	movt	r0, #63728	; 0xf8f0
  1024b0:	e2874020 	add	r4, r7, #32
  1024b4:	eb00006c 	bl	10266c <Xil_Out32>
  1024b8:	e1a00007 	mov	r0, r7
  1024bc:	ebffffb9 	bl	1023a8 <Xil_L2CacheFlushLine>
  1024c0:	e3a01000 	mov	r1, #0
  1024c4:	e3a00dbd 	mov	r0, #12096	; 0x2f40
  1024c8:	e34f08f0 	movt	r0, #63728	; 0xf8f0
  1024cc:	eb000066 	bl	10266c <Xil_Out32>
  1024d0:	e3a00d9d 	mov	r0, #10048	; 0x2740
  1024d4:	e3a01000 	mov	r1, #0
  1024d8:	e34f08f0 	movt	r0, #63728	; 0xf8f0
  1024dc:	eb000062 	bl	10266c <Xil_Out32>
  1024e0:	e315001f 	tst	r5, #31
  1024e4:	0affffc9 	beq	102410 <Xil_DCacheInvalidateRange+0x38>
  1024e8:	eaffffd5 	b	102444 <Xil_DCacheInvalidateRange+0x6c>

001024ec <Xil_DCacheFlushLine>:
  1024ec:	e92d4070 	push	{r4, r5, r6, lr}
  1024f0:	e1a06000 	mov	r6, r0
  1024f4:	e10f5000 	mrs	r5, CPSR
  1024f8:	e38530c0 	orr	r3, r5, #192	; 0xc0
  1024fc:	e129f003 	msr	CPSR_fc, r3
  102500:	e3a03000 	mov	r3, #0
  102504:	ee403f10 	mcr	15, 2, r3, cr0, cr0, {0}
  102508:	e3c0301f 	bic	r3, r0, #31
  10250c:	ee073f3e 	mcr	15, 0, r3, cr7, cr14, {1}
  102510:	f57ff04f 	dsb	sy
  102514:	e3a04dbd 	mov	r4, #12096	; 0x2f40
  102518:	e34f48f0 	movt	r4, #63728	; 0xf8f0
  10251c:	e3a01003 	mov	r1, #3
  102520:	e1a00004 	mov	r0, r4
  102524:	eb000050 	bl	10266c <Xil_Out32>
  102528:	e1a00006 	mov	r0, r6
  10252c:	ebffff9d 	bl	1023a8 <Xil_L2CacheFlushLine>
  102530:	e1a00004 	mov	r0, r4
  102534:	e3a01000 	mov	r1, #0
  102538:	eb00004b 	bl	10266c <Xil_Out32>
  10253c:	e3a01000 	mov	r1, #0
  102540:	e3a00d9d 	mov	r0, #10048	; 0x2740
  102544:	e34f08f0 	movt	r0, #63728	; 0xf8f0
  102548:	eb000047 	bl	10266c <Xil_Out32>
  10254c:	e129f005 	msr	CPSR_fc, r5
  102550:	e8bd8070 	pop	{r4, r5, r6, pc}

00102554 <Xil_L2CacheFlushRange>:
  102554:	e92d40f8 	push	{r3, r4, r5, r6, r7, lr}
  102558:	e10f7000 	mrs	r7, CPSR
  10255c:	e38730c0 	orr	r3, r7, #192	; 0xc0
  102560:	e129f003 	msr	CPSR_fc, r3
  102564:	e3510000 	cmp	r1, #0
  102568:	1a000002 	bne	102578 <Xil_L2CacheFlushRange+0x24>
  10256c:	f57ff04f 	dsb	sy
  102570:	e129f007 	msr	CPSR_fc, r7
  102574:	e8bd80f8 	pop	{r3, r4, r5, r6, r7, pc}
  102578:	e0815000 	add	r5, r1, r0
  10257c:	e3c0401f 	bic	r4, r0, #31
  102580:	e3a01003 	mov	r1, #3
  102584:	e3a00dbd 	mov	r0, #12096	; 0x2f40
  102588:	e34f08f0 	movt	r0, #63728	; 0xf8f0
  10258c:	eb000036 	bl	10266c <Xil_Out32>
  102590:	e1550004 	cmp	r5, r4
  102594:	83a06a02 	movhi	r6, #8192	; 0x2000
  102598:	834f68f0 	movthi	r6, #63728	; 0xf8f0
  10259c:	9a000007 	bls	1025c0 <Xil_L2CacheFlushRange+0x6c>
  1025a0:	e58647f0 	str	r4, [r6, #2032]	; 0x7f0
  1025a4:	e3a00d9d 	mov	r0, #10048	; 0x2740
  1025a8:	e2844020 	add	r4, r4, #32
  1025ac:	e34f08f0 	movt	r0, #63728	; 0xf8f0
  1025b0:	e3a01000 	mov	r1, #0
  1025b4:	eb00002c 	bl	10266c <Xil_Out32>
  1025b8:	e1550004 	cmp	r5, r4
  1025bc:	8afffff7 	bhi	1025a0 <Xil_L2CacheFlushRange+0x4c>
  1025c0:	e3a00dbd 	mov	r0, #12096	; 0x2f40
  1025c4:	e3a01000 	mov	r1, #0
  1025c8:	e34f08f0 	movt	r0, #63728	; 0xf8f0
  1025cc:	eb000026 	bl	10266c <Xil_Out32>
  1025d0:	eaffffe5 	b	10256c <Xil_L2CacheFlushRange+0x18>

001025d4 <Xil_L2CacheStoreLine>:
  1025d4:	e1a01000 	mov	r1, r0
  1025d8:	e30207b0 	movw	r0, #10160	; 0x27b0
  1025dc:	e92d4008 	push	{r3, lr}
  1025e0:	e34f08f0 	movt	r0, #63728	; 0xf8f0
  1025e4:	eb000020 	bl	10266c <Xil_Out32>
  1025e8:	f57ff04f 	dsb	sy
  1025ec:	e8bd8008 	pop	{r3, pc}

001025f0 <Xil_ExceptionNullHandler>:
  1025f0:	eafffffe 	b	1025f0 <Xil_ExceptionNullHandler>

001025f4 <Xil_DataAbortHandler>:
  1025f4:	ee153f10 	mrc	15, 0, r3, cr5, cr0, {0}
  1025f8:	eafffffe 	b	1025f8 <Xil_DataAbortHandler+0x4>

001025fc <Xil_PrefetchAbortHandler>:
  1025fc:	ee153f30 	mrc	15, 0, r3, cr5, cr0, {1}
  102600:	eafffffe 	b	102600 <Xil_PrefetchAbortHandler+0x4>

00102604 <Xil_ExceptionInit>:
  102604:	e12fff1e 	bx	lr

00102608 <Xil_ExceptionRegisterHandler>:
  102608:	e303397c 	movw	r3, #14716	; 0x397c
  10260c:	e3403010 	movt	r3, #16
  102610:	e083c180 	add	ip, r3, r0, lsl #3
  102614:	e7831180 	str	r1, [r3, r0, lsl #3]
  102618:	e58c2004 	str	r2, [ip, #4]
  10261c:	e12fff1e 	bx	lr

00102620 <Xil_ExceptionRemoveHandler>:
  102620:	e303397c 	movw	r3, #14716	; 0x397c
  102624:	e3403010 	movt	r3, #16
  102628:	e0831180 	add	r1, r3, r0, lsl #3
  10262c:	e30225f0 	movw	r2, #9712	; 0x25f0
  102630:	e3a0c000 	mov	ip, #0
  102634:	e3402010 	movt	r2, #16
  102638:	e7832180 	str	r2, [r3, r0, lsl #3]
  10263c:	e581c004 	str	ip, [r1, #4]
  102640:	e12fff1e 	bx	lr

00102644 <Xil_In8>:
  102644:	e5d00000 	ldrb	r0, [r0]
  102648:	e12fff1e 	bx	lr

0010264c <Xil_In16>:
  10264c:	e1d000b0 	ldrh	r0, [r0]
  102650:	e12fff1e 	bx	lr

00102654 <Xil_In32>:
  102654:	e5900000 	ldr	r0, [r0]
  102658:	e12fff1e 	bx	lr

0010265c <Xil_Out8>:
  10265c:	e5c01000 	strb	r1, [r0]
  102660:	e12fff1e 	bx	lr

00102664 <Xil_Out16>:
  102664:	e1c010b0 	strh	r1, [r0]
  102668:	e12fff1e 	bx	lr

0010266c <Xil_Out32>:
  10266c:	e5801000 	str	r1, [r0]
  102670:	e12fff1e 	bx	lr

00102674 <Xil_In16BE>:
  102674:	e1d000b0 	ldrh	r0, [r0]
  102678:	e6bf0fb0 	rev16	r0, r0
  10267c:	e6ff0070 	uxth	r0, r0
  102680:	e12fff1e 	bx	lr

00102684 <Xil_In32BE>:
  102684:	e5902000 	ldr	r2, [r0]
  102688:	e6ff3072 	uxth	r3, r2
  10268c:	e1a02822 	lsr	r2, r2, #16
  102690:	e6bf2fb2 	rev16	r2, r2
  102694:	e1a01423 	lsr	r1, r3, #8
  102698:	e1813403 	orr	r3, r1, r3, lsl #8
  10269c:	e6ff0072 	uxth	r0, r2
  1026a0:	e1800803 	orr	r0, r0, r3, lsl #16
  1026a4:	e12fff1e 	bx	lr

001026a8 <Xil_Out16BE>:
  1026a8:	e6bf1fb1 	rev16	r1, r1
  1026ac:	e1c010b0 	strh	r1, [r0]
  1026b0:	e12fff1e 	bx	lr

001026b4 <Xil_Out32BE>:
  1026b4:	e6ff3071 	uxth	r3, r1
  1026b8:	e1a01821 	lsr	r1, r1, #16
  1026bc:	e6bf1fb1 	rev16	r1, r1
  1026c0:	e1a02423 	lsr	r2, r3, #8
  1026c4:	e1823403 	orr	r3, r2, r3, lsl #8
  1026c8:	e6ff1071 	uxth	r1, r1
  1026cc:	e1813803 	orr	r3, r1, r3, lsl #16
  1026d0:	e5803000 	str	r3, [r0]
  1026d4:	e12fff1e 	bx	lr

001026d8 <Xil_EndianSwap16>:
  1026d8:	e6bf0fb0 	rev16	r0, r0
  1026dc:	e6ff0070 	uxth	r0, r0
  1026e0:	e12fff1e 	bx	lr

001026e4 <Xil_EndianSwap32>:
  1026e4:	e6ff3070 	uxth	r3, r0
  1026e8:	e1a00820 	lsr	r0, r0, #16
  1026ec:	e6bf0fb0 	rev16	r0, r0
  1026f0:	e1a02423 	lsr	r2, r3, #8
  1026f4:	e1823403 	orr	r3, r2, r3, lsl #8
  1026f8:	e6ff0070 	uxth	r0, r0
  1026fc:	e1800803 	orr	r0, r0, r3, lsl #16
  102700:	e12fff1e 	bx	lr

00102704 <XTime_SetTime>:
  102704:	e92d4070 	push	{r4, r5, r6, lr}
  102708:	e3a04f82 	mov	r4, #520	; 0x208
  10270c:	e34f48f0 	movt	r4, #63728	; 0xf8f0
  102710:	e1a06000 	mov	r6, r0
  102714:	e1a05001 	mov	r5, r1
  102718:	e3a01000 	mov	r1, #0
  10271c:	e1a00004 	mov	r0, r4
  102720:	ebffffd1 	bl	10266c <Xil_Out32>
  102724:	e1a01006 	mov	r1, r6
  102728:	e3a00c02 	mov	r0, #512	; 0x200
  10272c:	e34f08f0 	movt	r0, #63728	; 0xf8f0
  102730:	ebffffcd 	bl	10266c <Xil_Out32>
  102734:	e1a01005 	mov	r1, r5
  102738:	e3a00f81 	mov	r0, #516	; 0x204
  10273c:	e34f08f0 	movt	r0, #63728	; 0xf8f0
  102740:	ebffffc9 	bl	10266c <Xil_Out32>
  102744:	e1a00004 	mov	r0, r4
  102748:	e3a01001 	mov	r1, #1
  10274c:	e8bd4070 	pop	{r4, r5, r6, lr}
  102750:	eaffffc5 	b	10266c <Xil_Out32>

00102754 <XTime_GetTime>:
  102754:	e92d4070 	push	{r4, r5, r6, lr}
  102758:	e1a06000 	mov	r6, r0
  10275c:	e3a00f81 	mov	r0, #516	; 0x204
  102760:	e34f08f0 	movt	r0, #63728	; 0xf8f0
  102764:	ebffffba 	bl	102654 <Xil_In32>
  102768:	e1a04000 	mov	r4, r0
  10276c:	e3a00c02 	mov	r0, #512	; 0x200
  102770:	e34f08f0 	movt	r0, #63728	; 0xf8f0
  102774:	ebffffb6 	bl	102654 <Xil_In32>
  102778:	e1a05000 	mov	r5, r0
  10277c:	e3a00f81 	mov	r0, #516	; 0x204
  102780:	e34f08f0 	movt	r0, #63728	; 0xf8f0
  102784:	ebffffb2 	bl	102654 <Xil_In32>
  102788:	e1500004 	cmp	r0, r4
  10278c:	1afffff2 	bne	10275c <XTime_GetTime+0x8>
  102790:	e3a02000 	mov	r2, #0
  102794:	e1a03000 	mov	r3, r0
  102798:	e1822005 	orr	r2, r2, r5
  10279c:	e1c620f0 	strd	r2, [r6]
  1027a0:	e8bd8070 	pop	{r4, r5, r6, pc}

001027a4 <__cpu_init>:
  1027a4:	e3a00000 	mov	r0, #0
  1027a8:	ee050f10 	mcr	15, 0, r0, cr5, cr0, {0}
  1027ac:	ee050f30 	mcr	15, 0, r0, cr5, cr0, {1}
  1027b0:	ee060f10 	mcr	15, 0, r0, cr6, cr0, {0}
  1027b4:	ee060f50 	mcr	15, 0, r0, cr6, cr0, {2}
  1027b8:	ee090f5d 	mcr	15, 0, r0, cr9, cr13, {2}
  1027bc:	ee0d0f50 	mcr	15, 0, r0, cr13, cr0, {2}
  1027c0:	ee0d0f70 	mcr	15, 0, r0, cr13, cr0, {3}
  1027c4:	eeaf0f55 	mcr	15, 5, r0, cr15, cr5, {2}
  1027c8:	e3a02102 	mov	r2, #-2147483648	; 0x80000000
  1027cc:	ee092f7c 	mcr	15, 0, r2, cr9, cr12, {3}
  1027d0:	e3a0200d 	mov	r2, #13
  1027d4:	ee092f1c 	mcr	15, 0, r2, cr9, cr12, {0}
  1027d8:	e3a02102 	mov	r2, #-2147483648	; 0x80000000
  1027dc:	ee092f3c 	mcr	15, 0, r2, cr9, cr12, {1}
  1027e0:	e12fff1e 	bx	lr

001027e4 <__aeabi_uidiv>:
  1027e4:	e2512001 	subs	r2, r1, #1
  1027e8:	012fff1e 	bxeq	lr
  1027ec:	3a000074 	bcc	1029c4 <__aeabi_uidiv+0x1e0>
  1027f0:	e1500001 	cmp	r0, r1
  1027f4:	9a00006b 	bls	1029a8 <__aeabi_uidiv+0x1c4>
  1027f8:	e1110002 	tst	r1, r2
  1027fc:	0a00006c 	beq	1029b4 <__aeabi_uidiv+0x1d0>
  102800:	e16f3f10 	clz	r3, r0
  102804:	e16f2f11 	clz	r2, r1
  102808:	e0423003 	sub	r3, r2, r3
  10280c:	e273301f 	rsbs	r3, r3, #31
  102810:	10833083 	addne	r3, r3, r3, lsl #1
  102814:	e3a02000 	mov	r2, #0
  102818:	108ff103 	addne	pc, pc, r3, lsl #2
  10281c:	e320f000 	nop	{0}
  102820:	e1500f81 	cmp	r0, r1, lsl #31
  102824:	e0a22002 	adc	r2, r2, r2
  102828:	20400f81 	subcs	r0, r0, r1, lsl #31
  10282c:	e1500f01 	cmp	r0, r1, lsl #30
  102830:	e0a22002 	adc	r2, r2, r2
  102834:	20400f01 	subcs	r0, r0, r1, lsl #30
  102838:	e1500e81 	cmp	r0, r1, lsl #29
  10283c:	e0a22002 	adc	r2, r2, r2
  102840:	20400e81 	subcs	r0, r0, r1, lsl #29
  102844:	e1500e01 	cmp	r0, r1, lsl #28
  102848:	e0a22002 	adc	r2, r2, r2
  10284c:	20400e01 	subcs	r0, r0, r1, lsl #28
  102850:	e1500d81 	cmp	r0, r1, lsl #27
  102854:	e0a22002 	adc	r2, r2, r2
  102858:	20400d81 	subcs	r0, r0, r1, lsl #27
  10285c:	e1500d01 	cmp	r0, r1, lsl #26
  102860:	e0a22002 	adc	r2, r2, r2
  102864:	20400d01 	subcs	r0, r0, r1, lsl #26
  102868:	e1500c81 	cmp	r0, r1, lsl #25
  10286c:	e0a22002 	adc	r2, r2, r2
  102870:	20400c81 	subcs	r0, r0, r1, lsl #25
  102874:	e1500c01 	cmp	r0, r1, lsl #24
  102878:	e0a22002 	adc	r2, r2, r2
  10287c:	20400c01 	subcs	r0, r0, r1, lsl #24
  102880:	e1500b81 	cmp	r0, r1, lsl #23
  102884:	e0a22002 	adc	r2, r2, r2
  102888:	20400b81 	subcs	r0, r0, r1, lsl #23
  10288c:	e1500b01 	cmp	r0, r1, lsl #22
  102890:	e0a22002 	adc	r2, r2, r2
  102894:	20400b01 	subcs	r0, r0, r1, lsl #22
  102898:	e1500a81 	cmp	r0, r1, lsl #21
  10289c:	e0a22002 	adc	r2, r2, r2
  1028a0:	20400a81 	subcs	r0, r0, r1, lsl #21
  1028a4:	e1500a01 	cmp	r0, r1, lsl #20
  1028a8:	e0a22002 	adc	r2, r2, r2
  1028ac:	20400a01 	subcs	r0, r0, r1, lsl #20
  1028b0:	e1500981 	cmp	r0, r1, lsl #19
  1028b4:	e0a22002 	adc	r2, r2, r2
  1028b8:	20400981 	subcs	r0, r0, r1, lsl #19
  1028bc:	e1500901 	cmp	r0, r1, lsl #18
  1028c0:	e0a22002 	adc	r2, r2, r2
  1028c4:	20400901 	subcs	r0, r0, r1, lsl #18
  1028c8:	e1500881 	cmp	r0, r1, lsl #17
  1028cc:	e0a22002 	adc	r2, r2, r2
  1028d0:	20400881 	subcs	r0, r0, r1, lsl #17
  1028d4:	e1500801 	cmp	r0, r1, lsl #16
  1028d8:	e0a22002 	adc	r2, r2, r2
  1028dc:	20400801 	subcs	r0, r0, r1, lsl #16
  1028e0:	e1500781 	cmp	r0, r1, lsl #15
  1028e4:	e0a22002 	adc	r2, r2, r2
  1028e8:	20400781 	subcs	r0, r0, r1, lsl #15
  1028ec:	e1500701 	cmp	r0, r1, lsl #14
  1028f0:	e0a22002 	adc	r2, r2, r2
  1028f4:	20400701 	subcs	r0, r0, r1, lsl #14
  1028f8:	e1500681 	cmp	r0, r1, lsl #13
  1028fc:	e0a22002 	adc	r2, r2, r2
  102900:	20400681 	subcs	r0, r0, r1, lsl #13
  102904:	e1500601 	cmp	r0, r1, lsl #12
  102908:	e0a22002 	adc	r2, r2, r2
  10290c:	20400601 	subcs	r0, r0, r1, lsl #12
  102910:	e1500581 	cmp	r0, r1, lsl #11
  102914:	e0a22002 	adc	r2, r2, r2
  102918:	20400581 	subcs	r0, r0, r1, lsl #11
  10291c:	e1500501 	cmp	r0, r1, lsl #10
  102920:	e0a22002 	adc	r2, r2, r2
  102924:	20400501 	subcs	r0, r0, r1, lsl #10
  102928:	e1500481 	cmp	r0, r1, lsl #9
  10292c:	e0a22002 	adc	r2, r2, r2
  102930:	20400481 	subcs	r0, r0, r1, lsl #9
  102934:	e1500401 	cmp	r0, r1, lsl #8
  102938:	e0a22002 	adc	r2, r2, r2
  10293c:	20400401 	subcs	r0, r0, r1, lsl #8
  102940:	e1500381 	cmp	r0, r1, lsl #7
  102944:	e0a22002 	adc	r2, r2, r2
  102948:	20400381 	subcs	r0, r0, r1, lsl #7
  10294c:	e1500301 	cmp	r0, r1, lsl #6
  102950:	e0a22002 	adc	r2, r2, r2
  102954:	20400301 	subcs	r0, r0, r1, lsl #6
  102958:	e1500281 	cmp	r0, r1, lsl #5
  10295c:	e0a22002 	adc	r2, r2, r2
  102960:	20400281 	subcs	r0, r0, r1, lsl #5
  102964:	e1500201 	cmp	r0, r1, lsl #4
  102968:	e0a22002 	adc	r2, r2, r2
  10296c:	20400201 	subcs	r0, r0, r1, lsl #4
  102970:	e1500181 	cmp	r0, r1, lsl #3
  102974:	e0a22002 	adc	r2, r2, r2
  102978:	20400181 	subcs	r0, r0, r1, lsl #3
  10297c:	e1500101 	cmp	r0, r1, lsl #2
  102980:	e0a22002 	adc	r2, r2, r2
  102984:	20400101 	subcs	r0, r0, r1, lsl #2
  102988:	e1500081 	cmp	r0, r1, lsl #1
  10298c:	e0a22002 	adc	r2, r2, r2
  102990:	20400081 	subcs	r0, r0, r1, lsl #1
  102994:	e1500001 	cmp	r0, r1
  102998:	e0a22002 	adc	r2, r2, r2
  10299c:	20400001 	subcs	r0, r0, r1
  1029a0:	e1a00002 	mov	r0, r2
  1029a4:	e12fff1e 	bx	lr
  1029a8:	03a00001 	moveq	r0, #1
  1029ac:	13a00000 	movne	r0, #0
  1029b0:	e12fff1e 	bx	lr
  1029b4:	e16f2f11 	clz	r2, r1
  1029b8:	e262201f 	rsb	r2, r2, #31
  1029bc:	e1a00230 	lsr	r0, r0, r2
  1029c0:	e12fff1e 	bx	lr
  1029c4:	e3500000 	cmp	r0, #0
  1029c8:	13e00000 	mvnne	r0, #0
  1029cc:	ea000097 	b	102c30 <__aeabi_idiv0>

001029d0 <__aeabi_uidivmod>:
  1029d0:	e3510000 	cmp	r1, #0
  1029d4:	0afffffa 	beq	1029c4 <__aeabi_uidiv+0x1e0>
  1029d8:	e92d4003 	push	{r0, r1, lr}
  1029dc:	ebffff80 	bl	1027e4 <__aeabi_uidiv>
  1029e0:	e8bd4006 	pop	{r1, r2, lr}
  1029e4:	e0030092 	mul	r3, r2, r0
  1029e8:	e0411003 	sub	r1, r1, r3
  1029ec:	e12fff1e 	bx	lr

001029f0 <__aeabi_idiv>:
  1029f0:	e3510000 	cmp	r1, #0
  1029f4:	0a000081 	beq	102c00 <.divsi3_skip_div0_test+0x208>

001029f8 <.divsi3_skip_div0_test>:
  1029f8:	e020c001 	eor	ip, r0, r1
  1029fc:	42611000 	rsbmi	r1, r1, #0
  102a00:	e2512001 	subs	r2, r1, #1
  102a04:	0a000070 	beq	102bcc <.divsi3_skip_div0_test+0x1d4>
  102a08:	e1b03000 	movs	r3, r0
  102a0c:	42603000 	rsbmi	r3, r0, #0
  102a10:	e1530001 	cmp	r3, r1
  102a14:	9a00006f 	bls	102bd8 <.divsi3_skip_div0_test+0x1e0>
  102a18:	e1110002 	tst	r1, r2
  102a1c:	0a000071 	beq	102be8 <.divsi3_skip_div0_test+0x1f0>
  102a20:	e16f2f13 	clz	r2, r3
  102a24:	e16f0f11 	clz	r0, r1
  102a28:	e0402002 	sub	r2, r0, r2
  102a2c:	e272201f 	rsbs	r2, r2, #31
  102a30:	10822082 	addne	r2, r2, r2, lsl #1
  102a34:	e3a00000 	mov	r0, #0
  102a38:	108ff102 	addne	pc, pc, r2, lsl #2
  102a3c:	e320f000 	nop	{0}
  102a40:	e1530f81 	cmp	r3, r1, lsl #31
  102a44:	e0a00000 	adc	r0, r0, r0
  102a48:	20433f81 	subcs	r3, r3, r1, lsl #31
  102a4c:	e1530f01 	cmp	r3, r1, lsl #30
  102a50:	e0a00000 	adc	r0, r0, r0
  102a54:	20433f01 	subcs	r3, r3, r1, lsl #30
  102a58:	e1530e81 	cmp	r3, r1, lsl #29
  102a5c:	e0a00000 	adc	r0, r0, r0
  102a60:	20433e81 	subcs	r3, r3, r1, lsl #29
  102a64:	e1530e01 	cmp	r3, r1, lsl #28
  102a68:	e0a00000 	adc	r0, r0, r0
  102a6c:	20433e01 	subcs	r3, r3, r1, lsl #28
  102a70:	e1530d81 	cmp	r3, r1, lsl #27
  102a74:	e0a00000 	adc	r0, r0, r0
  102a78:	20433d81 	subcs	r3, r3, r1, lsl #27
  102a7c:	e1530d01 	cmp	r3, r1, lsl #26
  102a80:	e0a00000 	adc	r0, r0, r0
  102a84:	20433d01 	subcs	r3, r3, r1, lsl #26
  102a88:	e1530c81 	cmp	r3, r1, lsl #25
  102a8c:	e0a00000 	adc	r0, r0, r0
  102a90:	20433c81 	subcs	r3, r3, r1, lsl #25
  102a94:	e1530c01 	cmp	r3, r1, lsl #24
  102a98:	e0a00000 	adc	r0, r0, r0
  102a9c:	20433c01 	subcs	r3, r3, r1, lsl #24
  102aa0:	e1530b81 	cmp	r3, r1, lsl #23
  102aa4:	e0a00000 	adc	r0, r0, r0
  102aa8:	20433b81 	subcs	r3, r3, r1, lsl #23
  102aac:	e1530b01 	cmp	r3, r1, lsl #22
  102ab0:	e0a00000 	adc	r0, r0, r0
  102ab4:	20433b01 	subcs	r3, r3, r1, lsl #22
  102ab8:	e1530a81 	cmp	r3, r1, lsl #21
  102abc:	e0a00000 	adc	r0, r0, r0
  102ac0:	20433a81 	subcs	r3, r3, r1, lsl #21
  102ac4:	e1530a01 	cmp	r3, r1, lsl #20
  102ac8:	e0a00000 	adc	r0, r0, r0
  102acc:	20433a01 	subcs	r3, r3, r1, lsl #20
  102ad0:	e1530981 	cmp	r3, r1, lsl #19
  102ad4:	e0a00000 	adc	r0, r0, r0
  102ad8:	20433981 	subcs	r3, r3, r1, lsl #19
  102adc:	e1530901 	cmp	r3, r1, lsl #18
  102ae0:	e0a00000 	adc	r0, r0, r0
  102ae4:	20433901 	subcs	r3, r3, r1, lsl #18
  102ae8:	e1530881 	cmp	r3, r1, lsl #17
  102aec:	e0a00000 	adc	r0, r0, r0
  102af0:	20433881 	subcs	r3, r3, r1, lsl #17
  102af4:	e1530801 	cmp	r3, r1, lsl #16
  102af8:	e0a00000 	adc	r0, r0, r0
  102afc:	20433801 	subcs	r3, r3, r1, lsl #16
  102b00:	e1530781 	cmp	r3, r1, lsl #15
  102b04:	e0a00000 	adc	r0, r0, r0
  102b08:	20433781 	subcs	r3, r3, r1, lsl #15
  102b0c:	e1530701 	cmp	r3, r1, lsl #14
  102b10:	e0a00000 	adc	r0, r0, r0
  102b14:	20433701 	subcs	r3, r3, r1, lsl #14
  102b18:	e1530681 	cmp	r3, r1, lsl #13
  102b1c:	e0a00000 	adc	r0, r0, r0
  102b20:	20433681 	subcs	r3, r3, r1, lsl #13
  102b24:	e1530601 	cmp	r3, r1, lsl #12
  102b28:	e0a00000 	adc	r0, r0, r0
  102b2c:	20433601 	subcs	r3, r3, r1, lsl #12
  102b30:	e1530581 	cmp	r3, r1, lsl #11
  102b34:	e0a00000 	adc	r0, r0, r0
  102b38:	20433581 	subcs	r3, r3, r1, lsl #11
  102b3c:	e1530501 	cmp	r3, r1, lsl #10
  102b40:	e0a00000 	adc	r0, r0, r0
  102b44:	20433501 	subcs	r3, r3, r1, lsl #10
  102b48:	e1530481 	cmp	r3, r1, lsl #9
  102b4c:	e0a00000 	adc	r0, r0, r0
  102b50:	20433481 	subcs	r3, r3, r1, lsl #9
  102b54:	e1530401 	cmp	r3, r1, lsl #8
  102b58:	e0a00000 	adc	r0, r0, r0
  102b5c:	20433401 	subcs	r3, r3, r1, lsl #8
  102b60:	e1530381 	cmp	r3, r1, lsl #7
  102b64:	e0a00000 	adc	r0, r0, r0
  102b68:	20433381 	subcs	r3, r3, r1, lsl #7
  102b6c:	e1530301 	cmp	r3, r1, lsl #6
  102b70:	e0a00000 	adc	r0, r0, r0
  102b74:	20433301 	subcs	r3, r3, r1, lsl #6
  102b78:	e1530281 	cmp	r3, r1, lsl #5
  102b7c:	e0a00000 	adc	r0, r0, r0
  102b80:	20433281 	subcs	r3, r3, r1, lsl #5
  102b84:	e1530201 	cmp	r3, r1, lsl #4
  102b88:	e0a00000 	adc	r0, r0, r0
  102b8c:	20433201 	subcs	r3, r3, r1, lsl #4
  102b90:	e1530181 	cmp	r3, r1, lsl #3
  102b94:	e0a00000 	adc	r0, r0, r0
  102b98:	20433181 	subcs	r3, r3, r1, lsl #3
  102b9c:	e1530101 	cmp	r3, r1, lsl #2
  102ba0:	e0a00000 	adc	r0, r0, r0
  102ba4:	20433101 	subcs	r3, r3, r1, lsl #2
  102ba8:	e1530081 	cmp	r3, r1, lsl #1
  102bac:	e0a00000 	adc	r0, r0, r0
  102bb0:	20433081 	subcs	r3, r3, r1, lsl #1
  102bb4:	e1530001 	cmp	r3, r1
  102bb8:	e0a00000 	adc	r0, r0, r0
  102bbc:	20433001 	subcs	r3, r3, r1
  102bc0:	e35c0000 	cmp	ip, #0
  102bc4:	42600000 	rsbmi	r0, r0, #0
  102bc8:	e12fff1e 	bx	lr
  102bcc:	e13c0000 	teq	ip, r0
  102bd0:	42600000 	rsbmi	r0, r0, #0
  102bd4:	e12fff1e 	bx	lr
  102bd8:	33a00000 	movcc	r0, #0
  102bdc:	01a00fcc 	asreq	r0, ip, #31
  102be0:	03800001 	orreq	r0, r0, #1
  102be4:	e12fff1e 	bx	lr
  102be8:	e16f2f11 	clz	r2, r1
  102bec:	e262201f 	rsb	r2, r2, #31
  102bf0:	e35c0000 	cmp	ip, #0
  102bf4:	e1a00233 	lsr	r0, r3, r2
  102bf8:	42600000 	rsbmi	r0, r0, #0
  102bfc:	e12fff1e 	bx	lr
  102c00:	e3500000 	cmp	r0, #0
  102c04:	c3e00102 	mvngt	r0, #-2147483648	; 0x80000000
  102c08:	b3a00102 	movlt	r0, #-2147483648	; 0x80000000
  102c0c:	ea000007 	b	102c30 <__aeabi_idiv0>

00102c10 <__aeabi_idivmod>:
  102c10:	e3510000 	cmp	r1, #0
  102c14:	0afffff9 	beq	102c00 <.divsi3_skip_div0_test+0x208>
  102c18:	e92d4003 	push	{r0, r1, lr}
  102c1c:	ebffff75 	bl	1029f8 <.divsi3_skip_div0_test>
  102c20:	e8bd4006 	pop	{r1, r2, lr}
  102c24:	e0030092 	mul	r3, r2, r0
  102c28:	e0411003 	sub	r1, r1, r3
  102c2c:	e12fff1e 	bx	lr

00102c30 <__aeabi_idiv0>:
  102c30:	e12fff1e 	bx	lr

00102c34 <exit>:
  102c34:	e92d4008 	push	{r3, lr}
  102c38:	e3a01000 	mov	r1, #0
  102c3c:	e1a04000 	mov	r4, r0
  102c40:	eb000037 	bl	102d24 <__call_exitprocs>
  102c44:	e3033970 	movw	r3, #14704	; 0x3970
  102c48:	e3403010 	movt	r3, #16
  102c4c:	e5930000 	ldr	r0, [r3]
  102c50:	e590303c 	ldr	r3, [r0, #60]	; 0x3c
  102c54:	e3530000 	cmp	r3, #0
  102c58:	0a000000 	beq	102c60 <exit+0x2c>
  102c5c:	e12fff33 	blx	r3
  102c60:	e1a00004 	mov	r0, r4
  102c64:	eb0000c9 	bl	102f90 <_exit>

00102c68 <__libc_fini_array>:
  102c68:	e92d4038 	push	{r3, r4, r5, lr}
  102c6c:	e308400c 	movw	r4, #32780	; 0x800c
  102c70:	e3085008 	movw	r5, #32776	; 0x8008
  102c74:	e3404010 	movt	r4, #16
  102c78:	e3405010 	movt	r5, #16
  102c7c:	e0654004 	rsb	r4, r5, r4
  102c80:	e1b04144 	asrs	r4, r4, #2
  102c84:	10855104 	addne	r5, r5, r4, lsl #2
  102c88:	0a000004 	beq	102ca0 <__libc_fini_array+0x38>
  102c8c:	e2444001 	sub	r4, r4, #1
  102c90:	e5353004 	ldr	r3, [r5, #-4]!
  102c94:	e12fff33 	blx	r3
  102c98:	e3540000 	cmp	r4, #0
  102c9c:	1afffffa 	bne	102c8c <__libc_fini_array+0x24>
  102ca0:	e8bd4038 	pop	{r3, r4, r5, lr}
  102ca4:	ea00010d 	b	1030e0 <_fini>

00102ca8 <__libc_init_array>:
  102ca8:	e92d4070 	push	{r4, r5, r6, lr}
  102cac:	e3086000 	movw	r6, #32768	; 0x8000
  102cb0:	e3085000 	movw	r5, #32768	; 0x8000
  102cb4:	e3406010 	movt	r6, #16
  102cb8:	e3405010 	movt	r5, #16
  102cbc:	e0656006 	rsb	r6, r5, r6
  102cc0:	e1b06146 	asrs	r6, r6, #2
  102cc4:	12455004 	subne	r5, r5, #4
  102cc8:	13a04000 	movne	r4, #0
  102ccc:	0a000004 	beq	102ce4 <__libc_init_array+0x3c>
  102cd0:	e2844001 	add	r4, r4, #1
  102cd4:	e5b53004 	ldr	r3, [r5, #4]!
  102cd8:	e12fff33 	blx	r3
  102cdc:	e1560004 	cmp	r6, r4
  102ce0:	1afffffa 	bne	102cd0 <__libc_init_array+0x28>
  102ce4:	e3086008 	movw	r6, #32776	; 0x8008
  102ce8:	e3085000 	movw	r5, #32768	; 0x8000
  102cec:	e3406010 	movt	r6, #16
  102cf0:	e3405010 	movt	r5, #16
  102cf4:	e0656006 	rsb	r6, r5, r6
  102cf8:	eb0000f2 	bl	1030c8 <_init>
  102cfc:	e1b06146 	asrs	r6, r6, #2
  102d00:	08bd8070 	popeq	{r4, r5, r6, pc}
  102d04:	e2455004 	sub	r5, r5, #4
  102d08:	e3a04000 	mov	r4, #0
  102d0c:	e2844001 	add	r4, r4, #1
  102d10:	e5b53004 	ldr	r3, [r5, #4]!
  102d14:	e12fff33 	blx	r3
  102d18:	e1560004 	cmp	r6, r4
  102d1c:	1afffffa 	bne	102d0c <__libc_init_array+0x64>
  102d20:	e8bd8070 	pop	{r4, r5, r6, pc}

00102d24 <__call_exitprocs>:
  102d24:	e3033970 	movw	r3, #14704	; 0x3970
  102d28:	e3403010 	movt	r3, #16
  102d2c:	e92d4ff0 	push	{r4, r5, r6, r7, r8, r9, sl, fp, lr}
  102d30:	e24dd014 	sub	sp, sp, #20
  102d34:	e5933000 	ldr	r3, [r3]
  102d38:	e1a07001 	mov	r7, r1
  102d3c:	e3a09001 	mov	r9, #1
  102d40:	e3002000 	movw	r2, #0
  102d44:	e58d0008 	str	r0, [sp, #8]
  102d48:	e3402000 	movt	r2, #0
  102d4c:	e58d3004 	str	r3, [sp, #4]
  102d50:	e2833f52 	add	r3, r3, #328	; 0x148
  102d54:	e58d2000 	str	r2, [sp]
  102d58:	e58d300c 	str	r3, [sp, #12]
  102d5c:	e59d2004 	ldr	r2, [sp, #4]
  102d60:	e5928148 	ldr	r8, [r2, #328]	; 0x148
  102d64:	e3580000 	cmp	r8, #0
  102d68:	0a000035 	beq	102e44 <__call_exitprocs+0x120>
  102d6c:	e59db00c 	ldr	fp, [sp, #12]
  102d70:	e5985004 	ldr	r5, [r8, #4]
  102d74:	e2554001 	subs	r4, r5, #1
  102d78:	52856002 	addpl	r6, r5, #2
  102d7c:	50885105 	addpl	r5, r8, r5, lsl #2
  102d80:	52855f42 	addpl	r5, r5, #264	; 0x108
  102d84:	50886106 	addpl	r6, r8, r6, lsl #2
  102d88:	5a000008 	bpl	102db0 <__call_exitprocs+0x8c>
  102d8c:	ea000029 	b	102e38 <__call_exitprocs+0x114>
  102d90:	e5153004 	ldr	r3, [r5, #-4]
  102d94:	e1530007 	cmp	r3, r7
  102d98:	0a000006 	beq	102db8 <__call_exitprocs+0x94>
  102d9c:	e2444001 	sub	r4, r4, #1
  102da0:	e2455004 	sub	r5, r5, #4
  102da4:	e3740001 	cmn	r4, #1
  102da8:	e2466004 	sub	r6, r6, #4
  102dac:	0a000021 	beq	102e38 <__call_exitprocs+0x114>
  102db0:	e3570000 	cmp	r7, #0
  102db4:	1afffff5 	bne	102d90 <__call_exitprocs+0x6c>
  102db8:	e5982004 	ldr	r2, [r8, #4]
  102dbc:	e5163004 	ldr	r3, [r6, #-4]
  102dc0:	e2422001 	sub	r2, r2, #1
  102dc4:	e1520004 	cmp	r2, r4
  102dc8:	05884004 	streq	r4, [r8, #4]
  102dcc:	13a02000 	movne	r2, #0
  102dd0:	15062004 	strne	r2, [r6, #-4]
  102dd4:	e3530000 	cmp	r3, #0
  102dd8:	0affffef 	beq	102d9c <__call_exitprocs+0x78>
  102ddc:	e5981188 	ldr	r1, [r8, #392]	; 0x188
  102de0:	e1a02419 	lsl	r2, r9, r4
  102de4:	e598a004 	ldr	sl, [r8, #4]
  102de8:	e1120001 	tst	r2, r1
  102dec:	0a00000c 	beq	102e24 <__call_exitprocs+0x100>
  102df0:	e598118c 	ldr	r1, [r8, #396]	; 0x18c
  102df4:	e1120001 	tst	r2, r1
  102df8:	1a00000b 	bne	102e2c <__call_exitprocs+0x108>
  102dfc:	e59d0008 	ldr	r0, [sp, #8]
  102e00:	e5151084 	ldr	r1, [r5, #-132]	; 0xffffff7c
  102e04:	e12fff33 	blx	r3
  102e08:	e5983004 	ldr	r3, [r8, #4]
  102e0c:	e153000a 	cmp	r3, sl
  102e10:	1affffd1 	bne	102d5c <__call_exitprocs+0x38>
  102e14:	e59b3000 	ldr	r3, [fp]
  102e18:	e1530008 	cmp	r3, r8
  102e1c:	0affffde 	beq	102d9c <__call_exitprocs+0x78>
  102e20:	eaffffcd 	b	102d5c <__call_exitprocs+0x38>
  102e24:	e12fff33 	blx	r3
  102e28:	eafffff6 	b	102e08 <__call_exitprocs+0xe4>
  102e2c:	e5150084 	ldr	r0, [r5, #-132]	; 0xffffff7c
  102e30:	e12fff33 	blx	r3
  102e34:	eafffff3 	b	102e08 <__call_exitprocs+0xe4>
  102e38:	e59d3000 	ldr	r3, [sp]
  102e3c:	e3530000 	cmp	r3, #0
  102e40:	1a000001 	bne	102e4c <__call_exitprocs+0x128>
  102e44:	e28dd014 	add	sp, sp, #20
  102e48:	e8bd8ff0 	pop	{r4, r5, r6, r7, r8, r9, sl, fp, pc}
  102e4c:	e5983004 	ldr	r3, [r8, #4]
  102e50:	e3530000 	cmp	r3, #0
  102e54:	e5983000 	ldr	r3, [r8]
  102e58:	1a000008 	bne	102e80 <__call_exitprocs+0x15c>
  102e5c:	e3530000 	cmp	r3, #0
  102e60:	0a000006 	beq	102e80 <__call_exitprocs+0x15c>
  102e64:	e1a00008 	mov	r0, r8
  102e68:	e58b3000 	str	r3, [fp]
  102e6c:	e320f000 	nop	{0}
  102e70:	e59b8000 	ldr	r8, [fp]
  102e74:	e3580000 	cmp	r8, #0
  102e78:	1affffbc 	bne	102d70 <__call_exitprocs+0x4c>
  102e7c:	eafffff0 	b	102e44 <__call_exitprocs+0x120>
  102e80:	e1a0b008 	mov	fp, r8
  102e84:	e1a08003 	mov	r8, r3
  102e88:	eafffff9 	b	102e74 <__call_exitprocs+0x150>

00102e8c <atexit>:
  102e8c:	e1a01000 	mov	r1, r0
  102e90:	e3a00000 	mov	r0, #0
  102e94:	e1a02000 	mov	r2, r0
  102e98:	e1a03000 	mov	r3, r0
  102e9c:	eaffffff 	b	102ea0 <__register_exitproc>

00102ea0 <__register_exitproc>:
  102ea0:	e303c970 	movw	ip, #14704	; 0x3970
  102ea4:	e340c010 	movt	ip, #16
  102ea8:	e92d40f0 	push	{r4, r5, r6, r7, lr}
  102eac:	e1a06000 	mov	r6, r0
  102eb0:	e59c5000 	ldr	r5, [ip]
  102eb4:	e24dd014 	sub	sp, sp, #20
  102eb8:	e595c148 	ldr	ip, [r5, #328]	; 0x148
  102ebc:	e35c0000 	cmp	ip, #0
  102ec0:	0285cf53 	addeq	ip, r5, #332	; 0x14c
  102ec4:	0585c148 	streq	ip, [r5, #328]	; 0x148
  102ec8:	e59c4004 	ldr	r4, [ip, #4]
  102ecc:	e354001f 	cmp	r4, #31
  102ed0:	da000018 	ble	102f38 <__register_exitproc+0x98>
  102ed4:	e300c000 	movw	ip, #0
  102ed8:	e340c000 	movt	ip, #0
  102edc:	e35c0000 	cmp	ip, #0
  102ee0:	1a000002 	bne	102ef0 <__register_exitproc+0x50>
  102ee4:	e3e00000 	mvn	r0, #0
  102ee8:	e28dd014 	add	sp, sp, #20
  102eec:	e8bd80f0 	pop	{r4, r5, r6, r7, pc}
  102ef0:	e3a00e19 	mov	r0, #400	; 0x190
  102ef4:	e58d100c 	str	r1, [sp, #12]
  102ef8:	e58d2008 	str	r2, [sp, #8]
  102efc:	e58d3004 	str	r3, [sp, #4]
  102f00:	e320f000 	nop	{0}
  102f04:	e59d100c 	ldr	r1, [sp, #12]
  102f08:	e59d2008 	ldr	r2, [sp, #8]
  102f0c:	e59d3004 	ldr	r3, [sp, #4]
  102f10:	e250c000 	subs	ip, r0, #0
  102f14:	0afffff2 	beq	102ee4 <__register_exitproc+0x44>
  102f18:	e5957148 	ldr	r7, [r5, #328]	; 0x148
  102f1c:	e3a00000 	mov	r0, #0
  102f20:	e1a04000 	mov	r4, r0
  102f24:	e58c0004 	str	r0, [ip, #4]
  102f28:	e58c7000 	str	r7, [ip]
  102f2c:	e585c148 	str	ip, [r5, #328]	; 0x148
  102f30:	e58c0188 	str	r0, [ip, #392]	; 0x188
  102f34:	e58c018c 	str	r0, [ip, #396]	; 0x18c
  102f38:	e3560000 	cmp	r6, #0
  102f3c:	1a000006 	bne	102f5c <__register_exitproc+0xbc>
  102f40:	e2843002 	add	r3, r4, #2
  102f44:	e3a00000 	mov	r0, #0
  102f48:	e2844001 	add	r4, r4, #1
  102f4c:	e58c4004 	str	r4, [ip, #4]
  102f50:	e78c1103 	str	r1, [ip, r3, lsl #2]
  102f54:	e28dd014 	add	sp, sp, #20
  102f58:	e8bd80f0 	pop	{r4, r5, r6, r7, pc}
  102f5c:	e08c0104 	add	r0, ip, r4, lsl #2
  102f60:	e3a05001 	mov	r5, #1
  102f64:	e3560002 	cmp	r6, #2
  102f68:	e5802088 	str	r2, [r0, #136]	; 0x88
  102f6c:	e1a02415 	lsl	r2, r5, r4
  102f70:	e59c5188 	ldr	r5, [ip, #392]	; 0x188
  102f74:	e1855002 	orr	r5, r5, r2
  102f78:	e58c5188 	str	r5, [ip, #392]	; 0x188
  102f7c:	e5803108 	str	r3, [r0, #264]	; 0x108
  102f80:	059c318c 	ldreq	r3, [ip, #396]	; 0x18c
  102f84:	01832002 	orreq	r2, r3, r2
  102f88:	058c218c 	streq	r2, [ip, #396]	; 0x18c
  102f8c:	eaffffeb 	b	102f40 <__register_exitproc+0xa0>

00102f90 <_exit>:
  102f90:	eafffffe 	b	102f90 <_exit>

00102f94 <main>:
  102f94:	e92d4030 	push	{r4, r5, lr}
  102f98:	e24ddf61 	sub	sp, sp, #388	; 0x184
  102f9c:	e28d2080 	add	r2, sp, #128	; 0x80
  102fa0:	e28d0c01 	add	r0, sp, #256	; 0x100
  102fa4:	e1a0100d 	mov	r1, sp
  102fa8:	e3a03032 	mov	r3, #50	; 0x32
  102fac:	e3a0c043 	mov	ip, #67	; 0x43
  102fb0:	e3a0e098 	mov	lr, #152	; 0x98
  102fb4:	e88d1008 	stm	sp, {r3, ip}
  102fb8:	e3a050ae 	mov	r5, #174	; 0xae
  102fbc:	e58de028 	str	lr, [sp, #40]	; 0x28
  102fc0:	e3a0c0f6 	mov	ip, #246	; 0xf6
  102fc4:	e3a030a8 	mov	r3, #168	; 0xa8
  102fc8:	e58dc008 	str	ip, [sp, #8]
  102fcc:	e58d300c 	str	r3, [sp, #12]
  102fd0:	e3a0c05a 	mov	ip, #90	; 0x5a
  102fd4:	e3a03088 	mov	r3, #136	; 0x88
  102fd8:	e58dc014 	str	ip, [sp, #20]
  102fdc:	e58d3010 	str	r3, [sp, #16]
  102fe0:	e3a0c08d 	mov	ip, #141	; 0x8d
  102fe4:	e58d30ac 	str	r3, [sp, #172]	; 0xac
  102fe8:	e3a0e037 	mov	lr, #55	; 0x37
  102fec:	e58dc01c 	str	ip, [sp, #28]
  102ff0:	e3a03030 	mov	r3, #48	; 0x30
  102ff4:	e58de034 	str	lr, [sp, #52]	; 0x34
  102ff8:	e3a0c0a2 	mov	ip, #162	; 0xa2
  102ffc:	e58d3018 	str	r3, [sp, #24]
  103000:	e3a0e02b 	mov	lr, #43	; 0x2b
  103004:	e3a03031 	mov	r3, #49	; 0x31
  103008:	e58dc02c 	str	ip, [sp, #44]	; 0x2c
  10300c:	e58d3020 	str	r3, [sp, #32]
  103010:	e3a0c007 	mov	ip, #7
  103014:	e58d3024 	str	r3, [sp, #36]	; 0x24
  103018:	e3a040d2 	mov	r4, #210	; 0xd2
  10301c:	e58dc038 	str	ip, [sp, #56]	; 0x38
  103020:	e3a030e0 	mov	r3, #224	; 0xe0
  103024:	e58de080 	str	lr, [sp, #128]	; 0x80
  103028:	e3a0c07e 	mov	ip, #126	; 0x7e
  10302c:	e58d3030 	str	r3, [sp, #48]	; 0x30
  103030:	e3a0e016 	mov	lr, #22
  103034:	e58dc084 	str	ip, [sp, #132]	; 0x84
  103038:	e3a03034 	mov	r3, #52	; 0x34
  10303c:	e58de08c 	str	lr, [sp, #140]	; 0x8c
  103040:	e3a0c028 	mov	ip, #40	; 0x28
  103044:	e58d303c 	str	r3, [sp, #60]	; 0x3c
  103048:	e3a0e0a6 	mov	lr, #166	; 0xa6
  10304c:	e3a03015 	mov	r3, #21
  103050:	e58dc090 	str	ip, [sp, #144]	; 0x90
  103054:	e58d3088 	str	r3, [sp, #136]	; 0x88
  103058:	e3a0c0ab 	mov	ip, #171	; 0xab
  10305c:	e58d30a8 	str	r3, [sp, #168]	; 0xa8
  103060:	e3a030f7 	mov	r3, #247	; 0xf7
  103064:	e58d4098 	str	r4, [sp, #152]	; 0x98
  103068:	e3a04009 	mov	r4, #9
  10306c:	e58de09c 	str	lr, [sp, #156]	; 0x9c
  103070:	e3a0e0cf 	mov	lr, #207	; 0xcf
  103074:	e58dc0a0 	str	ip, [sp, #160]	; 0xa0
  103078:	e3a0c04f 	mov	ip, #79	; 0x4f
  10307c:	e58d30a4 	str	r3, [sp, #164]	; 0xa4
  103080:	e3a0303c 	mov	r3, #60	; 0x3c
  103084:	e58de0b4 	str	lr, [sp, #180]	; 0xb4
  103088:	e58dc0b8 	str	ip, [sp, #184]	; 0xb8
  10308c:	e58d30bc 	str	r3, [sp, #188]	; 0xbc
  103090:	e58d5094 	str	r5, [sp, #148]	; 0x94
  103094:	e58d40b0 	str	r4, [sp, #176]	; 0xb0
  103098:	ebfff52e 	bl	100558 <aes_main>
  10309c:	ebfffaa1 	bl	101b28 <cleanup_platform>
  1030a0:	e3a00000 	mov	r0, #0
  1030a4:	e28ddf61 	add	sp, sp, #388	; 0x184
  1030a8:	e8bd8030 	pop	{r4, r5, pc}

001030ac <register_fini>:
  1030ac:	e3003000 	movw	r3, #0
  1030b0:	e3403000 	movt	r3, #0
  1030b4:	e3530000 	cmp	r3, #0
  1030b8:	012fff1e 	bxeq	lr
  1030bc:	e3020c68 	movw	r0, #11368	; 0x2c68
  1030c0:	e3400010 	movt	r0, #16
  1030c4:	eaffff70 	b	102e8c <atexit>

Disassembly of section .init:

001030c8 <_init>:
  1030c8:	e1a0c00d 	mov	ip, sp
  1030cc:	e92ddff8 	push	{r3, r4, r5, r6, r7, r8, r9, sl, fp, ip, lr, pc}
  1030d0:	e24cb004 	sub	fp, ip, #4
  1030d4:	e24bd028 	sub	sp, fp, #40	; 0x28
  1030d8:	e89d6ff0 	ldm	sp, {r4, r5, r6, r7, r8, r9, sl, fp, sp, lr}
  1030dc:	e12fff1e 	bx	lr

Disassembly of section .fini:

001030e0 <_fini>:
  1030e0:	e1a0c00d 	mov	ip, sp
  1030e4:	e92ddff8 	push	{r3, r4, r5, r6, r7, r8, r9, sl, fp, ip, lr, pc}
  1030e8:	e24cb004 	sub	fp, ip, #4
  1030ec:	e24bd028 	sub	sp, fp, #40	; 0x28
  1030f0:	e89d6ff0 	ldm	sp, {r4, r5, r6, r7, r8, r9, sl, fp, sp, lr}
  1030f4:	e12fff1e 	bx	lr

Disassembly of section .mmu_tbl:

00104000 <MMUTable>:
  104000:	00015de6 	andeq	r5, r1, r6, ror #27
  104004:	00115de6 	andseq	r5, r1, r6, ror #27
  104008:	00215de6 	eoreq	r5, r1, r6, ror #27
  10400c:	00315de6 	eorseq	r5, r1, r6, ror #27
  104010:	00415de6 	subeq	r5, r1, r6, ror #27
  104014:	00515de6 	subseq	r5, r1, r6, ror #27
  104018:	00615de6 	rsbeq	r5, r1, r6, ror #27
  10401c:	00715de6 	rsbseq	r5, r1, r6, ror #27
  104020:	00815de6 	addeq	r5, r1, r6, ror #27
  104024:	00915de6 	addseq	r5, r1, r6, ror #27
  104028:	00a15de6 	adceq	r5, r1, r6, ror #27
  10402c:	00b15de6 	adcseq	r5, r1, r6, ror #27
  104030:	00c15de6 	sbceq	r5, r1, r6, ror #27
  104034:	00d15de6 	sbcseq	r5, r1, r6, ror #27
  104038:	00e15de6 	rsceq	r5, r1, r6, ror #27
  10403c:	00f15de6 	rscseq	r5, r1, r6, ror #27
  104040:	01015de6 	smlatteq	r1, r6, sp, r5
  104044:	01115de6 	tsteq	r1, r6, ror #27
  104048:	01215de6 	teqeq	r1, r6, ror #27
  10404c:	01315de6 	teqeq	r1, r6, ror #27
  104050:	01415de6 	smlaltteq	r5, r1, r6, sp
  104054:	01515de6 	cmpeq	r1, r6, ror #27
  104058:	01615de6 	cmneq	r1, r6, ror #27
  10405c:	01715de6 	cmneq	r1, r6, ror #27
  104060:	01815de6 	orreq	r5, r1, r6, ror #27
  104064:	01915de6 	orrseq	r5, r1, r6, ror #27
  104068:	01a15de6 			; <UNDEFINED> instruction: 0x01a15de6
  10406c:	01b15de6 			; <UNDEFINED> instruction: 0x01b15de6
  104070:	01c15de6 	biceq	r5, r1, r6, ror #27
  104074:	01d15de6 	bicseq	r5, r1, r6, ror #27
  104078:	01e15de6 	mvneq	r5, r6, ror #27
  10407c:	01f15de6 	mvnseq	r5, r6, ror #27
  104080:	02015de6 	andeq	r5, r1, #14720	; 0x3980
  104084:	02115de6 	andseq	r5, r1, #14720	; 0x3980
  104088:	02215de6 	eoreq	r5, r1, #14720	; 0x3980
  10408c:	02315de6 	eorseq	r5, r1, #14720	; 0x3980
  104090:	02415de6 	subeq	r5, r1, #14720	; 0x3980
  104094:	02515de6 	subseq	r5, r1, #14720	; 0x3980
  104098:	02615de6 	rsbeq	r5, r1, #14720	; 0x3980
  10409c:	02715de6 	rsbseq	r5, r1, #14720	; 0x3980
  1040a0:	02815de6 	addeq	r5, r1, #14720	; 0x3980
  1040a4:	02915de6 	addseq	r5, r1, #14720	; 0x3980
  1040a8:	02a15de6 	adceq	r5, r1, #14720	; 0x3980
  1040ac:	02b15de6 	adcseq	r5, r1, #14720	; 0x3980
  1040b0:	02c15de6 	sbceq	r5, r1, #14720	; 0x3980
  1040b4:	02d15de6 	sbcseq	r5, r1, #14720	; 0x3980
  1040b8:	02e15de6 	rsceq	r5, r1, #14720	; 0x3980
  1040bc:	02f15de6 	rscseq	r5, r1, #14720	; 0x3980
  1040c0:	03015de6 	movweq	r5, #7654	; 0x1de6
  1040c4:	03115de6 	tsteq	r1, #14720	; 0x3980
  1040c8:	03215de6 	teqeq	r1, #14720	; 0x3980
  1040cc:	03315de6 	teqeq	r1, #14720	; 0x3980
  1040d0:	03415de6 	movteq	r5, #7654	; 0x1de6
  1040d4:	03515de6 	cmpeq	r1, #14720	; 0x3980
  1040d8:	03615de6 	cmneq	r1, #14720	; 0x3980
  1040dc:	03715de6 	cmneq	r1, #14720	; 0x3980
  1040e0:	03815de6 	orreq	r5, r1, #14720	; 0x3980
  1040e4:	03915de6 	orrseq	r5, r1, #14720	; 0x3980
  1040e8:	03a15de6 			; <UNDEFINED> instruction: 0x03a15de6
  1040ec:	03b15de6 			; <UNDEFINED> instruction: 0x03b15de6
  1040f0:	03c15de6 	biceq	r5, r1, #14720	; 0x3980
  1040f4:	03d15de6 	bicseq	r5, r1, #14720	; 0x3980
  1040f8:	03e15de6 	mvneq	r5, #14720	; 0x3980
  1040fc:	03f15de6 	mvnseq	r5, #14720	; 0x3980
  104100:	04015de6 	streq	r5, [r1], #-3558	; 0xfffff21a
  104104:	04115de6 	ldreq	r5, [r1], #-3558	; 0xfffff21a
  104108:	04215de6 	strteq	r5, [r1], #-3558	; 0xfffff21a
  10410c:	04315de6 	ldrteq	r5, [r1], #-3558	; 0xfffff21a
  104110:	04415de6 	strbeq	r5, [r1], #-3558	; 0xfffff21a
  104114:	04515de6 	ldrbeq	r5, [r1], #-3558	; 0xfffff21a
  104118:	04615de6 	strbteq	r5, [r1], #-3558	; 0xfffff21a
  10411c:	04715de6 	ldrbteq	r5, [r1], #-3558	; 0xfffff21a
  104120:	04815de6 	streq	r5, [r1], #3558	; 0xde6
  104124:	04915de6 	ldreq	r5, [r1], #3558	; 0xde6
  104128:	04a15de6 	strteq	r5, [r1], #3558	; 0xde6
  10412c:	04b15de6 	ldrteq	r5, [r1], #3558	; 0xde6
  104130:	04c15de6 	strbeq	r5, [r1], #3558	; 0xde6
  104134:	04d15de6 	ldrbeq	r5, [r1], #3558	; 0xde6
  104138:	04e15de6 	strbteq	r5, [r1], #3558	; 0xde6
  10413c:	04f15de6 	ldrbteq	r5, [r1], #3558	; 0xde6
  104140:	05015de6 	streq	r5, [r1, #-3558]	; 0xfffff21a
  104144:	05115de6 	ldreq	r5, [r1, #-3558]	; 0xfffff21a
  104148:	05215de6 	streq	r5, [r1, #-3558]!	; 0xfffff21a
  10414c:	05315de6 	ldreq	r5, [r1, #-3558]!	; 0xfffff21a
  104150:	05415de6 	strbeq	r5, [r1, #-3558]	; 0xfffff21a
  104154:	05515de6 	ldrbeq	r5, [r1, #-3558]	; 0xfffff21a
  104158:	05615de6 	strbeq	r5, [r1, #-3558]!	; 0xfffff21a
  10415c:	05715de6 	ldrbeq	r5, [r1, #-3558]!	; 0xfffff21a
  104160:	05815de6 	streq	r5, [r1, #3558]	; 0xde6
  104164:	05915de6 	ldreq	r5, [r1, #3558]	; 0xde6
  104168:	05a15de6 	streq	r5, [r1, #3558]!	; 0xde6
  10416c:	05b15de6 	ldreq	r5, [r1, #3558]!	; 0xde6
  104170:	05c15de6 	strbeq	r5, [r1, #3558]	; 0xde6
  104174:	05d15de6 	ldrbeq	r5, [r1, #3558]	; 0xde6
  104178:	05e15de6 	strbeq	r5, [r1, #3558]!	; 0xde6
  10417c:	05f15de6 	ldrbeq	r5, [r1, #3558]!	; 0xde6
  104180:	06015de6 	streq	r5, [r1], -r6, ror #27
  104184:	06115de6 	ldreq	r5, [r1], -r6, ror #27
  104188:	06215de6 	strteq	r5, [r1], -r6, ror #27
  10418c:	06315de6 	ldrteq	r5, [r1], -r6, ror #27
  104190:	06415de6 	strbeq	r5, [r1], -r6, ror #27
  104194:	06515de6 	ldrbeq	r5, [r1], -r6, ror #27
  104198:	06615de6 	strbteq	r5, [r1], -r6, ror #27
  10419c:	06715de6 	ldrbteq	r5, [r1], -r6, ror #27
  1041a0:	06815de6 	streq	r5, [r1], r6, ror #27
  1041a4:	06915de6 	ldreq	r5, [r1], r6, ror #27
  1041a8:	06a15de6 	strteq	r5, [r1], r6, ror #27
  1041ac:	06b15de6 	ldrteq	r5, [r1], r6, ror #27
  1041b0:	06c15de6 	strbeq	r5, [r1], r6, ror #27
  1041b4:	06d15de6 	ldrbeq	r5, [r1], r6, ror #27
  1041b8:	06e15de6 	strbteq	r5, [r1], r6, ror #27
  1041bc:	06f15de6 	ldrbteq	r5, [r1], r6, ror #27
  1041c0:	07015de6 	streq	r5, [r1, -r6, ror #27]
  1041c4:	07115de6 	ldreq	r5, [r1, -r6, ror #27]
  1041c8:	07215de6 	streq	r5, [r1, -r6, ror #27]!
  1041cc:	07315de6 	ldreq	r5, [r1, -r6, ror #27]!
  1041d0:	07415de6 	strbeq	r5, [r1, -r6, ror #27]
  1041d4:	07515de6 	ldrbeq	r5, [r1, -r6, ror #27]
  1041d8:	07615de6 	strbeq	r5, [r1, -r6, ror #27]!
  1041dc:	07715de6 	ldrbeq	r5, [r1, -r6, ror #27]!
  1041e0:	07815de6 	streq	r5, [r1, r6, ror #27]
  1041e4:	07915de6 	ldreq	r5, [r1, r6, ror #27]
  1041e8:	07a15de6 	streq	r5, [r1, r6, ror #27]!
  1041ec:	07b15de6 	ldreq	r5, [r1, r6, ror #27]!
  1041f0:	07c15de6 	strbeq	r5, [r1, r6, ror #27]
  1041f4:	07d15de6 	ldrbeq	r5, [r1, r6, ror #27]
  1041f8:	07e15de6 	strbeq	r5, [r1, r6, ror #27]!
  1041fc:	07f15de6 	ldrbeq	r5, [r1, r6, ror #27]!
  104200:	08015de6 	stmdaeq	r1, {r1, r2, r5, r6, r7, r8, sl, fp, ip, lr}
  104204:	08115de6 	ldmdaeq	r1, {r1, r2, r5, r6, r7, r8, sl, fp, ip, lr}
  104208:	08215de6 	stmdaeq	r1!, {r1, r2, r5, r6, r7, r8, sl, fp, ip, lr}
  10420c:	08315de6 	ldmdaeq	r1!, {r1, r2, r5, r6, r7, r8, sl, fp, ip, lr}
  104210:	08415de6 	stmdaeq	r1, {r1, r2, r5, r6, r7, r8, sl, fp, ip, lr}^
  104214:	08515de6 	ldmdaeq	r1, {r1, r2, r5, r6, r7, r8, sl, fp, ip, lr}^
  104218:	08615de6 	stmdaeq	r1!, {r1, r2, r5, r6, r7, r8, sl, fp, ip, lr}^
  10421c:	08715de6 	ldmdaeq	r1!, {r1, r2, r5, r6, r7, r8, sl, fp, ip, lr}^
  104220:	08815de6 	stmeq	r1, {r1, r2, r5, r6, r7, r8, sl, fp, ip, lr}
  104224:	08915de6 	ldmeq	r1, {r1, r2, r5, r6, r7, r8, sl, fp, ip, lr}
  104228:	08a15de6 	stmiaeq	r1!, {r1, r2, r5, r6, r7, r8, sl, fp, ip, lr}
  10422c:	08b15de6 	ldmeq	r1!, {r1, r2, r5, r6, r7, r8, sl, fp, ip, lr}
  104230:	08c15de6 	stmiaeq	r1, {r1, r2, r5, r6, r7, r8, sl, fp, ip, lr}^
  104234:	08d15de6 	ldmeq	r1, {r1, r2, r5, r6, r7, r8, sl, fp, ip, lr}^
  104238:	08e15de6 	stmiaeq	r1!, {r1, r2, r5, r6, r7, r8, sl, fp, ip, lr}^
  10423c:	08f15de6 	ldmeq	r1!, {r1, r2, r5, r6, r7, r8, sl, fp, ip, lr}^
  104240:	09015de6 	stmdbeq	r1, {r1, r2, r5, r6, r7, r8, sl, fp, ip, lr}
  104244:	09115de6 	ldmdbeq	r1, {r1, r2, r5, r6, r7, r8, sl, fp, ip, lr}
  104248:	09215de6 	stmdbeq	r1!, {r1, r2, r5, r6, r7, r8, sl, fp, ip, lr}
  10424c:	09315de6 	ldmdbeq	r1!, {r1, r2, r5, r6, r7, r8, sl, fp, ip, lr}
  104250:	09415de6 	stmdbeq	r1, {r1, r2, r5, r6, r7, r8, sl, fp, ip, lr}^
  104254:	09515de6 	ldmdbeq	r1, {r1, r2, r5, r6, r7, r8, sl, fp, ip, lr}^
  104258:	09615de6 	stmdbeq	r1!, {r1, r2, r5, r6, r7, r8, sl, fp, ip, lr}^
  10425c:	09715de6 	ldmdbeq	r1!, {r1, r2, r5, r6, r7, r8, sl, fp, ip, lr}^
  104260:	09815de6 	stmibeq	r1, {r1, r2, r5, r6, r7, r8, sl, fp, ip, lr}
  104264:	09915de6 	ldmibeq	r1, {r1, r2, r5, r6, r7, r8, sl, fp, ip, lr}
  104268:	09a15de6 	stmibeq	r1!, {r1, r2, r5, r6, r7, r8, sl, fp, ip, lr}
  10426c:	09b15de6 	ldmibeq	r1!, {r1, r2, r5, r6, r7, r8, sl, fp, ip, lr}
  104270:	09c15de6 	stmibeq	r1, {r1, r2, r5, r6, r7, r8, sl, fp, ip, lr}^
  104274:	09d15de6 	ldmibeq	r1, {r1, r2, r5, r6, r7, r8, sl, fp, ip, lr}^
  104278:	09e15de6 	stmibeq	r1!, {r1, r2, r5, r6, r7, r8, sl, fp, ip, lr}^
  10427c:	09f15de6 	ldmibeq	r1!, {r1, r2, r5, r6, r7, r8, sl, fp, ip, lr}^
  104280:	0a015de6 	beq	15ba20 <__undef_stack+0x4da60>
  104284:	0a115de6 	beq	55ba24 <__undef_stack+0x44da64>
  104288:	0a215de6 	beq	95ba28 <__undef_stack+0x84da68>
  10428c:	0a315de6 	beq	d5ba2c <__undef_stack+0xc4da6c>
  104290:	0a415de6 	beq	115ba30 <__undef_stack+0x104da70>
  104294:	0a515de6 	beq	155ba34 <__undef_stack+0x144da74>
  104298:	0a615de6 	beq	195ba38 <__undef_stack+0x184da78>
  10429c:	0a715de6 	beq	1d5ba3c <__undef_stack+0x1c4da7c>
  1042a0:	0a815de6 	beq	fe15ba40 <LRemap+0x15ba31>
  1042a4:	0a915de6 	beq	fe55ba44 <LRemap+0x55ba35>
  1042a8:	0aa15de6 	beq	fe95ba48 <LRemap+0x95ba39>
  1042ac:	0ab15de6 	beq	fed5ba4c <LRemap+0xd5ba3d>
  1042b0:	0ac15de6 	beq	ff15ba50 <LRemap+0x115ba41>
  1042b4:	0ad15de6 	beq	ff55ba54 <LRemap+0x155ba45>
  1042b8:	0ae15de6 	beq	ff95ba58 <LRemap+0x195ba49>
  1042bc:	0af15de6 	beq	ffd5ba5c <LRemap+0x1d5ba4d>
  1042c0:	0b015de6 	bleq	15ba60 <__undef_stack+0x4daa0>
  1042c4:	0b115de6 	bleq	55ba64 <__undef_stack+0x44daa4>
  1042c8:	0b215de6 	bleq	95ba68 <__undef_stack+0x84daa8>
  1042cc:	0b315de6 	bleq	d5ba6c <__undef_stack+0xc4daac>
  1042d0:	0b415de6 	bleq	115ba70 <__undef_stack+0x104dab0>
  1042d4:	0b515de6 	bleq	155ba74 <__undef_stack+0x144dab4>
  1042d8:	0b615de6 	bleq	195ba78 <__undef_stack+0x184dab8>
  1042dc:	0b715de6 	bleq	1d5ba7c <__undef_stack+0x1c4dabc>
  1042e0:	0b815de6 	bleq	fe15ba80 <LRemap+0x15ba71>
  1042e4:	0b915de6 	bleq	fe55ba84 <LRemap+0x55ba75>
  1042e8:	0ba15de6 	bleq	fe95ba88 <LRemap+0x95ba79>
  1042ec:	0bb15de6 	bleq	fed5ba8c <LRemap+0xd5ba7d>
  1042f0:	0bc15de6 	bleq	ff15ba90 <LRemap+0x115ba81>
  1042f4:	0bd15de6 	bleq	ff55ba94 <LRemap+0x155ba85>
  1042f8:	0be15de6 	bleq	ff95ba98 <LRemap+0x195ba89>
  1042fc:	0bf15de6 	bleq	ffd5ba9c <LRemap+0x1d5ba8d>
  104300:	0c015de6 	stceq	13, cr5, [r1], {230}	; 0xe6
  104304:	0c115de6 	ldceq	13, cr5, [r1], {230}	; 0xe6
  104308:	0c215de6 	stceq	13, cr5, [r1], #-920	; 0xfffffc68
  10430c:	0c315de6 	ldceq	13, cr5, [r1], #-920	; 0xfffffc68
  104310:	0c415de6 	mcrreq	13, 14, r5, r1, cr6
  104314:	0c515de6 	mrrceq	13, 14, r5, r1, cr6
  104318:	0c615de6 	stcleq	13, cr5, [r1], #-920	; 0xfffffc68
  10431c:	0c715de6 	ldcleq	13, cr5, [r1], #-920	; 0xfffffc68
  104320:	0c815de6 	stceq	13, cr5, [r1], {230}	; 0xe6
  104324:	0c915de6 	ldceq	13, cr5, [r1], {230}	; 0xe6
  104328:	0ca15de6 	stceq	13, cr5, [r1], #920	; 0x398
  10432c:	0cb15de6 	ldceq	13, cr5, [r1], #920	; 0x398
  104330:	0cc15de6 	stcleq	13, cr5, [r1], {230}	; 0xe6
  104334:	0cd15de6 	ldcleq	13, cr5, [r1], {230}	; 0xe6
  104338:	0ce15de6 	stcleq	13, cr5, [r1], #920	; 0x398
  10433c:	0cf15de6 	ldcleq	13, cr5, [r1], #920	; 0x398
  104340:	0d015de6 	stceq	13, cr5, [r1, #-920]	; 0xfffffc68
  104344:	0d115de6 	ldceq	13, cr5, [r1, #-920]	; 0xfffffc68
  104348:	0d215de6 	stceq	13, cr5, [r1, #-920]!	; 0xfffffc68
  10434c:	0d315de6 	ldceq	13, cr5, [r1, #-920]!	; 0xfffffc68
  104350:	0d415de6 	stcleq	13, cr5, [r1, #-920]	; 0xfffffc68
  104354:	0d515de6 	ldcleq	13, cr5, [r1, #-920]	; 0xfffffc68
  104358:	0d615de6 	stcleq	13, cr5, [r1, #-920]!	; 0xfffffc68
  10435c:	0d715de6 	ldcleq	13, cr5, [r1, #-920]!	; 0xfffffc68
  104360:	0d815de6 	stceq	13, cr5, [r1, #920]	; 0x398
  104364:	0d915de6 	ldceq	13, cr5, [r1, #920]	; 0x398
  104368:	0da15de6 	stceq	13, cr5, [r1, #920]!	; 0x398
  10436c:	0db15de6 	ldceq	13, cr5, [r1, #920]!	; 0x398
  104370:	0dc15de6 	stcleq	13, cr5, [r1, #920]	; 0x398
  104374:	0dd15de6 	ldcleq	13, cr5, [r1, #920]	; 0x398
  104378:	0de15de6 	stcleq	13, cr5, [r1, #920]!	; 0x398
  10437c:	0df15de6 	ldcleq	13, cr5, [r1, #920]!	; 0x398
  104380:	0e015de6 	cdpeq	13, 0, cr5, cr1, cr6, {7}
  104384:	0e115de6 	cdpeq	13, 1, cr5, cr1, cr6, {7}
  104388:	0e215de6 	cdpeq	13, 2, cr5, cr1, cr6, {7}
  10438c:	0e315de6 	cdpeq	13, 3, cr5, cr1, cr6, {7}
  104390:	0e415de6 	cdpeq	13, 4, cr5, cr1, cr6, {7}
  104394:	0e515de6 	cdpeq	13, 5, cr5, cr1, cr6, {7}
  104398:	0e615de6 	cdpeq	13, 6, cr5, cr1, cr6, {7}
  10439c:	0e715de6 	cdpeq	13, 7, cr5, cr1, cr6, {7}
  1043a0:	0e815de6 	cdpeq	13, 8, cr5, cr1, cr6, {7}
  1043a4:	0e915de6 	cdpeq	13, 9, cr5, cr1, cr6, {7}
  1043a8:	0ea15de6 	cdpeq	13, 10, cr5, cr1, cr6, {7}
  1043ac:	0eb15de6 	cdpeq	13, 11, cr5, cr1, cr6, {7}
  1043b0:	0ec15de6 	cdpeq	13, 12, cr5, cr1, cr6, {7}
  1043b4:	0ed15de6 	cdpeq	13, 13, cr5, cr1, cr6, {7}
  1043b8:	0ee15de6 	cdpeq	13, 14, cr5, cr1, cr6, {7}
  1043bc:	0ef15de6 	cdpeq	13, 15, cr5, cr1, cr6, {7}
  1043c0:	0f015de6 	svceq	0x00015de6
  1043c4:	0f115de6 	svceq	0x00115de6
  1043c8:	0f215de6 	svceq	0x00215de6
  1043cc:	0f315de6 	svceq	0x00315de6
  1043d0:	0f415de6 	svceq	0x00415de6
  1043d4:	0f515de6 	svceq	0x00515de6
  1043d8:	0f615de6 	svceq	0x00615de6
  1043dc:	0f715de6 	svceq	0x00715de6
  1043e0:	0f815de6 	svceq	0x00815de6
  1043e4:	0f915de6 	svceq	0x00915de6
  1043e8:	0fa15de6 	svceq	0x00a15de6
  1043ec:	0fb15de6 	svceq	0x00b15de6
  1043f0:	0fc15de6 	svceq	0x00c15de6
  1043f4:	0fd15de6 	svceq	0x00d15de6
  1043f8:	0fe15de6 	svceq	0x00e15de6
  1043fc:	0ff15de6 	svceq	0x00f15de6
  104400:	10015de6 	andne	r5, r1, r6, ror #27
  104404:	10115de6 	andsne	r5, r1, r6, ror #27
  104408:	10215de6 	eorne	r5, r1, r6, ror #27
  10440c:	10315de6 	eorsne	r5, r1, r6, ror #27
  104410:	10415de6 	subne	r5, r1, r6, ror #27
  104414:	10515de6 	subsne	r5, r1, r6, ror #27
  104418:	10615de6 	rsbne	r5, r1, r6, ror #27
  10441c:	10715de6 	rsbsne	r5, r1, r6, ror #27
  104420:	10815de6 	addne	r5, r1, r6, ror #27
  104424:	10915de6 	addsne	r5, r1, r6, ror #27
  104428:	10a15de6 	adcne	r5, r1, r6, ror #27
  10442c:	10b15de6 	adcsne	r5, r1, r6, ror #27
  104430:	10c15de6 	sbcne	r5, r1, r6, ror #27
  104434:	10d15de6 	sbcsne	r5, r1, r6, ror #27
  104438:	10e15de6 	rscne	r5, r1, r6, ror #27
  10443c:	10f15de6 	rscsne	r5, r1, r6, ror #27
  104440:	11015de6 	smlattne	r1, r6, sp, r5
  104444:	11115de6 	tstne	r1, r6, ror #27
  104448:	11215de6 	teqne	r1, r6, ror #27
  10444c:	11315de6 	teqne	r1, r6, ror #27
  104450:	11415de6 	smlalttne	r5, r1, r6, sp
  104454:	11515de6 	cmpne	r1, r6, ror #27
  104458:	11615de6 	cmnne	r1, r6, ror #27
  10445c:	11715de6 	cmnne	r1, r6, ror #27
  104460:	11815de6 	orrne	r5, r1, r6, ror #27
  104464:	11915de6 	orrsne	r5, r1, r6, ror #27
  104468:	11a15de6 			; <UNDEFINED> instruction: 0x11a15de6
  10446c:	11b15de6 			; <UNDEFINED> instruction: 0x11b15de6
  104470:	11c15de6 	bicne	r5, r1, r6, ror #27
  104474:	11d15de6 	bicsne	r5, r1, r6, ror #27
  104478:	11e15de6 	mvnne	r5, r6, ror #27
  10447c:	11f15de6 	mvnsne	r5, r6, ror #27
  104480:	12015de6 	andne	r5, r1, #14720	; 0x3980
  104484:	12115de6 	andsne	r5, r1, #14720	; 0x3980
  104488:	12215de6 	eorne	r5, r1, #14720	; 0x3980
  10448c:	12315de6 	eorsne	r5, r1, #14720	; 0x3980
  104490:	12415de6 	subne	r5, r1, #14720	; 0x3980
  104494:	12515de6 	subsne	r5, r1, #14720	; 0x3980
  104498:	12615de6 	rsbne	r5, r1, #14720	; 0x3980
  10449c:	12715de6 	rsbsne	r5, r1, #14720	; 0x3980
  1044a0:	12815de6 	addne	r5, r1, #14720	; 0x3980
  1044a4:	12915de6 	addsne	r5, r1, #14720	; 0x3980
  1044a8:	12a15de6 	adcne	r5, r1, #14720	; 0x3980
  1044ac:	12b15de6 	adcsne	r5, r1, #14720	; 0x3980
  1044b0:	12c15de6 	sbcne	r5, r1, #14720	; 0x3980
  1044b4:	12d15de6 	sbcsne	r5, r1, #14720	; 0x3980
  1044b8:	12e15de6 	rscne	r5, r1, #14720	; 0x3980
  1044bc:	12f15de6 	rscsne	r5, r1, #14720	; 0x3980
  1044c0:	13015de6 	movwne	r5, #7654	; 0x1de6
  1044c4:	13115de6 	tstne	r1, #14720	; 0x3980
  1044c8:	13215de6 	teqne	r1, #14720	; 0x3980
  1044cc:	13315de6 	teqne	r1, #14720	; 0x3980
  1044d0:	13415de6 	movtne	r5, #7654	; 0x1de6
  1044d4:	13515de6 	cmpne	r1, #14720	; 0x3980
  1044d8:	13615de6 	cmnne	r1, #14720	; 0x3980
  1044dc:	13715de6 	cmnne	r1, #14720	; 0x3980
  1044e0:	13815de6 	orrne	r5, r1, #14720	; 0x3980
  1044e4:	13915de6 	orrsne	r5, r1, #14720	; 0x3980
  1044e8:	13a15de6 			; <UNDEFINED> instruction: 0x13a15de6
  1044ec:	13b15de6 			; <UNDEFINED> instruction: 0x13b15de6
  1044f0:	13c15de6 	bicne	r5, r1, #14720	; 0x3980
  1044f4:	13d15de6 	bicsne	r5, r1, #14720	; 0x3980
  1044f8:	13e15de6 	mvnne	r5, #14720	; 0x3980
  1044fc:	13f15de6 	mvnsne	r5, #14720	; 0x3980
  104500:	14015de6 	strne	r5, [r1], #-3558	; 0xfffff21a
  104504:	14115de6 	ldrne	r5, [r1], #-3558	; 0xfffff21a
  104508:	14215de6 	strtne	r5, [r1], #-3558	; 0xfffff21a
  10450c:	14315de6 	ldrtne	r5, [r1], #-3558	; 0xfffff21a
  104510:	14415de6 	strbne	r5, [r1], #-3558	; 0xfffff21a
  104514:	14515de6 	ldrbne	r5, [r1], #-3558	; 0xfffff21a
  104518:	14615de6 	strbtne	r5, [r1], #-3558	; 0xfffff21a
  10451c:	14715de6 	ldrbtne	r5, [r1], #-3558	; 0xfffff21a
  104520:	14815de6 	strne	r5, [r1], #3558	; 0xde6
  104524:	14915de6 	ldrne	r5, [r1], #3558	; 0xde6
  104528:	14a15de6 	strtne	r5, [r1], #3558	; 0xde6
  10452c:	14b15de6 	ldrtne	r5, [r1], #3558	; 0xde6
  104530:	14c15de6 	strbne	r5, [r1], #3558	; 0xde6
  104534:	14d15de6 	ldrbne	r5, [r1], #3558	; 0xde6
  104538:	14e15de6 	strbtne	r5, [r1], #3558	; 0xde6
  10453c:	14f15de6 	ldrbtne	r5, [r1], #3558	; 0xde6
  104540:	15015de6 	strne	r5, [r1, #-3558]	; 0xfffff21a
  104544:	15115de6 	ldrne	r5, [r1, #-3558]	; 0xfffff21a
  104548:	15215de6 	strne	r5, [r1, #-3558]!	; 0xfffff21a
  10454c:	15315de6 	ldrne	r5, [r1, #-3558]!	; 0xfffff21a
  104550:	15415de6 	strbne	r5, [r1, #-3558]	; 0xfffff21a
  104554:	15515de6 	ldrbne	r5, [r1, #-3558]	; 0xfffff21a
  104558:	15615de6 	strbne	r5, [r1, #-3558]!	; 0xfffff21a
  10455c:	15715de6 	ldrbne	r5, [r1, #-3558]!	; 0xfffff21a
  104560:	15815de6 	strne	r5, [r1, #3558]	; 0xde6
  104564:	15915de6 	ldrne	r5, [r1, #3558]	; 0xde6
  104568:	15a15de6 	strne	r5, [r1, #3558]!	; 0xde6
  10456c:	15b15de6 	ldrne	r5, [r1, #3558]!	; 0xde6
  104570:	15c15de6 	strbne	r5, [r1, #3558]	; 0xde6
  104574:	15d15de6 	ldrbne	r5, [r1, #3558]	; 0xde6
  104578:	15e15de6 	strbne	r5, [r1, #3558]!	; 0xde6
  10457c:	15f15de6 	ldrbne	r5, [r1, #3558]!	; 0xde6
  104580:	16015de6 	strne	r5, [r1], -r6, ror #27
  104584:	16115de6 	ldrne	r5, [r1], -r6, ror #27
  104588:	16215de6 	strtne	r5, [r1], -r6, ror #27
  10458c:	16315de6 	ldrtne	r5, [r1], -r6, ror #27
  104590:	16415de6 	strbne	r5, [r1], -r6, ror #27
  104594:	16515de6 	ldrbne	r5, [r1], -r6, ror #27
  104598:	16615de6 	strbtne	r5, [r1], -r6, ror #27
  10459c:	16715de6 	ldrbtne	r5, [r1], -r6, ror #27
  1045a0:	16815de6 	strne	r5, [r1], r6, ror #27
  1045a4:	16915de6 	ldrne	r5, [r1], r6, ror #27
  1045a8:	16a15de6 	strtne	r5, [r1], r6, ror #27
  1045ac:	16b15de6 	ldrtne	r5, [r1], r6, ror #27
  1045b0:	16c15de6 	strbne	r5, [r1], r6, ror #27
  1045b4:	16d15de6 	ldrbne	r5, [r1], r6, ror #27
  1045b8:	16e15de6 	strbtne	r5, [r1], r6, ror #27
  1045bc:	16f15de6 	ldrbtne	r5, [r1], r6, ror #27
  1045c0:	17015de6 	strne	r5, [r1, -r6, ror #27]
  1045c4:	17115de6 	ldrne	r5, [r1, -r6, ror #27]
  1045c8:	17215de6 	strne	r5, [r1, -r6, ror #27]!
  1045cc:	17315de6 	ldrne	r5, [r1, -r6, ror #27]!
  1045d0:	17415de6 	strbne	r5, [r1, -r6, ror #27]
  1045d4:	17515de6 	ldrbne	r5, [r1, -r6, ror #27]
  1045d8:	17615de6 	strbne	r5, [r1, -r6, ror #27]!
  1045dc:	17715de6 	ldrbne	r5, [r1, -r6, ror #27]!
  1045e0:	17815de6 	strne	r5, [r1, r6, ror #27]
  1045e4:	17915de6 	ldrne	r5, [r1, r6, ror #27]
  1045e8:	17a15de6 	strne	r5, [r1, r6, ror #27]!
  1045ec:	17b15de6 	ldrne	r5, [r1, r6, ror #27]!
  1045f0:	17c15de6 	strbne	r5, [r1, r6, ror #27]
  1045f4:	17d15de6 	ldrbne	r5, [r1, r6, ror #27]
  1045f8:	17e15de6 	strbne	r5, [r1, r6, ror #27]!
  1045fc:	17f15de6 	ldrbne	r5, [r1, r6, ror #27]!
  104600:	18015de6 	stmdane	r1, {r1, r2, r5, r6, r7, r8, sl, fp, ip, lr}
  104604:	18115de6 	ldmdane	r1, {r1, r2, r5, r6, r7, r8, sl, fp, ip, lr}
  104608:	18215de6 	stmdane	r1!, {r1, r2, r5, r6, r7, r8, sl, fp, ip, lr}
  10460c:	18315de6 	ldmdane	r1!, {r1, r2, r5, r6, r7, r8, sl, fp, ip, lr}
  104610:	18415de6 	stmdane	r1, {r1, r2, r5, r6, r7, r8, sl, fp, ip, lr}^
  104614:	18515de6 	ldmdane	r1, {r1, r2, r5, r6, r7, r8, sl, fp, ip, lr}^
  104618:	18615de6 	stmdane	r1!, {r1, r2, r5, r6, r7, r8, sl, fp, ip, lr}^
  10461c:	18715de6 	ldmdane	r1!, {r1, r2, r5, r6, r7, r8, sl, fp, ip, lr}^
  104620:	18815de6 	stmne	r1, {r1, r2, r5, r6, r7, r8, sl, fp, ip, lr}
  104624:	18915de6 	ldmne	r1, {r1, r2, r5, r6, r7, r8, sl, fp, ip, lr}
  104628:	18a15de6 	stmiane	r1!, {r1, r2, r5, r6, r7, r8, sl, fp, ip, lr}
  10462c:	18b15de6 	ldmne	r1!, {r1, r2, r5, r6, r7, r8, sl, fp, ip, lr}
  104630:	18c15de6 	stmiane	r1, {r1, r2, r5, r6, r7, r8, sl, fp, ip, lr}^
  104634:	18d15de6 	ldmne	r1, {r1, r2, r5, r6, r7, r8, sl, fp, ip, lr}^
  104638:	18e15de6 	stmiane	r1!, {r1, r2, r5, r6, r7, r8, sl, fp, ip, lr}^
  10463c:	18f15de6 	ldmne	r1!, {r1, r2, r5, r6, r7, r8, sl, fp, ip, lr}^
  104640:	19015de6 	stmdbne	r1, {r1, r2, r5, r6, r7, r8, sl, fp, ip, lr}
  104644:	19115de6 	ldmdbne	r1, {r1, r2, r5, r6, r7, r8, sl, fp, ip, lr}
  104648:	19215de6 	stmdbne	r1!, {r1, r2, r5, r6, r7, r8, sl, fp, ip, lr}
  10464c:	19315de6 	ldmdbne	r1!, {r1, r2, r5, r6, r7, r8, sl, fp, ip, lr}
  104650:	19415de6 	stmdbne	r1, {r1, r2, r5, r6, r7, r8, sl, fp, ip, lr}^
  104654:	19515de6 	ldmdbne	r1, {r1, r2, r5, r6, r7, r8, sl, fp, ip, lr}^
  104658:	19615de6 	stmdbne	r1!, {r1, r2, r5, r6, r7, r8, sl, fp, ip, lr}^
  10465c:	19715de6 	ldmdbne	r1!, {r1, r2, r5, r6, r7, r8, sl, fp, ip, lr}^
  104660:	19815de6 	stmibne	r1, {r1, r2, r5, r6, r7, r8, sl, fp, ip, lr}
  104664:	19915de6 	ldmibne	r1, {r1, r2, r5, r6, r7, r8, sl, fp, ip, lr}
  104668:	19a15de6 	stmibne	r1!, {r1, r2, r5, r6, r7, r8, sl, fp, ip, lr}
  10466c:	19b15de6 	ldmibne	r1!, {r1, r2, r5, r6, r7, r8, sl, fp, ip, lr}
  104670:	19c15de6 	stmibne	r1, {r1, r2, r5, r6, r7, r8, sl, fp, ip, lr}^
  104674:	19d15de6 	ldmibne	r1, {r1, r2, r5, r6, r7, r8, sl, fp, ip, lr}^
  104678:	19e15de6 	stmibne	r1!, {r1, r2, r5, r6, r7, r8, sl, fp, ip, lr}^
  10467c:	19f15de6 	ldmibne	r1!, {r1, r2, r5, r6, r7, r8, sl, fp, ip, lr}^
  104680:	1a015de6 	bne	15be20 <__undef_stack+0x4de60>
  104684:	1a115de6 	bne	55be24 <__undef_stack+0x44de64>
  104688:	1a215de6 	bne	95be28 <__undef_stack+0x84de68>
  10468c:	1a315de6 	bne	d5be2c <__undef_stack+0xc4de6c>
  104690:	1a415de6 	bne	115be30 <__undef_stack+0x104de70>
  104694:	1a515de6 	bne	155be34 <__undef_stack+0x144de74>
  104698:	1a615de6 	bne	195be38 <__undef_stack+0x184de78>
  10469c:	1a715de6 	bne	1d5be3c <__undef_stack+0x1c4de7c>
  1046a0:	1a815de6 	bne	fe15be40 <LRemap+0x15be31>
  1046a4:	1a915de6 	bne	fe55be44 <LRemap+0x55be35>
  1046a8:	1aa15de6 	bne	fe95be48 <LRemap+0x95be39>
  1046ac:	1ab15de6 	bne	fed5be4c <LRemap+0xd5be3d>
  1046b0:	1ac15de6 	bne	ff15be50 <LRemap+0x115be41>
  1046b4:	1ad15de6 	bne	ff55be54 <LRemap+0x155be45>
  1046b8:	1ae15de6 	bne	ff95be58 <LRemap+0x195be49>
  1046bc:	1af15de6 	bne	ffd5be5c <LRemap+0x1d5be4d>
  1046c0:	1b015de6 	blne	15be60 <__undef_stack+0x4dea0>
  1046c4:	1b115de6 	blne	55be64 <__undef_stack+0x44dea4>
  1046c8:	1b215de6 	blne	95be68 <__undef_stack+0x84dea8>
  1046cc:	1b315de6 	blne	d5be6c <__undef_stack+0xc4deac>
  1046d0:	1b415de6 	blne	115be70 <__undef_stack+0x104deb0>
  1046d4:	1b515de6 	blne	155be74 <__undef_stack+0x144deb4>
  1046d8:	1b615de6 	blne	195be78 <__undef_stack+0x184deb8>
  1046dc:	1b715de6 	blne	1d5be7c <__undef_stack+0x1c4debc>
  1046e0:	1b815de6 	blne	fe15be80 <LRemap+0x15be71>
  1046e4:	1b915de6 	blne	fe55be84 <LRemap+0x55be75>
  1046e8:	1ba15de6 	blne	fe95be88 <LRemap+0x95be79>
  1046ec:	1bb15de6 	blne	fed5be8c <LRemap+0xd5be7d>
  1046f0:	1bc15de6 	blne	ff15be90 <LRemap+0x115be81>
  1046f4:	1bd15de6 	blne	ff55be94 <LRemap+0x155be85>
  1046f8:	1be15de6 	blne	ff95be98 <LRemap+0x195be89>
  1046fc:	1bf15de6 	blne	ffd5be9c <LRemap+0x1d5be8d>
  104700:	1c015de6 	stcne	13, cr5, [r1], {230}	; 0xe6
  104704:	1c115de6 	ldcne	13, cr5, [r1], {230}	; 0xe6
  104708:	1c215de6 	stcne	13, cr5, [r1], #-920	; 0xfffffc68
  10470c:	1c315de6 	ldcne	13, cr5, [r1], #-920	; 0xfffffc68
  104710:	1c415de6 	mcrrne	13, 14, r5, r1, cr6
  104714:	1c515de6 	mrrcne	13, 14, r5, r1, cr6
  104718:	1c615de6 	stclne	13, cr5, [r1], #-920	; 0xfffffc68
  10471c:	1c715de6 	ldclne	13, cr5, [r1], #-920	; 0xfffffc68
  104720:	1c815de6 	stcne	13, cr5, [r1], {230}	; 0xe6
  104724:	1c915de6 	ldcne	13, cr5, [r1], {230}	; 0xe6
  104728:	1ca15de6 	stcne	13, cr5, [r1], #920	; 0x398
  10472c:	1cb15de6 	ldcne	13, cr5, [r1], #920	; 0x398
  104730:	1cc15de6 	stclne	13, cr5, [r1], {230}	; 0xe6
  104734:	1cd15de6 	ldclne	13, cr5, [r1], {230}	; 0xe6
  104738:	1ce15de6 	stclne	13, cr5, [r1], #920	; 0x398
  10473c:	1cf15de6 	ldclne	13, cr5, [r1], #920	; 0x398
  104740:	1d015de6 	stcne	13, cr5, [r1, #-920]	; 0xfffffc68
  104744:	1d115de6 	ldcne	13, cr5, [r1, #-920]	; 0xfffffc68
  104748:	1d215de6 	stcne	13, cr5, [r1, #-920]!	; 0xfffffc68
  10474c:	1d315de6 	ldcne	13, cr5, [r1, #-920]!	; 0xfffffc68
  104750:	1d415de6 	stclne	13, cr5, [r1, #-920]	; 0xfffffc68
  104754:	1d515de6 	ldclne	13, cr5, [r1, #-920]	; 0xfffffc68
  104758:	1d615de6 	stclne	13, cr5, [r1, #-920]!	; 0xfffffc68
  10475c:	1d715de6 	ldclne	13, cr5, [r1, #-920]!	; 0xfffffc68
  104760:	1d815de6 	stcne	13, cr5, [r1, #920]	; 0x398
  104764:	1d915de6 	ldcne	13, cr5, [r1, #920]	; 0x398
  104768:	1da15de6 	stcne	13, cr5, [r1, #920]!	; 0x398
  10476c:	1db15de6 	ldcne	13, cr5, [r1, #920]!	; 0x398
  104770:	1dc15de6 	stclne	13, cr5, [r1, #920]	; 0x398
  104774:	1dd15de6 	ldclne	13, cr5, [r1, #920]	; 0x398
  104778:	1de15de6 	stclne	13, cr5, [r1, #920]!	; 0x398
  10477c:	1df15de6 	ldclne	13, cr5, [r1, #920]!	; 0x398
  104780:	1e015de6 	cdpne	13, 0, cr5, cr1, cr6, {7}
  104784:	1e115de6 	cdpne	13, 1, cr5, cr1, cr6, {7}
  104788:	1e215de6 	cdpne	13, 2, cr5, cr1, cr6, {7}
  10478c:	1e315de6 	cdpne	13, 3, cr5, cr1, cr6, {7}
  104790:	1e415de6 	cdpne	13, 4, cr5, cr1, cr6, {7}
  104794:	1e515de6 	cdpne	13, 5, cr5, cr1, cr6, {7}
  104798:	1e615de6 	cdpne	13, 6, cr5, cr1, cr6, {7}
  10479c:	1e715de6 	cdpne	13, 7, cr5, cr1, cr6, {7}
  1047a0:	1e815de6 	cdpne	13, 8, cr5, cr1, cr6, {7}
  1047a4:	1e915de6 	cdpne	13, 9, cr5, cr1, cr6, {7}
  1047a8:	1ea15de6 	cdpne	13, 10, cr5, cr1, cr6, {7}
  1047ac:	1eb15de6 	cdpne	13, 11, cr5, cr1, cr6, {7}
  1047b0:	1ec15de6 	cdpne	13, 12, cr5, cr1, cr6, {7}
  1047b4:	1ed15de6 	cdpne	13, 13, cr5, cr1, cr6, {7}
  1047b8:	1ee15de6 	cdpne	13, 14, cr5, cr1, cr6, {7}
  1047bc:	1ef15de6 	cdpne	13, 15, cr5, cr1, cr6, {7}
  1047c0:	1f015de6 	svcne	0x00015de6
  1047c4:	1f115de6 	svcne	0x00115de6
  1047c8:	1f215de6 	svcne	0x00215de6
  1047cc:	1f315de6 	svcne	0x00315de6
  1047d0:	1f415de6 	svcne	0x00415de6
  1047d4:	1f515de6 	svcne	0x00515de6
  1047d8:	1f615de6 	svcne	0x00615de6
  1047dc:	1f715de6 	svcne	0x00715de6
  1047e0:	1f815de6 	svcne	0x00815de6
  1047e4:	1f915de6 	svcne	0x00915de6
  1047e8:	1fa15de6 	svcne	0x00a15de6
  1047ec:	1fb15de6 	svcne	0x00b15de6
  1047f0:	1fc15de6 	svcne	0x00c15de6
  1047f4:	1fd15de6 	svcne	0x00d15de6
  1047f8:	1fe15de6 	svcne	0x00e15de6
  1047fc:	1ff15de6 	svcne	0x00f15de6
  104800:	20015de6 	andcs	r5, r1, r6, ror #27
  104804:	20115de6 	andscs	r5, r1, r6, ror #27
  104808:	20215de6 	eorcs	r5, r1, r6, ror #27
  10480c:	20315de6 	eorscs	r5, r1, r6, ror #27
  104810:	20415de6 	subcs	r5, r1, r6, ror #27
  104814:	20515de6 	subscs	r5, r1, r6, ror #27
  104818:	20615de6 	rsbcs	r5, r1, r6, ror #27
  10481c:	20715de6 	rsbscs	r5, r1, r6, ror #27
  104820:	20815de6 	addcs	r5, r1, r6, ror #27
  104824:	20915de6 	addscs	r5, r1, r6, ror #27
  104828:	20a15de6 	adccs	r5, r1, r6, ror #27
  10482c:	20b15de6 	adcscs	r5, r1, r6, ror #27
  104830:	20c15de6 	sbccs	r5, r1, r6, ror #27
  104834:	20d15de6 	sbcscs	r5, r1, r6, ror #27
  104838:	20e15de6 	rsccs	r5, r1, r6, ror #27
  10483c:	20f15de6 	rscscs	r5, r1, r6, ror #27
  104840:	21015de6 	smlattcs	r1, r6, sp, r5
  104844:	21115de6 	tstcs	r1, r6, ror #27
  104848:	21215de6 	teqcs	r1, r6, ror #27
  10484c:	21315de6 	teqcs	r1, r6, ror #27
  104850:	21415de6 	smlalttcs	r5, r1, r6, sp
  104854:	21515de6 	cmpcs	r1, r6, ror #27
  104858:	21615de6 	cmncs	r1, r6, ror #27
  10485c:	21715de6 	cmncs	r1, r6, ror #27
  104860:	21815de6 	orrcs	r5, r1, r6, ror #27
  104864:	21915de6 	orrscs	r5, r1, r6, ror #27
  104868:	21a15de6 			; <UNDEFINED> instruction: 0x21a15de6
  10486c:	21b15de6 			; <UNDEFINED> instruction: 0x21b15de6
  104870:	21c15de6 	biccs	r5, r1, r6, ror #27
  104874:	21d15de6 	bicscs	r5, r1, r6, ror #27
  104878:	21e15de6 	mvncs	r5, r6, ror #27
  10487c:	21f15de6 	mvnscs	r5, r6, ror #27
  104880:	22015de6 	andcs	r5, r1, #14720	; 0x3980
  104884:	22115de6 	andscs	r5, r1, #14720	; 0x3980
  104888:	22215de6 	eorcs	r5, r1, #14720	; 0x3980
  10488c:	22315de6 	eorscs	r5, r1, #14720	; 0x3980
  104890:	22415de6 	subcs	r5, r1, #14720	; 0x3980
  104894:	22515de6 	subscs	r5, r1, #14720	; 0x3980
  104898:	22615de6 	rsbcs	r5, r1, #14720	; 0x3980
  10489c:	22715de6 	rsbscs	r5, r1, #14720	; 0x3980
  1048a0:	22815de6 	addcs	r5, r1, #14720	; 0x3980
  1048a4:	22915de6 	addscs	r5, r1, #14720	; 0x3980
  1048a8:	22a15de6 	adccs	r5, r1, #14720	; 0x3980
  1048ac:	22b15de6 	adcscs	r5, r1, #14720	; 0x3980
  1048b0:	22c15de6 	sbccs	r5, r1, #14720	; 0x3980
  1048b4:	22d15de6 	sbcscs	r5, r1, #14720	; 0x3980
  1048b8:	22e15de6 	rsccs	r5, r1, #14720	; 0x3980
  1048bc:	22f15de6 	rscscs	r5, r1, #14720	; 0x3980
  1048c0:	23015de6 	movwcs	r5, #7654	; 0x1de6
  1048c4:	23115de6 	tstcs	r1, #14720	; 0x3980
  1048c8:	23215de6 	teqcs	r1, #14720	; 0x3980
  1048cc:	23315de6 	teqcs	r1, #14720	; 0x3980
  1048d0:	23415de6 	movtcs	r5, #7654	; 0x1de6
  1048d4:	23515de6 	cmpcs	r1, #14720	; 0x3980
  1048d8:	23615de6 	cmncs	r1, #14720	; 0x3980
  1048dc:	23715de6 	cmncs	r1, #14720	; 0x3980
  1048e0:	23815de6 	orrcs	r5, r1, #14720	; 0x3980
  1048e4:	23915de6 	orrscs	r5, r1, #14720	; 0x3980
  1048e8:	23a15de6 			; <UNDEFINED> instruction: 0x23a15de6
  1048ec:	23b15de6 			; <UNDEFINED> instruction: 0x23b15de6
  1048f0:	23c15de6 	biccs	r5, r1, #14720	; 0x3980
  1048f4:	23d15de6 	bicscs	r5, r1, #14720	; 0x3980
  1048f8:	23e15de6 	mvncs	r5, #14720	; 0x3980
  1048fc:	23f15de6 	mvnscs	r5, #14720	; 0x3980
  104900:	24015de6 	strcs	r5, [r1], #-3558	; 0xfffff21a
  104904:	24115de6 	ldrcs	r5, [r1], #-3558	; 0xfffff21a
  104908:	24215de6 	strtcs	r5, [r1], #-3558	; 0xfffff21a
  10490c:	24315de6 	ldrtcs	r5, [r1], #-3558	; 0xfffff21a
  104910:	24415de6 	strbcs	r5, [r1], #-3558	; 0xfffff21a
  104914:	24515de6 	ldrbcs	r5, [r1], #-3558	; 0xfffff21a
  104918:	24615de6 	strbtcs	r5, [r1], #-3558	; 0xfffff21a
  10491c:	24715de6 	ldrbtcs	r5, [r1], #-3558	; 0xfffff21a
  104920:	24815de6 	strcs	r5, [r1], #3558	; 0xde6
  104924:	24915de6 	ldrcs	r5, [r1], #3558	; 0xde6
  104928:	24a15de6 	strtcs	r5, [r1], #3558	; 0xde6
  10492c:	24b15de6 	ldrtcs	r5, [r1], #3558	; 0xde6
  104930:	24c15de6 	strbcs	r5, [r1], #3558	; 0xde6
  104934:	24d15de6 	ldrbcs	r5, [r1], #3558	; 0xde6
  104938:	24e15de6 	strbtcs	r5, [r1], #3558	; 0xde6
  10493c:	24f15de6 	ldrbtcs	r5, [r1], #3558	; 0xde6
  104940:	25015de6 	strcs	r5, [r1, #-3558]	; 0xfffff21a
  104944:	25115de6 	ldrcs	r5, [r1, #-3558]	; 0xfffff21a
  104948:	25215de6 	strcs	r5, [r1, #-3558]!	; 0xfffff21a
  10494c:	25315de6 	ldrcs	r5, [r1, #-3558]!	; 0xfffff21a
  104950:	25415de6 	strbcs	r5, [r1, #-3558]	; 0xfffff21a
  104954:	25515de6 	ldrbcs	r5, [r1, #-3558]	; 0xfffff21a
  104958:	25615de6 	strbcs	r5, [r1, #-3558]!	; 0xfffff21a
  10495c:	25715de6 	ldrbcs	r5, [r1, #-3558]!	; 0xfffff21a
  104960:	25815de6 	strcs	r5, [r1, #3558]	; 0xde6
  104964:	25915de6 	ldrcs	r5, [r1, #3558]	; 0xde6
  104968:	25a15de6 	strcs	r5, [r1, #3558]!	; 0xde6
  10496c:	25b15de6 	ldrcs	r5, [r1, #3558]!	; 0xde6
  104970:	25c15de6 	strbcs	r5, [r1, #3558]	; 0xde6
  104974:	25d15de6 	ldrbcs	r5, [r1, #3558]	; 0xde6
  104978:	25e15de6 	strbcs	r5, [r1, #3558]!	; 0xde6
  10497c:	25f15de6 	ldrbcs	r5, [r1, #3558]!	; 0xde6
  104980:	26015de6 	strcs	r5, [r1], -r6, ror #27
  104984:	26115de6 	ldrcs	r5, [r1], -r6, ror #27
  104988:	26215de6 	strtcs	r5, [r1], -r6, ror #27
  10498c:	26315de6 	ldrtcs	r5, [r1], -r6, ror #27
  104990:	26415de6 	strbcs	r5, [r1], -r6, ror #27
  104994:	26515de6 	ldrbcs	r5, [r1], -r6, ror #27
  104998:	26615de6 	strbtcs	r5, [r1], -r6, ror #27
  10499c:	26715de6 	ldrbtcs	r5, [r1], -r6, ror #27
  1049a0:	26815de6 	strcs	r5, [r1], r6, ror #27
  1049a4:	26915de6 	ldrcs	r5, [r1], r6, ror #27
  1049a8:	26a15de6 	strtcs	r5, [r1], r6, ror #27
  1049ac:	26b15de6 	ldrtcs	r5, [r1], r6, ror #27
  1049b0:	26c15de6 	strbcs	r5, [r1], r6, ror #27
  1049b4:	26d15de6 	ldrbcs	r5, [r1], r6, ror #27
  1049b8:	26e15de6 	strbtcs	r5, [r1], r6, ror #27
  1049bc:	26f15de6 	ldrbtcs	r5, [r1], r6, ror #27
  1049c0:	27015de6 	strcs	r5, [r1, -r6, ror #27]
  1049c4:	27115de6 	ldrcs	r5, [r1, -r6, ror #27]
  1049c8:	27215de6 	strcs	r5, [r1, -r6, ror #27]!
  1049cc:	27315de6 	ldrcs	r5, [r1, -r6, ror #27]!
  1049d0:	27415de6 	strbcs	r5, [r1, -r6, ror #27]
  1049d4:	27515de6 	ldrbcs	r5, [r1, -r6, ror #27]
  1049d8:	27615de6 	strbcs	r5, [r1, -r6, ror #27]!
  1049dc:	27715de6 	ldrbcs	r5, [r1, -r6, ror #27]!
  1049e0:	27815de6 	strcs	r5, [r1, r6, ror #27]
  1049e4:	27915de6 	ldrcs	r5, [r1, r6, ror #27]
  1049e8:	27a15de6 	strcs	r5, [r1, r6, ror #27]!
  1049ec:	27b15de6 	ldrcs	r5, [r1, r6, ror #27]!
  1049f0:	27c15de6 	strbcs	r5, [r1, r6, ror #27]
  1049f4:	27d15de6 	ldrbcs	r5, [r1, r6, ror #27]
  1049f8:	27e15de6 	strbcs	r5, [r1, r6, ror #27]!
  1049fc:	27f15de6 	ldrbcs	r5, [r1, r6, ror #27]!
  104a00:	28015de6 	stmdacs	r1, {r1, r2, r5, r6, r7, r8, sl, fp, ip, lr}
  104a04:	28115de6 	ldmdacs	r1, {r1, r2, r5, r6, r7, r8, sl, fp, ip, lr}
  104a08:	28215de6 	stmdacs	r1!, {r1, r2, r5, r6, r7, r8, sl, fp, ip, lr}
  104a0c:	28315de6 	ldmdacs	r1!, {r1, r2, r5, r6, r7, r8, sl, fp, ip, lr}
  104a10:	28415de6 	stmdacs	r1, {r1, r2, r5, r6, r7, r8, sl, fp, ip, lr}^
  104a14:	28515de6 	ldmdacs	r1, {r1, r2, r5, r6, r7, r8, sl, fp, ip, lr}^
  104a18:	28615de6 	stmdacs	r1!, {r1, r2, r5, r6, r7, r8, sl, fp, ip, lr}^
  104a1c:	28715de6 	ldmdacs	r1!, {r1, r2, r5, r6, r7, r8, sl, fp, ip, lr}^
  104a20:	28815de6 	stmcs	r1, {r1, r2, r5, r6, r7, r8, sl, fp, ip, lr}
  104a24:	28915de6 	ldmcs	r1, {r1, r2, r5, r6, r7, r8, sl, fp, ip, lr}
  104a28:	28a15de6 	stmiacs	r1!, {r1, r2, r5, r6, r7, r8, sl, fp, ip, lr}
  104a2c:	28b15de6 	ldmcs	r1!, {r1, r2, r5, r6, r7, r8, sl, fp, ip, lr}
  104a30:	28c15de6 	stmiacs	r1, {r1, r2, r5, r6, r7, r8, sl, fp, ip, lr}^
  104a34:	28d15de6 	ldmcs	r1, {r1, r2, r5, r6, r7, r8, sl, fp, ip, lr}^
  104a38:	28e15de6 	stmiacs	r1!, {r1, r2, r5, r6, r7, r8, sl, fp, ip, lr}^
  104a3c:	28f15de6 	ldmcs	r1!, {r1, r2, r5, r6, r7, r8, sl, fp, ip, lr}^
  104a40:	29015de6 	stmdbcs	r1, {r1, r2, r5, r6, r7, r8, sl, fp, ip, lr}
  104a44:	29115de6 	ldmdbcs	r1, {r1, r2, r5, r6, r7, r8, sl, fp, ip, lr}
  104a48:	29215de6 	stmdbcs	r1!, {r1, r2, r5, r6, r7, r8, sl, fp, ip, lr}
  104a4c:	29315de6 	ldmdbcs	r1!, {r1, r2, r5, r6, r7, r8, sl, fp, ip, lr}
  104a50:	29415de6 	stmdbcs	r1, {r1, r2, r5, r6, r7, r8, sl, fp, ip, lr}^
  104a54:	29515de6 	ldmdbcs	r1, {r1, r2, r5, r6, r7, r8, sl, fp, ip, lr}^
  104a58:	29615de6 	stmdbcs	r1!, {r1, r2, r5, r6, r7, r8, sl, fp, ip, lr}^
  104a5c:	29715de6 	ldmdbcs	r1!, {r1, r2, r5, r6, r7, r8, sl, fp, ip, lr}^
  104a60:	29815de6 	stmibcs	r1, {r1, r2, r5, r6, r7, r8, sl, fp, ip, lr}
  104a64:	29915de6 	ldmibcs	r1, {r1, r2, r5, r6, r7, r8, sl, fp, ip, lr}
  104a68:	29a15de6 	stmibcs	r1!, {r1, r2, r5, r6, r7, r8, sl, fp, ip, lr}
  104a6c:	29b15de6 	ldmibcs	r1!, {r1, r2, r5, r6, r7, r8, sl, fp, ip, lr}
  104a70:	29c15de6 	stmibcs	r1, {r1, r2, r5, r6, r7, r8, sl, fp, ip, lr}^
  104a74:	29d15de6 	ldmibcs	r1, {r1, r2, r5, r6, r7, r8, sl, fp, ip, lr}^
  104a78:	29e15de6 	stmibcs	r1!, {r1, r2, r5, r6, r7, r8, sl, fp, ip, lr}^
  104a7c:	29f15de6 	ldmibcs	r1!, {r1, r2, r5, r6, r7, r8, sl, fp, ip, lr}^
  104a80:	2a015de6 	bcs	15c220 <__undef_stack+0x4e260>
  104a84:	2a115de6 	bcs	55c224 <__undef_stack+0x44e264>
  104a88:	2a215de6 	bcs	95c228 <__undef_stack+0x84e268>
  104a8c:	2a315de6 	bcs	d5c22c <__undef_stack+0xc4e26c>
  104a90:	2a415de6 	bcs	115c230 <__undef_stack+0x104e270>
  104a94:	2a515de6 	bcs	155c234 <__undef_stack+0x144e274>
  104a98:	2a615de6 	bcs	195c238 <__undef_stack+0x184e278>
  104a9c:	2a715de6 	bcs	1d5c23c <__undef_stack+0x1c4e27c>
  104aa0:	2a815de6 	bcs	fe15c240 <LRemap+0x15c231>
  104aa4:	2a915de6 	bcs	fe55c244 <LRemap+0x55c235>
  104aa8:	2aa15de6 	bcs	fe95c248 <LRemap+0x95c239>
  104aac:	2ab15de6 	bcs	fed5c24c <LRemap+0xd5c23d>
  104ab0:	2ac15de6 	bcs	ff15c250 <LRemap+0x115c241>
  104ab4:	2ad15de6 	bcs	ff55c254 <LRemap+0x155c245>
  104ab8:	2ae15de6 	bcs	ff95c258 <LRemap+0x195c249>
  104abc:	2af15de6 	bcs	ffd5c25c <LRemap+0x1d5c24d>
  104ac0:	2b015de6 	blcs	15c260 <__undef_stack+0x4e2a0>
  104ac4:	2b115de6 	blcs	55c264 <__undef_stack+0x44e2a4>
  104ac8:	2b215de6 	blcs	95c268 <__undef_stack+0x84e2a8>
  104acc:	2b315de6 	blcs	d5c26c <__undef_stack+0xc4e2ac>
  104ad0:	2b415de6 	blcs	115c270 <__undef_stack+0x104e2b0>
  104ad4:	2b515de6 	blcs	155c274 <__undef_stack+0x144e2b4>
  104ad8:	2b615de6 	blcs	195c278 <__undef_stack+0x184e2b8>
  104adc:	2b715de6 	blcs	1d5c27c <__undef_stack+0x1c4e2bc>
  104ae0:	2b815de6 	blcs	fe15c280 <LRemap+0x15c271>
  104ae4:	2b915de6 	blcs	fe55c284 <LRemap+0x55c275>
  104ae8:	2ba15de6 	blcs	fe95c288 <LRemap+0x95c279>
  104aec:	2bb15de6 	blcs	fed5c28c <LRemap+0xd5c27d>
  104af0:	2bc15de6 	blcs	ff15c290 <LRemap+0x115c281>
  104af4:	2bd15de6 	blcs	ff55c294 <LRemap+0x155c285>
  104af8:	2be15de6 	blcs	ff95c298 <LRemap+0x195c289>
  104afc:	2bf15de6 	blcs	ffd5c29c <LRemap+0x1d5c28d>
  104b00:	2c015de6 	stccs	13, cr5, [r1], {230}	; 0xe6
  104b04:	2c115de6 	ldccs	13, cr5, [r1], {230}	; 0xe6
  104b08:	2c215de6 	stccs	13, cr5, [r1], #-920	; 0xfffffc68
  104b0c:	2c315de6 	ldccs	13, cr5, [r1], #-920	; 0xfffffc68
  104b10:	2c415de6 	mcrrcs	13, 14, r5, r1, cr6
  104b14:	2c515de6 	mrrccs	13, 14, r5, r1, cr6
  104b18:	2c615de6 	stclcs	13, cr5, [r1], #-920	; 0xfffffc68
  104b1c:	2c715de6 	ldclcs	13, cr5, [r1], #-920	; 0xfffffc68
  104b20:	2c815de6 	stccs	13, cr5, [r1], {230}	; 0xe6
  104b24:	2c915de6 	ldccs	13, cr5, [r1], {230}	; 0xe6
  104b28:	2ca15de6 	stccs	13, cr5, [r1], #920	; 0x398
  104b2c:	2cb15de6 	ldccs	13, cr5, [r1], #920	; 0x398
  104b30:	2cc15de6 	stclcs	13, cr5, [r1], {230}	; 0xe6
  104b34:	2cd15de6 	ldclcs	13, cr5, [r1], {230}	; 0xe6
  104b38:	2ce15de6 	stclcs	13, cr5, [r1], #920	; 0x398
  104b3c:	2cf15de6 	ldclcs	13, cr5, [r1], #920	; 0x398
  104b40:	2d015de6 	stccs	13, cr5, [r1, #-920]	; 0xfffffc68
  104b44:	2d115de6 	ldccs	13, cr5, [r1, #-920]	; 0xfffffc68
  104b48:	2d215de6 	stccs	13, cr5, [r1, #-920]!	; 0xfffffc68
  104b4c:	2d315de6 	ldccs	13, cr5, [r1, #-920]!	; 0xfffffc68
  104b50:	2d415de6 	stclcs	13, cr5, [r1, #-920]	; 0xfffffc68
  104b54:	2d515de6 	ldclcs	13, cr5, [r1, #-920]	; 0xfffffc68
  104b58:	2d615de6 	stclcs	13, cr5, [r1, #-920]!	; 0xfffffc68
  104b5c:	2d715de6 	ldclcs	13, cr5, [r1, #-920]!	; 0xfffffc68
  104b60:	2d815de6 	stccs	13, cr5, [r1, #920]	; 0x398
  104b64:	2d915de6 	ldccs	13, cr5, [r1, #920]	; 0x398
  104b68:	2da15de6 	stccs	13, cr5, [r1, #920]!	; 0x398
  104b6c:	2db15de6 	ldccs	13, cr5, [r1, #920]!	; 0x398
  104b70:	2dc15de6 	stclcs	13, cr5, [r1, #920]	; 0x398
  104b74:	2dd15de6 	ldclcs	13, cr5, [r1, #920]	; 0x398
  104b78:	2de15de6 	stclcs	13, cr5, [r1, #920]!	; 0x398
  104b7c:	2df15de6 	ldclcs	13, cr5, [r1, #920]!	; 0x398
  104b80:	2e015de6 	cdpcs	13, 0, cr5, cr1, cr6, {7}
  104b84:	2e115de6 	cdpcs	13, 1, cr5, cr1, cr6, {7}
  104b88:	2e215de6 	cdpcs	13, 2, cr5, cr1, cr6, {7}
  104b8c:	2e315de6 	cdpcs	13, 3, cr5, cr1, cr6, {7}
  104b90:	2e415de6 	cdpcs	13, 4, cr5, cr1, cr6, {7}
  104b94:	2e515de6 	cdpcs	13, 5, cr5, cr1, cr6, {7}
  104b98:	2e615de6 	cdpcs	13, 6, cr5, cr1, cr6, {7}
  104b9c:	2e715de6 	cdpcs	13, 7, cr5, cr1, cr6, {7}
  104ba0:	2e815de6 	cdpcs	13, 8, cr5, cr1, cr6, {7}
  104ba4:	2e915de6 	cdpcs	13, 9, cr5, cr1, cr6, {7}
  104ba8:	2ea15de6 	cdpcs	13, 10, cr5, cr1, cr6, {7}
  104bac:	2eb15de6 	cdpcs	13, 11, cr5, cr1, cr6, {7}
  104bb0:	2ec15de6 	cdpcs	13, 12, cr5, cr1, cr6, {7}
  104bb4:	2ed15de6 	cdpcs	13, 13, cr5, cr1, cr6, {7}
  104bb8:	2ee15de6 	cdpcs	13, 14, cr5, cr1, cr6, {7}
  104bbc:	2ef15de6 	cdpcs	13, 15, cr5, cr1, cr6, {7}
  104bc0:	2f015de6 	svccs	0x00015de6
  104bc4:	2f115de6 	svccs	0x00115de6
  104bc8:	2f215de6 	svccs	0x00215de6
  104bcc:	2f315de6 	svccs	0x00315de6
  104bd0:	2f415de6 	svccs	0x00415de6
  104bd4:	2f515de6 	svccs	0x00515de6
  104bd8:	2f615de6 	svccs	0x00615de6
  104bdc:	2f715de6 	svccs	0x00715de6
  104be0:	2f815de6 	svccs	0x00815de6
  104be4:	2f915de6 	svccs	0x00915de6
  104be8:	2fa15de6 	svccs	0x00a15de6
  104bec:	2fb15de6 	svccs	0x00b15de6
  104bf0:	2fc15de6 	svccs	0x00c15de6
  104bf4:	2fd15de6 	svccs	0x00d15de6
  104bf8:	2fe15de6 	svccs	0x00e15de6
  104bfc:	2ff15de6 	svccs	0x00f15de6
  104c00:	30015de6 	andcc	r5, r1, r6, ror #27
  104c04:	30115de6 	andscc	r5, r1, r6, ror #27
  104c08:	30215de6 	eorcc	r5, r1, r6, ror #27
  104c0c:	30315de6 	eorscc	r5, r1, r6, ror #27
  104c10:	30415de6 	subcc	r5, r1, r6, ror #27
  104c14:	30515de6 	subscc	r5, r1, r6, ror #27
  104c18:	30615de6 	rsbcc	r5, r1, r6, ror #27
  104c1c:	30715de6 	rsbscc	r5, r1, r6, ror #27
  104c20:	30815de6 	addcc	r5, r1, r6, ror #27
  104c24:	30915de6 	addscc	r5, r1, r6, ror #27
  104c28:	30a15de6 	adccc	r5, r1, r6, ror #27
  104c2c:	30b15de6 	adcscc	r5, r1, r6, ror #27
  104c30:	30c15de6 	sbccc	r5, r1, r6, ror #27
  104c34:	30d15de6 	sbcscc	r5, r1, r6, ror #27
  104c38:	30e15de6 	rsccc	r5, r1, r6, ror #27
  104c3c:	30f15de6 	rscscc	r5, r1, r6, ror #27
  104c40:	31015de6 	smlattcc	r1, r6, sp, r5
  104c44:	31115de6 	tstcc	r1, r6, ror #27
  104c48:	31215de6 	teqcc	r1, r6, ror #27
  104c4c:	31315de6 	teqcc	r1, r6, ror #27
  104c50:	31415de6 	smlalttcc	r5, r1, r6, sp
  104c54:	31515de6 	cmpcc	r1, r6, ror #27
  104c58:	31615de6 	cmncc	r1, r6, ror #27
  104c5c:	31715de6 	cmncc	r1, r6, ror #27
  104c60:	31815de6 	orrcc	r5, r1, r6, ror #27
  104c64:	31915de6 	orrscc	r5, r1, r6, ror #27
  104c68:	31a15de6 			; <UNDEFINED> instruction: 0x31a15de6
  104c6c:	31b15de6 			; <UNDEFINED> instruction: 0x31b15de6
  104c70:	31c15de6 	biccc	r5, r1, r6, ror #27
  104c74:	31d15de6 	bicscc	r5, r1, r6, ror #27
  104c78:	31e15de6 	mvncc	r5, r6, ror #27
  104c7c:	31f15de6 	mvnscc	r5, r6, ror #27
  104c80:	32015de6 	andcc	r5, r1, #14720	; 0x3980
  104c84:	32115de6 	andscc	r5, r1, #14720	; 0x3980
  104c88:	32215de6 	eorcc	r5, r1, #14720	; 0x3980
  104c8c:	32315de6 	eorscc	r5, r1, #14720	; 0x3980
  104c90:	32415de6 	subcc	r5, r1, #14720	; 0x3980
  104c94:	32515de6 	subscc	r5, r1, #14720	; 0x3980
  104c98:	32615de6 	rsbcc	r5, r1, #14720	; 0x3980
  104c9c:	32715de6 	rsbscc	r5, r1, #14720	; 0x3980
  104ca0:	32815de6 	addcc	r5, r1, #14720	; 0x3980
  104ca4:	32915de6 	addscc	r5, r1, #14720	; 0x3980
  104ca8:	32a15de6 	adccc	r5, r1, #14720	; 0x3980
  104cac:	32b15de6 	adcscc	r5, r1, #14720	; 0x3980
  104cb0:	32c15de6 	sbccc	r5, r1, #14720	; 0x3980
  104cb4:	32d15de6 	sbcscc	r5, r1, #14720	; 0x3980
  104cb8:	32e15de6 	rsccc	r5, r1, #14720	; 0x3980
  104cbc:	32f15de6 	rscscc	r5, r1, #14720	; 0x3980
  104cc0:	33015de6 	movwcc	r5, #7654	; 0x1de6
  104cc4:	33115de6 	tstcc	r1, #14720	; 0x3980
  104cc8:	33215de6 	teqcc	r1, #14720	; 0x3980
  104ccc:	33315de6 	teqcc	r1, #14720	; 0x3980
  104cd0:	33415de6 	movtcc	r5, #7654	; 0x1de6
  104cd4:	33515de6 	cmpcc	r1, #14720	; 0x3980
  104cd8:	33615de6 	cmncc	r1, #14720	; 0x3980
  104cdc:	33715de6 	cmncc	r1, #14720	; 0x3980
  104ce0:	33815de6 	orrcc	r5, r1, #14720	; 0x3980
  104ce4:	33915de6 	orrscc	r5, r1, #14720	; 0x3980
  104ce8:	33a15de6 			; <UNDEFINED> instruction: 0x33a15de6
  104cec:	33b15de6 			; <UNDEFINED> instruction: 0x33b15de6
  104cf0:	33c15de6 	biccc	r5, r1, #14720	; 0x3980
  104cf4:	33d15de6 	bicscc	r5, r1, #14720	; 0x3980
  104cf8:	33e15de6 	mvncc	r5, #14720	; 0x3980
  104cfc:	33f15de6 	mvnscc	r5, #14720	; 0x3980
  104d00:	34015de6 	strcc	r5, [r1], #-3558	; 0xfffff21a
  104d04:	34115de6 	ldrcc	r5, [r1], #-3558	; 0xfffff21a
  104d08:	34215de6 	strtcc	r5, [r1], #-3558	; 0xfffff21a
  104d0c:	34315de6 	ldrtcc	r5, [r1], #-3558	; 0xfffff21a
  104d10:	34415de6 	strbcc	r5, [r1], #-3558	; 0xfffff21a
  104d14:	34515de6 	ldrbcc	r5, [r1], #-3558	; 0xfffff21a
  104d18:	34615de6 	strbtcc	r5, [r1], #-3558	; 0xfffff21a
  104d1c:	34715de6 	ldrbtcc	r5, [r1], #-3558	; 0xfffff21a
  104d20:	34815de6 	strcc	r5, [r1], #3558	; 0xde6
  104d24:	34915de6 	ldrcc	r5, [r1], #3558	; 0xde6
  104d28:	34a15de6 	strtcc	r5, [r1], #3558	; 0xde6
  104d2c:	34b15de6 	ldrtcc	r5, [r1], #3558	; 0xde6
  104d30:	34c15de6 	strbcc	r5, [r1], #3558	; 0xde6
  104d34:	34d15de6 	ldrbcc	r5, [r1], #3558	; 0xde6
  104d38:	34e15de6 	strbtcc	r5, [r1], #3558	; 0xde6
  104d3c:	34f15de6 	ldrbtcc	r5, [r1], #3558	; 0xde6
  104d40:	35015de6 	strcc	r5, [r1, #-3558]	; 0xfffff21a
  104d44:	35115de6 	ldrcc	r5, [r1, #-3558]	; 0xfffff21a
  104d48:	35215de6 	strcc	r5, [r1, #-3558]!	; 0xfffff21a
  104d4c:	35315de6 	ldrcc	r5, [r1, #-3558]!	; 0xfffff21a
  104d50:	35415de6 	strbcc	r5, [r1, #-3558]	; 0xfffff21a
  104d54:	35515de6 	ldrbcc	r5, [r1, #-3558]	; 0xfffff21a
  104d58:	35615de6 	strbcc	r5, [r1, #-3558]!	; 0xfffff21a
  104d5c:	35715de6 	ldrbcc	r5, [r1, #-3558]!	; 0xfffff21a
  104d60:	35815de6 	strcc	r5, [r1, #3558]	; 0xde6
  104d64:	35915de6 	ldrcc	r5, [r1, #3558]	; 0xde6
  104d68:	35a15de6 	strcc	r5, [r1, #3558]!	; 0xde6
  104d6c:	35b15de6 	ldrcc	r5, [r1, #3558]!	; 0xde6
  104d70:	35c15de6 	strbcc	r5, [r1, #3558]	; 0xde6
  104d74:	35d15de6 	ldrbcc	r5, [r1, #3558]	; 0xde6
  104d78:	35e15de6 	strbcc	r5, [r1, #3558]!	; 0xde6
  104d7c:	35f15de6 	ldrbcc	r5, [r1, #3558]!	; 0xde6
  104d80:	36015de6 	strcc	r5, [r1], -r6, ror #27
  104d84:	36115de6 	ldrcc	r5, [r1], -r6, ror #27
  104d88:	36215de6 	strtcc	r5, [r1], -r6, ror #27
  104d8c:	36315de6 	ldrtcc	r5, [r1], -r6, ror #27
  104d90:	36415de6 	strbcc	r5, [r1], -r6, ror #27
  104d94:	36515de6 	ldrbcc	r5, [r1], -r6, ror #27
  104d98:	36615de6 	strbtcc	r5, [r1], -r6, ror #27
  104d9c:	36715de6 	ldrbtcc	r5, [r1], -r6, ror #27
  104da0:	36815de6 	strcc	r5, [r1], r6, ror #27
  104da4:	36915de6 	ldrcc	r5, [r1], r6, ror #27
  104da8:	36a15de6 	strtcc	r5, [r1], r6, ror #27
  104dac:	36b15de6 	ldrtcc	r5, [r1], r6, ror #27
  104db0:	36c15de6 	strbcc	r5, [r1], r6, ror #27
  104db4:	36d15de6 	ldrbcc	r5, [r1], r6, ror #27
  104db8:	36e15de6 	strbtcc	r5, [r1], r6, ror #27
  104dbc:	36f15de6 	ldrbtcc	r5, [r1], r6, ror #27
  104dc0:	37015de6 	strcc	r5, [r1, -r6, ror #27]
  104dc4:	37115de6 	ldrcc	r5, [r1, -r6, ror #27]
  104dc8:	37215de6 	strcc	r5, [r1, -r6, ror #27]!
  104dcc:	37315de6 	ldrcc	r5, [r1, -r6, ror #27]!
  104dd0:	37415de6 	strbcc	r5, [r1, -r6, ror #27]
  104dd4:	37515de6 	ldrbcc	r5, [r1, -r6, ror #27]
  104dd8:	37615de6 	strbcc	r5, [r1, -r6, ror #27]!
  104ddc:	37715de6 	ldrbcc	r5, [r1, -r6, ror #27]!
  104de0:	37815de6 	strcc	r5, [r1, r6, ror #27]
  104de4:	37915de6 	ldrcc	r5, [r1, r6, ror #27]
  104de8:	37a15de6 	strcc	r5, [r1, r6, ror #27]!
  104dec:	37b15de6 	ldrcc	r5, [r1, r6, ror #27]!
  104df0:	37c15de6 	strbcc	r5, [r1, r6, ror #27]
  104df4:	37d15de6 	ldrbcc	r5, [r1, r6, ror #27]
  104df8:	37e15de6 	strbcc	r5, [r1, r6, ror #27]!
  104dfc:	37f15de6 	ldrbcc	r5, [r1, r6, ror #27]!
  104e00:	38015de6 	stmdacc	r1, {r1, r2, r5, r6, r7, r8, sl, fp, ip, lr}
  104e04:	38115de6 	ldmdacc	r1, {r1, r2, r5, r6, r7, r8, sl, fp, ip, lr}
  104e08:	38215de6 	stmdacc	r1!, {r1, r2, r5, r6, r7, r8, sl, fp, ip, lr}
  104e0c:	38315de6 	ldmdacc	r1!, {r1, r2, r5, r6, r7, r8, sl, fp, ip, lr}
  104e10:	38415de6 	stmdacc	r1, {r1, r2, r5, r6, r7, r8, sl, fp, ip, lr}^
  104e14:	38515de6 	ldmdacc	r1, {r1, r2, r5, r6, r7, r8, sl, fp, ip, lr}^
  104e18:	38615de6 	stmdacc	r1!, {r1, r2, r5, r6, r7, r8, sl, fp, ip, lr}^
  104e1c:	38715de6 	ldmdacc	r1!, {r1, r2, r5, r6, r7, r8, sl, fp, ip, lr}^
  104e20:	38815de6 	stmcc	r1, {r1, r2, r5, r6, r7, r8, sl, fp, ip, lr}
  104e24:	38915de6 	ldmcc	r1, {r1, r2, r5, r6, r7, r8, sl, fp, ip, lr}
  104e28:	38a15de6 	stmiacc	r1!, {r1, r2, r5, r6, r7, r8, sl, fp, ip, lr}
  104e2c:	38b15de6 	ldmcc	r1!, {r1, r2, r5, r6, r7, r8, sl, fp, ip, lr}
  104e30:	38c15de6 	stmiacc	r1, {r1, r2, r5, r6, r7, r8, sl, fp, ip, lr}^
  104e34:	38d15de6 	ldmcc	r1, {r1, r2, r5, r6, r7, r8, sl, fp, ip, lr}^
  104e38:	38e15de6 	stmiacc	r1!, {r1, r2, r5, r6, r7, r8, sl, fp, ip, lr}^
  104e3c:	38f15de6 	ldmcc	r1!, {r1, r2, r5, r6, r7, r8, sl, fp, ip, lr}^
  104e40:	39015de6 	stmdbcc	r1, {r1, r2, r5, r6, r7, r8, sl, fp, ip, lr}
  104e44:	39115de6 	ldmdbcc	r1, {r1, r2, r5, r6, r7, r8, sl, fp, ip, lr}
  104e48:	39215de6 	stmdbcc	r1!, {r1, r2, r5, r6, r7, r8, sl, fp, ip, lr}
  104e4c:	39315de6 	ldmdbcc	r1!, {r1, r2, r5, r6, r7, r8, sl, fp, ip, lr}
  104e50:	39415de6 	stmdbcc	r1, {r1, r2, r5, r6, r7, r8, sl, fp, ip, lr}^
  104e54:	39515de6 	ldmdbcc	r1, {r1, r2, r5, r6, r7, r8, sl, fp, ip, lr}^
  104e58:	39615de6 	stmdbcc	r1!, {r1, r2, r5, r6, r7, r8, sl, fp, ip, lr}^
  104e5c:	39715de6 	ldmdbcc	r1!, {r1, r2, r5, r6, r7, r8, sl, fp, ip, lr}^
  104e60:	39815de6 	stmibcc	r1, {r1, r2, r5, r6, r7, r8, sl, fp, ip, lr}
  104e64:	39915de6 	ldmibcc	r1, {r1, r2, r5, r6, r7, r8, sl, fp, ip, lr}
  104e68:	39a15de6 	stmibcc	r1!, {r1, r2, r5, r6, r7, r8, sl, fp, ip, lr}
  104e6c:	39b15de6 	ldmibcc	r1!, {r1, r2, r5, r6, r7, r8, sl, fp, ip, lr}
  104e70:	39c15de6 	stmibcc	r1, {r1, r2, r5, r6, r7, r8, sl, fp, ip, lr}^
  104e74:	39d15de6 	ldmibcc	r1, {r1, r2, r5, r6, r7, r8, sl, fp, ip, lr}^
  104e78:	39e15de6 	stmibcc	r1!, {r1, r2, r5, r6, r7, r8, sl, fp, ip, lr}^
  104e7c:	39f15de6 	ldmibcc	r1!, {r1, r2, r5, r6, r7, r8, sl, fp, ip, lr}^
  104e80:	3a015de6 	bcc	15c620 <__undef_stack+0x4e660>
  104e84:	3a115de6 	bcc	55c624 <__undef_stack+0x44e664>
  104e88:	3a215de6 	bcc	95c628 <__undef_stack+0x84e668>
  104e8c:	3a315de6 	bcc	d5c62c <__undef_stack+0xc4e66c>
  104e90:	3a415de6 	bcc	115c630 <__undef_stack+0x104e670>
  104e94:	3a515de6 	bcc	155c634 <__undef_stack+0x144e674>
  104e98:	3a615de6 	bcc	195c638 <__undef_stack+0x184e678>
  104e9c:	3a715de6 	bcc	1d5c63c <__undef_stack+0x1c4e67c>
  104ea0:	3a815de6 	bcc	fe15c640 <LRemap+0x15c631>
  104ea4:	3a915de6 	bcc	fe55c644 <LRemap+0x55c635>
  104ea8:	3aa15de6 	bcc	fe95c648 <LRemap+0x95c639>
  104eac:	3ab15de6 	bcc	fed5c64c <LRemap+0xd5c63d>
  104eb0:	3ac15de6 	bcc	ff15c650 <LRemap+0x115c641>
  104eb4:	3ad15de6 	bcc	ff55c654 <LRemap+0x155c645>
  104eb8:	3ae15de6 	bcc	ff95c658 <LRemap+0x195c649>
  104ebc:	3af15de6 	bcc	ffd5c65c <LRemap+0x1d5c64d>
  104ec0:	3b015de6 	blcc	15c660 <__undef_stack+0x4e6a0>
  104ec4:	3b115de6 	blcc	55c664 <__undef_stack+0x44e6a4>
  104ec8:	3b215de6 	blcc	95c668 <__undef_stack+0x84e6a8>
  104ecc:	3b315de6 	blcc	d5c66c <__undef_stack+0xc4e6ac>
  104ed0:	3b415de6 	blcc	115c670 <__undef_stack+0x104e6b0>
  104ed4:	3b515de6 	blcc	155c674 <__undef_stack+0x144e6b4>
  104ed8:	3b615de6 	blcc	195c678 <__undef_stack+0x184e6b8>
  104edc:	3b715de6 	blcc	1d5c67c <__undef_stack+0x1c4e6bc>
  104ee0:	3b815de6 	blcc	fe15c680 <LRemap+0x15c671>
  104ee4:	3b915de6 	blcc	fe55c684 <LRemap+0x55c675>
  104ee8:	3ba15de6 	blcc	fe95c688 <LRemap+0x95c679>
  104eec:	3bb15de6 	blcc	fed5c68c <LRemap+0xd5c67d>
  104ef0:	3bc15de6 	blcc	ff15c690 <LRemap+0x115c681>
  104ef4:	3bd15de6 	blcc	ff55c694 <LRemap+0x155c685>
  104ef8:	3be15de6 	blcc	ff95c698 <LRemap+0x195c689>
  104efc:	3bf15de6 	blcc	ffd5c69c <LRemap+0x1d5c68d>
  104f00:	3c015de6 	stccc	13, cr5, [r1], {230}	; 0xe6
  104f04:	3c115de6 	ldccc	13, cr5, [r1], {230}	; 0xe6
  104f08:	3c215de6 	stccc	13, cr5, [r1], #-920	; 0xfffffc68
  104f0c:	3c315de6 	ldccc	13, cr5, [r1], #-920	; 0xfffffc68
  104f10:	3c415de6 	mcrrcc	13, 14, r5, r1, cr6
  104f14:	3c515de6 	mrrccc	13, 14, r5, r1, cr6
  104f18:	3c615de6 	stclcc	13, cr5, [r1], #-920	; 0xfffffc68
  104f1c:	3c715de6 	ldclcc	13, cr5, [r1], #-920	; 0xfffffc68
  104f20:	3c815de6 	stccc	13, cr5, [r1], {230}	; 0xe6
  104f24:	3c915de6 	ldccc	13, cr5, [r1], {230}	; 0xe6
  104f28:	3ca15de6 	stccc	13, cr5, [r1], #920	; 0x398
  104f2c:	3cb15de6 	ldccc	13, cr5, [r1], #920	; 0x398
  104f30:	3cc15de6 	stclcc	13, cr5, [r1], {230}	; 0xe6
  104f34:	3cd15de6 	ldclcc	13, cr5, [r1], {230}	; 0xe6
  104f38:	3ce15de6 	stclcc	13, cr5, [r1], #920	; 0x398
  104f3c:	3cf15de6 	ldclcc	13, cr5, [r1], #920	; 0x398
  104f40:	3d015de6 	stccc	13, cr5, [r1, #-920]	; 0xfffffc68
  104f44:	3d115de6 	ldccc	13, cr5, [r1, #-920]	; 0xfffffc68
  104f48:	3d215de6 	stccc	13, cr5, [r1, #-920]!	; 0xfffffc68
  104f4c:	3d315de6 	ldccc	13, cr5, [r1, #-920]!	; 0xfffffc68
  104f50:	3d415de6 	stclcc	13, cr5, [r1, #-920]	; 0xfffffc68
  104f54:	3d515de6 	ldclcc	13, cr5, [r1, #-920]	; 0xfffffc68
  104f58:	3d615de6 	stclcc	13, cr5, [r1, #-920]!	; 0xfffffc68
  104f5c:	3d715de6 	ldclcc	13, cr5, [r1, #-920]!	; 0xfffffc68
  104f60:	3d815de6 	stccc	13, cr5, [r1, #920]	; 0x398
  104f64:	3d915de6 	ldccc	13, cr5, [r1, #920]	; 0x398
  104f68:	3da15de6 	stccc	13, cr5, [r1, #920]!	; 0x398
  104f6c:	3db15de6 	ldccc	13, cr5, [r1, #920]!	; 0x398
  104f70:	3dc15de6 	stclcc	13, cr5, [r1, #920]	; 0x398
  104f74:	3dd15de6 	ldclcc	13, cr5, [r1, #920]	; 0x398
  104f78:	3de15de6 	stclcc	13, cr5, [r1, #920]!	; 0x398
  104f7c:	3df15de6 	ldclcc	13, cr5, [r1, #920]!	; 0x398
  104f80:	3e015de6 	cdpcc	13, 0, cr5, cr1, cr6, {7}
  104f84:	3e115de6 	cdpcc	13, 1, cr5, cr1, cr6, {7}
  104f88:	3e215de6 	cdpcc	13, 2, cr5, cr1, cr6, {7}
  104f8c:	3e315de6 	cdpcc	13, 3, cr5, cr1, cr6, {7}
  104f90:	3e415de6 	cdpcc	13, 4, cr5, cr1, cr6, {7}
  104f94:	3e515de6 	cdpcc	13, 5, cr5, cr1, cr6, {7}
  104f98:	3e615de6 	cdpcc	13, 6, cr5, cr1, cr6, {7}
  104f9c:	3e715de6 	cdpcc	13, 7, cr5, cr1, cr6, {7}
  104fa0:	3e815de6 	cdpcc	13, 8, cr5, cr1, cr6, {7}
  104fa4:	3e915de6 	cdpcc	13, 9, cr5, cr1, cr6, {7}
  104fa8:	3ea15de6 	cdpcc	13, 10, cr5, cr1, cr6, {7}
  104fac:	3eb15de6 	cdpcc	13, 11, cr5, cr1, cr6, {7}
  104fb0:	3ec15de6 	cdpcc	13, 12, cr5, cr1, cr6, {7}
  104fb4:	3ed15de6 	cdpcc	13, 13, cr5, cr1, cr6, {7}
  104fb8:	3ee15de6 	cdpcc	13, 14, cr5, cr1, cr6, {7}
  104fbc:	3ef15de6 	cdpcc	13, 15, cr5, cr1, cr6, {7}
  104fc0:	3f015de6 	svccc	0x00015de6
  104fc4:	3f115de6 	svccc	0x00115de6
  104fc8:	3f215de6 	svccc	0x00215de6
  104fcc:	3f315de6 	svccc	0x00315de6
  104fd0:	3f415de6 	svccc	0x00415de6
  104fd4:	3f515de6 	svccc	0x00515de6
  104fd8:	3f615de6 	svccc	0x00615de6
  104fdc:	3f715de6 	svccc	0x00715de6
  104fe0:	3f815de6 	svccc	0x00815de6
  104fe4:	3f915de6 	svccc	0x00915de6
  104fe8:	3fa15de6 	svccc	0x00a15de6
  104fec:	3fb15de6 	svccc	0x00b15de6
  104ff0:	3fc15de6 	svccc	0x00c15de6
  104ff4:	3fd15de6 	svccc	0x00d15de6
  104ff8:	3fe15de6 	svccc	0x00e15de6
  104ffc:	3ff15de6 	svccc	0x00f15de6
  105000:	40000c02 	andmi	r0, r0, r2, lsl #24
  105004:	40100c02 	andsmi	r0, r0, r2, lsl #24
  105008:	40200c02 	eormi	r0, r0, r2, lsl #24
  10500c:	40300c02 	eorsmi	r0, r0, r2, lsl #24
  105010:	40400c02 	submi	r0, r0, r2, lsl #24
  105014:	40500c02 	subsmi	r0, r0, r2, lsl #24
  105018:	40600c02 	rsbmi	r0, r0, r2, lsl #24
  10501c:	40700c02 	rsbsmi	r0, r0, r2, lsl #24
  105020:	40800c02 	addmi	r0, r0, r2, lsl #24
  105024:	40900c02 	addsmi	r0, r0, r2, lsl #24
  105028:	40a00c02 	adcmi	r0, r0, r2, lsl #24
  10502c:	40b00c02 	adcsmi	r0, r0, r2, lsl #24
  105030:	40c00c02 	sbcmi	r0, r0, r2, lsl #24
  105034:	40d00c02 	sbcsmi	r0, r0, r2, lsl #24
  105038:	40e00c02 	rscmi	r0, r0, r2, lsl #24
  10503c:	40f00c02 	rscsmi	r0, r0, r2, lsl #24
  105040:	41000c02 	tstmi	r0, r2, lsl #24
  105044:	41100c02 	tstmi	r0, r2, lsl #24
  105048:	41200c02 	teqmi	r0, r2, lsl #24
  10504c:	41300c02 	teqmi	r0, r2, lsl #24
  105050:	41400c02 	cmpmi	r0, r2, lsl #24
  105054:	41500c02 	cmpmi	r0, r2, lsl #24
  105058:	41600c02 	cmnmi	r0, r2, lsl #24
  10505c:	41700c02 	cmnmi	r0, r2, lsl #24
  105060:	41800c02 	orrmi	r0, r0, r2, lsl #24
  105064:	41900c02 	orrsmi	r0, r0, r2, lsl #24
  105068:	41a00c02 	lslmi	r0, r2, #24
  10506c:	41b00c02 	lslsmi	r0, r2, #24
  105070:	41c00c02 	bicmi	r0, r0, r2, lsl #24
  105074:	41d00c02 	bicsmi	r0, r0, r2, lsl #24
  105078:	41e00c02 	mvnmi	r0, r2, lsl #24
  10507c:	41f00c02 	mvnsmi	r0, r2, lsl #24
  105080:	42000c02 	andmi	r0, r0, #512	; 0x200
  105084:	42100c02 	andsmi	r0, r0, #512	; 0x200
  105088:	42200c02 	eormi	r0, r0, #512	; 0x200
  10508c:	42300c02 	eorsmi	r0, r0, #512	; 0x200
  105090:	42400c02 	submi	r0, r0, #512	; 0x200
  105094:	42500c02 	subsmi	r0, r0, #512	; 0x200
  105098:	42600c02 	rsbmi	r0, r0, #512	; 0x200
  10509c:	42700c02 	rsbsmi	r0, r0, #512	; 0x200
  1050a0:	42800c02 	addmi	r0, r0, #512	; 0x200
  1050a4:	42900c02 	addsmi	r0, r0, #512	; 0x200
  1050a8:	42a00c02 	adcmi	r0, r0, #512	; 0x200
  1050ac:	42b00c02 	adcsmi	r0, r0, #512	; 0x200
  1050b0:	42c00c02 	sbcmi	r0, r0, #512	; 0x200
  1050b4:	42d00c02 	sbcsmi	r0, r0, #512	; 0x200
  1050b8:	42e00c02 	rscmi	r0, r0, #512	; 0x200
  1050bc:	42f00c02 	rscsmi	r0, r0, #512	; 0x200
  1050c0:	43000c02 	movwmi	r0, #3074	; 0xc02
  1050c4:	43100c02 	tstmi	r0, #512	; 0x200
  1050c8:	43200c02 	teqmi	r0, #512	; 0x200
  1050cc:	43300c02 	teqmi	r0, #512	; 0x200
  1050d0:	43400c02 	movtmi	r0, #3074	; 0xc02
  1050d4:	43500c02 	cmpmi	r0, #512	; 0x200
  1050d8:	43600c02 	cmnmi	r0, #512	; 0x200
  1050dc:	43700c02 	cmnmi	r0, #512	; 0x200
  1050e0:	43800c02 	orrmi	r0, r0, #512	; 0x200
  1050e4:	43900c02 	orrsmi	r0, r0, #512	; 0x200
  1050e8:	43a00c02 	movmi	r0, #512	; 0x200
  1050ec:	43b00c02 	movsmi	r0, #512	; 0x200
  1050f0:	43c00c02 	bicmi	r0, r0, #512	; 0x200
  1050f4:	43d00c02 	bicsmi	r0, r0, #512	; 0x200
  1050f8:	43e00c02 	mvnmi	r0, #512	; 0x200
  1050fc:	43f00c02 	mvnsmi	r0, #512	; 0x200
  105100:	44000c02 	strmi	r0, [r0], #-3074	; 0xfffff3fe
  105104:	44100c02 	ldrmi	r0, [r0], #-3074	; 0xfffff3fe
  105108:	44200c02 	strtmi	r0, [r0], #-3074	; 0xfffff3fe
  10510c:	44300c02 	ldrtmi	r0, [r0], #-3074	; 0xfffff3fe
  105110:	44400c02 	strbmi	r0, [r0], #-3074	; 0xfffff3fe
  105114:	44500c02 	ldrbmi	r0, [r0], #-3074	; 0xfffff3fe
  105118:	44600c02 	strbtmi	r0, [r0], #-3074	; 0xfffff3fe
  10511c:	44700c02 	ldrbtmi	r0, [r0], #-3074	; 0xfffff3fe
  105120:	44800c02 	strmi	r0, [r0], #3074	; 0xc02
  105124:	44900c02 	ldrmi	r0, [r0], #3074	; 0xc02
  105128:	44a00c02 	strtmi	r0, [r0], #3074	; 0xc02
  10512c:	44b00c02 	ldrtmi	r0, [r0], #3074	; 0xc02
  105130:	44c00c02 	strbmi	r0, [r0], #3074	; 0xc02
  105134:	44d00c02 	ldrbmi	r0, [r0], #3074	; 0xc02
  105138:	44e00c02 	strbtmi	r0, [r0], #3074	; 0xc02
  10513c:	44f00c02 	ldrbtmi	r0, [r0], #3074	; 0xc02
  105140:	45000c02 	strmi	r0, [r0, #-3074]	; 0xfffff3fe
  105144:	45100c02 	ldrmi	r0, [r0, #-3074]	; 0xfffff3fe
  105148:	45200c02 	strmi	r0, [r0, #-3074]!	; 0xfffff3fe
  10514c:	45300c02 	ldrmi	r0, [r0, #-3074]!	; 0xfffff3fe
  105150:	45400c02 	strbmi	r0, [r0, #-3074]	; 0xfffff3fe
  105154:	45500c02 	ldrbmi	r0, [r0, #-3074]	; 0xfffff3fe
  105158:	45600c02 	strbmi	r0, [r0, #-3074]!	; 0xfffff3fe
  10515c:	45700c02 	ldrbmi	r0, [r0, #-3074]!	; 0xfffff3fe
  105160:	45800c02 	strmi	r0, [r0, #3074]	; 0xc02
  105164:	45900c02 	ldrmi	r0, [r0, #3074]	; 0xc02
  105168:	45a00c02 	strmi	r0, [r0, #3074]!	; 0xc02
  10516c:	45b00c02 	ldrmi	r0, [r0, #3074]!	; 0xc02
  105170:	45c00c02 	strbmi	r0, [r0, #3074]	; 0xc02
  105174:	45d00c02 	ldrbmi	r0, [r0, #3074]	; 0xc02
  105178:	45e00c02 	strbmi	r0, [r0, #3074]!	; 0xc02
  10517c:	45f00c02 	ldrbmi	r0, [r0, #3074]!	; 0xc02
  105180:	46000c02 	strmi	r0, [r0], -r2, lsl #24
  105184:	46100c02 	ldrmi	r0, [r0], -r2, lsl #24
  105188:	46200c02 	strtmi	r0, [r0], -r2, lsl #24
  10518c:	46300c02 	ldrtmi	r0, [r0], -r2, lsl #24
  105190:	46400c02 	strbmi	r0, [r0], -r2, lsl #24
  105194:	46500c02 	ldrbmi	r0, [r0], -r2, lsl #24
  105198:	46600c02 	strbtmi	r0, [r0], -r2, lsl #24
  10519c:	46700c02 	ldrbtmi	r0, [r0], -r2, lsl #24
  1051a0:	46800c02 	strmi	r0, [r0], r2, lsl #24
  1051a4:	46900c02 	ldrmi	r0, [r0], r2, lsl #24
  1051a8:	46a00c02 	strtmi	r0, [r0], r2, lsl #24
  1051ac:	46b00c02 	ldrtmi	r0, [r0], r2, lsl #24
  1051b0:	46c00c02 	strbmi	r0, [r0], r2, lsl #24
  1051b4:	46d00c02 	ldrbmi	r0, [r0], r2, lsl #24
  1051b8:	46e00c02 	strbtmi	r0, [r0], r2, lsl #24
  1051bc:	46f00c02 	ldrbtmi	r0, [r0], r2, lsl #24
  1051c0:	47000c02 	strmi	r0, [r0, -r2, lsl #24]
  1051c4:	47100c02 	ldrmi	r0, [r0, -r2, lsl #24]
  1051c8:	47200c02 	strmi	r0, [r0, -r2, lsl #24]!
  1051cc:	47300c02 	ldrmi	r0, [r0, -r2, lsl #24]!
  1051d0:	47400c02 	strbmi	r0, [r0, -r2, lsl #24]
  1051d4:	47500c02 	ldrbmi	r0, [r0, -r2, lsl #24]
  1051d8:	47600c02 	strbmi	r0, [r0, -r2, lsl #24]!
  1051dc:	47700c02 	ldrbmi	r0, [r0, -r2, lsl #24]!
  1051e0:	47800c02 	strmi	r0, [r0, r2, lsl #24]
  1051e4:	47900c02 	ldrmi	r0, [r0, r2, lsl #24]
  1051e8:	47a00c02 	strmi	r0, [r0, r2, lsl #24]!
  1051ec:	47b00c02 	ldrmi	r0, [r0, r2, lsl #24]!
  1051f0:	47c00c02 	strbmi	r0, [r0, r2, lsl #24]
  1051f4:	47d00c02 	ldrbmi	r0, [r0, r2, lsl #24]
  1051f8:	47e00c02 	strbmi	r0, [r0, r2, lsl #24]!
  1051fc:	47f00c02 	ldrbmi	r0, [r0, r2, lsl #24]!
  105200:	48000c02 	stmdami	r0, {r1, sl, fp}
  105204:	48100c02 	ldmdami	r0, {r1, sl, fp}
  105208:	48200c02 	stmdami	r0!, {r1, sl, fp}
  10520c:	48300c02 	ldmdami	r0!, {r1, sl, fp}
  105210:	48400c02 	stmdami	r0, {r1, sl, fp}^
  105214:	48500c02 	ldmdami	r0, {r1, sl, fp}^
  105218:	48600c02 	stmdami	r0!, {r1, sl, fp}^
  10521c:	48700c02 	ldmdami	r0!, {r1, sl, fp}^
  105220:	48800c02 	stmmi	r0, {r1, sl, fp}
  105224:	48900c02 	ldmmi	r0, {r1, sl, fp}
  105228:	48a00c02 	stmiami	r0!, {r1, sl, fp}
  10522c:	48b00c02 	ldmmi	r0!, {r1, sl, fp}
  105230:	48c00c02 	stmiami	r0, {r1, sl, fp}^
  105234:	48d00c02 	ldmmi	r0, {r1, sl, fp}^
  105238:	48e00c02 	stmiami	r0!, {r1, sl, fp}^
  10523c:	48f00c02 	ldmmi	r0!, {r1, sl, fp}^
  105240:	49000c02 	stmdbmi	r0, {r1, sl, fp}
  105244:	49100c02 	ldmdbmi	r0, {r1, sl, fp}
  105248:	49200c02 	stmdbmi	r0!, {r1, sl, fp}
  10524c:	49300c02 	ldmdbmi	r0!, {r1, sl, fp}
  105250:	49400c02 	stmdbmi	r0, {r1, sl, fp}^
  105254:	49500c02 	ldmdbmi	r0, {r1, sl, fp}^
  105258:	49600c02 	stmdbmi	r0!, {r1, sl, fp}^
  10525c:	49700c02 	ldmdbmi	r0!, {r1, sl, fp}^
  105260:	49800c02 	stmibmi	r0, {r1, sl, fp}
  105264:	49900c02 	ldmibmi	r0, {r1, sl, fp}
  105268:	49a00c02 	stmibmi	r0!, {r1, sl, fp}
  10526c:	49b00c02 	ldmibmi	r0!, {r1, sl, fp}
  105270:	49c00c02 	stmibmi	r0, {r1, sl, fp}^
  105274:	49d00c02 	ldmibmi	r0, {r1, sl, fp}^
  105278:	49e00c02 	stmibmi	r0!, {r1, sl, fp}^
  10527c:	49f00c02 	ldmibmi	r0!, {r1, sl, fp}^
  105280:	4a000c02 	bmi	108290 <word+0x25c>
  105284:	4a100c02 	bmi	508294 <__undef_stack+0x3fa2d4>
  105288:	4a200c02 	bmi	908298 <__undef_stack+0x7fa2d8>
  10528c:	4a300c02 	bmi	d0829c <__undef_stack+0xbfa2dc>
  105290:	4a400c02 	bmi	11082a0 <__undef_stack+0xffa2e0>
  105294:	4a500c02 	bmi	15082a4 <__undef_stack+0x13fa2e4>
  105298:	4a600c02 	bmi	19082a8 <__undef_stack+0x17fa2e8>
  10529c:	4a700c02 	bmi	1d082ac <__undef_stack+0x1bfa2ec>
  1052a0:	4a800c02 	bmi	fe1082b0 <LRemap+0x1082a1>
  1052a4:	4a900c02 	bmi	fe5082b4 <LRemap+0x5082a5>
  1052a8:	4aa00c02 	bmi	fe9082b8 <LRemap+0x9082a9>
  1052ac:	4ab00c02 	bmi	fed082bc <LRemap+0xd082ad>
  1052b0:	4ac00c02 	bmi	ff1082c0 <LRemap+0x11082b1>
  1052b4:	4ad00c02 	bmi	ff5082c4 <LRemap+0x15082b5>
  1052b8:	4ae00c02 	bmi	ff9082c8 <LRemap+0x19082b9>
  1052bc:	4af00c02 	bmi	ffd082cc <LRemap+0x1d082bd>
  1052c0:	4b000c02 	blmi	1082d0 <word+0x29c>
  1052c4:	4b100c02 	blmi	5082d4 <__undef_stack+0x3fa314>
  1052c8:	4b200c02 	blmi	9082d8 <__undef_stack+0x7fa318>
  1052cc:	4b300c02 	blmi	d082dc <__undef_stack+0xbfa31c>
  1052d0:	4b400c02 	blmi	11082e0 <__undef_stack+0xffa320>
  1052d4:	4b500c02 	blmi	15082e4 <__undef_stack+0x13fa324>
  1052d8:	4b600c02 	blmi	19082e8 <__undef_stack+0x17fa328>
  1052dc:	4b700c02 	blmi	1d082ec <__undef_stack+0x1bfa32c>
  1052e0:	4b800c02 	blmi	fe1082f0 <LRemap+0x1082e1>
  1052e4:	4b900c02 	blmi	fe5082f4 <LRemap+0x5082e5>
  1052e8:	4ba00c02 	blmi	fe9082f8 <LRemap+0x9082e9>
  1052ec:	4bb00c02 	blmi	fed082fc <LRemap+0xd082ed>
  1052f0:	4bc00c02 	blmi	ff108300 <LRemap+0x11082f1>
  1052f4:	4bd00c02 	blmi	ff508304 <LRemap+0x15082f5>
  1052f8:	4be00c02 	blmi	ff908308 <LRemap+0x19082f9>
  1052fc:	4bf00c02 	blmi	ffd0830c <LRemap+0x1d082fd>
  105300:	4c000c02 	stcmi	12, cr0, [r0], {2}
  105304:	4c100c02 	ldcmi	12, cr0, [r0], {2}
  105308:	4c200c02 	stcmi	12, cr0, [r0], #-8
  10530c:	4c300c02 	ldcmi	12, cr0, [r0], #-8
  105310:	4c400c02 	mcrrmi	12, 0, r0, r0, cr2
  105314:	4c500c02 	mrrcmi	12, 0, r0, r0, cr2	; <UNPREDICTABLE>
  105318:	4c600c02 	stclmi	12, cr0, [r0], #-8
  10531c:	4c700c02 	ldclmi	12, cr0, [r0], #-8
  105320:	4c800c02 	stcmi	12, cr0, [r0], {2}
  105324:	4c900c02 	ldcmi	12, cr0, [r0], {2}
  105328:	4ca00c02 	stcmi	12, cr0, [r0], #8
  10532c:	4cb00c02 	ldcmi	12, cr0, [r0], #8
  105330:	4cc00c02 	stclmi	12, cr0, [r0], {2}
  105334:	4cd00c02 	ldclmi	12, cr0, [r0], {2}
  105338:	4ce00c02 	stclmi	12, cr0, [r0], #8
  10533c:	4cf00c02 	ldclmi	12, cr0, [r0], #8
  105340:	4d000c02 	stcmi	12, cr0, [r0, #-8]
  105344:	4d100c02 	ldcmi	12, cr0, [r0, #-8]
  105348:	4d200c02 	stcmi	12, cr0, [r0, #-8]!
  10534c:	4d300c02 	ldcmi	12, cr0, [r0, #-8]!
  105350:	4d400c02 	stclmi	12, cr0, [r0, #-8]
  105354:	4d500c02 	ldclmi	12, cr0, [r0, #-8]
  105358:	4d600c02 	stclmi	12, cr0, [r0, #-8]!
  10535c:	4d700c02 	ldclmi	12, cr0, [r0, #-8]!
  105360:	4d800c02 	stcmi	12, cr0, [r0, #8]
  105364:	4d900c02 	ldcmi	12, cr0, [r0, #8]
  105368:	4da00c02 	stcmi	12, cr0, [r0, #8]!
  10536c:	4db00c02 	ldcmi	12, cr0, [r0, #8]!
  105370:	4dc00c02 	stclmi	12, cr0, [r0, #8]
  105374:	4dd00c02 	ldclmi	12, cr0, [r0, #8]
  105378:	4de00c02 	stclmi	12, cr0, [r0, #8]!
  10537c:	4df00c02 	ldclmi	12, cr0, [r0, #8]!
  105380:	4e000c02 	cdpmi	12, 0, cr0, cr0, cr2, {0}
  105384:	4e100c02 	cdpmi	12, 1, cr0, cr0, cr2, {0}
  105388:	4e200c02 	cdpmi	12, 2, cr0, cr0, cr2, {0}
  10538c:	4e300c02 	cdpmi	12, 3, cr0, cr0, cr2, {0}
  105390:	4e400c02 	cdpmi	12, 4, cr0, cr0, cr2, {0}
  105394:	4e500c02 	cdpmi	12, 5, cr0, cr0, cr2, {0}
  105398:	4e600c02 	cdpmi	12, 6, cr0, cr0, cr2, {0}
  10539c:	4e700c02 	cdpmi	12, 7, cr0, cr0, cr2, {0}
  1053a0:	4e800c02 	cdpmi	12, 8, cr0, cr0, cr2, {0}
  1053a4:	4e900c02 	cdpmi	12, 9, cr0, cr0, cr2, {0}
  1053a8:	4ea00c02 	cdpmi	12, 10, cr0, cr0, cr2, {0}
  1053ac:	4eb00c02 	cdpmi	12, 11, cr0, cr0, cr2, {0}
  1053b0:	4ec00c02 	cdpmi	12, 12, cr0, cr0, cr2, {0}
  1053b4:	4ed00c02 	cdpmi	12, 13, cr0, cr0, cr2, {0}
  1053b8:	4ee00c02 	cdpmi	12, 14, cr0, cr0, cr2, {0}
  1053bc:	4ef00c02 	cdpmi	12, 15, cr0, cr0, cr2, {0}
  1053c0:	4f000c02 	svcmi	0x00000c02
  1053c4:	4f100c02 	svcmi	0x00100c02
  1053c8:	4f200c02 	svcmi	0x00200c02
  1053cc:	4f300c02 	svcmi	0x00300c02
  1053d0:	4f400c02 	svcmi	0x00400c02
  1053d4:	4f500c02 	svcmi	0x00500c02
  1053d8:	4f600c02 	svcmi	0x00600c02
  1053dc:	4f700c02 	svcmi	0x00700c02
  1053e0:	4f800c02 	svcmi	0x00800c02
  1053e4:	4f900c02 	svcmi	0x00900c02
  1053e8:	4fa00c02 	svcmi	0x00a00c02
  1053ec:	4fb00c02 	svcmi	0x00b00c02
  1053f0:	4fc00c02 	svcmi	0x00c00c02
  1053f4:	4fd00c02 	svcmi	0x00d00c02
  1053f8:	4fe00c02 	svcmi	0x00e00c02
  1053fc:	4ff00c02 	svcmi	0x00f00c02
  105400:	50000c02 	andpl	r0, r0, r2, lsl #24
  105404:	50100c02 	andspl	r0, r0, r2, lsl #24
  105408:	50200c02 	eorpl	r0, r0, r2, lsl #24
  10540c:	50300c02 	eorspl	r0, r0, r2, lsl #24
  105410:	50400c02 	subpl	r0, r0, r2, lsl #24
  105414:	50500c02 	subspl	r0, r0, r2, lsl #24
  105418:	50600c02 	rsbpl	r0, r0, r2, lsl #24
  10541c:	50700c02 	rsbspl	r0, r0, r2, lsl #24
  105420:	50800c02 	addpl	r0, r0, r2, lsl #24
  105424:	50900c02 	addspl	r0, r0, r2, lsl #24
  105428:	50a00c02 	adcpl	r0, r0, r2, lsl #24
  10542c:	50b00c02 	adcspl	r0, r0, r2, lsl #24
  105430:	50c00c02 	sbcpl	r0, r0, r2, lsl #24
  105434:	50d00c02 	sbcspl	r0, r0, r2, lsl #24
  105438:	50e00c02 	rscpl	r0, r0, r2, lsl #24
  10543c:	50f00c02 	rscspl	r0, r0, r2, lsl #24
  105440:	51000c02 	tstpl	r0, r2, lsl #24
  105444:	51100c02 	tstpl	r0, r2, lsl #24
  105448:	51200c02 	teqpl	r0, r2, lsl #24
  10544c:	51300c02 	teqpl	r0, r2, lsl #24
  105450:	51400c02 	cmppl	r0, r2, lsl #24
  105454:	51500c02 	cmppl	r0, r2, lsl #24
  105458:	51600c02 	cmnpl	r0, r2, lsl #24
  10545c:	51700c02 	cmnpl	r0, r2, lsl #24
  105460:	51800c02 	orrpl	r0, r0, r2, lsl #24
  105464:	51900c02 	orrspl	r0, r0, r2, lsl #24
  105468:	51a00c02 	lslpl	r0, r2, #24
  10546c:	51b00c02 	lslspl	r0, r2, #24
  105470:	51c00c02 	bicpl	r0, r0, r2, lsl #24
  105474:	51d00c02 	bicspl	r0, r0, r2, lsl #24
  105478:	51e00c02 	mvnpl	r0, r2, lsl #24
  10547c:	51f00c02 	mvnspl	r0, r2, lsl #24
  105480:	52000c02 	andpl	r0, r0, #512	; 0x200
  105484:	52100c02 	andspl	r0, r0, #512	; 0x200
  105488:	52200c02 	eorpl	r0, r0, #512	; 0x200
  10548c:	52300c02 	eorspl	r0, r0, #512	; 0x200
  105490:	52400c02 	subpl	r0, r0, #512	; 0x200
  105494:	52500c02 	subspl	r0, r0, #512	; 0x200
  105498:	52600c02 	rsbpl	r0, r0, #512	; 0x200
  10549c:	52700c02 	rsbspl	r0, r0, #512	; 0x200
  1054a0:	52800c02 	addpl	r0, r0, #512	; 0x200
  1054a4:	52900c02 	addspl	r0, r0, #512	; 0x200
  1054a8:	52a00c02 	adcpl	r0, r0, #512	; 0x200
  1054ac:	52b00c02 	adcspl	r0, r0, #512	; 0x200
  1054b0:	52c00c02 	sbcpl	r0, r0, #512	; 0x200
  1054b4:	52d00c02 	sbcspl	r0, r0, #512	; 0x200
  1054b8:	52e00c02 	rscpl	r0, r0, #512	; 0x200
  1054bc:	52f00c02 	rscspl	r0, r0, #512	; 0x200
  1054c0:	53000c02 	movwpl	r0, #3074	; 0xc02
  1054c4:	53100c02 	tstpl	r0, #512	; 0x200
  1054c8:	53200c02 	teqpl	r0, #512	; 0x200
  1054cc:	53300c02 	teqpl	r0, #512	; 0x200
  1054d0:	53400c02 	movtpl	r0, #3074	; 0xc02
  1054d4:	53500c02 	cmppl	r0, #512	; 0x200
  1054d8:	53600c02 	cmnpl	r0, #512	; 0x200
  1054dc:	53700c02 	cmnpl	r0, #512	; 0x200
  1054e0:	53800c02 	orrpl	r0, r0, #512	; 0x200
  1054e4:	53900c02 	orrspl	r0, r0, #512	; 0x200
  1054e8:	53a00c02 	movpl	r0, #512	; 0x200
  1054ec:	53b00c02 	movspl	r0, #512	; 0x200
  1054f0:	53c00c02 	bicpl	r0, r0, #512	; 0x200
  1054f4:	53d00c02 	bicspl	r0, r0, #512	; 0x200
  1054f8:	53e00c02 	mvnpl	r0, #512	; 0x200
  1054fc:	53f00c02 	mvnspl	r0, #512	; 0x200
  105500:	54000c02 	strpl	r0, [r0], #-3074	; 0xfffff3fe
  105504:	54100c02 	ldrpl	r0, [r0], #-3074	; 0xfffff3fe
  105508:	54200c02 	strtpl	r0, [r0], #-3074	; 0xfffff3fe
  10550c:	54300c02 	ldrtpl	r0, [r0], #-3074	; 0xfffff3fe
  105510:	54400c02 	strbpl	r0, [r0], #-3074	; 0xfffff3fe
  105514:	54500c02 	ldrbpl	r0, [r0], #-3074	; 0xfffff3fe
  105518:	54600c02 	strbtpl	r0, [r0], #-3074	; 0xfffff3fe
  10551c:	54700c02 	ldrbtpl	r0, [r0], #-3074	; 0xfffff3fe
  105520:	54800c02 	strpl	r0, [r0], #3074	; 0xc02
  105524:	54900c02 	ldrpl	r0, [r0], #3074	; 0xc02
  105528:	54a00c02 	strtpl	r0, [r0], #3074	; 0xc02
  10552c:	54b00c02 	ldrtpl	r0, [r0], #3074	; 0xc02
  105530:	54c00c02 	strbpl	r0, [r0], #3074	; 0xc02
  105534:	54d00c02 	ldrbpl	r0, [r0], #3074	; 0xc02
  105538:	54e00c02 	strbtpl	r0, [r0], #3074	; 0xc02
  10553c:	54f00c02 	ldrbtpl	r0, [r0], #3074	; 0xc02
  105540:	55000c02 	strpl	r0, [r0, #-3074]	; 0xfffff3fe
  105544:	55100c02 	ldrpl	r0, [r0, #-3074]	; 0xfffff3fe
  105548:	55200c02 	strpl	r0, [r0, #-3074]!	; 0xfffff3fe
  10554c:	55300c02 	ldrpl	r0, [r0, #-3074]!	; 0xfffff3fe
  105550:	55400c02 	strbpl	r0, [r0, #-3074]	; 0xfffff3fe
  105554:	55500c02 	ldrbpl	r0, [r0, #-3074]	; 0xfffff3fe
  105558:	55600c02 	strbpl	r0, [r0, #-3074]!	; 0xfffff3fe
  10555c:	55700c02 	ldrbpl	r0, [r0, #-3074]!	; 0xfffff3fe
  105560:	55800c02 	strpl	r0, [r0, #3074]	; 0xc02
  105564:	55900c02 	ldrpl	r0, [r0, #3074]	; 0xc02
  105568:	55a00c02 	strpl	r0, [r0, #3074]!	; 0xc02
  10556c:	55b00c02 	ldrpl	r0, [r0, #3074]!	; 0xc02
  105570:	55c00c02 	strbpl	r0, [r0, #3074]	; 0xc02
  105574:	55d00c02 	ldrbpl	r0, [r0, #3074]	; 0xc02
  105578:	55e00c02 	strbpl	r0, [r0, #3074]!	; 0xc02
  10557c:	55f00c02 	ldrbpl	r0, [r0, #3074]!	; 0xc02
  105580:	56000c02 	strpl	r0, [r0], -r2, lsl #24
  105584:	56100c02 	ldrpl	r0, [r0], -r2, lsl #24
  105588:	56200c02 	strtpl	r0, [r0], -r2, lsl #24
  10558c:	56300c02 	ldrtpl	r0, [r0], -r2, lsl #24
  105590:	56400c02 	strbpl	r0, [r0], -r2, lsl #24
  105594:	56500c02 	ldrbpl	r0, [r0], -r2, lsl #24
  105598:	56600c02 	strbtpl	r0, [r0], -r2, lsl #24
  10559c:	56700c02 	ldrbtpl	r0, [r0], -r2, lsl #24
  1055a0:	56800c02 	strpl	r0, [r0], r2, lsl #24
  1055a4:	56900c02 	ldrpl	r0, [r0], r2, lsl #24
  1055a8:	56a00c02 	strtpl	r0, [r0], r2, lsl #24
  1055ac:	56b00c02 	ldrtpl	r0, [r0], r2, lsl #24
  1055b0:	56c00c02 	strbpl	r0, [r0], r2, lsl #24
  1055b4:	56d00c02 	ldrbpl	r0, [r0], r2, lsl #24
  1055b8:	56e00c02 	strbtpl	r0, [r0], r2, lsl #24
  1055bc:	56f00c02 	ldrbtpl	r0, [r0], r2, lsl #24
  1055c0:	57000c02 	strpl	r0, [r0, -r2, lsl #24]
  1055c4:	57100c02 	ldrpl	r0, [r0, -r2, lsl #24]
  1055c8:	57200c02 	strpl	r0, [r0, -r2, lsl #24]!
  1055cc:	57300c02 	ldrpl	r0, [r0, -r2, lsl #24]!
  1055d0:	57400c02 	strbpl	r0, [r0, -r2, lsl #24]
  1055d4:	57500c02 	ldrbpl	r0, [r0, -r2, lsl #24]
  1055d8:	57600c02 	strbpl	r0, [r0, -r2, lsl #24]!
  1055dc:	57700c02 	ldrbpl	r0, [r0, -r2, lsl #24]!
  1055e0:	57800c02 	strpl	r0, [r0, r2, lsl #24]
  1055e4:	57900c02 	ldrpl	r0, [r0, r2, lsl #24]
  1055e8:	57a00c02 	strpl	r0, [r0, r2, lsl #24]!
  1055ec:	57b00c02 	ldrpl	r0, [r0, r2, lsl #24]!
  1055f0:	57c00c02 	strbpl	r0, [r0, r2, lsl #24]
  1055f4:	57d00c02 	ldrbpl	r0, [r0, r2, lsl #24]
  1055f8:	57e00c02 	strbpl	r0, [r0, r2, lsl #24]!
  1055fc:	57f00c02 	ldrbpl	r0, [r0, r2, lsl #24]!
  105600:	58000c02 	stmdapl	r0, {r1, sl, fp}
  105604:	58100c02 	ldmdapl	r0, {r1, sl, fp}
  105608:	58200c02 	stmdapl	r0!, {r1, sl, fp}
  10560c:	58300c02 	ldmdapl	r0!, {r1, sl, fp}
  105610:	58400c02 	stmdapl	r0, {r1, sl, fp}^
  105614:	58500c02 	ldmdapl	r0, {r1, sl, fp}^
  105618:	58600c02 	stmdapl	r0!, {r1, sl, fp}^
  10561c:	58700c02 	ldmdapl	r0!, {r1, sl, fp}^
  105620:	58800c02 	stmpl	r0, {r1, sl, fp}
  105624:	58900c02 	ldmpl	r0, {r1, sl, fp}
  105628:	58a00c02 	stmiapl	r0!, {r1, sl, fp}
  10562c:	58b00c02 	ldmpl	r0!, {r1, sl, fp}
  105630:	58c00c02 	stmiapl	r0, {r1, sl, fp}^
  105634:	58d00c02 	ldmpl	r0, {r1, sl, fp}^
  105638:	58e00c02 	stmiapl	r0!, {r1, sl, fp}^
  10563c:	58f00c02 	ldmpl	r0!, {r1, sl, fp}^
  105640:	59000c02 	stmdbpl	r0, {r1, sl, fp}
  105644:	59100c02 	ldmdbpl	r0, {r1, sl, fp}
  105648:	59200c02 	stmdbpl	r0!, {r1, sl, fp}
  10564c:	59300c02 	ldmdbpl	r0!, {r1, sl, fp}
  105650:	59400c02 	stmdbpl	r0, {r1, sl, fp}^
  105654:	59500c02 	ldmdbpl	r0, {r1, sl, fp}^
  105658:	59600c02 	stmdbpl	r0!, {r1, sl, fp}^
  10565c:	59700c02 	ldmdbpl	r0!, {r1, sl, fp}^
  105660:	59800c02 	stmibpl	r0, {r1, sl, fp}
  105664:	59900c02 	ldmibpl	r0, {r1, sl, fp}
  105668:	59a00c02 	stmibpl	r0!, {r1, sl, fp}
  10566c:	59b00c02 	ldmibpl	r0!, {r1, sl, fp}
  105670:	59c00c02 	stmibpl	r0, {r1, sl, fp}^
  105674:	59d00c02 	ldmibpl	r0, {r1, sl, fp}^
  105678:	59e00c02 	stmibpl	r0!, {r1, sl, fp}^
  10567c:	59f00c02 	ldmibpl	r0!, {r1, sl, fp}^
  105680:	5a000c02 	bpl	108690 <__ARM.attributes_end+0x9c>
  105684:	5a100c02 	bpl	508694 <__undef_stack+0x3fa6d4>
  105688:	5a200c02 	bpl	908698 <__undef_stack+0x7fa6d8>
  10568c:	5a300c02 	bpl	d0869c <__undef_stack+0xbfa6dc>
  105690:	5a400c02 	bpl	11086a0 <__undef_stack+0xffa6e0>
  105694:	5a500c02 	bpl	15086a4 <__undef_stack+0x13fa6e4>
  105698:	5a600c02 	bpl	19086a8 <__undef_stack+0x17fa6e8>
  10569c:	5a700c02 	bpl	1d086ac <__undef_stack+0x1bfa6ec>
  1056a0:	5a800c02 	bpl	fe1086b0 <LRemap+0x1086a1>
  1056a4:	5a900c02 	bpl	fe5086b4 <LRemap+0x5086a5>
  1056a8:	5aa00c02 	bpl	fe9086b8 <LRemap+0x9086a9>
  1056ac:	5ab00c02 	bpl	fed086bc <LRemap+0xd086ad>
  1056b0:	5ac00c02 	bpl	ff1086c0 <LRemap+0x11086b1>
  1056b4:	5ad00c02 	bpl	ff5086c4 <LRemap+0x15086b5>
  1056b8:	5ae00c02 	bpl	ff9086c8 <LRemap+0x19086b9>
  1056bc:	5af00c02 	bpl	ffd086cc <LRemap+0x1d086bd>
  1056c0:	5b000c02 	blpl	1086d0 <__ARM.attributes_end+0xdc>
  1056c4:	5b100c02 	blpl	5086d4 <__undef_stack+0x3fa714>
  1056c8:	5b200c02 	blpl	9086d8 <__undef_stack+0x7fa718>
  1056cc:	5b300c02 	blpl	d086dc <__undef_stack+0xbfa71c>
  1056d0:	5b400c02 	blpl	11086e0 <__undef_stack+0xffa720>
  1056d4:	5b500c02 	blpl	15086e4 <__undef_stack+0x13fa724>
  1056d8:	5b600c02 	blpl	19086e8 <__undef_stack+0x17fa728>
  1056dc:	5b700c02 	blpl	1d086ec <__undef_stack+0x1bfa72c>
  1056e0:	5b800c02 	blpl	fe1086f0 <LRemap+0x1086e1>
  1056e4:	5b900c02 	blpl	fe5086f4 <LRemap+0x5086e5>
  1056e8:	5ba00c02 	blpl	fe9086f8 <LRemap+0x9086e9>
  1056ec:	5bb00c02 	blpl	fed086fc <LRemap+0xd086ed>
  1056f0:	5bc00c02 	blpl	ff108700 <LRemap+0x11086f1>
  1056f4:	5bd00c02 	blpl	ff508704 <LRemap+0x15086f5>
  1056f8:	5be00c02 	blpl	ff908708 <LRemap+0x19086f9>
  1056fc:	5bf00c02 	blpl	ffd0870c <LRemap+0x1d086fd>
  105700:	5c000c02 	stcpl	12, cr0, [r0], {2}
  105704:	5c100c02 	ldcpl	12, cr0, [r0], {2}
  105708:	5c200c02 	stcpl	12, cr0, [r0], #-8
  10570c:	5c300c02 	ldcpl	12, cr0, [r0], #-8
  105710:	5c400c02 	mcrrpl	12, 0, r0, r0, cr2
  105714:	5c500c02 	mrrcpl	12, 0, r0, r0, cr2	; <UNPREDICTABLE>
  105718:	5c600c02 	stclpl	12, cr0, [r0], #-8
  10571c:	5c700c02 	ldclpl	12, cr0, [r0], #-8
  105720:	5c800c02 	stcpl	12, cr0, [r0], {2}
  105724:	5c900c02 	ldcpl	12, cr0, [r0], {2}
  105728:	5ca00c02 	stcpl	12, cr0, [r0], #8
  10572c:	5cb00c02 	ldcpl	12, cr0, [r0], #8
  105730:	5cc00c02 	stclpl	12, cr0, [r0], {2}
  105734:	5cd00c02 	ldclpl	12, cr0, [r0], {2}
  105738:	5ce00c02 	stclpl	12, cr0, [r0], #8
  10573c:	5cf00c02 	ldclpl	12, cr0, [r0], #8
  105740:	5d000c02 	stcpl	12, cr0, [r0, #-8]
  105744:	5d100c02 	ldcpl	12, cr0, [r0, #-8]
  105748:	5d200c02 	stcpl	12, cr0, [r0, #-8]!
  10574c:	5d300c02 	ldcpl	12, cr0, [r0, #-8]!
  105750:	5d400c02 	stclpl	12, cr0, [r0, #-8]
  105754:	5d500c02 	ldclpl	12, cr0, [r0, #-8]
  105758:	5d600c02 	stclpl	12, cr0, [r0, #-8]!
  10575c:	5d700c02 	ldclpl	12, cr0, [r0, #-8]!
  105760:	5d800c02 	stcpl	12, cr0, [r0, #8]
  105764:	5d900c02 	ldcpl	12, cr0, [r0, #8]
  105768:	5da00c02 	stcpl	12, cr0, [r0, #8]!
  10576c:	5db00c02 	ldcpl	12, cr0, [r0, #8]!
  105770:	5dc00c02 	stclpl	12, cr0, [r0, #8]
  105774:	5dd00c02 	ldclpl	12, cr0, [r0, #8]
  105778:	5de00c02 	stclpl	12, cr0, [r0, #8]!
  10577c:	5df00c02 	ldclpl	12, cr0, [r0, #8]!
  105780:	5e000c02 	cdppl	12, 0, cr0, cr0, cr2, {0}
  105784:	5e100c02 	cdppl	12, 1, cr0, cr0, cr2, {0}
  105788:	5e200c02 	cdppl	12, 2, cr0, cr0, cr2, {0}
  10578c:	5e300c02 	cdppl	12, 3, cr0, cr0, cr2, {0}
  105790:	5e400c02 	cdppl	12, 4, cr0, cr0, cr2, {0}
  105794:	5e500c02 	cdppl	12, 5, cr0, cr0, cr2, {0}
  105798:	5e600c02 	cdppl	12, 6, cr0, cr0, cr2, {0}
  10579c:	5e700c02 	cdppl	12, 7, cr0, cr0, cr2, {0}
  1057a0:	5e800c02 	cdppl	12, 8, cr0, cr0, cr2, {0}
  1057a4:	5e900c02 	cdppl	12, 9, cr0, cr0, cr2, {0}
  1057a8:	5ea00c02 	cdppl	12, 10, cr0, cr0, cr2, {0}
  1057ac:	5eb00c02 	cdppl	12, 11, cr0, cr0, cr2, {0}
  1057b0:	5ec00c02 	cdppl	12, 12, cr0, cr0, cr2, {0}
  1057b4:	5ed00c02 	cdppl	12, 13, cr0, cr0, cr2, {0}
  1057b8:	5ee00c02 	cdppl	12, 14, cr0, cr0, cr2, {0}
  1057bc:	5ef00c02 	cdppl	12, 15, cr0, cr0, cr2, {0}
  1057c0:	5f000c02 	svcpl	0x00000c02
  1057c4:	5f100c02 	svcpl	0x00100c02
  1057c8:	5f200c02 	svcpl	0x00200c02
  1057cc:	5f300c02 	svcpl	0x00300c02
  1057d0:	5f400c02 	svcpl	0x00400c02
  1057d4:	5f500c02 	svcpl	0x00500c02
  1057d8:	5f600c02 	svcpl	0x00600c02
  1057dc:	5f700c02 	svcpl	0x00700c02
  1057e0:	5f800c02 	svcpl	0x00800c02
  1057e4:	5f900c02 	svcpl	0x00900c02
  1057e8:	5fa00c02 	svcpl	0x00a00c02
  1057ec:	5fb00c02 	svcpl	0x00b00c02
  1057f0:	5fc00c02 	svcpl	0x00c00c02
  1057f4:	5fd00c02 	svcpl	0x00d00c02
  1057f8:	5fe00c02 	svcpl	0x00e00c02
  1057fc:	5ff00c02 	svcpl	0x00f00c02
  105800:	60000c02 	andvs	r0, r0, r2, lsl #24
  105804:	60100c02 	andsvs	r0, r0, r2, lsl #24
  105808:	60200c02 	eorvs	r0, r0, r2, lsl #24
  10580c:	60300c02 	eorsvs	r0, r0, r2, lsl #24
  105810:	60400c02 	subvs	r0, r0, r2, lsl #24
  105814:	60500c02 	subsvs	r0, r0, r2, lsl #24
  105818:	60600c02 	rsbvs	r0, r0, r2, lsl #24
  10581c:	60700c02 	rsbsvs	r0, r0, r2, lsl #24
  105820:	60800c02 	addvs	r0, r0, r2, lsl #24
  105824:	60900c02 	addsvs	r0, r0, r2, lsl #24
  105828:	60a00c02 	adcvs	r0, r0, r2, lsl #24
  10582c:	60b00c02 	adcsvs	r0, r0, r2, lsl #24
  105830:	60c00c02 	sbcvs	r0, r0, r2, lsl #24
  105834:	60d00c02 	sbcsvs	r0, r0, r2, lsl #24
  105838:	60e00c02 	rscvs	r0, r0, r2, lsl #24
  10583c:	60f00c02 	rscsvs	r0, r0, r2, lsl #24
  105840:	61000c02 	tstvs	r0, r2, lsl #24
  105844:	61100c02 	tstvs	r0, r2, lsl #24
  105848:	61200c02 	teqvs	r0, r2, lsl #24
  10584c:	61300c02 	teqvs	r0, r2, lsl #24
  105850:	61400c02 	cmpvs	r0, r2, lsl #24
  105854:	61500c02 	cmpvs	r0, r2, lsl #24
  105858:	61600c02 	cmnvs	r0, r2, lsl #24
  10585c:	61700c02 	cmnvs	r0, r2, lsl #24
  105860:	61800c02 	orrvs	r0, r0, r2, lsl #24
  105864:	61900c02 	orrsvs	r0, r0, r2, lsl #24
  105868:	61a00c02 	lslvs	r0, r2, #24
  10586c:	61b00c02 	lslsvs	r0, r2, #24
  105870:	61c00c02 	bicvs	r0, r0, r2, lsl #24
  105874:	61d00c02 	bicsvs	r0, r0, r2, lsl #24
  105878:	61e00c02 	mvnvs	r0, r2, lsl #24
  10587c:	61f00c02 	mvnsvs	r0, r2, lsl #24
  105880:	62000c02 	andvs	r0, r0, #512	; 0x200
  105884:	62100c02 	andsvs	r0, r0, #512	; 0x200
  105888:	62200c02 	eorvs	r0, r0, #512	; 0x200
  10588c:	62300c02 	eorsvs	r0, r0, #512	; 0x200
  105890:	62400c02 	subvs	r0, r0, #512	; 0x200
  105894:	62500c02 	subsvs	r0, r0, #512	; 0x200
  105898:	62600c02 	rsbvs	r0, r0, #512	; 0x200
  10589c:	62700c02 	rsbsvs	r0, r0, #512	; 0x200
  1058a0:	62800c02 	addvs	r0, r0, #512	; 0x200
  1058a4:	62900c02 	addsvs	r0, r0, #512	; 0x200
  1058a8:	62a00c02 	adcvs	r0, r0, #512	; 0x200
  1058ac:	62b00c02 	adcsvs	r0, r0, #512	; 0x200
  1058b0:	62c00c02 	sbcvs	r0, r0, #512	; 0x200
  1058b4:	62d00c02 	sbcsvs	r0, r0, #512	; 0x200
  1058b8:	62e00c02 	rscvs	r0, r0, #512	; 0x200
  1058bc:	62f00c02 	rscsvs	r0, r0, #512	; 0x200
  1058c0:	63000c02 	movwvs	r0, #3074	; 0xc02
  1058c4:	63100c02 	tstvs	r0, #512	; 0x200
  1058c8:	63200c02 	teqvs	r0, #512	; 0x200
  1058cc:	63300c02 	teqvs	r0, #512	; 0x200
  1058d0:	63400c02 	movtvs	r0, #3074	; 0xc02
  1058d4:	63500c02 	cmpvs	r0, #512	; 0x200
  1058d8:	63600c02 	cmnvs	r0, #512	; 0x200
  1058dc:	63700c02 	cmnvs	r0, #512	; 0x200
  1058e0:	63800c02 	orrvs	r0, r0, #512	; 0x200
  1058e4:	63900c02 	orrsvs	r0, r0, #512	; 0x200
  1058e8:	63a00c02 	movvs	r0, #512	; 0x200
  1058ec:	63b00c02 	movsvs	r0, #512	; 0x200
  1058f0:	63c00c02 	bicvs	r0, r0, #512	; 0x200
  1058f4:	63d00c02 	bicsvs	r0, r0, #512	; 0x200
  1058f8:	63e00c02 	mvnvs	r0, #512	; 0x200
  1058fc:	63f00c02 	mvnsvs	r0, #512	; 0x200
  105900:	64000c02 	strvs	r0, [r0], #-3074	; 0xfffff3fe
  105904:	64100c02 	ldrvs	r0, [r0], #-3074	; 0xfffff3fe
  105908:	64200c02 	strtvs	r0, [r0], #-3074	; 0xfffff3fe
  10590c:	64300c02 	ldrtvs	r0, [r0], #-3074	; 0xfffff3fe
  105910:	64400c02 	strbvs	r0, [r0], #-3074	; 0xfffff3fe
  105914:	64500c02 	ldrbvs	r0, [r0], #-3074	; 0xfffff3fe
  105918:	64600c02 	strbtvs	r0, [r0], #-3074	; 0xfffff3fe
  10591c:	64700c02 	ldrbtvs	r0, [r0], #-3074	; 0xfffff3fe
  105920:	64800c02 	strvs	r0, [r0], #3074	; 0xc02
  105924:	64900c02 	ldrvs	r0, [r0], #3074	; 0xc02
  105928:	64a00c02 	strtvs	r0, [r0], #3074	; 0xc02
  10592c:	64b00c02 	ldrtvs	r0, [r0], #3074	; 0xc02
  105930:	64c00c02 	strbvs	r0, [r0], #3074	; 0xc02
  105934:	64d00c02 	ldrbvs	r0, [r0], #3074	; 0xc02
  105938:	64e00c02 	strbtvs	r0, [r0], #3074	; 0xc02
  10593c:	64f00c02 	ldrbtvs	r0, [r0], #3074	; 0xc02
  105940:	65000c02 	strvs	r0, [r0, #-3074]	; 0xfffff3fe
  105944:	65100c02 	ldrvs	r0, [r0, #-3074]	; 0xfffff3fe
  105948:	65200c02 	strvs	r0, [r0, #-3074]!	; 0xfffff3fe
  10594c:	65300c02 	ldrvs	r0, [r0, #-3074]!	; 0xfffff3fe
  105950:	65400c02 	strbvs	r0, [r0, #-3074]	; 0xfffff3fe
  105954:	65500c02 	ldrbvs	r0, [r0, #-3074]	; 0xfffff3fe
  105958:	65600c02 	strbvs	r0, [r0, #-3074]!	; 0xfffff3fe
  10595c:	65700c02 	ldrbvs	r0, [r0, #-3074]!	; 0xfffff3fe
  105960:	65800c02 	strvs	r0, [r0, #3074]	; 0xc02
  105964:	65900c02 	ldrvs	r0, [r0, #3074]	; 0xc02
  105968:	65a00c02 	strvs	r0, [r0, #3074]!	; 0xc02
  10596c:	65b00c02 	ldrvs	r0, [r0, #3074]!	; 0xc02
  105970:	65c00c02 	strbvs	r0, [r0, #3074]	; 0xc02
  105974:	65d00c02 	ldrbvs	r0, [r0, #3074]	; 0xc02
  105978:	65e00c02 	strbvs	r0, [r0, #3074]!	; 0xc02
  10597c:	65f00c02 	ldrbvs	r0, [r0, #3074]!	; 0xc02
  105980:	66000c02 	strvs	r0, [r0], -r2, lsl #24
  105984:	66100c02 	ldrvs	r0, [r0], -r2, lsl #24
  105988:	66200c02 	strtvs	r0, [r0], -r2, lsl #24
  10598c:	66300c02 	ldrtvs	r0, [r0], -r2, lsl #24
  105990:	66400c02 	strbvs	r0, [r0], -r2, lsl #24
  105994:	66500c02 	ldrbvs	r0, [r0], -r2, lsl #24
  105998:	66600c02 	strbtvs	r0, [r0], -r2, lsl #24
  10599c:	66700c02 	ldrbtvs	r0, [r0], -r2, lsl #24
  1059a0:	66800c02 	strvs	r0, [r0], r2, lsl #24
  1059a4:	66900c02 	ldrvs	r0, [r0], r2, lsl #24
  1059a8:	66a00c02 	strtvs	r0, [r0], r2, lsl #24
  1059ac:	66b00c02 	ldrtvs	r0, [r0], r2, lsl #24
  1059b0:	66c00c02 	strbvs	r0, [r0], r2, lsl #24
  1059b4:	66d00c02 	ldrbvs	r0, [r0], r2, lsl #24
  1059b8:	66e00c02 	strbtvs	r0, [r0], r2, lsl #24
  1059bc:	66f00c02 	ldrbtvs	r0, [r0], r2, lsl #24
  1059c0:	67000c02 	strvs	r0, [r0, -r2, lsl #24]
  1059c4:	67100c02 	ldrvs	r0, [r0, -r2, lsl #24]
  1059c8:	67200c02 	strvs	r0, [r0, -r2, lsl #24]!
  1059cc:	67300c02 	ldrvs	r0, [r0, -r2, lsl #24]!
  1059d0:	67400c02 	strbvs	r0, [r0, -r2, lsl #24]
  1059d4:	67500c02 	ldrbvs	r0, [r0, -r2, lsl #24]
  1059d8:	67600c02 	strbvs	r0, [r0, -r2, lsl #24]!
  1059dc:	67700c02 	ldrbvs	r0, [r0, -r2, lsl #24]!
  1059e0:	67800c02 	strvs	r0, [r0, r2, lsl #24]
  1059e4:	67900c02 	ldrvs	r0, [r0, r2, lsl #24]
  1059e8:	67a00c02 	strvs	r0, [r0, r2, lsl #24]!
  1059ec:	67b00c02 	ldrvs	r0, [r0, r2, lsl #24]!
  1059f0:	67c00c02 	strbvs	r0, [r0, r2, lsl #24]
  1059f4:	67d00c02 	ldrbvs	r0, [r0, r2, lsl #24]
  1059f8:	67e00c02 	strbvs	r0, [r0, r2, lsl #24]!
  1059fc:	67f00c02 	ldrbvs	r0, [r0, r2, lsl #24]!
  105a00:	68000c02 	stmdavs	r0, {r1, sl, fp}
  105a04:	68100c02 	ldmdavs	r0, {r1, sl, fp}
  105a08:	68200c02 	stmdavs	r0!, {r1, sl, fp}
  105a0c:	68300c02 	ldmdavs	r0!, {r1, sl, fp}
  105a10:	68400c02 	stmdavs	r0, {r1, sl, fp}^
  105a14:	68500c02 	ldmdavs	r0, {r1, sl, fp}^
  105a18:	68600c02 	stmdavs	r0!, {r1, sl, fp}^
  105a1c:	68700c02 	ldmdavs	r0!, {r1, sl, fp}^
  105a20:	68800c02 	stmvs	r0, {r1, sl, fp}
  105a24:	68900c02 	ldmvs	r0, {r1, sl, fp}
  105a28:	68a00c02 	stmiavs	r0!, {r1, sl, fp}
  105a2c:	68b00c02 	ldmvs	r0!, {r1, sl, fp}
  105a30:	68c00c02 	stmiavs	r0, {r1, sl, fp}^
  105a34:	68d00c02 	ldmvs	r0, {r1, sl, fp}^
  105a38:	68e00c02 	stmiavs	r0!, {r1, sl, fp}^
  105a3c:	68f00c02 	ldmvs	r0!, {r1, sl, fp}^
  105a40:	69000c02 	stmdbvs	r0, {r1, sl, fp}
  105a44:	69100c02 	ldmdbvs	r0, {r1, sl, fp}
  105a48:	69200c02 	stmdbvs	r0!, {r1, sl, fp}
  105a4c:	69300c02 	ldmdbvs	r0!, {r1, sl, fp}
  105a50:	69400c02 	stmdbvs	r0, {r1, sl, fp}^
  105a54:	69500c02 	ldmdbvs	r0, {r1, sl, fp}^
  105a58:	69600c02 	stmdbvs	r0!, {r1, sl, fp}^
  105a5c:	69700c02 	ldmdbvs	r0!, {r1, sl, fp}^
  105a60:	69800c02 	stmibvs	r0, {r1, sl, fp}
  105a64:	69900c02 	ldmibvs	r0, {r1, sl, fp}
  105a68:	69a00c02 	stmibvs	r0!, {r1, sl, fp}
  105a6c:	69b00c02 	ldmibvs	r0!, {r1, sl, fp}
  105a70:	69c00c02 	stmibvs	r0, {r1, sl, fp}^
  105a74:	69d00c02 	ldmibvs	r0, {r1, sl, fp}^
  105a78:	69e00c02 	stmibvs	r0!, {r1, sl, fp}^
  105a7c:	69f00c02 	ldmibvs	r0!, {r1, sl, fp}^
  105a80:	6a000c02 	bvs	108a90 <HeapBase+0x2d0>
  105a84:	6a100c02 	bvs	508a94 <__undef_stack+0x3faad4>
  105a88:	6a200c02 	bvs	908a98 <__undef_stack+0x7faad8>
  105a8c:	6a300c02 	bvs	d08a9c <__undef_stack+0xbfaadc>
  105a90:	6a400c02 	bvs	1108aa0 <__undef_stack+0xffaae0>
  105a94:	6a500c02 	bvs	1508aa4 <__undef_stack+0x13faae4>
  105a98:	6a600c02 	bvs	1908aa8 <__undef_stack+0x17faae8>
  105a9c:	6a700c02 	bvs	1d08aac <__undef_stack+0x1bfaaec>
  105aa0:	6a800c02 	bvs	fe108ab0 <LRemap+0x108aa1>
  105aa4:	6a900c02 	bvs	fe508ab4 <LRemap+0x508aa5>
  105aa8:	6aa00c02 	bvs	fe908ab8 <LRemap+0x908aa9>
  105aac:	6ab00c02 	bvs	fed08abc <LRemap+0xd08aad>
  105ab0:	6ac00c02 	bvs	ff108ac0 <LRemap+0x1108ab1>
  105ab4:	6ad00c02 	bvs	ff508ac4 <LRemap+0x1508ab5>
  105ab8:	6ae00c02 	bvs	ff908ac8 <LRemap+0x1908ab9>
  105abc:	6af00c02 	bvs	ffd08acc <LRemap+0x1d08abd>
  105ac0:	6b000c02 	blvs	108ad0 <HeapBase+0x310>
  105ac4:	6b100c02 	blvs	508ad4 <__undef_stack+0x3fab14>
  105ac8:	6b200c02 	blvs	908ad8 <__undef_stack+0x7fab18>
  105acc:	6b300c02 	blvs	d08adc <__undef_stack+0xbfab1c>
  105ad0:	6b400c02 	blvs	1108ae0 <__undef_stack+0xffab20>
  105ad4:	6b500c02 	blvs	1508ae4 <__undef_stack+0x13fab24>
  105ad8:	6b600c02 	blvs	1908ae8 <__undef_stack+0x17fab28>
  105adc:	6b700c02 	blvs	1d08aec <__undef_stack+0x1bfab2c>
  105ae0:	6b800c02 	blvs	fe108af0 <LRemap+0x108ae1>
  105ae4:	6b900c02 	blvs	fe508af4 <LRemap+0x508ae5>
  105ae8:	6ba00c02 	blvs	fe908af8 <LRemap+0x908ae9>
  105aec:	6bb00c02 	blvs	fed08afc <LRemap+0xd08aed>
  105af0:	6bc00c02 	blvs	ff108b00 <LRemap+0x1108af1>
  105af4:	6bd00c02 	blvs	ff508b04 <LRemap+0x1508af5>
  105af8:	6be00c02 	blvs	ff908b08 <LRemap+0x1908af9>
  105afc:	6bf00c02 	blvs	ffd08b0c <LRemap+0x1d08afd>
  105b00:	6c000c02 	stcvs	12, cr0, [r0], {2}
  105b04:	6c100c02 	ldcvs	12, cr0, [r0], {2}
  105b08:	6c200c02 	stcvs	12, cr0, [r0], #-8
  105b0c:	6c300c02 	ldcvs	12, cr0, [r0], #-8
  105b10:	6c400c02 	mcrrvs	12, 0, r0, r0, cr2
  105b14:	6c500c02 	mrrcvs	12, 0, r0, r0, cr2	; <UNPREDICTABLE>
  105b18:	6c600c02 	stclvs	12, cr0, [r0], #-8
  105b1c:	6c700c02 	ldclvs	12, cr0, [r0], #-8
  105b20:	6c800c02 	stcvs	12, cr0, [r0], {2}
  105b24:	6c900c02 	ldcvs	12, cr0, [r0], {2}
  105b28:	6ca00c02 	stcvs	12, cr0, [r0], #8
  105b2c:	6cb00c02 	ldcvs	12, cr0, [r0], #8
  105b30:	6cc00c02 	stclvs	12, cr0, [r0], {2}
  105b34:	6cd00c02 	ldclvs	12, cr0, [r0], {2}
  105b38:	6ce00c02 	stclvs	12, cr0, [r0], #8
  105b3c:	6cf00c02 	ldclvs	12, cr0, [r0], #8
  105b40:	6d000c02 	stcvs	12, cr0, [r0, #-8]
  105b44:	6d100c02 	ldcvs	12, cr0, [r0, #-8]
  105b48:	6d200c02 	stcvs	12, cr0, [r0, #-8]!
  105b4c:	6d300c02 	ldcvs	12, cr0, [r0, #-8]!
  105b50:	6d400c02 	stclvs	12, cr0, [r0, #-8]
  105b54:	6d500c02 	ldclvs	12, cr0, [r0, #-8]
  105b58:	6d600c02 	stclvs	12, cr0, [r0, #-8]!
  105b5c:	6d700c02 	ldclvs	12, cr0, [r0, #-8]!
  105b60:	6d800c02 	stcvs	12, cr0, [r0, #8]
  105b64:	6d900c02 	ldcvs	12, cr0, [r0, #8]
  105b68:	6da00c02 	stcvs	12, cr0, [r0, #8]!
  105b6c:	6db00c02 	ldcvs	12, cr0, [r0, #8]!
  105b70:	6dc00c02 	stclvs	12, cr0, [r0, #8]
  105b74:	6dd00c02 	ldclvs	12, cr0, [r0, #8]
  105b78:	6de00c02 	stclvs	12, cr0, [r0, #8]!
  105b7c:	6df00c02 	ldclvs	12, cr0, [r0, #8]!
  105b80:	6e000c02 	cdpvs	12, 0, cr0, cr0, cr2, {0}
  105b84:	6e100c02 	cdpvs	12, 1, cr0, cr0, cr2, {0}
  105b88:	6e200c02 	cdpvs	12, 2, cr0, cr0, cr2, {0}
  105b8c:	6e300c02 	cdpvs	12, 3, cr0, cr0, cr2, {0}
  105b90:	6e400c02 	cdpvs	12, 4, cr0, cr0, cr2, {0}
  105b94:	6e500c02 	cdpvs	12, 5, cr0, cr0, cr2, {0}
  105b98:	6e600c02 	cdpvs	12, 6, cr0, cr0, cr2, {0}
  105b9c:	6e700c02 	cdpvs	12, 7, cr0, cr0, cr2, {0}
  105ba0:	6e800c02 	cdpvs	12, 8, cr0, cr0, cr2, {0}
  105ba4:	6e900c02 	cdpvs	12, 9, cr0, cr0, cr2, {0}
  105ba8:	6ea00c02 	cdpvs	12, 10, cr0, cr0, cr2, {0}
  105bac:	6eb00c02 	cdpvs	12, 11, cr0, cr0, cr2, {0}
  105bb0:	6ec00c02 	cdpvs	12, 12, cr0, cr0, cr2, {0}
  105bb4:	6ed00c02 	cdpvs	12, 13, cr0, cr0, cr2, {0}
  105bb8:	6ee00c02 	cdpvs	12, 14, cr0, cr0, cr2, {0}
  105bbc:	6ef00c02 	cdpvs	12, 15, cr0, cr0, cr2, {0}
  105bc0:	6f000c02 	svcvs	0x00000c02
  105bc4:	6f100c02 	svcvs	0x00100c02
  105bc8:	6f200c02 	svcvs	0x00200c02
  105bcc:	6f300c02 	svcvs	0x00300c02
  105bd0:	6f400c02 	svcvs	0x00400c02
  105bd4:	6f500c02 	svcvs	0x00500c02
  105bd8:	6f600c02 	svcvs	0x00600c02
  105bdc:	6f700c02 	svcvs	0x00700c02
  105be0:	6f800c02 	svcvs	0x00800c02
  105be4:	6f900c02 	svcvs	0x00900c02
  105be8:	6fa00c02 	svcvs	0x00a00c02
  105bec:	6fb00c02 	svcvs	0x00b00c02
  105bf0:	6fc00c02 	svcvs	0x00c00c02
  105bf4:	6fd00c02 	svcvs	0x00d00c02
  105bf8:	6fe00c02 	svcvs	0x00e00c02
  105bfc:	6ff00c02 	svcvs	0x00f00c02
  105c00:	70000c02 	andvc	r0, r0, r2, lsl #24
  105c04:	70100c02 	andsvc	r0, r0, r2, lsl #24
  105c08:	70200c02 	eorvc	r0, r0, r2, lsl #24
  105c0c:	70300c02 	eorsvc	r0, r0, r2, lsl #24
  105c10:	70400c02 	subvc	r0, r0, r2, lsl #24
  105c14:	70500c02 	subsvc	r0, r0, r2, lsl #24
  105c18:	70600c02 	rsbvc	r0, r0, r2, lsl #24
  105c1c:	70700c02 	rsbsvc	r0, r0, r2, lsl #24
  105c20:	70800c02 	addvc	r0, r0, r2, lsl #24
  105c24:	70900c02 	addsvc	r0, r0, r2, lsl #24
  105c28:	70a00c02 	adcvc	r0, r0, r2, lsl #24
  105c2c:	70b00c02 	adcsvc	r0, r0, r2, lsl #24
  105c30:	70c00c02 	sbcvc	r0, r0, r2, lsl #24
  105c34:	70d00c02 	sbcsvc	r0, r0, r2, lsl #24
  105c38:	70e00c02 	rscvc	r0, r0, r2, lsl #24
  105c3c:	70f00c02 	rscsvc	r0, r0, r2, lsl #24
  105c40:	71000c02 	tstvc	r0, r2, lsl #24
  105c44:	71100c02 	tstvc	r0, r2, lsl #24
  105c48:	71200c02 	teqvc	r0, r2, lsl #24
  105c4c:	71300c02 	teqvc	r0, r2, lsl #24
  105c50:	71400c02 	cmpvc	r0, r2, lsl #24
  105c54:	71500c02 	cmpvc	r0, r2, lsl #24
  105c58:	71600c02 	cmnvc	r0, r2, lsl #24
  105c5c:	71700c02 	cmnvc	r0, r2, lsl #24
  105c60:	71800c02 	orrvc	r0, r0, r2, lsl #24
  105c64:	71900c02 	orrsvc	r0, r0, r2, lsl #24
  105c68:	71a00c02 	lslvc	r0, r2, #24
  105c6c:	71b00c02 	lslsvc	r0, r2, #24
  105c70:	71c00c02 	bicvc	r0, r0, r2, lsl #24
  105c74:	71d00c02 	bicsvc	r0, r0, r2, lsl #24
  105c78:	71e00c02 	mvnvc	r0, r2, lsl #24
  105c7c:	71f00c02 	mvnsvc	r0, r2, lsl #24
  105c80:	72000c02 	andvc	r0, r0, #512	; 0x200
  105c84:	72100c02 	andsvc	r0, r0, #512	; 0x200
  105c88:	72200c02 	eorvc	r0, r0, #512	; 0x200
  105c8c:	72300c02 	eorsvc	r0, r0, #512	; 0x200
  105c90:	72400c02 	subvc	r0, r0, #512	; 0x200
  105c94:	72500c02 	subsvc	r0, r0, #512	; 0x200
  105c98:	72600c02 	rsbvc	r0, r0, #512	; 0x200
  105c9c:	72700c02 	rsbsvc	r0, r0, #512	; 0x200
  105ca0:	72800c02 	addvc	r0, r0, #512	; 0x200
  105ca4:	72900c02 	addsvc	r0, r0, #512	; 0x200
  105ca8:	72a00c02 	adcvc	r0, r0, #512	; 0x200
  105cac:	72b00c02 	adcsvc	r0, r0, #512	; 0x200
  105cb0:	72c00c02 	sbcvc	r0, r0, #512	; 0x200
  105cb4:	72d00c02 	sbcsvc	r0, r0, #512	; 0x200
  105cb8:	72e00c02 	rscvc	r0, r0, #512	; 0x200
  105cbc:	72f00c02 	rscsvc	r0, r0, #512	; 0x200
  105cc0:	73000c02 	movwvc	r0, #3074	; 0xc02
  105cc4:	73100c02 	tstvc	r0, #512	; 0x200
  105cc8:	73200c02 	teqvc	r0, #512	; 0x200
  105ccc:	73300c02 	teqvc	r0, #512	; 0x200
  105cd0:	73400c02 	movtvc	r0, #3074	; 0xc02
  105cd4:	73500c02 	cmpvc	r0, #512	; 0x200
  105cd8:	73600c02 	cmnvc	r0, #512	; 0x200
  105cdc:	73700c02 	cmnvc	r0, #512	; 0x200
  105ce0:	73800c02 	orrvc	r0, r0, #512	; 0x200
  105ce4:	73900c02 	orrsvc	r0, r0, #512	; 0x200
  105ce8:	73a00c02 	movvc	r0, #512	; 0x200
  105cec:	73b00c02 	movsvc	r0, #512	; 0x200
  105cf0:	73c00c02 	bicvc	r0, r0, #512	; 0x200
  105cf4:	73d00c02 	bicsvc	r0, r0, #512	; 0x200
  105cf8:	73e00c02 	mvnvc	r0, #512	; 0x200
  105cfc:	73f00c02 	mvnsvc	r0, #512	; 0x200
  105d00:	74000c02 	strvc	r0, [r0], #-3074	; 0xfffff3fe
  105d04:	74100c02 	ldrvc	r0, [r0], #-3074	; 0xfffff3fe
  105d08:	74200c02 	strtvc	r0, [r0], #-3074	; 0xfffff3fe
  105d0c:	74300c02 	ldrtvc	r0, [r0], #-3074	; 0xfffff3fe
  105d10:	74400c02 	strbvc	r0, [r0], #-3074	; 0xfffff3fe
  105d14:	74500c02 	ldrbvc	r0, [r0], #-3074	; 0xfffff3fe
  105d18:	74600c02 	strbtvc	r0, [r0], #-3074	; 0xfffff3fe
  105d1c:	74700c02 	ldrbtvc	r0, [r0], #-3074	; 0xfffff3fe
  105d20:	74800c02 	strvc	r0, [r0], #3074	; 0xc02
  105d24:	74900c02 	ldrvc	r0, [r0], #3074	; 0xc02
  105d28:	74a00c02 	strtvc	r0, [r0], #3074	; 0xc02
  105d2c:	74b00c02 	ldrtvc	r0, [r0], #3074	; 0xc02
  105d30:	74c00c02 	strbvc	r0, [r0], #3074	; 0xc02
  105d34:	74d00c02 	ldrbvc	r0, [r0], #3074	; 0xc02
  105d38:	74e00c02 	strbtvc	r0, [r0], #3074	; 0xc02
  105d3c:	74f00c02 	ldrbtvc	r0, [r0], #3074	; 0xc02
  105d40:	75000c02 	strvc	r0, [r0, #-3074]	; 0xfffff3fe
  105d44:	75100c02 	ldrvc	r0, [r0, #-3074]	; 0xfffff3fe
  105d48:	75200c02 	strvc	r0, [r0, #-3074]!	; 0xfffff3fe
  105d4c:	75300c02 	ldrvc	r0, [r0, #-3074]!	; 0xfffff3fe
  105d50:	75400c02 	strbvc	r0, [r0, #-3074]	; 0xfffff3fe
  105d54:	75500c02 	ldrbvc	r0, [r0, #-3074]	; 0xfffff3fe
  105d58:	75600c02 	strbvc	r0, [r0, #-3074]!	; 0xfffff3fe
  105d5c:	75700c02 	ldrbvc	r0, [r0, #-3074]!	; 0xfffff3fe
  105d60:	75800c02 	strvc	r0, [r0, #3074]	; 0xc02
  105d64:	75900c02 	ldrvc	r0, [r0, #3074]	; 0xc02
  105d68:	75a00c02 	strvc	r0, [r0, #3074]!	; 0xc02
  105d6c:	75b00c02 	ldrvc	r0, [r0, #3074]!	; 0xc02
  105d70:	75c00c02 	strbvc	r0, [r0, #3074]	; 0xc02
  105d74:	75d00c02 	ldrbvc	r0, [r0, #3074]	; 0xc02
  105d78:	75e00c02 	strbvc	r0, [r0, #3074]!	; 0xc02
  105d7c:	75f00c02 	ldrbvc	r0, [r0, #3074]!	; 0xc02
  105d80:	76000c02 	strvc	r0, [r0], -r2, lsl #24
  105d84:	76100c02 	ldrvc	r0, [r0], -r2, lsl #24
  105d88:	76200c02 	strtvc	r0, [r0], -r2, lsl #24
  105d8c:	76300c02 	ldrtvc	r0, [r0], -r2, lsl #24
  105d90:	76400c02 	strbvc	r0, [r0], -r2, lsl #24
  105d94:	76500c02 	ldrbvc	r0, [r0], -r2, lsl #24
  105d98:	76600c02 	strbtvc	r0, [r0], -r2, lsl #24
  105d9c:	76700c02 	ldrbtvc	r0, [r0], -r2, lsl #24
  105da0:	76800c02 	strvc	r0, [r0], r2, lsl #24
  105da4:	76900c02 	ldrvc	r0, [r0], r2, lsl #24
  105da8:	76a00c02 	strtvc	r0, [r0], r2, lsl #24
  105dac:	76b00c02 	ldrtvc	r0, [r0], r2, lsl #24
  105db0:	76c00c02 	strbvc	r0, [r0], r2, lsl #24
  105db4:	76d00c02 	ldrbvc	r0, [r0], r2, lsl #24
  105db8:	76e00c02 	strbtvc	r0, [r0], r2, lsl #24
  105dbc:	76f00c02 	ldrbtvc	r0, [r0], r2, lsl #24
  105dc0:	77000c02 	strvc	r0, [r0, -r2, lsl #24]
  105dc4:	77100c02 	ldrvc	r0, [r0, -r2, lsl #24]
  105dc8:	77200c02 	strvc	r0, [r0, -r2, lsl #24]!
  105dcc:	77300c02 	ldrvc	r0, [r0, -r2, lsl #24]!
  105dd0:	77400c02 	strbvc	r0, [r0, -r2, lsl #24]
  105dd4:	77500c02 	ldrbvc	r0, [r0, -r2, lsl #24]
  105dd8:	77600c02 	strbvc	r0, [r0, -r2, lsl #24]!
  105ddc:	77700c02 	ldrbvc	r0, [r0, -r2, lsl #24]!
  105de0:	77800c02 	strvc	r0, [r0, r2, lsl #24]
  105de4:	77900c02 	ldrvc	r0, [r0, r2, lsl #24]
  105de8:	77a00c02 	strvc	r0, [r0, r2, lsl #24]!
  105dec:	77b00c02 	ldrvc	r0, [r0, r2, lsl #24]!
  105df0:	77c00c02 	strbvc	r0, [r0, r2, lsl #24]
  105df4:	77d00c02 	ldrbvc	r0, [r0, r2, lsl #24]
  105df8:	77e00c02 	strbvc	r0, [r0, r2, lsl #24]!
  105dfc:	77f00c02 	ldrbvc	r0, [r0, r2, lsl #24]!
  105e00:	78000c02 	stmdavc	r0, {r1, sl, fp}
  105e04:	78100c02 	ldmdavc	r0, {r1, sl, fp}
  105e08:	78200c02 	stmdavc	r0!, {r1, sl, fp}
  105e0c:	78300c02 	ldmdavc	r0!, {r1, sl, fp}
  105e10:	78400c02 	stmdavc	r0, {r1, sl, fp}^
  105e14:	78500c02 	ldmdavc	r0, {r1, sl, fp}^
  105e18:	78600c02 	stmdavc	r0!, {r1, sl, fp}^
  105e1c:	78700c02 	ldmdavc	r0!, {r1, sl, fp}^
  105e20:	78800c02 	stmvc	r0, {r1, sl, fp}
  105e24:	78900c02 	ldmvc	r0, {r1, sl, fp}
  105e28:	78a00c02 	stmiavc	r0!, {r1, sl, fp}
  105e2c:	78b00c02 	ldmvc	r0!, {r1, sl, fp}
  105e30:	78c00c02 	stmiavc	r0, {r1, sl, fp}^
  105e34:	78d00c02 	ldmvc	r0, {r1, sl, fp}^
  105e38:	78e00c02 	stmiavc	r0!, {r1, sl, fp}^
  105e3c:	78f00c02 	ldmvc	r0!, {r1, sl, fp}^
  105e40:	79000c02 	stmdbvc	r0, {r1, sl, fp}
  105e44:	79100c02 	ldmdbvc	r0, {r1, sl, fp}
  105e48:	79200c02 	stmdbvc	r0!, {r1, sl, fp}
  105e4c:	79300c02 	ldmdbvc	r0!, {r1, sl, fp}
  105e50:	79400c02 	stmdbvc	r0, {r1, sl, fp}^
  105e54:	79500c02 	ldmdbvc	r0, {r1, sl, fp}^
  105e58:	79600c02 	stmdbvc	r0!, {r1, sl, fp}^
  105e5c:	79700c02 	ldmdbvc	r0!, {r1, sl, fp}^
  105e60:	79800c02 	stmibvc	r0, {r1, sl, fp}
  105e64:	79900c02 	ldmibvc	r0, {r1, sl, fp}
  105e68:	79a00c02 	stmibvc	r0!, {r1, sl, fp}
  105e6c:	79b00c02 	ldmibvc	r0!, {r1, sl, fp}
  105e70:	79c00c02 	stmibvc	r0, {r1, sl, fp}^
  105e74:	79d00c02 	ldmibvc	r0, {r1, sl, fp}^
  105e78:	79e00c02 	stmibvc	r0!, {r1, sl, fp}^
  105e7c:	79f00c02 	ldmibvc	r0!, {r1, sl, fp}^
  105e80:	7a000c02 	bvc	108e90 <HeapBase+0x6d0>
  105e84:	7a100c02 	bvc	508e94 <__undef_stack+0x3faed4>
  105e88:	7a200c02 	bvc	908e98 <__undef_stack+0x7faed8>
  105e8c:	7a300c02 	bvc	d08e9c <__undef_stack+0xbfaedc>
  105e90:	7a400c02 	bvc	1108ea0 <__undef_stack+0xffaee0>
  105e94:	7a500c02 	bvc	1508ea4 <__undef_stack+0x13faee4>
  105e98:	7a600c02 	bvc	1908ea8 <__undef_stack+0x17faee8>
  105e9c:	7a700c02 	bvc	1d08eac <__undef_stack+0x1bfaeec>
  105ea0:	7a800c02 	bvc	fe108eb0 <LRemap+0x108ea1>
  105ea4:	7a900c02 	bvc	fe508eb4 <LRemap+0x508ea5>
  105ea8:	7aa00c02 	bvc	fe908eb8 <LRemap+0x908ea9>
  105eac:	7ab00c02 	bvc	fed08ebc <LRemap+0xd08ead>
  105eb0:	7ac00c02 	bvc	ff108ec0 <LRemap+0x1108eb1>
  105eb4:	7ad00c02 	bvc	ff508ec4 <LRemap+0x1508eb5>
  105eb8:	7ae00c02 	bvc	ff908ec8 <LRemap+0x1908eb9>
  105ebc:	7af00c02 	bvc	ffd08ecc <LRemap+0x1d08ebd>
  105ec0:	7b000c02 	blvc	108ed0 <HeapBase+0x710>
  105ec4:	7b100c02 	blvc	508ed4 <__undef_stack+0x3faf14>
  105ec8:	7b200c02 	blvc	908ed8 <__undef_stack+0x7faf18>
  105ecc:	7b300c02 	blvc	d08edc <__undef_stack+0xbfaf1c>
  105ed0:	7b400c02 	blvc	1108ee0 <__undef_stack+0xffaf20>
  105ed4:	7b500c02 	blvc	1508ee4 <__undef_stack+0x13faf24>
  105ed8:	7b600c02 	blvc	1908ee8 <__undef_stack+0x17faf28>
  105edc:	7b700c02 	blvc	1d08eec <__undef_stack+0x1bfaf2c>
  105ee0:	7b800c02 	blvc	fe108ef0 <LRemap+0x108ee1>
  105ee4:	7b900c02 	blvc	fe508ef4 <LRemap+0x508ee5>
  105ee8:	7ba00c02 	blvc	fe908ef8 <LRemap+0x908ee9>
  105eec:	7bb00c02 	blvc	fed08efc <LRemap+0xd08eed>
  105ef0:	7bc00c02 	blvc	ff108f00 <LRemap+0x1108ef1>
  105ef4:	7bd00c02 	blvc	ff508f04 <LRemap+0x1508ef5>
  105ef8:	7be00c02 	blvc	ff908f08 <LRemap+0x1908ef9>
  105efc:	7bf00c02 	blvc	ffd08f0c <LRemap+0x1d08efd>
  105f00:	7c000c02 	stcvc	12, cr0, [r0], {2}
  105f04:	7c100c02 	ldcvc	12, cr0, [r0], {2}
  105f08:	7c200c02 	stcvc	12, cr0, [r0], #-8
  105f0c:	7c300c02 	ldcvc	12, cr0, [r0], #-8
  105f10:	7c400c02 	mcrrvc	12, 0, r0, r0, cr2
  105f14:	7c500c02 	mrrcvc	12, 0, r0, r0, cr2	; <UNPREDICTABLE>
  105f18:	7c600c02 	stclvc	12, cr0, [r0], #-8
  105f1c:	7c700c02 	ldclvc	12, cr0, [r0], #-8
  105f20:	7c800c02 	stcvc	12, cr0, [r0], {2}
  105f24:	7c900c02 	ldcvc	12, cr0, [r0], {2}
  105f28:	7ca00c02 	stcvc	12, cr0, [r0], #8
  105f2c:	7cb00c02 	ldcvc	12, cr0, [r0], #8
  105f30:	7cc00c02 	stclvc	12, cr0, [r0], {2}
  105f34:	7cd00c02 	ldclvc	12, cr0, [r0], {2}
  105f38:	7ce00c02 	stclvc	12, cr0, [r0], #8
  105f3c:	7cf00c02 	ldclvc	12, cr0, [r0], #8
  105f40:	7d000c02 	stcvc	12, cr0, [r0, #-8]
  105f44:	7d100c02 	ldcvc	12, cr0, [r0, #-8]
  105f48:	7d200c02 	stcvc	12, cr0, [r0, #-8]!
  105f4c:	7d300c02 	ldcvc	12, cr0, [r0, #-8]!
  105f50:	7d400c02 	stclvc	12, cr0, [r0, #-8]
  105f54:	7d500c02 	ldclvc	12, cr0, [r0, #-8]
  105f58:	7d600c02 	stclvc	12, cr0, [r0, #-8]!
  105f5c:	7d700c02 	ldclvc	12, cr0, [r0, #-8]!
  105f60:	7d800c02 	stcvc	12, cr0, [r0, #8]
  105f64:	7d900c02 	ldcvc	12, cr0, [r0, #8]
  105f68:	7da00c02 	stcvc	12, cr0, [r0, #8]!
  105f6c:	7db00c02 	ldcvc	12, cr0, [r0, #8]!
  105f70:	7dc00c02 	stclvc	12, cr0, [r0, #8]
  105f74:	7dd00c02 	ldclvc	12, cr0, [r0, #8]
  105f78:	7de00c02 	stclvc	12, cr0, [r0, #8]!
  105f7c:	7df00c02 	ldclvc	12, cr0, [r0, #8]!
  105f80:	7e000c02 	cdpvc	12, 0, cr0, cr0, cr2, {0}
  105f84:	7e100c02 	cdpvc	12, 1, cr0, cr0, cr2, {0}
  105f88:	7e200c02 	cdpvc	12, 2, cr0, cr0, cr2, {0}
  105f8c:	7e300c02 	cdpvc	12, 3, cr0, cr0, cr2, {0}
  105f90:	7e400c02 	cdpvc	12, 4, cr0, cr0, cr2, {0}
  105f94:	7e500c02 	cdpvc	12, 5, cr0, cr0, cr2, {0}
  105f98:	7e600c02 	cdpvc	12, 6, cr0, cr0, cr2, {0}
  105f9c:	7e700c02 	cdpvc	12, 7, cr0, cr0, cr2, {0}
  105fa0:	7e800c02 	cdpvc	12, 8, cr0, cr0, cr2, {0}
  105fa4:	7e900c02 	cdpvc	12, 9, cr0, cr0, cr2, {0}
  105fa8:	7ea00c02 	cdpvc	12, 10, cr0, cr0, cr2, {0}
  105fac:	7eb00c02 	cdpvc	12, 11, cr0, cr0, cr2, {0}
  105fb0:	7ec00c02 	cdpvc	12, 12, cr0, cr0, cr2, {0}
  105fb4:	7ed00c02 	cdpvc	12, 13, cr0, cr0, cr2, {0}
  105fb8:	7ee00c02 	cdpvc	12, 14, cr0, cr0, cr2, {0}
  105fbc:	7ef00c02 	cdpvc	12, 15, cr0, cr0, cr2, {0}
  105fc0:	7f000c02 	svcvc	0x00000c02
  105fc4:	7f100c02 	svcvc	0x00100c02
  105fc8:	7f200c02 	svcvc	0x00200c02
  105fcc:	7f300c02 	svcvc	0x00300c02
  105fd0:	7f400c02 	svcvc	0x00400c02
  105fd4:	7f500c02 	svcvc	0x00500c02
  105fd8:	7f600c02 	svcvc	0x00600c02
  105fdc:	7f700c02 	svcvc	0x00700c02
  105fe0:	7f800c02 	svcvc	0x00800c02
  105fe4:	7f900c02 	svcvc	0x00900c02
  105fe8:	7fa00c02 	svcvc	0x00a00c02
  105fec:	7fb00c02 	svcvc	0x00b00c02
  105ff0:	7fc00c02 	svcvc	0x00c00c02
  105ff4:	7fd00c02 	svcvc	0x00d00c02
  105ff8:	7fe00c02 	svcvc	0x00e00c02
  105ffc:	7ff00c02 	svcvc	0x00f00c02
  106000:	80000c02 	andhi	r0, r0, r2, lsl #24
  106004:	80100c02 	andshi	r0, r0, r2, lsl #24
  106008:	80200c02 	eorhi	r0, r0, r2, lsl #24
  10600c:	80300c02 	eorshi	r0, r0, r2, lsl #24
  106010:	80400c02 	subhi	r0, r0, r2, lsl #24
  106014:	80500c02 	subshi	r0, r0, r2, lsl #24
  106018:	80600c02 	rsbhi	r0, r0, r2, lsl #24
  10601c:	80700c02 	rsbshi	r0, r0, r2, lsl #24
  106020:	80800c02 	addhi	r0, r0, r2, lsl #24
  106024:	80900c02 	addshi	r0, r0, r2, lsl #24
  106028:	80a00c02 	adchi	r0, r0, r2, lsl #24
  10602c:	80b00c02 	adcshi	r0, r0, r2, lsl #24
  106030:	80c00c02 	sbchi	r0, r0, r2, lsl #24
  106034:	80d00c02 	sbcshi	r0, r0, r2, lsl #24
  106038:	80e00c02 	rschi	r0, r0, r2, lsl #24
  10603c:	80f00c02 	rscshi	r0, r0, r2, lsl #24
  106040:	81000c02 	tsthi	r0, r2, lsl #24
  106044:	81100c02 	tsthi	r0, r2, lsl #24
  106048:	81200c02 	teqhi	r0, r2, lsl #24
  10604c:	81300c02 	teqhi	r0, r2, lsl #24
  106050:	81400c02 	cmphi	r0, r2, lsl #24
  106054:	81500c02 	cmphi	r0, r2, lsl #24
  106058:	81600c02 	cmnhi	r0, r2, lsl #24
  10605c:	81700c02 	cmnhi	r0, r2, lsl #24
  106060:	81800c02 	orrhi	r0, r0, r2, lsl #24
  106064:	81900c02 	orrshi	r0, r0, r2, lsl #24
  106068:	81a00c02 	lslhi	r0, r2, #24
  10606c:	81b00c02 	lslshi	r0, r2, #24
  106070:	81c00c02 	bichi	r0, r0, r2, lsl #24
  106074:	81d00c02 	bicshi	r0, r0, r2, lsl #24
  106078:	81e00c02 	mvnhi	r0, r2, lsl #24
  10607c:	81f00c02 	mvnshi	r0, r2, lsl #24
  106080:	82000c02 	andhi	r0, r0, #512	; 0x200
  106084:	82100c02 	andshi	r0, r0, #512	; 0x200
  106088:	82200c02 	eorhi	r0, r0, #512	; 0x200
  10608c:	82300c02 	eorshi	r0, r0, #512	; 0x200
  106090:	82400c02 	subhi	r0, r0, #512	; 0x200
  106094:	82500c02 	subshi	r0, r0, #512	; 0x200
  106098:	82600c02 	rsbhi	r0, r0, #512	; 0x200
  10609c:	82700c02 	rsbshi	r0, r0, #512	; 0x200
  1060a0:	82800c02 	addhi	r0, r0, #512	; 0x200
  1060a4:	82900c02 	addshi	r0, r0, #512	; 0x200
  1060a8:	82a00c02 	adchi	r0, r0, #512	; 0x200
  1060ac:	82b00c02 	adcshi	r0, r0, #512	; 0x200
  1060b0:	82c00c02 	sbchi	r0, r0, #512	; 0x200
  1060b4:	82d00c02 	sbcshi	r0, r0, #512	; 0x200
  1060b8:	82e00c02 	rschi	r0, r0, #512	; 0x200
  1060bc:	82f00c02 	rscshi	r0, r0, #512	; 0x200
  1060c0:	83000c02 	movwhi	r0, #3074	; 0xc02
  1060c4:	83100c02 	tsthi	r0, #512	; 0x200
  1060c8:	83200c02 	teqhi	r0, #512	; 0x200
  1060cc:	83300c02 	teqhi	r0, #512	; 0x200
  1060d0:	83400c02 	movthi	r0, #3074	; 0xc02
  1060d4:	83500c02 	cmphi	r0, #512	; 0x200
  1060d8:	83600c02 	cmnhi	r0, #512	; 0x200
  1060dc:	83700c02 	cmnhi	r0, #512	; 0x200
  1060e0:	83800c02 	orrhi	r0, r0, #512	; 0x200
  1060e4:	83900c02 	orrshi	r0, r0, #512	; 0x200
  1060e8:	83a00c02 	movhi	r0, #512	; 0x200
  1060ec:	83b00c02 	movshi	r0, #512	; 0x200
  1060f0:	83c00c02 	bichi	r0, r0, #512	; 0x200
  1060f4:	83d00c02 	bicshi	r0, r0, #512	; 0x200
  1060f8:	83e00c02 	mvnhi	r0, #512	; 0x200
  1060fc:	83f00c02 	mvnshi	r0, #512	; 0x200
  106100:	84000c02 	strhi	r0, [r0], #-3074	; 0xfffff3fe
  106104:	84100c02 	ldrhi	r0, [r0], #-3074	; 0xfffff3fe
  106108:	84200c02 	strthi	r0, [r0], #-3074	; 0xfffff3fe
  10610c:	84300c02 	ldrthi	r0, [r0], #-3074	; 0xfffff3fe
  106110:	84400c02 	strbhi	r0, [r0], #-3074	; 0xfffff3fe
  106114:	84500c02 	ldrbhi	r0, [r0], #-3074	; 0xfffff3fe
  106118:	84600c02 	strbthi	r0, [r0], #-3074	; 0xfffff3fe
  10611c:	84700c02 	ldrbthi	r0, [r0], #-3074	; 0xfffff3fe
  106120:	84800c02 	strhi	r0, [r0], #3074	; 0xc02
  106124:	84900c02 	ldrhi	r0, [r0], #3074	; 0xc02
  106128:	84a00c02 	strthi	r0, [r0], #3074	; 0xc02
  10612c:	84b00c02 	ldrthi	r0, [r0], #3074	; 0xc02
  106130:	84c00c02 	strbhi	r0, [r0], #3074	; 0xc02
  106134:	84d00c02 	ldrbhi	r0, [r0], #3074	; 0xc02
  106138:	84e00c02 	strbthi	r0, [r0], #3074	; 0xc02
  10613c:	84f00c02 	ldrbthi	r0, [r0], #3074	; 0xc02
  106140:	85000c02 	strhi	r0, [r0, #-3074]	; 0xfffff3fe
  106144:	85100c02 	ldrhi	r0, [r0, #-3074]	; 0xfffff3fe
  106148:	85200c02 	strhi	r0, [r0, #-3074]!	; 0xfffff3fe
  10614c:	85300c02 	ldrhi	r0, [r0, #-3074]!	; 0xfffff3fe
  106150:	85400c02 	strbhi	r0, [r0, #-3074]	; 0xfffff3fe
  106154:	85500c02 	ldrbhi	r0, [r0, #-3074]	; 0xfffff3fe
  106158:	85600c02 	strbhi	r0, [r0, #-3074]!	; 0xfffff3fe
  10615c:	85700c02 	ldrbhi	r0, [r0, #-3074]!	; 0xfffff3fe
  106160:	85800c02 	strhi	r0, [r0, #3074]	; 0xc02
  106164:	85900c02 	ldrhi	r0, [r0, #3074]	; 0xc02
  106168:	85a00c02 	strhi	r0, [r0, #3074]!	; 0xc02
  10616c:	85b00c02 	ldrhi	r0, [r0, #3074]!	; 0xc02
  106170:	85c00c02 	strbhi	r0, [r0, #3074]	; 0xc02
  106174:	85d00c02 	ldrbhi	r0, [r0, #3074]	; 0xc02
  106178:	85e00c02 	strbhi	r0, [r0, #3074]!	; 0xc02
  10617c:	85f00c02 	ldrbhi	r0, [r0, #3074]!	; 0xc02
  106180:	86000c02 	strhi	r0, [r0], -r2, lsl #24
  106184:	86100c02 	ldrhi	r0, [r0], -r2, lsl #24
  106188:	86200c02 	strthi	r0, [r0], -r2, lsl #24
  10618c:	86300c02 	ldrthi	r0, [r0], -r2, lsl #24
  106190:	86400c02 	strbhi	r0, [r0], -r2, lsl #24
  106194:	86500c02 	ldrbhi	r0, [r0], -r2, lsl #24
  106198:	86600c02 	strbthi	r0, [r0], -r2, lsl #24
  10619c:	86700c02 	ldrbthi	r0, [r0], -r2, lsl #24
  1061a0:	86800c02 	strhi	r0, [r0], r2, lsl #24
  1061a4:	86900c02 	ldrhi	r0, [r0], r2, lsl #24
  1061a8:	86a00c02 	strthi	r0, [r0], r2, lsl #24
  1061ac:	86b00c02 	ldrthi	r0, [r0], r2, lsl #24
  1061b0:	86c00c02 	strbhi	r0, [r0], r2, lsl #24
  1061b4:	86d00c02 	ldrbhi	r0, [r0], r2, lsl #24
  1061b8:	86e00c02 	strbthi	r0, [r0], r2, lsl #24
  1061bc:	86f00c02 	ldrbthi	r0, [r0], r2, lsl #24
  1061c0:	87000c02 	strhi	r0, [r0, -r2, lsl #24]
  1061c4:	87100c02 	ldrhi	r0, [r0, -r2, lsl #24]
  1061c8:	87200c02 	strhi	r0, [r0, -r2, lsl #24]!
  1061cc:	87300c02 	ldrhi	r0, [r0, -r2, lsl #24]!
  1061d0:	87400c02 	strbhi	r0, [r0, -r2, lsl #24]
  1061d4:	87500c02 	ldrbhi	r0, [r0, -r2, lsl #24]
  1061d8:	87600c02 	strbhi	r0, [r0, -r2, lsl #24]!
  1061dc:	87700c02 	ldrbhi	r0, [r0, -r2, lsl #24]!
  1061e0:	87800c02 	strhi	r0, [r0, r2, lsl #24]
  1061e4:	87900c02 	ldrhi	r0, [r0, r2, lsl #24]
  1061e8:	87a00c02 	strhi	r0, [r0, r2, lsl #24]!
  1061ec:	87b00c02 	ldrhi	r0, [r0, r2, lsl #24]!
  1061f0:	87c00c02 	strbhi	r0, [r0, r2, lsl #24]
  1061f4:	87d00c02 	ldrbhi	r0, [r0, r2, lsl #24]
  1061f8:	87e00c02 	strbhi	r0, [r0, r2, lsl #24]!
  1061fc:	87f00c02 	ldrbhi	r0, [r0, r2, lsl #24]!
  106200:	88000c02 	stmdahi	r0, {r1, sl, fp}
  106204:	88100c02 	ldmdahi	r0, {r1, sl, fp}
  106208:	88200c02 	stmdahi	r0!, {r1, sl, fp}
  10620c:	88300c02 	ldmdahi	r0!, {r1, sl, fp}
  106210:	88400c02 	stmdahi	r0, {r1, sl, fp}^
  106214:	88500c02 	ldmdahi	r0, {r1, sl, fp}^
  106218:	88600c02 	stmdahi	r0!, {r1, sl, fp}^
  10621c:	88700c02 	ldmdahi	r0!, {r1, sl, fp}^
  106220:	88800c02 	stmhi	r0, {r1, sl, fp}
  106224:	88900c02 	ldmhi	r0, {r1, sl, fp}
  106228:	88a00c02 	stmiahi	r0!, {r1, sl, fp}
  10622c:	88b00c02 	ldmhi	r0!, {r1, sl, fp}
  106230:	88c00c02 	stmiahi	r0, {r1, sl, fp}^
  106234:	88d00c02 	ldmhi	r0, {r1, sl, fp}^
  106238:	88e00c02 	stmiahi	r0!, {r1, sl, fp}^
  10623c:	88f00c02 	ldmhi	r0!, {r1, sl, fp}^
  106240:	89000c02 	stmdbhi	r0, {r1, sl, fp}
  106244:	89100c02 	ldmdbhi	r0, {r1, sl, fp}
  106248:	89200c02 	stmdbhi	r0!, {r1, sl, fp}
  10624c:	89300c02 	ldmdbhi	r0!, {r1, sl, fp}
  106250:	89400c02 	stmdbhi	r0, {r1, sl, fp}^
  106254:	89500c02 	ldmdbhi	r0, {r1, sl, fp}^
  106258:	89600c02 	stmdbhi	r0!, {r1, sl, fp}^
  10625c:	89700c02 	ldmdbhi	r0!, {r1, sl, fp}^
  106260:	89800c02 	stmibhi	r0, {r1, sl, fp}
  106264:	89900c02 	ldmibhi	r0, {r1, sl, fp}
  106268:	89a00c02 	stmibhi	r0!, {r1, sl, fp}
  10626c:	89b00c02 	ldmibhi	r0!, {r1, sl, fp}
  106270:	89c00c02 	stmibhi	r0, {r1, sl, fp}^
  106274:	89d00c02 	ldmibhi	r0, {r1, sl, fp}^
  106278:	89e00c02 	stmibhi	r0!, {r1, sl, fp}^
  10627c:	89f00c02 	ldmibhi	r0!, {r1, sl, fp}^
  106280:	8a000c02 	bhi	109290 <HeapBase+0xad0>
  106284:	8a100c02 	bhi	509294 <__undef_stack+0x3fb2d4>
  106288:	8a200c02 	bhi	909298 <__undef_stack+0x7fb2d8>
  10628c:	8a300c02 	bhi	d0929c <__undef_stack+0xbfb2dc>
  106290:	8a400c02 	bhi	11092a0 <__undef_stack+0xffb2e0>
  106294:	8a500c02 	bhi	15092a4 <__undef_stack+0x13fb2e4>
  106298:	8a600c02 	bhi	19092a8 <__undef_stack+0x17fb2e8>
  10629c:	8a700c02 	bhi	1d092ac <__undef_stack+0x1bfb2ec>
  1062a0:	8a800c02 	bhi	fe1092b0 <LRemap+0x1092a1>
  1062a4:	8a900c02 	bhi	fe5092b4 <LRemap+0x5092a5>
  1062a8:	8aa00c02 	bhi	fe9092b8 <LRemap+0x9092a9>
  1062ac:	8ab00c02 	bhi	fed092bc <LRemap+0xd092ad>
  1062b0:	8ac00c02 	bhi	ff1092c0 <LRemap+0x11092b1>
  1062b4:	8ad00c02 	bhi	ff5092c4 <LRemap+0x15092b5>
  1062b8:	8ae00c02 	bhi	ff9092c8 <LRemap+0x19092b9>
  1062bc:	8af00c02 	bhi	ffd092cc <LRemap+0x1d092bd>
  1062c0:	8b000c02 	blhi	1092d0 <HeapBase+0xb10>
  1062c4:	8b100c02 	blhi	5092d4 <__undef_stack+0x3fb314>
  1062c8:	8b200c02 	blhi	9092d8 <__undef_stack+0x7fb318>
  1062cc:	8b300c02 	blhi	d092dc <__undef_stack+0xbfb31c>
  1062d0:	8b400c02 	blhi	11092e0 <__undef_stack+0xffb320>
  1062d4:	8b500c02 	blhi	15092e4 <__undef_stack+0x13fb324>
  1062d8:	8b600c02 	blhi	19092e8 <__undef_stack+0x17fb328>
  1062dc:	8b700c02 	blhi	1d092ec <__undef_stack+0x1bfb32c>
  1062e0:	8b800c02 	blhi	fe1092f0 <LRemap+0x1092e1>
  1062e4:	8b900c02 	blhi	fe5092f4 <LRemap+0x5092e5>
  1062e8:	8ba00c02 	blhi	fe9092f8 <LRemap+0x9092e9>
  1062ec:	8bb00c02 	blhi	fed092fc <LRemap+0xd092ed>
  1062f0:	8bc00c02 	blhi	ff109300 <LRemap+0x11092f1>
  1062f4:	8bd00c02 	blhi	ff509304 <LRemap+0x15092f5>
  1062f8:	8be00c02 	blhi	ff909308 <LRemap+0x19092f9>
  1062fc:	8bf00c02 	blhi	ffd0930c <LRemap+0x1d092fd>
  106300:	8c000c02 	stchi	12, cr0, [r0], {2}
  106304:	8c100c02 	ldchi	12, cr0, [r0], {2}
  106308:	8c200c02 	stchi	12, cr0, [r0], #-8
  10630c:	8c300c02 	ldchi	12, cr0, [r0], #-8
  106310:	8c400c02 	mcrrhi	12, 0, r0, r0, cr2
  106314:	8c500c02 	mrrchi	12, 0, r0, r0, cr2	; <UNPREDICTABLE>
  106318:	8c600c02 	stclhi	12, cr0, [r0], #-8
  10631c:	8c700c02 	ldclhi	12, cr0, [r0], #-8
  106320:	8c800c02 	stchi	12, cr0, [r0], {2}
  106324:	8c900c02 	ldchi	12, cr0, [r0], {2}
  106328:	8ca00c02 	stchi	12, cr0, [r0], #8
  10632c:	8cb00c02 	ldchi	12, cr0, [r0], #8
  106330:	8cc00c02 	stclhi	12, cr0, [r0], {2}
  106334:	8cd00c02 	ldclhi	12, cr0, [r0], {2}
  106338:	8ce00c02 	stclhi	12, cr0, [r0], #8
  10633c:	8cf00c02 	ldclhi	12, cr0, [r0], #8
  106340:	8d000c02 	stchi	12, cr0, [r0, #-8]
  106344:	8d100c02 	ldchi	12, cr0, [r0, #-8]
  106348:	8d200c02 	stchi	12, cr0, [r0, #-8]!
  10634c:	8d300c02 	ldchi	12, cr0, [r0, #-8]!
  106350:	8d400c02 	stclhi	12, cr0, [r0, #-8]
  106354:	8d500c02 	ldclhi	12, cr0, [r0, #-8]
  106358:	8d600c02 	stclhi	12, cr0, [r0, #-8]!
  10635c:	8d700c02 	ldclhi	12, cr0, [r0, #-8]!
  106360:	8d800c02 	stchi	12, cr0, [r0, #8]
  106364:	8d900c02 	ldchi	12, cr0, [r0, #8]
  106368:	8da00c02 	stchi	12, cr0, [r0, #8]!
  10636c:	8db00c02 	ldchi	12, cr0, [r0, #8]!
  106370:	8dc00c02 	stclhi	12, cr0, [r0, #8]
  106374:	8dd00c02 	ldclhi	12, cr0, [r0, #8]
  106378:	8de00c02 	stclhi	12, cr0, [r0, #8]!
  10637c:	8df00c02 	ldclhi	12, cr0, [r0, #8]!
  106380:	8e000c02 	cdphi	12, 0, cr0, cr0, cr2, {0}
  106384:	8e100c02 	cdphi	12, 1, cr0, cr0, cr2, {0}
  106388:	8e200c02 	cdphi	12, 2, cr0, cr0, cr2, {0}
  10638c:	8e300c02 	cdphi	12, 3, cr0, cr0, cr2, {0}
  106390:	8e400c02 	cdphi	12, 4, cr0, cr0, cr2, {0}
  106394:	8e500c02 	cdphi	12, 5, cr0, cr0, cr2, {0}
  106398:	8e600c02 	cdphi	12, 6, cr0, cr0, cr2, {0}
  10639c:	8e700c02 	cdphi	12, 7, cr0, cr0, cr2, {0}
  1063a0:	8e800c02 	cdphi	12, 8, cr0, cr0, cr2, {0}
  1063a4:	8e900c02 	cdphi	12, 9, cr0, cr0, cr2, {0}
  1063a8:	8ea00c02 	cdphi	12, 10, cr0, cr0, cr2, {0}
  1063ac:	8eb00c02 	cdphi	12, 11, cr0, cr0, cr2, {0}
  1063b0:	8ec00c02 	cdphi	12, 12, cr0, cr0, cr2, {0}
  1063b4:	8ed00c02 	cdphi	12, 13, cr0, cr0, cr2, {0}
  1063b8:	8ee00c02 	cdphi	12, 14, cr0, cr0, cr2, {0}
  1063bc:	8ef00c02 	cdphi	12, 15, cr0, cr0, cr2, {0}
  1063c0:	8f000c02 	svchi	0x00000c02
  1063c4:	8f100c02 	svchi	0x00100c02
  1063c8:	8f200c02 	svchi	0x00200c02
  1063cc:	8f300c02 	svchi	0x00300c02
  1063d0:	8f400c02 	svchi	0x00400c02
  1063d4:	8f500c02 	svchi	0x00500c02
  1063d8:	8f600c02 	svchi	0x00600c02
  1063dc:	8f700c02 	svchi	0x00700c02
  1063e0:	8f800c02 	svchi	0x00800c02
  1063e4:	8f900c02 	svchi	0x00900c02
  1063e8:	8fa00c02 	svchi	0x00a00c02
  1063ec:	8fb00c02 	svchi	0x00b00c02
  1063f0:	8fc00c02 	svchi	0x00c00c02
  1063f4:	8fd00c02 	svchi	0x00d00c02
  1063f8:	8fe00c02 	svchi	0x00e00c02
  1063fc:	8ff00c02 	svchi	0x00f00c02
  106400:	90000c02 	andls	r0, r0, r2, lsl #24
  106404:	90100c02 	andsls	r0, r0, r2, lsl #24
  106408:	90200c02 	eorls	r0, r0, r2, lsl #24
  10640c:	90300c02 	eorsls	r0, r0, r2, lsl #24
  106410:	90400c02 	subls	r0, r0, r2, lsl #24
  106414:	90500c02 	subsls	r0, r0, r2, lsl #24
  106418:	90600c02 	rsbls	r0, r0, r2, lsl #24
  10641c:	90700c02 	rsbsls	r0, r0, r2, lsl #24
  106420:	90800c02 	addls	r0, r0, r2, lsl #24
  106424:	90900c02 	addsls	r0, r0, r2, lsl #24
  106428:	90a00c02 	adcls	r0, r0, r2, lsl #24
  10642c:	90b00c02 	adcsls	r0, r0, r2, lsl #24
  106430:	90c00c02 	sbcls	r0, r0, r2, lsl #24
  106434:	90d00c02 	sbcsls	r0, r0, r2, lsl #24
  106438:	90e00c02 	rscls	r0, r0, r2, lsl #24
  10643c:	90f00c02 	rscsls	r0, r0, r2, lsl #24
  106440:	91000c02 	tstls	r0, r2, lsl #24
  106444:	91100c02 	tstls	r0, r2, lsl #24
  106448:	91200c02 	teqls	r0, r2, lsl #24
  10644c:	91300c02 	teqls	r0, r2, lsl #24
  106450:	91400c02 	cmpls	r0, r2, lsl #24
  106454:	91500c02 	cmpls	r0, r2, lsl #24
  106458:	91600c02 	cmnls	r0, r2, lsl #24
  10645c:	91700c02 	cmnls	r0, r2, lsl #24
  106460:	91800c02 	orrls	r0, r0, r2, lsl #24
  106464:	91900c02 	orrsls	r0, r0, r2, lsl #24
  106468:	91a00c02 	lslls	r0, r2, #24
  10646c:	91b00c02 	lslsls	r0, r2, #24
  106470:	91c00c02 	bicls	r0, r0, r2, lsl #24
  106474:	91d00c02 	bicsls	r0, r0, r2, lsl #24
  106478:	91e00c02 	mvnls	r0, r2, lsl #24
  10647c:	91f00c02 	mvnsls	r0, r2, lsl #24
  106480:	92000c02 	andls	r0, r0, #512	; 0x200
  106484:	92100c02 	andsls	r0, r0, #512	; 0x200
  106488:	92200c02 	eorls	r0, r0, #512	; 0x200
  10648c:	92300c02 	eorsls	r0, r0, #512	; 0x200
  106490:	92400c02 	subls	r0, r0, #512	; 0x200
  106494:	92500c02 	subsls	r0, r0, #512	; 0x200
  106498:	92600c02 	rsbls	r0, r0, #512	; 0x200
  10649c:	92700c02 	rsbsls	r0, r0, #512	; 0x200
  1064a0:	92800c02 	addls	r0, r0, #512	; 0x200
  1064a4:	92900c02 	addsls	r0, r0, #512	; 0x200
  1064a8:	92a00c02 	adcls	r0, r0, #512	; 0x200
  1064ac:	92b00c02 	adcsls	r0, r0, #512	; 0x200
  1064b0:	92c00c02 	sbcls	r0, r0, #512	; 0x200
  1064b4:	92d00c02 	sbcsls	r0, r0, #512	; 0x200
  1064b8:	92e00c02 	rscls	r0, r0, #512	; 0x200
  1064bc:	92f00c02 	rscsls	r0, r0, #512	; 0x200
  1064c0:	93000c02 	movwls	r0, #3074	; 0xc02
  1064c4:	93100c02 	tstls	r0, #512	; 0x200
  1064c8:	93200c02 	teqls	r0, #512	; 0x200
  1064cc:	93300c02 	teqls	r0, #512	; 0x200
  1064d0:	93400c02 	movtls	r0, #3074	; 0xc02
  1064d4:	93500c02 	cmpls	r0, #512	; 0x200
  1064d8:	93600c02 	cmnls	r0, #512	; 0x200
  1064dc:	93700c02 	cmnls	r0, #512	; 0x200
  1064e0:	93800c02 	orrls	r0, r0, #512	; 0x200
  1064e4:	93900c02 	orrsls	r0, r0, #512	; 0x200
  1064e8:	93a00c02 	movls	r0, #512	; 0x200
  1064ec:	93b00c02 	movsls	r0, #512	; 0x200
  1064f0:	93c00c02 	bicls	r0, r0, #512	; 0x200
  1064f4:	93d00c02 	bicsls	r0, r0, #512	; 0x200
  1064f8:	93e00c02 	mvnls	r0, #512	; 0x200
  1064fc:	93f00c02 	mvnsls	r0, #512	; 0x200
  106500:	94000c02 	strls	r0, [r0], #-3074	; 0xfffff3fe
  106504:	94100c02 	ldrls	r0, [r0], #-3074	; 0xfffff3fe
  106508:	94200c02 	strtls	r0, [r0], #-3074	; 0xfffff3fe
  10650c:	94300c02 	ldrtls	r0, [r0], #-3074	; 0xfffff3fe
  106510:	94400c02 	strbls	r0, [r0], #-3074	; 0xfffff3fe
  106514:	94500c02 	ldrbls	r0, [r0], #-3074	; 0xfffff3fe
  106518:	94600c02 	strbtls	r0, [r0], #-3074	; 0xfffff3fe
  10651c:	94700c02 	ldrbtls	r0, [r0], #-3074	; 0xfffff3fe
  106520:	94800c02 	strls	r0, [r0], #3074	; 0xc02
  106524:	94900c02 	ldrls	r0, [r0], #3074	; 0xc02
  106528:	94a00c02 	strtls	r0, [r0], #3074	; 0xc02
  10652c:	94b00c02 	ldrtls	r0, [r0], #3074	; 0xc02
  106530:	94c00c02 	strbls	r0, [r0], #3074	; 0xc02
  106534:	94d00c02 	ldrbls	r0, [r0], #3074	; 0xc02
  106538:	94e00c02 	strbtls	r0, [r0], #3074	; 0xc02
  10653c:	94f00c02 	ldrbtls	r0, [r0], #3074	; 0xc02
  106540:	95000c02 	strls	r0, [r0, #-3074]	; 0xfffff3fe
  106544:	95100c02 	ldrls	r0, [r0, #-3074]	; 0xfffff3fe
  106548:	95200c02 	strls	r0, [r0, #-3074]!	; 0xfffff3fe
