
AesClockCycles.elf:     file format elf32-littlearm


Disassembly of section .text:

00100000 <_vector_table>:
  100000:	ea00003d 	b	1000fc <_boot>
  100004:	ea000025 	b	1000a0 <Undefined>
  100008:	ea000028 	b	1000b0 <SVCHandler>
  10000c:	ea000035 	b	1000e8 <PrefetchAbortHandler>
  100010:	ea00002f 	b	1000d4 <DataAbortHandler>
  100014:	e320f000 	nop	{0}
  100018:	ea000000 	b	100020 <IRQHandler>
  10001c:	ea00000f 	b	100060 <FIQHandler>

00100020 <IRQHandler>:
  100020:	e92d500f 	push	{r0, r1, r2, r3, ip, lr}
  100024:	ed2d0b10 	vpush	{d0-d7}
  100028:	ed6d0b20 	vpush	{d16-d31}
  10002c:	eef11a10 	vmrs	r1, fpscr
  100030:	e52d1004 	push	{r1}		; (str r1, [sp, #-4]!)
  100034:	eef81a10 	vmrs	r1, fpexc
  100038:	e52d1004 	push	{r1}		; (str r1, [sp, #-4]!)
  10003c:	eb001319 	bl	104ca8 <IRQInterrupt>
  100040:	e49d1004 	pop	{r1}		; (ldr r1, [sp], #4)
  100044:	eee81a10 	vmsr	fpexc, r1
  100048:	e49d1004 	pop	{r1}		; (ldr r1, [sp], #4)
  10004c:	eee11a10 	vmsr	fpscr, r1
  100050:	ecfd0b20 	vpop	{d16-d31}
  100054:	ecbd0b10 	vpop	{d0-d7}
  100058:	e8bd500f 	pop	{r0, r1, r2, r3, ip, lr}
  10005c:	e25ef004 	subs	pc, lr, #4

00100060 <FIQHandler>:
  100060:	e92d500f 	push	{r0, r1, r2, r3, ip, lr}
  100064:	ed2d0b10 	vpush	{d0-d7}
  100068:	ed6d0b20 	vpush	{d16-d31}
  10006c:	eef11a10 	vmrs	r1, fpscr
  100070:	e52d1004 	push	{r1}		; (str r1, [sp, #-4]!)
  100074:	eef81a10 	vmrs	r1, fpexc
  100078:	e52d1004 	push	{r1}		; (str r1, [sp, #-4]!)

0010007c <FIQLoop>:
  10007c:	eb001302 	bl	104c8c <FIQInterrupt>
  100080:	e49d1004 	pop	{r1}		; (ldr r1, [sp], #4)
  100084:	eee81a10 	vmsr	fpexc, r1
  100088:	e49d1004 	pop	{r1}		; (ldr r1, [sp], #4)
  10008c:	eee11a10 	vmsr	fpscr, r1
  100090:	ecfd0b20 	vpop	{d16-d31}
  100094:	ecbd0b10 	vpop	{d0-d7}
  100098:	e8bd500f 	pop	{r0, r1, r2, r3, ip, lr}
  10009c:	e25ef004 	subs	pc, lr, #4

001000a0 <Undefined>:
  1000a0:	e92d500f 	push	{r0, r1, r2, r3, ip, lr}
  1000a4:	e8bd500f 	pop	{r0, r1, r2, r3, ip, lr}
  1000a8:	ea000013 	b	1000fc <_boot>
  1000ac:	e1b0f00e 	movs	pc, lr

001000b0 <SVCHandler>:
  1000b0:	e92d500f 	push	{r0, r1, r2, r3, ip, lr}
  1000b4:	e3100020 	tst	r0, #32
  1000b8:	115e00b2 	ldrhne	r0, [lr, #-2]
  1000bc:	13c00cff 	bicne	r0, r0, #65280	; 0xff00
  1000c0:	051e0004 	ldreq	r0, [lr, #-4]
  1000c4:	03c004ff 	biceq	r0, r0, #-16777216	; 0xff000000
  1000c8:	eb0012fd 	bl	104cc4 <SWInterrupt>
  1000cc:	e8bd500f 	pop	{r0, r1, r2, r3, ip, lr}
  1000d0:	e1b0f00e 	movs	pc, lr

001000d4 <DataAbortHandler>:
  1000d4:	f57ff04f 	dsb	sy
  1000d8:	e92d500f 	push	{r0, r1, r2, r3, ip, lr}
  1000dc:	eb0012ff 	bl	104ce0 <DataAbortInterrupt>
  1000e0:	e8bd500f 	pop	{r0, r1, r2, r3, ip, lr}
  1000e4:	e25ef008 	subs	pc, lr, #8

001000e8 <PrefetchAbortHandler>:
  1000e8:	f57ff04f 	dsb	sy
  1000ec:	e92d500f 	push	{r0, r1, r2, r3, ip, lr}
  1000f0:	eb001301 	bl	104cfc <PrefetchAbortInterrupt>
  1000f4:	e8bd500f 	pop	{r0, r1, r2, r3, ip, lr}
  1000f8:	e25ef004 	subs	pc, lr, #4

001000fc <_boot>:
  1000fc:	ee101fb0 	mrc	15, 0, r1, cr0, cr0, {5}
  100100:	e201100f 	and	r1, r1, #15
  100104:	e3510000 	cmp	r1, #0
  100108:	0a000001 	beq	100114 <OKToRun>

0010010c <EndlessLoop0>:
  10010c:	e320f002 	wfe
  100110:	eafffffd 	b	10010c <EndlessLoop0>

00100114 <OKToRun>:
  100114:	ee100f10 	mrc	15, 0, r0, cr0, cr0, {0}
  100118:	e200560f 	and	r5, r0, #15728640	; 0xf00000
  10011c:	e200600f 	and	r6, r0, #15
  100120:	e1866825 	orr	r6, r6, r5, lsr #16
  100124:	e3560022 	cmp	r6, #34	; 0x22
  100128:	de1faf30 	mrcle	15, 0, sl, cr15, cr0, {1}
  10012c:	d38aa010 	orrle	sl, sl, #16
  100130:	de0faf30 	mcrle	15, 0, sl, cr15, cr0, {1}
  100134:	e3350602 	teq	r5, #2097152	; 0x200000
  100138:	0e1faf30 	mrceq	15, 0, sl, cr15, cr0, {1}
  10013c:	038aa040 	orreq	sl, sl, #64	; 0x40
  100140:	0e0faf30 	mcreq	15, 0, sl, cr15, cr0, {1}
  100144:	e59f027c 	ldr	r0, [pc, #636]	; 1003c8 <finished+0x14>
  100148:	ee0c0f10 	mcr	15, 0, r0, cr12, cr0, {0}
  10014c:	e59f7278 	ldr	r7, [pc, #632]	; 1003cc <finished+0x18>
  100150:	e5970000 	ldr	r0, [r7]
  100154:	e3800001 	orr	r0, r0, #1
  100158:	e5870000 	str	r0, [r7]
  10015c:	e59f726c 	ldr	r7, [pc, #620]	; 1003d0 <finished+0x1c>
  100160:	e59f626c 	ldr	r6, [pc, #620]	; 1003d4 <finished+0x20>
  100164:	e5876000 	str	r6, [r7]
  100168:	ee110f30 	mrc	15, 0, r0, cr1, cr0, {1}
  10016c:	e3800040 	orr	r0, r0, #64	; 0x40
  100170:	e3800001 	orr	r0, r0, #1
  100174:	ee010f30 	mcr	15, 0, r0, cr1, cr0, {1}
  100178:	e3a00000 	mov	r0, #0
  10017c:	ee080f17 	mcr	15, 0, r0, cr8, cr7, {0}
  100180:	ee070f15 	mcr	15, 0, r0, cr7, cr5, {0}
  100184:	ee070fd5 	mcr	15, 0, r0, cr7, cr5, {6}
  100188:	eb00006a 	bl	100338 <invalidate_dcache>
  10018c:	e59f0244 	ldr	r0, [pc, #580]	; 1003d8 <finished+0x24>
  100190:	e3a01000 	mov	r1, #0
  100194:	e5801000 	str	r1, [r0]
  100198:	e59f023c 	ldr	r0, [pc, #572]	; 1003dc <finished+0x28>
  10019c:	e5901000 	ldr	r1, [r0]
  1001a0:	e59f2238 	ldr	r2, [pc, #568]	; 1003e0 <finished+0x2c>
  1001a4:	e1811002 	orr	r1, r1, r2
  1001a8:	e5801000 	str	r1, [r0]
  1001ac:	e59f0230 	ldr	r0, [pc, #560]	; 1003e4 <finished+0x30>
  1001b0:	e59f1230 	ldr	r1, [pc, #560]	; 1003e8 <finished+0x34>
  1001b4:	e5801000 	str	r1, [r0]
  1001b8:	e59f022c 	ldr	r0, [pc, #556]	; 1003ec <finished+0x38>
  1001bc:	e59f122c 	ldr	r1, [pc, #556]	; 1003f0 <finished+0x3c>
  1001c0:	e5801000 	str	r1, [r0]
  1001c4:	e59f0228 	ldr	r0, [pc, #552]	; 1003f4 <finished+0x40>
  1001c8:	e59f2204 	ldr	r2, [pc, #516]	; 1003d4 <finished+0x20>
  1001cc:	e5802000 	str	r2, [r0]
  1001d0:	e59f0220 	ldr	r0, [pc, #544]	; 1003f8 <finished+0x44>

001001d4 <Sync>:
  1001d4:	e5901000 	ldr	r1, [r0]
  1001d8:	e3510000 	cmp	r1, #0
  1001dc:	1afffffc 	bne	1001d4 <Sync>
  1001e0:	e59f0214 	ldr	r0, [pc, #532]	; 1003fc <finished+0x48>
  1001e4:	e5901000 	ldr	r1, [r0]
  1001e8:	e59f0210 	ldr	r0, [pc, #528]	; 100400 <finished+0x4c>
  1001ec:	e5801000 	str	r1, [r0]
  1001f0:	ee110f10 	mrc	15, 0, r0, cr1, cr0, {0}
  1001f4:	e3c00001 	bic	r0, r0, #1
  1001f8:	ee010f10 	mcr	15, 0, r0, cr1, cr0, {0}
  1001fc:	e10f0000 	mrs	r0, CPSR
  100200:	e3e0101f 	mvn	r1, #31
  100204:	e0012000 	and	r2, r1, r0
  100208:	e3822012 	orr	r2, r2, #18
  10020c:	e129f002 	msr	CPSR_fc, r2
  100210:	e59fd1ec 	ldr	sp, [pc, #492]	; 100404 <finished+0x50>
  100214:	e10f0000 	mrs	r0, CPSR
  100218:	e3e0101f 	mvn	r1, #31
  10021c:	e0012000 	and	r2, r1, r0
  100220:	e3822013 	orr	r2, r2, #19
  100224:	e129f002 	msr	CPSR_fc, r2
  100228:	e59fd1d8 	ldr	sp, [pc, #472]	; 100408 <finished+0x54>
  10022c:	e10f0000 	mrs	r0, CPSR
  100230:	e3e0101f 	mvn	r1, #31
  100234:	e0012000 	and	r2, r1, r0
  100238:	e3822017 	orr	r2, r2, #23
  10023c:	e129f002 	msr	CPSR_fc, r2
  100240:	e59fd1c4 	ldr	sp, [pc, #452]	; 10040c <finished+0x58>
  100244:	e10f0000 	mrs	r0, CPSR
  100248:	e3e0101f 	mvn	r1, #31
  10024c:	e0012000 	and	r2, r1, r0
  100250:	e3822011 	orr	r2, r2, #17
  100254:	e129f002 	msr	CPSR_fc, r2
  100258:	e59fd1b0 	ldr	sp, [pc, #432]	; 100410 <finished+0x5c>
  10025c:	e10f0000 	mrs	r0, CPSR
  100260:	e3e0101f 	mvn	r1, #31
  100264:	e0012000 	and	r2, r1, r0
  100268:	e382201b 	orr	r2, r2, #27
  10026c:	e129f002 	msr	CPSR_fc, r2
  100270:	e59fd19c 	ldr	sp, [pc, #412]	; 100414 <finished+0x60>
  100274:	e10f0000 	mrs	r0, CPSR
  100278:	e3e0101f 	mvn	r1, #31
  10027c:	e0012000 	and	r2, r1, r0
  100280:	e382201f 	orr	r2, r2, #31
  100284:	e129f002 	msr	CPSR_fc, r2
  100288:	e59fd188 	ldr	sp, [pc, #392]	; 100418 <finished+0x64>
  10028c:	e59f0188 	ldr	r0, [pc, #392]	; 10041c <finished+0x68>
  100290:	e380005b 	orr	r0, r0, #91	; 0x5b
  100294:	ee020f10 	mcr	15, 0, r0, cr2, cr0, {0}
  100298:	e3e00000 	mvn	r0, #0
  10029c:	ee030f10 	mcr	15, 0, r0, cr3, cr0, {0}
  1002a0:	e59f0178 	ldr	r0, [pc, #376]	; 100420 <finished+0x6c>
  1002a4:	ee010f10 	mcr	15, 0, r0, cr1, cr0, {0}
  1002a8:	f57ff04f 	dsb	sy
  1002ac:	f57ff06f 	isb	sy
  1002b0:	e59f016c 	ldr	r0, [pc, #364]	; 100424 <finished+0x70>
  1002b4:	e59f116c 	ldr	r1, [pc, #364]	; 100428 <finished+0x74>
  1002b8:	e5801000 	str	r1, [r0]
  1002bc:	e59f0168 	ldr	r0, [pc, #360]	; 10042c <finished+0x78>
  1002c0:	e59f1168 	ldr	r1, [pc, #360]	; 100430 <finished+0x7c>
  1002c4:	e5801000 	str	r1, [r0]
  1002c8:	e59f0164 	ldr	r0, [pc, #356]	; 100434 <finished+0x80>
  1002cc:	e59f1164 	ldr	r1, [pc, #356]	; 100438 <finished+0x84>
  1002d0:	e5801000 	str	r1, [r0]
  1002d4:	e59f00fc 	ldr	r0, [pc, #252]	; 1003d8 <finished+0x24>
  1002d8:	e5901000 	ldr	r1, [r0]
  1002dc:	e3a02001 	mov	r2, #1
  1002e0:	e1811002 	orr	r1, r1, r2
  1002e4:	e5801000 	str	r1, [r0]
  1002e8:	e1a00000 	nop			; (mov r0, r0)
  1002ec:	ee111f50 	mrc	15, 0, r1, cr1, cr0, {2}
  1002f0:	e381160f 	orr	r1, r1, #15728640	; 0xf00000
  1002f4:	ee011f50 	mcr	15, 0, r1, cr1, cr0, {2}
  1002f8:	eef81a10 	vmrs	r1, fpexc
  1002fc:	e3811101 	orr	r1, r1, #1073741824	; 0x40000000
  100300:	eee81a10 	vmsr	fpexc, r1
  100304:	ee110f10 	mrc	15, 0, r0, cr1, cr0, {0}
  100308:	e3800b02 	orr	r0, r0, #2048	; 0x800
  10030c:	ee010f10 	mcr	15, 0, r0, cr1, cr0, {0}
  100310:	ee110f30 	mrc	15, 0, r0, cr1, cr0, {1}
  100314:	e3800004 	orr	r0, r0, #4
  100318:	e3800002 	orr	r0, r0, #2
  10031c:	ee010f30 	mcr	15, 0, r0, cr1, cr0, {1}
  100320:	e10f0000 	mrs	r0, CPSR
  100324:	e3c00c01 	bic	r0, r0, #256	; 0x100
  100328:	e12ef000 	msr	CPSR_fsx, r0
  10032c:	ea00127e 	b	104d2c <_start>
  100330:	e0000000 	and	r0, r0, r0
  100334:	eafffffe 	b	100334 <Sync+0x160>

00100338 <invalidate_dcache>:
  100338:	ee300f30 	mrc	15, 1, r0, cr0, cr0, {1}
  10033c:	e2103407 	ands	r3, r0, #117440512	; 0x7000000
  100340:	e1a03ba3 	lsr	r3, r3, #23
  100344:	0a00001a 	beq	1003b4 <finished>
  100348:	e3a0a000 	mov	sl, #0

0010034c <loop1>:
  10034c:	e08a20aa 	add	r2, sl, sl, lsr #1
  100350:	e1a01230 	lsr	r1, r0, r2
  100354:	e2011007 	and	r1, r1, #7
  100358:	e3510002 	cmp	r1, #2
  10035c:	ba000011 	blt	1003a8 <skip>
  100360:	ee40af10 	mcr	15, 2, sl, cr0, cr0, {0}
  100364:	f57ff06f 	isb	sy
  100368:	ee301f10 	mrc	15, 1, r1, cr0, cr0, {0}
  10036c:	e2012007 	and	r2, r1, #7
  100370:	e2822004 	add	r2, r2, #4
  100374:	e59f40c0 	ldr	r4, [pc, #192]	; 10043c <finished+0x88>
  100378:	e01441a1 	ands	r4, r4, r1, lsr #3
  10037c:	e16f5f14 	clz	r5, r4
  100380:	e59f70b8 	ldr	r7, [pc, #184]	; 100440 <finished+0x8c>
  100384:	e01776a1 	ands	r7, r7, r1, lsr #13

00100388 <loop2>:
  100388:	e1a09004 	mov	r9, r4

0010038c <loop3>:
  10038c:	e18ab519 	orr	fp, sl, r9, lsl r5
  100390:	e18bb217 	orr	fp, fp, r7, lsl r2
  100394:	ee07bf56 	mcr	15, 0, fp, cr7, cr6, {2}
  100398:	e2599001 	subs	r9, r9, #1
  10039c:	aafffffa 	bge	10038c <loop3>
  1003a0:	e2577001 	subs	r7, r7, #1
  1003a4:	aafffff7 	bge	100388 <loop2>

001003a8 <skip>:
  1003a8:	e28aa002 	add	sl, sl, #2
  1003ac:	e153000a 	cmp	r3, sl
  1003b0:	caffffe5 	bgt	10034c <loop1>

001003b4 <finished>:
  1003b4:	e3a0a000 	mov	sl, #0
  1003b8:	ee40af10 	mcr	15, 2, sl, cr0, cr0, {0}
  1003bc:	f57ff04f 	dsb	sy
  1003c0:	f57ff06f 	isb	sy
  1003c4:	e12fff1e 	bx	lr
  1003c8:	00100000 	andseq	r0, r0, r0
  1003cc:	f8f00000 			; <UNDEFINED> instruction: 0xf8f00000
  1003d0:	f8f0000c 			; <UNDEFINED> instruction: 0xf8f0000c
  1003d4:	0000ffff 	strdeq	pc, [r0], -pc	; <UNPREDICTABLE>
  1003d8:	f8f02100 			; <UNDEFINED> instruction: 0xf8f02100
  1003dc:	f8f02104 			; <UNDEFINED> instruction: 0xf8f02104
  1003e0:	72360000 	eorsvc	r0, r6, #0
  1003e4:	f8f02108 			; <UNDEFINED> instruction: 0xf8f02108
  1003e8:	00000111 	andeq	r0, r0, r1, lsl r1
  1003ec:	f8f0210c 			; <UNDEFINED> instruction: 0xf8f0210c
  1003f0:	00000121 	andeq	r0, r0, r1, lsr #2
  1003f4:	f8f0277c 			; <UNDEFINED> instruction: 0xf8f0277c
  1003f8:	f8f02730 			; <UNDEFINED> instruction: 0xf8f02730
  1003fc:	f8f0221c 			; <UNDEFINED> instruction: 0xf8f0221c
  100400:	f8f02220 			; <UNDEFINED> instruction: 0xf8f02220
  100404:	00110bc0 	andseq	r0, r1, r0, asr #23
  100408:	001113c0 	andseq	r1, r1, r0, asr #7
  10040c:	001117c0 	andseq	r1, r1, r0, asr #15
  100410:	00111bc0 	andseq	r1, r1, r0, asr #23
  100414:	00111fc0 	andseq	r1, r1, r0, asr #31
  100418:	001107c0 	andseq	r0, r1, r0, asr #15
  10041c:	00108000 	andseq	r8, r0, r0
  100420:	00001005 	andeq	r1, r0, r5
  100424:	f8000008 			; <UNDEFINED> instruction: 0xf8000008
  100428:	0000df0d 	andeq	sp, r0, sp, lsl #30
  10042c:	f8000a1c 			; <UNDEFINED> instruction: 0xf8000a1c
  100430:	00020202 	andeq	r0, r2, r2, lsl #4
  100434:	f8000004 			; <UNDEFINED> instruction: 0xf8000004
  100438:	0000767b 	andeq	r7, r0, fp, ror r6
  10043c:	000003ff 	strdeq	r0, [r0], -pc	; <UNPREDICTABLE>
  100440:	00007fff 	strdeq	r7, [r0], -pc	; <UNPREDICTABLE>

00100444 <deregister_tm_clones>:
  100444:	e92d4008 	push	{r3, lr}
  100448:	e3060e2c 	movw	r0, #28204	; 0x6e2c
  10044c:	e59f3024 	ldr	r3, [pc, #36]	; 100478 <deregister_tm_clones+0x34>
  100450:	e3400010 	movt	r0, #16
  100454:	e0603003 	rsb	r3, r0, r3
  100458:	e3530006 	cmp	r3, #6
  10045c:	98bd8008 	popls	{r3, pc}
  100460:	e3003000 	movw	r3, #0
  100464:	e3403000 	movt	r3, #0
  100468:	e3530000 	cmp	r3, #0
  10046c:	08bd8008 	popeq	{r3, pc}
  100470:	e12fff33 	blx	r3
  100474:	e8bd8008 	pop	{r3, pc}
  100478:	00106e2f 	andseq	r6, r0, pc, lsr #28

0010047c <register_tm_clones>:
  10047c:	e92d4008 	push	{r3, lr}
  100480:	e3060e2c 	movw	r0, #28204	; 0x6e2c
  100484:	e3063e2c 	movw	r3, #28204	; 0x6e2c
  100488:	e3400010 	movt	r0, #16
  10048c:	e3403010 	movt	r3, #16
  100490:	e0603003 	rsb	r3, r0, r3
  100494:	e1a03143 	asr	r3, r3, #2
  100498:	e0833fa3 	add	r3, r3, r3, lsr #31
  10049c:	e1b010c3 	asrs	r1, r3, #1
  1004a0:	08bd8008 	popeq	{r3, pc}
  1004a4:	e3002000 	movw	r2, #0
  1004a8:	e3402000 	movt	r2, #0
  1004ac:	e3520000 	cmp	r2, #0
  1004b0:	08bd8008 	popeq	{r3, pc}
  1004b4:	e12fff32 	blx	r2
  1004b8:	e8bd8008 	pop	{r3, pc}

001004bc <__do_global_dtors_aux>:
  1004bc:	e92d4010 	push	{r4, lr}
  1004c0:	e30c400c 	movw	r4, #49164	; 0xc00c
  1004c4:	e3404010 	movt	r4, #16
  1004c8:	e5d43000 	ldrb	r3, [r4]
  1004cc:	e3530000 	cmp	r3, #0
  1004d0:	18bd8010 	popne	{r4, pc}
  1004d4:	ebffffda 	bl	100444 <deregister_tm_clones>
  1004d8:	e3003000 	movw	r3, #0
  1004dc:	e3403000 	movt	r3, #0
  1004e0:	e3530000 	cmp	r3, #0
  1004e4:	0a000002 	beq	1004f4 <__do_global_dtors_aux+0x38>
  1004e8:	e3060e2c 	movw	r0, #28204	; 0x6e2c
  1004ec:	e3400010 	movt	r0, #16
  1004f0:	e320f000 	nop	{0}
  1004f4:	e3a03001 	mov	r3, #1
  1004f8:	e5c43000 	strb	r3, [r4]
  1004fc:	e8bd8010 	pop	{r4, pc}

00100500 <frame_dummy>:
  100500:	e92d4008 	push	{r3, lr}
  100504:	e3003000 	movw	r3, #0
  100508:	e3403000 	movt	r3, #0
  10050c:	e3530000 	cmp	r3, #0
  100510:	0a000004 	beq	100528 <frame_dummy+0x28>
  100514:	e3060e2c 	movw	r0, #28204	; 0x6e2c
  100518:	e30c1010 	movw	r1, #49168	; 0xc010
  10051c:	e3400010 	movt	r0, #16
  100520:	e3401010 	movt	r1, #16
  100524:	e320f000 	nop	{0}
  100528:	e3060e28 	movw	r0, #28200	; 0x6e28
  10052c:	e3400010 	movt	r0, #16
  100530:	e5903000 	ldr	r3, [r0]
  100534:	e3530000 	cmp	r3, #0
  100538:	0a000004 	beq	100550 <frame_dummy+0x50>
  10053c:	e3003000 	movw	r3, #0
  100540:	e3403000 	movt	r3, #0
  100544:	e3530000 	cmp	r3, #0
  100548:	0a000000 	beq	100550 <frame_dummy+0x50>
  10054c:	e12fff33 	blx	r3
  100550:	e8bd4008 	pop	{r3, lr}
  100554:	eaffffc8 	b	10047c <register_tm_clones>

00100558 <aes_main>:
  100558:	e92d4800 	push	{fp, lr}
  10055c:	e28db004 	add	fp, sp, #4
  100560:	e24dd018 	sub	sp, sp, #24
  100564:	e50b0010 	str	r0, [fp, #-16]
  100568:	e50b1014 	str	r1, [fp, #-20]	; 0xffffffec
  10056c:	e50b2018 	str	r2, [fp, #-24]	; 0xffffffe8
  100570:	e51b0014 	ldr	r0, [fp, #-20]	; 0xffffffec
  100574:	e51b1018 	ldr	r1, [fp, #-24]	; 0xffffffe8
  100578:	e30f2480 	movw	r2, #62592	; 0xf480
  10057c:	e3402001 	movt	r2, #1
  100580:	eb0000da 	bl	1008f0 <encrypt>
  100584:	e3a03000 	mov	r3, #0
  100588:	e50b3008 	str	r3, [fp, #-8]
  10058c:	ea00000c 	b	1005c4 <aes_main+0x6c>
  100590:	e51b3008 	ldr	r3, [fp, #-8]
  100594:	e1a03103 	lsl	r3, r3, #2
  100598:	e51b2010 	ldr	r2, [fp, #-16]
  10059c:	e0823003 	add	r3, r2, r3
  1005a0:	e51b2008 	ldr	r2, [fp, #-8]
  1005a4:	e1a02102 	lsl	r2, r2, #2
  1005a8:	e51b1014 	ldr	r1, [fp, #-20]	; 0xffffffec
  1005ac:	e0812002 	add	r2, r1, r2
  1005b0:	e5922000 	ldr	r2, [r2]
  1005b4:	e5832000 	str	r2, [r3]
  1005b8:	e51b3008 	ldr	r3, [fp, #-8]
  1005bc:	e2833001 	add	r3, r3, #1
  1005c0:	e50b3008 	str	r3, [fp, #-8]
  1005c4:	e51b3008 	ldr	r3, [fp, #-8]
  1005c8:	e353000f 	cmp	r3, #15
  1005cc:	daffffef 	ble	100590 <aes_main+0x38>
  1005d0:	e51b0014 	ldr	r0, [fp, #-20]	; 0xffffffec
  1005d4:	e51b1018 	ldr	r1, [fp, #-24]	; 0xffffffe8
  1005d8:	e30f2480 	movw	r2, #62592	; 0xf480
  1005dc:	e3402001 	movt	r2, #1
  1005e0:	eb000017 	bl	100644 <decrypt>
  1005e4:	e3a03000 	mov	r3, #0
  1005e8:	e50b3008 	str	r3, [fp, #-8]
  1005ec:	ea00000d 	b	100628 <aes_main+0xd0>
  1005f0:	e51b3008 	ldr	r3, [fp, #-8]
  1005f4:	e2833010 	add	r3, r3, #16
  1005f8:	e1a03103 	lsl	r3, r3, #2
  1005fc:	e51b2010 	ldr	r2, [fp, #-16]
  100600:	e0823003 	add	r3, r2, r3
  100604:	e51b2008 	ldr	r2, [fp, #-8]
  100608:	e1a02102 	lsl	r2, r2, #2
  10060c:	e51b1014 	ldr	r1, [fp, #-20]	; 0xffffffec
  100610:	e0812002 	add	r2, r1, r2
  100614:	e5922000 	ldr	r2, [r2]
  100618:	e5832000 	str	r2, [r3]
  10061c:	e51b3008 	ldr	r3, [fp, #-8]
  100620:	e2833001 	add	r3, r3, #1
  100624:	e50b3008 	str	r3, [fp, #-8]
  100628:	e51b3008 	ldr	r3, [fp, #-8]
  10062c:	e353000f 	cmp	r3, #15
  100630:	daffffee 	ble	1005f0 <aes_main+0x98>
  100634:	e3a03000 	mov	r3, #0
  100638:	e1a00003 	mov	r0, r3
  10063c:	e24bd004 	sub	sp, fp, #4
  100640:	e8bd8800 	pop	{fp, pc}

00100644 <decrypt>:
  100644:	e92d4800 	push	{fp, lr}
  100648:	e28db004 	add	fp, sp, #4
  10064c:	e24dd018 	sub	sp, sp, #24
  100650:	e50b0010 	str	r0, [fp, #-16]
  100654:	e50b1014 	str	r1, [fp, #-20]	; 0xffffffec
  100658:	e50b2018 	str	r2, [fp, #-24]	; 0xffffffe8
  10065c:	e51b0018 	ldr	r0, [fp, #-24]	; 0xffffffe8
  100660:	e51b1014 	ldr	r1, [fp, #-20]	; 0xffffffec
  100664:	eb000fcc 	bl	10459c <KeySchedule>
  100668:	e51b3018 	ldr	r3, [fp, #-24]	; 0xffffffe8
  10066c:	e30e2ec0 	movw	r2, #61120	; 0xeec0
  100670:	e3402002 	movt	r2, #2
  100674:	e1530002 	cmp	r3, r2
  100678:	0a000038 	beq	100760 <decrypt+0x11c>
  10067c:	e30e2ec0 	movw	r2, #61120	; 0xeec0
  100680:	e3402002 	movt	r2, #2
  100684:	e1530002 	cmp	r3, r2
  100688:	ca000015 	bgt	1006e4 <decrypt+0xa0>
  10068c:	e30f24c0 	movw	r2, #62656	; 0xf4c0
  100690:	e3402001 	movt	r2, #1
  100694:	e1530002 	cmp	r3, r2
  100698:	0a000030 	beq	100760 <decrypt+0x11c>
  10069c:	e30f24c0 	movw	r2, #62656	; 0xf4c0
  1006a0:	e3402001 	movt	r2, #1
  1006a4:	e1530002 	cmp	r3, r2
  1006a8:	ca000004 	bgt	1006c0 <decrypt+0x7c>
  1006ac:	e30f2480 	movw	r2, #62592	; 0xf480
  1006b0:	e3402001 	movt	r2, #1
  1006b4:	e1530002 	cmp	r3, r2
  1006b8:	0a00001f 	beq	10073c <decrypt+0xf8>
  1006bc:	ea00005d 	b	100838 <decrypt+0x1f4>
  1006c0:	e3a02cf5 	mov	r2, #62720	; 0xf500
  1006c4:	e3402001 	movt	r2, #1
  1006c8:	e1530002 	cmp	r3, r2
  1006cc:	0a000035 	beq	1007a8 <decrypt+0x164>
  1006d0:	e30e2e80 	movw	r2, #61056	; 0xee80
  1006d4:	e3402002 	movt	r2, #2
  1006d8:	e1530002 	cmp	r3, r2
  1006dc:	0a000028 	beq	100784 <decrypt+0x140>
  1006e0:	ea000054 	b	100838 <decrypt+0x1f4>
  1006e4:	e30e2880 	movw	r2, #59520	; 0xe880
  1006e8:	e3402003 	movt	r2, #3
  1006ec:	e1530002 	cmp	r3, r2
  1006f0:	0a000035 	beq	1007cc <decrypt+0x188>
  1006f4:	e30e2880 	movw	r2, #59520	; 0xe880
  1006f8:	e3402003 	movt	r2, #3
  1006fc:	e1530002 	cmp	r3, r2
  100700:	ca000004 	bgt	100718 <decrypt+0xd4>
  100704:	e3a02cef 	mov	r2, #61184	; 0xef00
  100708:	e3402002 	movt	r2, #2
  10070c:	e1530002 	cmp	r3, r2
  100710:	0a000024 	beq	1007a8 <decrypt+0x164>
  100714:	ea000047 	b	100838 <decrypt+0x1f4>
  100718:	e30e28c0 	movw	r2, #59584	; 0xe8c0
  10071c:	e3402003 	movt	r2, #3
  100720:	e1530002 	cmp	r3, r2
  100724:	0a000031 	beq	1007f0 <decrypt+0x1ac>
  100728:	e3a02ce9 	mov	r2, #59648	; 0xe900
  10072c:	e3402003 	movt	r2, #3
  100730:	e1530002 	cmp	r3, r2
  100734:	0a000036 	beq	100814 <decrypt+0x1d0>
  100738:	ea00003e 	b	100838 <decrypt+0x1f4>
  10073c:	e30c302c 	movw	r3, #49196	; 0xc02c
  100740:	e3403010 	movt	r3, #16
  100744:	e3a0200a 	mov	r2, #10
  100748:	e5832000 	str	r2, [r3]
  10074c:	e30c3030 	movw	r3, #49200	; 0xc030
  100750:	e3403010 	movt	r3, #16
  100754:	e3a02004 	mov	r2, #4
  100758:	e5832000 	str	r2, [r3]
  10075c:	ea000035 	b	100838 <decrypt+0x1f4>
  100760:	e30c302c 	movw	r3, #49196	; 0xc02c
  100764:	e3403010 	movt	r3, #16
  100768:	e3a0200c 	mov	r2, #12
  10076c:	e5832000 	str	r2, [r3]
  100770:	e30c3030 	movw	r3, #49200	; 0xc030
  100774:	e3403010 	movt	r3, #16
  100778:	e3a02006 	mov	r2, #6
  10077c:	e5832000 	str	r2, [r3]
  100780:	ea00002c 	b	100838 <decrypt+0x1f4>
  100784:	e30c302c 	movw	r3, #49196	; 0xc02c
  100788:	e3403010 	movt	r3, #16
  10078c:	e3a0200c 	mov	r2, #12
  100790:	e5832000 	str	r2, [r3]
  100794:	e30c3030 	movw	r3, #49200	; 0xc030
  100798:	e3403010 	movt	r3, #16
  10079c:	e3a02004 	mov	r2, #4
  1007a0:	e5832000 	str	r2, [r3]
  1007a4:	ea000023 	b	100838 <decrypt+0x1f4>
  1007a8:	e30c302c 	movw	r3, #49196	; 0xc02c
  1007ac:	e3403010 	movt	r3, #16
  1007b0:	e3a0200e 	mov	r2, #14
  1007b4:	e5832000 	str	r2, [r3]
  1007b8:	e30c3030 	movw	r3, #49200	; 0xc030
  1007bc:	e3403010 	movt	r3, #16
  1007c0:	e3a02008 	mov	r2, #8
  1007c4:	e5832000 	str	r2, [r3]
  1007c8:	ea00001a 	b	100838 <decrypt+0x1f4>
  1007cc:	e30c302c 	movw	r3, #49196	; 0xc02c
  1007d0:	e3403010 	movt	r3, #16
  1007d4:	e3a0200e 	mov	r2, #14
  1007d8:	e5832000 	str	r2, [r3]
  1007dc:	e30c3030 	movw	r3, #49200	; 0xc030
  1007e0:	e3403010 	movt	r3, #16
  1007e4:	e3a02004 	mov	r2, #4
  1007e8:	e5832000 	str	r2, [r3]
  1007ec:	ea000011 	b	100838 <decrypt+0x1f4>
  1007f0:	e30c302c 	movw	r3, #49196	; 0xc02c
  1007f4:	e3403010 	movt	r3, #16
  1007f8:	e3a0200e 	mov	r2, #14
  1007fc:	e5832000 	str	r2, [r3]
  100800:	e30c3030 	movw	r3, #49200	; 0xc030
  100804:	e3403010 	movt	r3, #16
  100808:	e3a02006 	mov	r2, #6
  10080c:	e5832000 	str	r2, [r3]
  100810:	ea000008 	b	100838 <decrypt+0x1f4>
  100814:	e30c302c 	movw	r3, #49196	; 0xc02c
  100818:	e3403010 	movt	r3, #16
  10081c:	e3a0200e 	mov	r2, #14
  100820:	e5832000 	str	r2, [r3]
  100824:	e30c3030 	movw	r3, #49200	; 0xc030
  100828:	e3403010 	movt	r3, #16
  10082c:	e3a02008 	mov	r2, #8
  100830:	e5832000 	str	r2, [r3]
  100834:	e1a00000 	nop			; (mov r0, r0)
  100838:	e30c302c 	movw	r3, #49196	; 0xc02c
  10083c:	e3403010 	movt	r3, #16
  100840:	e5933000 	ldr	r3, [r3]
  100844:	e51b0010 	ldr	r0, [fp, #-16]
  100848:	e51b1018 	ldr	r1, [fp, #-24]	; 0xffffffe8
  10084c:	e1a02003 	mov	r2, r3
  100850:	eb000ea9 	bl	1042fc <AddRoundKey>
  100854:	e30c3030 	movw	r3, #49200	; 0xc030
  100858:	e3403010 	movt	r3, #16
  10085c:	e5933000 	ldr	r3, [r3]
  100860:	e51b0010 	ldr	r0, [fp, #-16]
  100864:	e1a01003 	mov	r1, r3
  100868:	eb000583 	bl	101e7c <InversShiftRow_ByteSub>
  10086c:	e30c302c 	movw	r3, #49196	; 0xc02c
  100870:	e3403010 	movt	r3, #16
  100874:	e5933000 	ldr	r3, [r3]
  100878:	e2433001 	sub	r3, r3, #1
  10087c:	e50b3008 	str	r3, [fp, #-8]
  100880:	ea00000f 	b	1008c4 <decrypt+0x280>
  100884:	e30c3030 	movw	r3, #49200	; 0xc030
  100888:	e3403010 	movt	r3, #16
  10088c:	e5933000 	ldr	r3, [r3]
  100890:	e51b0010 	ldr	r0, [fp, #-16]
  100894:	e1a01003 	mov	r1, r3
  100898:	e51b2008 	ldr	r2, [fp, #-8]
  10089c:	eb000ca1 	bl	103b28 <AddRoundKey_InversMixColumn>
  1008a0:	e30c3030 	movw	r3, #49200	; 0xc030
  1008a4:	e3403010 	movt	r3, #16
  1008a8:	e5933000 	ldr	r3, [r3]
  1008ac:	e51b0010 	ldr	r0, [fp, #-16]
  1008b0:	e1a01003 	mov	r1, r3
  1008b4:	eb000570 	bl	101e7c <InversShiftRow_ByteSub>
  1008b8:	e51b3008 	ldr	r3, [fp, #-8]
  1008bc:	e2433001 	sub	r3, r3, #1
  1008c0:	e50b3008 	str	r3, [fp, #-8]
  1008c4:	e51b3008 	ldr	r3, [fp, #-8]
  1008c8:	e3530000 	cmp	r3, #0
  1008cc:	caffffec 	bgt	100884 <decrypt+0x240>
  1008d0:	e51b0010 	ldr	r0, [fp, #-16]
  1008d4:	e51b1018 	ldr	r1, [fp, #-24]	; 0xffffffe8
  1008d8:	e3a02000 	mov	r2, #0
  1008dc:	eb000e86 	bl	1042fc <AddRoundKey>
  1008e0:	e3a03000 	mov	r3, #0
  1008e4:	e1a00003 	mov	r0, r3
  1008e8:	e24bd004 	sub	sp, fp, #4
  1008ec:	e8bd8800 	pop	{fp, pc}

001008f0 <encrypt>:
  1008f0:	e92d4800 	push	{fp, lr}
  1008f4:	e28db004 	add	fp, sp, #4
  1008f8:	e24dd018 	sub	sp, sp, #24
  1008fc:	e50b0010 	str	r0, [fp, #-16]
  100900:	e50b1014 	str	r1, [fp, #-20]	; 0xffffffec
  100904:	e50b2018 	str	r2, [fp, #-24]	; 0xffffffe8
  100908:	e51b0018 	ldr	r0, [fp, #-24]	; 0xffffffe8
  10090c:	e51b1014 	ldr	r1, [fp, #-20]	; 0xffffffec
  100910:	eb000f21 	bl	10459c <KeySchedule>
  100914:	e51b3018 	ldr	r3, [fp, #-24]	; 0xffffffe8
  100918:	e30e2ec0 	movw	r2, #61120	; 0xeec0
  10091c:	e3402002 	movt	r2, #2
  100920:	e1530002 	cmp	r3, r2
  100924:	0a00004a 	beq	100a54 <encrypt+0x164>
  100928:	e30e2ec0 	movw	r2, #61120	; 0xeec0
  10092c:	e3402002 	movt	r2, #2
  100930:	e1530002 	cmp	r3, r2
  100934:	ca000015 	bgt	100990 <encrypt+0xa0>
  100938:	e30f24c0 	movw	r2, #62656	; 0xf4c0
  10093c:	e3402001 	movt	r2, #1
  100940:	e1530002 	cmp	r3, r2
  100944:	0a000042 	beq	100a54 <encrypt+0x164>
  100948:	e30f24c0 	movw	r2, #62656	; 0xf4c0
  10094c:	e3402001 	movt	r2, #1
  100950:	e1530002 	cmp	r3, r2
  100954:	ca000004 	bgt	10096c <encrypt+0x7c>
  100958:	e30f2480 	movw	r2, #62592	; 0xf480
  10095c:	e3402001 	movt	r2, #1
  100960:	e1530002 	cmp	r3, r2
  100964:	0a00001f 	beq	1009e8 <encrypt+0xf8>
  100968:	ea000054 	b	100ac0 <encrypt+0x1d0>
  10096c:	e3a02cf5 	mov	r2, #62720	; 0xf500
  100970:	e3402001 	movt	r2, #1
  100974:	e1530002 	cmp	r3, r2
  100978:	0a000047 	beq	100a9c <encrypt+0x1ac>
  10097c:	e30e2e80 	movw	r2, #61056	; 0xee80
  100980:	e3402002 	movt	r2, #2
  100984:	e1530002 	cmp	r3, r2
  100988:	0a00001f 	beq	100a0c <encrypt+0x11c>
  10098c:	ea00004b 	b	100ac0 <encrypt+0x1d0>
  100990:	e30e2880 	movw	r2, #59520	; 0xe880
  100994:	e3402003 	movt	r2, #3
  100998:	e1530002 	cmp	r3, r2
  10099c:	0a000023 	beq	100a30 <encrypt+0x140>
  1009a0:	e30e2880 	movw	r2, #59520	; 0xe880
  1009a4:	e3402003 	movt	r2, #3
  1009a8:	e1530002 	cmp	r3, r2
  1009ac:	ca000004 	bgt	1009c4 <encrypt+0xd4>
  1009b0:	e3a02cef 	mov	r2, #61184	; 0xef00
  1009b4:	e3402002 	movt	r2, #2
  1009b8:	e1530002 	cmp	r3, r2
  1009bc:	0a000036 	beq	100a9c <encrypt+0x1ac>
  1009c0:	ea00003e 	b	100ac0 <encrypt+0x1d0>
  1009c4:	e30e28c0 	movw	r2, #59584	; 0xe8c0
  1009c8:	e3402003 	movt	r2, #3
  1009cc:	e1530002 	cmp	r3, r2
  1009d0:	0a000028 	beq	100a78 <encrypt+0x188>
  1009d4:	e3a02ce9 	mov	r2, #59648	; 0xe900
  1009d8:	e3402003 	movt	r2, #3
  1009dc:	e1530002 	cmp	r3, r2
  1009e0:	0a00002d 	beq	100a9c <encrypt+0x1ac>
  1009e4:	ea000035 	b	100ac0 <encrypt+0x1d0>
  1009e8:	e30c302c 	movw	r3, #49196	; 0xc02c
  1009ec:	e3403010 	movt	r3, #16
  1009f0:	e3a02000 	mov	r2, #0
  1009f4:	e5832000 	str	r2, [r3]
  1009f8:	e30c3030 	movw	r3, #49200	; 0xc030
  1009fc:	e3403010 	movt	r3, #16
  100a00:	e3a02004 	mov	r2, #4
  100a04:	e5832000 	str	r2, [r3]
  100a08:	ea00002c 	b	100ac0 <encrypt+0x1d0>
  100a0c:	e30c302c 	movw	r3, #49196	; 0xc02c
  100a10:	e3403010 	movt	r3, #16
  100a14:	e3a02002 	mov	r2, #2
  100a18:	e5832000 	str	r2, [r3]
  100a1c:	e30c3030 	movw	r3, #49200	; 0xc030
  100a20:	e3403010 	movt	r3, #16
  100a24:	e3a02004 	mov	r2, #4
  100a28:	e5832000 	str	r2, [r3]
  100a2c:	ea000023 	b	100ac0 <encrypt+0x1d0>
  100a30:	e30c302c 	movw	r3, #49196	; 0xc02c
  100a34:	e3403010 	movt	r3, #16
  100a38:	e3a02004 	mov	r2, #4
  100a3c:	e5832000 	str	r2, [r3]
  100a40:	e30c3030 	movw	r3, #49200	; 0xc030
  100a44:	e3403010 	movt	r3, #16
  100a48:	e3a02004 	mov	r2, #4
  100a4c:	e5832000 	str	r2, [r3]
  100a50:	ea00001a 	b	100ac0 <encrypt+0x1d0>
  100a54:	e30c302c 	movw	r3, #49196	; 0xc02c
  100a58:	e3403010 	movt	r3, #16
  100a5c:	e3a02002 	mov	r2, #2
  100a60:	e5832000 	str	r2, [r3]
  100a64:	e30c3030 	movw	r3, #49200	; 0xc030
  100a68:	e3403010 	movt	r3, #16
  100a6c:	e3a02006 	mov	r2, #6
  100a70:	e5832000 	str	r2, [r3]
  100a74:	ea000011 	b	100ac0 <encrypt+0x1d0>
  100a78:	e30c302c 	movw	r3, #49196	; 0xc02c
  100a7c:	e3403010 	movt	r3, #16
  100a80:	e3a02004 	mov	r2, #4
  100a84:	e5832000 	str	r2, [r3]
  100a88:	e30c3030 	movw	r3, #49200	; 0xc030
  100a8c:	e3403010 	movt	r3, #16
  100a90:	e3a02006 	mov	r2, #6
  100a94:	e5832000 	str	r2, [r3]
  100a98:	ea000008 	b	100ac0 <encrypt+0x1d0>
  100a9c:	e30c302c 	movw	r3, #49196	; 0xc02c
  100aa0:	e3403010 	movt	r3, #16
  100aa4:	e3a02004 	mov	r2, #4
  100aa8:	e5832000 	str	r2, [r3]
  100aac:	e30c3030 	movw	r3, #49200	; 0xc030
  100ab0:	e3403010 	movt	r3, #16
  100ab4:	e3a02008 	mov	r2, #8
  100ab8:	e5832000 	str	r2, [r3]
  100abc:	e1a00000 	nop			; (mov r0, r0)
  100ac0:	e51b0010 	ldr	r0, [fp, #-16]
  100ac4:	e51b1018 	ldr	r1, [fp, #-24]	; 0xffffffe8
  100ac8:	e3a02000 	mov	r2, #0
  100acc:	eb000e0a 	bl	1042fc <AddRoundKey>
  100ad0:	e3a03001 	mov	r3, #1
  100ad4:	e50b3008 	str	r3, [fp, #-8]
  100ad8:	ea00000f 	b	100b1c <encrypt+0x22c>
  100adc:	e30c3030 	movw	r3, #49200	; 0xc030
  100ae0:	e3403010 	movt	r3, #16
  100ae4:	e5933000 	ldr	r3, [r3]
  100ae8:	e51b0010 	ldr	r0, [fp, #-16]
  100aec:	e1a01003 	mov	r1, r3
  100af0:	eb00001e 	bl	100b70 <ByteSub_ShiftRow>
  100af4:	e30c3030 	movw	r3, #49200	; 0xc030
  100af8:	e3403010 	movt	r3, #16
  100afc:	e5933000 	ldr	r3, [r3]
  100b00:	e51b0010 	ldr	r0, [fp, #-16]
  100b04:	e1a01003 	mov	r1, r3
  100b08:	e51b2008 	ldr	r2, [fp, #-8]
  100b0c:	eb000983 	bl	103120 <MixColumn_AddRoundKey>
  100b10:	e51b3008 	ldr	r3, [fp, #-8]
  100b14:	e2833001 	add	r3, r3, #1
  100b18:	e50b3008 	str	r3, [fp, #-8]
  100b1c:	e30c302c 	movw	r3, #49196	; 0xc02c
  100b20:	e3403010 	movt	r3, #16
  100b24:	e5933000 	ldr	r3, [r3]
  100b28:	e2832009 	add	r2, r3, #9
  100b2c:	e51b3008 	ldr	r3, [fp, #-8]
  100b30:	e1520003 	cmp	r2, r3
  100b34:	aaffffe8 	bge	100adc <encrypt+0x1ec>
  100b38:	e30c3030 	movw	r3, #49200	; 0xc030
  100b3c:	e3403010 	movt	r3, #16
  100b40:	e5933000 	ldr	r3, [r3]
  100b44:	e51b0010 	ldr	r0, [fp, #-16]
  100b48:	e1a01003 	mov	r1, r3
  100b4c:	eb000007 	bl	100b70 <ByteSub_ShiftRow>
  100b50:	e51b0010 	ldr	r0, [fp, #-16]
  100b54:	e51b1018 	ldr	r1, [fp, #-24]	; 0xffffffe8
  100b58:	e51b2008 	ldr	r2, [fp, #-8]
  100b5c:	eb000de6 	bl	1042fc <AddRoundKey>
  100b60:	e3a03000 	mov	r3, #0
  100b64:	e1a00003 	mov	r0, r3
  100b68:	e24bd004 	sub	sp, fp, #4
  100b6c:	e8bd8800 	pop	{fp, pc}

00100b70 <ByteSub_ShiftRow>:
  100b70:	e52db004 	push	{fp}		; (str fp, [sp, #-4]!)
  100b74:	e28db000 	add	fp, sp, #0
  100b78:	e24dd014 	sub	sp, sp, #20
  100b7c:	e50b0010 	str	r0, [fp, #-16]
  100b80:	e50b1014 	str	r1, [fp, #-20]	; 0xffffffec
  100b84:	e51b3014 	ldr	r3, [fp, #-20]	; 0xffffffec
  100b88:	e3530006 	cmp	r3, #6
  100b8c:	0a000109 	beq	100fb8 <ByteSub_ShiftRow+0x448>
  100b90:	e3530008 	cmp	r3, #8
  100b94:	0a000291 	beq	1015e0 <ByteSub_ShiftRow+0xa70>
  100b98:	e3530004 	cmp	r3, #4
  100b9c:	1a000499 	bne	101e08 <ByteSub_ShiftRow+0x1298>
  100ba0:	e51b3010 	ldr	r3, [fp, #-16]
  100ba4:	e2833004 	add	r3, r3, #4
  100ba8:	e5933000 	ldr	r3, [r3]
  100bac:	e1a01243 	asr	r1, r3, #4
  100bb0:	e51b3010 	ldr	r3, [fp, #-16]
  100bb4:	e2833004 	add	r3, r3, #4
  100bb8:	e5933000 	ldr	r3, [r3]
  100bbc:	e203200f 	and	r2, r3, #15
  100bc0:	e3063134 	movw	r3, #24884	; 0x6134
  100bc4:	e3403010 	movt	r3, #16
  100bc8:	e1a01201 	lsl	r1, r1, #4
  100bcc:	e0812002 	add	r2, r1, r2
  100bd0:	e7933102 	ldr	r3, [r3, r2, lsl #2]
  100bd4:	e50b3008 	str	r3, [fp, #-8]
  100bd8:	e51b3010 	ldr	r3, [fp, #-16]
  100bdc:	e2832004 	add	r2, r3, #4
  100be0:	e51b3010 	ldr	r3, [fp, #-16]
  100be4:	e2833014 	add	r3, r3, #20
  100be8:	e5933000 	ldr	r3, [r3]
  100bec:	e1a00243 	asr	r0, r3, #4
  100bf0:	e51b3010 	ldr	r3, [fp, #-16]
  100bf4:	e2833014 	add	r3, r3, #20
  100bf8:	e5933000 	ldr	r3, [r3]
  100bfc:	e203100f 	and	r1, r3, #15
  100c00:	e3063134 	movw	r3, #24884	; 0x6134
  100c04:	e3403010 	movt	r3, #16
  100c08:	e1a00200 	lsl	r0, r0, #4
  100c0c:	e0801001 	add	r1, r0, r1
  100c10:	e7933101 	ldr	r3, [r3, r1, lsl #2]
  100c14:	e5823000 	str	r3, [r2]
  100c18:	e51b3010 	ldr	r3, [fp, #-16]
  100c1c:	e2832014 	add	r2, r3, #20
  100c20:	e51b3010 	ldr	r3, [fp, #-16]
  100c24:	e2833024 	add	r3, r3, #36	; 0x24
  100c28:	e5933000 	ldr	r3, [r3]
  100c2c:	e1a00243 	asr	r0, r3, #4
  100c30:	e51b3010 	ldr	r3, [fp, #-16]
  100c34:	e2833024 	add	r3, r3, #36	; 0x24
  100c38:	e5933000 	ldr	r3, [r3]
  100c3c:	e203100f 	and	r1, r3, #15
  100c40:	e3063134 	movw	r3, #24884	; 0x6134
  100c44:	e3403010 	movt	r3, #16
  100c48:	e1a00200 	lsl	r0, r0, #4
  100c4c:	e0801001 	add	r1, r0, r1
  100c50:	e7933101 	ldr	r3, [r3, r1, lsl #2]
  100c54:	e5823000 	str	r3, [r2]
  100c58:	e51b3010 	ldr	r3, [fp, #-16]
  100c5c:	e2832024 	add	r2, r3, #36	; 0x24
  100c60:	e51b3010 	ldr	r3, [fp, #-16]
  100c64:	e2833034 	add	r3, r3, #52	; 0x34
  100c68:	e5933000 	ldr	r3, [r3]
  100c6c:	e1a00243 	asr	r0, r3, #4
  100c70:	e51b3010 	ldr	r3, [fp, #-16]
  100c74:	e2833034 	add	r3, r3, #52	; 0x34
  100c78:	e5933000 	ldr	r3, [r3]
  100c7c:	e203100f 	and	r1, r3, #15
  100c80:	e3063134 	movw	r3, #24884	; 0x6134
  100c84:	e3403010 	movt	r3, #16
  100c88:	e1a00200 	lsl	r0, r0, #4
  100c8c:	e0801001 	add	r1, r0, r1
  100c90:	e7933101 	ldr	r3, [r3, r1, lsl #2]
  100c94:	e5823000 	str	r3, [r2]
  100c98:	e51b3010 	ldr	r3, [fp, #-16]
  100c9c:	e2833034 	add	r3, r3, #52	; 0x34
  100ca0:	e51b2008 	ldr	r2, [fp, #-8]
  100ca4:	e5832000 	str	r2, [r3]
  100ca8:	e51b3010 	ldr	r3, [fp, #-16]
  100cac:	e2833008 	add	r3, r3, #8
  100cb0:	e5933000 	ldr	r3, [r3]
  100cb4:	e1a01243 	asr	r1, r3, #4
  100cb8:	e51b3010 	ldr	r3, [fp, #-16]
  100cbc:	e2833008 	add	r3, r3, #8
  100cc0:	e5933000 	ldr	r3, [r3]
  100cc4:	e203200f 	and	r2, r3, #15
  100cc8:	e3063134 	movw	r3, #24884	; 0x6134
  100ccc:	e3403010 	movt	r3, #16
  100cd0:	e1a01201 	lsl	r1, r1, #4
  100cd4:	e0812002 	add	r2, r1, r2
  100cd8:	e7933102 	ldr	r3, [r3, r2, lsl #2]
  100cdc:	e50b3008 	str	r3, [fp, #-8]
  100ce0:	e51b3010 	ldr	r3, [fp, #-16]
  100ce4:	e2832008 	add	r2, r3, #8
  100ce8:	e51b3010 	ldr	r3, [fp, #-16]
  100cec:	e2833028 	add	r3, r3, #40	; 0x28
  100cf0:	e5933000 	ldr	r3, [r3]
  100cf4:	e1a00243 	asr	r0, r3, #4
  100cf8:	e51b3010 	ldr	r3, [fp, #-16]
  100cfc:	e2833028 	add	r3, r3, #40	; 0x28
  100d00:	e5933000 	ldr	r3, [r3]
  100d04:	e203100f 	and	r1, r3, #15
  100d08:	e3063134 	movw	r3, #24884	; 0x6134
  100d0c:	e3403010 	movt	r3, #16
  100d10:	e1a00200 	lsl	r0, r0, #4
  100d14:	e0801001 	add	r1, r0, r1
  100d18:	e7933101 	ldr	r3, [r3, r1, lsl #2]
  100d1c:	e5823000 	str	r3, [r2]
  100d20:	e51b3010 	ldr	r3, [fp, #-16]
  100d24:	e2833028 	add	r3, r3, #40	; 0x28
  100d28:	e51b2008 	ldr	r2, [fp, #-8]
  100d2c:	e5832000 	str	r2, [r3]
  100d30:	e51b3010 	ldr	r3, [fp, #-16]
  100d34:	e2833018 	add	r3, r3, #24
  100d38:	e5933000 	ldr	r3, [r3]
  100d3c:	e1a01243 	asr	r1, r3, #4
  100d40:	e51b3010 	ldr	r3, [fp, #-16]
  100d44:	e2833018 	add	r3, r3, #24
  100d48:	e5933000 	ldr	r3, [r3]
  100d4c:	e203200f 	and	r2, r3, #15
  100d50:	e3063134 	movw	r3, #24884	; 0x6134
  100d54:	e3403010 	movt	r3, #16
  100d58:	e1a01201 	lsl	r1, r1, #4
  100d5c:	e0812002 	add	r2, r1, r2
  100d60:	e7933102 	ldr	r3, [r3, r2, lsl #2]
  100d64:	e50b3008 	str	r3, [fp, #-8]
  100d68:	e51b3010 	ldr	r3, [fp, #-16]
  100d6c:	e2832018 	add	r2, r3, #24
  100d70:	e51b3010 	ldr	r3, [fp, #-16]
  100d74:	e2833038 	add	r3, r3, #56	; 0x38
  100d78:	e5933000 	ldr	r3, [r3]
  100d7c:	e1a00243 	asr	r0, r3, #4
  100d80:	e51b3010 	ldr	r3, [fp, #-16]
  100d84:	e2833038 	add	r3, r3, #56	; 0x38
  100d88:	e5933000 	ldr	r3, [r3]
  100d8c:	e203100f 	and	r1, r3, #15
  100d90:	e3063134 	movw	r3, #24884	; 0x6134
  100d94:	e3403010 	movt	r3, #16
  100d98:	e1a00200 	lsl	r0, r0, #4
  100d9c:	e0801001 	add	r1, r0, r1
  100da0:	e7933101 	ldr	r3, [r3, r1, lsl #2]
  100da4:	e5823000 	str	r3, [r2]
  100da8:	e51b3010 	ldr	r3, [fp, #-16]
  100dac:	e2833038 	add	r3, r3, #56	; 0x38
  100db0:	e51b2008 	ldr	r2, [fp, #-8]
  100db4:	e5832000 	str	r2, [r3]
  100db8:	e51b3010 	ldr	r3, [fp, #-16]
  100dbc:	e283300c 	add	r3, r3, #12
  100dc0:	e5933000 	ldr	r3, [r3]
  100dc4:	e1a01243 	asr	r1, r3, #4
  100dc8:	e51b3010 	ldr	r3, [fp, #-16]
  100dcc:	e283300c 	add	r3, r3, #12
  100dd0:	e5933000 	ldr	r3, [r3]
  100dd4:	e203200f 	and	r2, r3, #15
  100dd8:	e3063134 	movw	r3, #24884	; 0x6134
  100ddc:	e3403010 	movt	r3, #16
  100de0:	e1a01201 	lsl	r1, r1, #4
  100de4:	e0812002 	add	r2, r1, r2
  100de8:	e7933102 	ldr	r3, [r3, r2, lsl #2]
  100dec:	e50b3008 	str	r3, [fp, #-8]
  100df0:	e51b3010 	ldr	r3, [fp, #-16]
  100df4:	e283200c 	add	r2, r3, #12
  100df8:	e51b3010 	ldr	r3, [fp, #-16]
  100dfc:	e283303c 	add	r3, r3, #60	; 0x3c
  100e00:	e5933000 	ldr	r3, [r3]
  100e04:	e1a00243 	asr	r0, r3, #4
  100e08:	e51b3010 	ldr	r3, [fp, #-16]
  100e0c:	e283303c 	add	r3, r3, #60	; 0x3c
  100e10:	e5933000 	ldr	r3, [r3]
  100e14:	e203100f 	and	r1, r3, #15
  100e18:	e3063134 	movw	r3, #24884	; 0x6134
  100e1c:	e3403010 	movt	r3, #16
  100e20:	e1a00200 	lsl	r0, r0, #4
  100e24:	e0801001 	add	r1, r0, r1
  100e28:	e7933101 	ldr	r3, [r3, r1, lsl #2]
  100e2c:	e5823000 	str	r3, [r2]
  100e30:	e51b3010 	ldr	r3, [fp, #-16]
  100e34:	e283203c 	add	r2, r3, #60	; 0x3c
  100e38:	e51b3010 	ldr	r3, [fp, #-16]
  100e3c:	e283302c 	add	r3, r3, #44	; 0x2c
  100e40:	e5933000 	ldr	r3, [r3]
  100e44:	e1a00243 	asr	r0, r3, #4
  100e48:	e51b3010 	ldr	r3, [fp, #-16]
  100e4c:	e283302c 	add	r3, r3, #44	; 0x2c
  100e50:	e5933000 	ldr	r3, [r3]
  100e54:	e203100f 	and	r1, r3, #15
  100e58:	e3063134 	movw	r3, #24884	; 0x6134
  100e5c:	e3403010 	movt	r3, #16
  100e60:	e1a00200 	lsl	r0, r0, #4
  100e64:	e0801001 	add	r1, r0, r1
  100e68:	e7933101 	ldr	r3, [r3, r1, lsl #2]
  100e6c:	e5823000 	str	r3, [r2]
  100e70:	e51b3010 	ldr	r3, [fp, #-16]
  100e74:	e283202c 	add	r2, r3, #44	; 0x2c
  100e78:	e51b3010 	ldr	r3, [fp, #-16]
  100e7c:	e283301c 	add	r3, r3, #28
  100e80:	e5933000 	ldr	r3, [r3]
  100e84:	e1a00243 	asr	r0, r3, #4
  100e88:	e51b3010 	ldr	r3, [fp, #-16]
  100e8c:	e283301c 	add	r3, r3, #28
  100e90:	e5933000 	ldr	r3, [r3]
  100e94:	e203100f 	and	r1, r3, #15
  100e98:	e3063134 	movw	r3, #24884	; 0x6134
  100e9c:	e3403010 	movt	r3, #16
  100ea0:	e1a00200 	lsl	r0, r0, #4
  100ea4:	e0801001 	add	r1, r0, r1
  100ea8:	e7933101 	ldr	r3, [r3, r1, lsl #2]
  100eac:	e5823000 	str	r3, [r2]
  100eb0:	e51b3010 	ldr	r3, [fp, #-16]
  100eb4:	e283301c 	add	r3, r3, #28
  100eb8:	e51b2008 	ldr	r2, [fp, #-8]
  100ebc:	e5832000 	str	r2, [r3]
  100ec0:	e51b3010 	ldr	r3, [fp, #-16]
  100ec4:	e5933000 	ldr	r3, [r3]
  100ec8:	e1a01243 	asr	r1, r3, #4
  100ecc:	e51b3010 	ldr	r3, [fp, #-16]
  100ed0:	e5933000 	ldr	r3, [r3]
  100ed4:	e203200f 	and	r2, r3, #15
  100ed8:	e3063134 	movw	r3, #24884	; 0x6134
  100edc:	e3403010 	movt	r3, #16
  100ee0:	e1a01201 	lsl	r1, r1, #4
  100ee4:	e0812002 	add	r2, r1, r2
  100ee8:	e7932102 	ldr	r2, [r3, r2, lsl #2]
  100eec:	e51b3010 	ldr	r3, [fp, #-16]
  100ef0:	e5832000 	str	r2, [r3]
  100ef4:	e51b3010 	ldr	r3, [fp, #-16]
  100ef8:	e2832010 	add	r2, r3, #16
  100efc:	e51b3010 	ldr	r3, [fp, #-16]
  100f00:	e2833010 	add	r3, r3, #16
  100f04:	e5933000 	ldr	r3, [r3]
  100f08:	e1a00243 	asr	r0, r3, #4
  100f0c:	e51b3010 	ldr	r3, [fp, #-16]
  100f10:	e2833010 	add	r3, r3, #16
  100f14:	e5933000 	ldr	r3, [r3]
  100f18:	e203100f 	and	r1, r3, #15
  100f1c:	e3063134 	movw	r3, #24884	; 0x6134
  100f20:	e3403010 	movt	r3, #16
  100f24:	e1a00200 	lsl	r0, r0, #4
  100f28:	e0801001 	add	r1, r0, r1
  100f2c:	e7933101 	ldr	r3, [r3, r1, lsl #2]
  100f30:	e5823000 	str	r3, [r2]
  100f34:	e51b3010 	ldr	r3, [fp, #-16]
  100f38:	e2832020 	add	r2, r3, #32
  100f3c:	e51b3010 	ldr	r3, [fp, #-16]
  100f40:	e2833020 	add	r3, r3, #32
  100f44:	e5933000 	ldr	r3, [r3]
  100f48:	e1a00243 	asr	r0, r3, #4
  100f4c:	e51b3010 	ldr	r3, [fp, #-16]
  100f50:	e2833020 	add	r3, r3, #32
  100f54:	e5933000 	ldr	r3, [r3]
  100f58:	e203100f 	and	r1, r3, #15
  100f5c:	e3063134 	movw	r3, #24884	; 0x6134
  100f60:	e3403010 	movt	r3, #16
  100f64:	e1a00200 	lsl	r0, r0, #4
  100f68:	e0801001 	add	r1, r0, r1
  100f6c:	e7933101 	ldr	r3, [r3, r1, lsl #2]
  100f70:	e5823000 	str	r3, [r2]
  100f74:	e51b3010 	ldr	r3, [fp, #-16]
  100f78:	e2832030 	add	r2, r3, #48	; 0x30
  100f7c:	e51b3010 	ldr	r3, [fp, #-16]
  100f80:	e2833030 	add	r3, r3, #48	; 0x30
  100f84:	e5933000 	ldr	r3, [r3]
  100f88:	e1a00243 	asr	r0, r3, #4
  100f8c:	e51b3010 	ldr	r3, [fp, #-16]
  100f90:	e2833030 	add	r3, r3, #48	; 0x30
  100f94:	e5933000 	ldr	r3, [r3]
  100f98:	e203100f 	and	r1, r3, #15
  100f9c:	e3063134 	movw	r3, #24884	; 0x6134
  100fa0:	e3403010 	movt	r3, #16
  100fa4:	e1a00200 	lsl	r0, r0, #4
  100fa8:	e0801001 	add	r1, r0, r1
  100fac:	e7933101 	ldr	r3, [r3, r1, lsl #2]
  100fb0:	e5823000 	str	r3, [r2]
  100fb4:	ea000393 	b	101e08 <ByteSub_ShiftRow+0x1298>
  100fb8:	e51b3010 	ldr	r3, [fp, #-16]
  100fbc:	e2833004 	add	r3, r3, #4
  100fc0:	e5933000 	ldr	r3, [r3]
  100fc4:	e1a01243 	asr	r1, r3, #4
  100fc8:	e51b3010 	ldr	r3, [fp, #-16]
  100fcc:	e2833004 	add	r3, r3, #4
  100fd0:	e5933000 	ldr	r3, [r3]
  100fd4:	e203200f 	and	r2, r3, #15
  100fd8:	e3063134 	movw	r3, #24884	; 0x6134
  100fdc:	e3403010 	movt	r3, #16
  100fe0:	e1a01201 	lsl	r1, r1, #4
  100fe4:	e0812002 	add	r2, r1, r2
  100fe8:	e7933102 	ldr	r3, [r3, r2, lsl #2]
  100fec:	e50b3008 	str	r3, [fp, #-8]
  100ff0:	e51b3010 	ldr	r3, [fp, #-16]
  100ff4:	e2832004 	add	r2, r3, #4
  100ff8:	e51b3010 	ldr	r3, [fp, #-16]
  100ffc:	e2833014 	add	r3, r3, #20
  101000:	e5933000 	ldr	r3, [r3]
  101004:	e1a00243 	asr	r0, r3, #4
  101008:	e51b3010 	ldr	r3, [fp, #-16]
  10100c:	e2833014 	add	r3, r3, #20
  101010:	e5933000 	ldr	r3, [r3]
  101014:	e203100f 	and	r1, r3, #15
  101018:	e3063134 	movw	r3, #24884	; 0x6134
  10101c:	e3403010 	movt	r3, #16
  101020:	e1a00200 	lsl	r0, r0, #4
  101024:	e0801001 	add	r1, r0, r1
  101028:	e7933101 	ldr	r3, [r3, r1, lsl #2]
  10102c:	e5823000 	str	r3, [r2]
  101030:	e51b3010 	ldr	r3, [fp, #-16]
  101034:	e2832014 	add	r2, r3, #20
  101038:	e51b3010 	ldr	r3, [fp, #-16]
  10103c:	e2833024 	add	r3, r3, #36	; 0x24
  101040:	e5933000 	ldr	r3, [r3]
  101044:	e1a00243 	asr	r0, r3, #4
  101048:	e51b3010 	ldr	r3, [fp, #-16]
  10104c:	e2833024 	add	r3, r3, #36	; 0x24
  101050:	e5933000 	ldr	r3, [r3]
  101054:	e203100f 	and	r1, r3, #15
  101058:	e3063134 	movw	r3, #24884	; 0x6134
  10105c:	e3403010 	movt	r3, #16
  101060:	e1a00200 	lsl	r0, r0, #4
  101064:	e0801001 	add	r1, r0, r1
  101068:	e7933101 	ldr	r3, [r3, r1, lsl #2]
  10106c:	e5823000 	str	r3, [r2]
  101070:	e51b3010 	ldr	r3, [fp, #-16]
  101074:	e2832024 	add	r2, r3, #36	; 0x24
  101078:	e51b3010 	ldr	r3, [fp, #-16]
  10107c:	e2833034 	add	r3, r3, #52	; 0x34
  101080:	e5933000 	ldr	r3, [r3]
  101084:	e1a00243 	asr	r0, r3, #4
  101088:	e51b3010 	ldr	r3, [fp, #-16]
  10108c:	e2833034 	add	r3, r3, #52	; 0x34
  101090:	e5933000 	ldr	r3, [r3]
  101094:	e203100f 	and	r1, r3, #15
  101098:	e3063134 	movw	r3, #24884	; 0x6134
  10109c:	e3403010 	movt	r3, #16
  1010a0:	e1a00200 	lsl	r0, r0, #4
  1010a4:	e0801001 	add	r1, r0, r1
  1010a8:	e7933101 	ldr	r3, [r3, r1, lsl #2]
  1010ac:	e5823000 	str	r3, [r2]
  1010b0:	e51b3010 	ldr	r3, [fp, #-16]
  1010b4:	e2832034 	add	r2, r3, #52	; 0x34
  1010b8:	e51b3010 	ldr	r3, [fp, #-16]
  1010bc:	e2833044 	add	r3, r3, #68	; 0x44
  1010c0:	e5933000 	ldr	r3, [r3]
  1010c4:	e1a00243 	asr	r0, r3, #4
  1010c8:	e51b3010 	ldr	r3, [fp, #-16]
  1010cc:	e2833044 	add	r3, r3, #68	; 0x44
  1010d0:	e5933000 	ldr	r3, [r3]
  1010d4:	e203100f 	and	r1, r3, #15
  1010d8:	e3063134 	movw	r3, #24884	; 0x6134
  1010dc:	e3403010 	movt	r3, #16
  1010e0:	e1a00200 	lsl	r0, r0, #4
  1010e4:	e0801001 	add	r1, r0, r1
  1010e8:	e7933101 	ldr	r3, [r3, r1, lsl #2]
  1010ec:	e5823000 	str	r3, [r2]
  1010f0:	e51b3010 	ldr	r3, [fp, #-16]
  1010f4:	e2832044 	add	r2, r3, #68	; 0x44
  1010f8:	e51b3010 	ldr	r3, [fp, #-16]
  1010fc:	e2833054 	add	r3, r3, #84	; 0x54
  101100:	e5933000 	ldr	r3, [r3]
  101104:	e1a00243 	asr	r0, r3, #4
  101108:	e51b3010 	ldr	r3, [fp, #-16]
  10110c:	e2833054 	add	r3, r3, #84	; 0x54
  101110:	e5933000 	ldr	r3, [r3]
  101114:	e203100f 	and	r1, r3, #15
  101118:	e3063134 	movw	r3, #24884	; 0x6134
  10111c:	e3403010 	movt	r3, #16
  101120:	e1a00200 	lsl	r0, r0, #4
  101124:	e0801001 	add	r1, r0, r1
  101128:	e7933101 	ldr	r3, [r3, r1, lsl #2]
  10112c:	e5823000 	str	r3, [r2]
  101130:	e51b3010 	ldr	r3, [fp, #-16]
  101134:	e2833054 	add	r3, r3, #84	; 0x54
  101138:	e51b2008 	ldr	r2, [fp, #-8]
  10113c:	e5832000 	str	r2, [r3]
  101140:	e51b3010 	ldr	r3, [fp, #-16]
  101144:	e2833008 	add	r3, r3, #8
  101148:	e5933000 	ldr	r3, [r3]
  10114c:	e1a01243 	asr	r1, r3, #4
  101150:	e51b3010 	ldr	r3, [fp, #-16]
  101154:	e2833008 	add	r3, r3, #8
  101158:	e5933000 	ldr	r3, [r3]
  10115c:	e203200f 	and	r2, r3, #15
  101160:	e3063134 	movw	r3, #24884	; 0x6134
  101164:	e3403010 	movt	r3, #16
  101168:	e1a01201 	lsl	r1, r1, #4
  10116c:	e0812002 	add	r2, r1, r2
  101170:	e7933102 	ldr	r3, [r3, r2, lsl #2]
  101174:	e50b3008 	str	r3, [fp, #-8]
  101178:	e51b3010 	ldr	r3, [fp, #-16]
  10117c:	e2832008 	add	r2, r3, #8
  101180:	e51b3010 	ldr	r3, [fp, #-16]
  101184:	e2833028 	add	r3, r3, #40	; 0x28
  101188:	e5933000 	ldr	r3, [r3]
  10118c:	e1a00243 	asr	r0, r3, #4
  101190:	e51b3010 	ldr	r3, [fp, #-16]
  101194:	e2833028 	add	r3, r3, #40	; 0x28
  101198:	e5933000 	ldr	r3, [r3]
  10119c:	e203100f 	and	r1, r3, #15
  1011a0:	e3063134 	movw	r3, #24884	; 0x6134
  1011a4:	e3403010 	movt	r3, #16
  1011a8:	e1a00200 	lsl	r0, r0, #4
  1011ac:	e0801001 	add	r1, r0, r1
  1011b0:	e7933101 	ldr	r3, [r3, r1, lsl #2]
  1011b4:	e5823000 	str	r3, [r2]
  1011b8:	e51b3010 	ldr	r3, [fp, #-16]
  1011bc:	e2832028 	add	r2, r3, #40	; 0x28
  1011c0:	e51b3010 	ldr	r3, [fp, #-16]
  1011c4:	e2833048 	add	r3, r3, #72	; 0x48
  1011c8:	e5933000 	ldr	r3, [r3]
  1011cc:	e1a00243 	asr	r0, r3, #4
  1011d0:	e51b3010 	ldr	r3, [fp, #-16]
  1011d4:	e2833048 	add	r3, r3, #72	; 0x48
  1011d8:	e5933000 	ldr	r3, [r3]
  1011dc:	e203100f 	and	r1, r3, #15
  1011e0:	e3063134 	movw	r3, #24884	; 0x6134
  1011e4:	e3403010 	movt	r3, #16
  1011e8:	e1a00200 	lsl	r0, r0, #4
  1011ec:	e0801001 	add	r1, r0, r1
  1011f0:	e7933101 	ldr	r3, [r3, r1, lsl #2]
  1011f4:	e5823000 	str	r3, [r2]
  1011f8:	e51b3010 	ldr	r3, [fp, #-16]
  1011fc:	e2833048 	add	r3, r3, #72	; 0x48
  101200:	e51b2008 	ldr	r2, [fp, #-8]
  101204:	e5832000 	str	r2, [r3]
  101208:	e51b3010 	ldr	r3, [fp, #-16]
  10120c:	e2833018 	add	r3, r3, #24
  101210:	e5933000 	ldr	r3, [r3]
  101214:	e1a01243 	asr	r1, r3, #4
  101218:	e51b3010 	ldr	r3, [fp, #-16]
  10121c:	e2833018 	add	r3, r3, #24
  101220:	e5933000 	ldr	r3, [r3]
  101224:	e203200f 	and	r2, r3, #15
  101228:	e3063134 	movw	r3, #24884	; 0x6134
  10122c:	e3403010 	movt	r3, #16
  101230:	e1a01201 	lsl	r1, r1, #4
  101234:	e0812002 	add	r2, r1, r2
  101238:	e7933102 	ldr	r3, [r3, r2, lsl #2]
  10123c:	e50b3008 	str	r3, [fp, #-8]
  101240:	e51b3010 	ldr	r3, [fp, #-16]
  101244:	e2832018 	add	r2, r3, #24
  101248:	e51b3010 	ldr	r3, [fp, #-16]
  10124c:	e2833038 	add	r3, r3, #56	; 0x38
  101250:	e5933000 	ldr	r3, [r3]
  101254:	e1a00243 	asr	r0, r3, #4
  101258:	e51b3010 	ldr	r3, [fp, #-16]
  10125c:	e2833038 	add	r3, r3, #56	; 0x38
  101260:	e5933000 	ldr	r3, [r3]
  101264:	e203100f 	and	r1, r3, #15
  101268:	e3063134 	movw	r3, #24884	; 0x6134
  10126c:	e3403010 	movt	r3, #16
  101270:	e1a00200 	lsl	r0, r0, #4
  101274:	e0801001 	add	r1, r0, r1
  101278:	e7933101 	ldr	r3, [r3, r1, lsl #2]
  10127c:	e5823000 	str	r3, [r2]
  101280:	e51b3010 	ldr	r3, [fp, #-16]
  101284:	e2832038 	add	r2, r3, #56	; 0x38
  101288:	e51b3010 	ldr	r3, [fp, #-16]
  10128c:	e2833058 	add	r3, r3, #88	; 0x58
  101290:	e5933000 	ldr	r3, [r3]
  101294:	e1a00243 	asr	r0, r3, #4
  101298:	e51b3010 	ldr	r3, [fp, #-16]
  10129c:	e2833058 	add	r3, r3, #88	; 0x58
  1012a0:	e5933000 	ldr	r3, [r3]
  1012a4:	e203100f 	and	r1, r3, #15
  1012a8:	e3063134 	movw	r3, #24884	; 0x6134
  1012ac:	e3403010 	movt	r3, #16
  1012b0:	e1a00200 	lsl	r0, r0, #4
  1012b4:	e0801001 	add	r1, r0, r1
  1012b8:	e7933101 	ldr	r3, [r3, r1, lsl #2]
  1012bc:	e5823000 	str	r3, [r2]
  1012c0:	e51b3010 	ldr	r3, [fp, #-16]
  1012c4:	e2833058 	add	r3, r3, #88	; 0x58
  1012c8:	e51b2008 	ldr	r2, [fp, #-8]
  1012cc:	e5832000 	str	r2, [r3]
  1012d0:	e51b3010 	ldr	r3, [fp, #-16]
  1012d4:	e283300c 	add	r3, r3, #12
  1012d8:	e5933000 	ldr	r3, [r3]
  1012dc:	e1a01243 	asr	r1, r3, #4
  1012e0:	e51b3010 	ldr	r3, [fp, #-16]
  1012e4:	e283300c 	add	r3, r3, #12
  1012e8:	e5933000 	ldr	r3, [r3]
  1012ec:	e203200f 	and	r2, r3, #15
  1012f0:	e3063134 	movw	r3, #24884	; 0x6134
  1012f4:	e3403010 	movt	r3, #16
  1012f8:	e1a01201 	lsl	r1, r1, #4
  1012fc:	e0812002 	add	r2, r1, r2
  101300:	e7933102 	ldr	r3, [r3, r2, lsl #2]
  101304:	e50b3008 	str	r3, [fp, #-8]
  101308:	e51b3010 	ldr	r3, [fp, #-16]
  10130c:	e283200c 	add	r2, r3, #12
  101310:	e51b3010 	ldr	r3, [fp, #-16]
  101314:	e283303c 	add	r3, r3, #60	; 0x3c
  101318:	e5933000 	ldr	r3, [r3]
  10131c:	e1a00243 	asr	r0, r3, #4
  101320:	e51b3010 	ldr	r3, [fp, #-16]
  101324:	e283303c 	add	r3, r3, #60	; 0x3c
  101328:	e5933000 	ldr	r3, [r3]
  10132c:	e203100f 	and	r1, r3, #15
  101330:	e3063134 	movw	r3, #24884	; 0x6134
  101334:	e3403010 	movt	r3, #16
  101338:	e1a00200 	lsl	r0, r0, #4
  10133c:	e0801001 	add	r1, r0, r1
  101340:	e7933101 	ldr	r3, [r3, r1, lsl #2]
  101344:	e5823000 	str	r3, [r2]
  101348:	e51b3010 	ldr	r3, [fp, #-16]
  10134c:	e283303c 	add	r3, r3, #60	; 0x3c
  101350:	e51b2008 	ldr	r2, [fp, #-8]
  101354:	e5832000 	str	r2, [r3]
  101358:	e51b3010 	ldr	r3, [fp, #-16]
  10135c:	e283301c 	add	r3, r3, #28
  101360:	e5933000 	ldr	r3, [r3]
  101364:	e1a01243 	asr	r1, r3, #4
  101368:	e51b3010 	ldr	r3, [fp, #-16]
  10136c:	e283301c 	add	r3, r3, #28
  101370:	e5933000 	ldr	r3, [r3]
  101374:	e203200f 	and	r2, r3, #15
  101378:	e3063134 	movw	r3, #24884	; 0x6134
  10137c:	e3403010 	movt	r3, #16
  101380:	e1a01201 	lsl	r1, r1, #4
  101384:	e0812002 	add	r2, r1, r2
  101388:	e7933102 	ldr	r3, [r3, r2, lsl #2]
  10138c:	e50b3008 	str	r3, [fp, #-8]
  101390:	e51b3010 	ldr	r3, [fp, #-16]
  101394:	e283201c 	add	r2, r3, #28
  101398:	e51b3010 	ldr	r3, [fp, #-16]
  10139c:	e283304c 	add	r3, r3, #76	; 0x4c
  1013a0:	e5933000 	ldr	r3, [r3]
  1013a4:	e1a00243 	asr	r0, r3, #4
  1013a8:	e51b3010 	ldr	r3, [fp, #-16]
  1013ac:	e283304c 	add	r3, r3, #76	; 0x4c
  1013b0:	e5933000 	ldr	r3, [r3]
  1013b4:	e203100f 	and	r1, r3, #15
  1013b8:	e3063134 	movw	r3, #24884	; 0x6134
  1013bc:	e3403010 	movt	r3, #16
  1013c0:	e1a00200 	lsl	r0, r0, #4
  1013c4:	e0801001 	add	r1, r0, r1
  1013c8:	e7933101 	ldr	r3, [r3, r1, lsl #2]
  1013cc:	e5823000 	str	r3, [r2]
  1013d0:	e51b3010 	ldr	r3, [fp, #-16]
  1013d4:	e283304c 	add	r3, r3, #76	; 0x4c
  1013d8:	e51b2008 	ldr	r2, [fp, #-8]
  1013dc:	e5832000 	str	r2, [r3]
  1013e0:	e51b3010 	ldr	r3, [fp, #-16]
  1013e4:	e283302c 	add	r3, r3, #44	; 0x2c
  1013e8:	e5933000 	ldr	r3, [r3]
  1013ec:	e1a01243 	asr	r1, r3, #4
  1013f0:	e51b3010 	ldr	r3, [fp, #-16]
  1013f4:	e283302c 	add	r3, r3, #44	; 0x2c
  1013f8:	e5933000 	ldr	r3, [r3]
  1013fc:	e203200f 	and	r2, r3, #15
  101400:	e3063134 	movw	r3, #24884	; 0x6134
  101404:	e3403010 	movt	r3, #16
  101408:	e1a01201 	lsl	r1, r1, #4
  10140c:	e0812002 	add	r2, r1, r2
  101410:	e7933102 	ldr	r3, [r3, r2, lsl #2]
  101414:	e50b3008 	str	r3, [fp, #-8]
  101418:	e51b3010 	ldr	r3, [fp, #-16]
  10141c:	e283202c 	add	r2, r3, #44	; 0x2c
  101420:	e51b3010 	ldr	r3, [fp, #-16]
  101424:	e283305c 	add	r3, r3, #92	; 0x5c
  101428:	e5933000 	ldr	r3, [r3]
  10142c:	e1a00243 	asr	r0, r3, #4
  101430:	e51b3010 	ldr	r3, [fp, #-16]
  101434:	e283305c 	add	r3, r3, #92	; 0x5c
  101438:	e5933000 	ldr	r3, [r3]
  10143c:	e203100f 	and	r1, r3, #15
  101440:	e3063134 	movw	r3, #24884	; 0x6134
  101444:	e3403010 	movt	r3, #16
  101448:	e1a00200 	lsl	r0, r0, #4
  10144c:	e0801001 	add	r1, r0, r1
  101450:	e7933101 	ldr	r3, [r3, r1, lsl #2]
  101454:	e5823000 	str	r3, [r2]
  101458:	e51b3010 	ldr	r3, [fp, #-16]
  10145c:	e283305c 	add	r3, r3, #92	; 0x5c
  101460:	e51b2008 	ldr	r2, [fp, #-8]
  101464:	e5832000 	str	r2, [r3]
  101468:	e51b3010 	ldr	r3, [fp, #-16]
  10146c:	e5933000 	ldr	r3, [r3]
  101470:	e1a01243 	asr	r1, r3, #4
  101474:	e51b3010 	ldr	r3, [fp, #-16]
  101478:	e5933000 	ldr	r3, [r3]
  10147c:	e203200f 	and	r2, r3, #15
  101480:	e3063134 	movw	r3, #24884	; 0x6134
  101484:	e3403010 	movt	r3, #16
  101488:	e1a01201 	lsl	r1, r1, #4
  10148c:	e0812002 	add	r2, r1, r2
  101490:	e7932102 	ldr	r2, [r3, r2, lsl #2]
  101494:	e51b3010 	ldr	r3, [fp, #-16]
  101498:	e5832000 	str	r2, [r3]
  10149c:	e51b3010 	ldr	r3, [fp, #-16]
  1014a0:	e2832010 	add	r2, r3, #16
  1014a4:	e51b3010 	ldr	r3, [fp, #-16]
  1014a8:	e2833010 	add	r3, r3, #16
  1014ac:	e5933000 	ldr	r3, [r3]
  1014b0:	e1a00243 	asr	r0, r3, #4
  1014b4:	e51b3010 	ldr	r3, [fp, #-16]
  1014b8:	e2833010 	add	r3, r3, #16
  1014bc:	e5933000 	ldr	r3, [r3]
  1014c0:	e203100f 	and	r1, r3, #15
  1014c4:	e3063134 	movw	r3, #24884	; 0x6134
  1014c8:	e3403010 	movt	r3, #16
  1014cc:	e1a00200 	lsl	r0, r0, #4
  1014d0:	e0801001 	add	r1, r0, r1
  1014d4:	e7933101 	ldr	r3, [r3, r1, lsl #2]
  1014d8:	e5823000 	str	r3, [r2]
  1014dc:	e51b3010 	ldr	r3, [fp, #-16]
  1014e0:	e2832020 	add	r2, r3, #32
  1014e4:	e51b3010 	ldr	r3, [fp, #-16]
  1014e8:	e2833020 	add	r3, r3, #32
  1014ec:	e5933000 	ldr	r3, [r3]
  1014f0:	e1a00243 	asr	r0, r3, #4
  1014f4:	e51b3010 	ldr	r3, [fp, #-16]
  1014f8:	e2833020 	add	r3, r3, #32
  1014fc:	e5933000 	ldr	r3, [r3]
  101500:	e203100f 	and	r1, r3, #15
  101504:	e3063134 	movw	r3, #24884	; 0x6134
  101508:	e3403010 	movt	r3, #16
  10150c:	e1a00200 	lsl	r0, r0, #4
  101510:	e0801001 	add	r1, r0, r1
  101514:	e7933101 	ldr	r3, [r3, r1, lsl #2]
  101518:	e5823000 	str	r3, [r2]
  10151c:	e51b3010 	ldr	r3, [fp, #-16]
  101520:	e2832030 	add	r2, r3, #48	; 0x30
  101524:	e51b3010 	ldr	r3, [fp, #-16]
  101528:	e2833030 	add	r3, r3, #48	; 0x30
  10152c:	e5933000 	ldr	r3, [r3]
  101530:	e1a00243 	asr	r0, r3, #4
  101534:	e51b3010 	ldr	r3, [fp, #-16]
  101538:	e2833030 	add	r3, r3, #48	; 0x30
  10153c:	e5933000 	ldr	r3, [r3]
  101540:	e203100f 	and	r1, r3, #15
  101544:	e3063134 	movw	r3, #24884	; 0x6134
  101548:	e3403010 	movt	r3, #16
  10154c:	e1a00200 	lsl	r0, r0, #4
  101550:	e0801001 	add	r1, r0, r1
  101554:	e7933101 	ldr	r3, [r3, r1, lsl #2]
  101558:	e5823000 	str	r3, [r2]
  10155c:	e51b3010 	ldr	r3, [fp, #-16]
  101560:	e2832040 	add	r2, r3, #64	; 0x40
  101564:	e51b3010 	ldr	r3, [fp, #-16]
  101568:	e2833040 	add	r3, r3, #64	; 0x40
  10156c:	e5933000 	ldr	r3, [r3]
  101570:	e1a00243 	asr	r0, r3, #4
  101574:	e51b3010 	ldr	r3, [fp, #-16]
  101578:	e2833040 	add	r3, r3, #64	; 0x40
  10157c:	e5933000 	ldr	r3, [r3]
  101580:	e203100f 	and	r1, r3, #15
  101584:	e3063134 	movw	r3, #24884	; 0x6134
  101588:	e3403010 	movt	r3, #16
  10158c:	e1a00200 	lsl	r0, r0, #4
  101590:	e0801001 	add	r1, r0, r1
  101594:	e7933101 	ldr	r3, [r3, r1, lsl #2]
  101598:	e5823000 	str	r3, [r2]
  10159c:	e51b3010 	ldr	r3, [fp, #-16]
  1015a0:	e2832050 	add	r2, r3, #80	; 0x50
  1015a4:	e51b3010 	ldr	r3, [fp, #-16]
  1015a8:	e2833050 	add	r3, r3, #80	; 0x50
  1015ac:	e5933000 	ldr	r3, [r3]
  1015b0:	e1a00243 	asr	r0, r3, #4
  1015b4:	e51b3010 	ldr	r3, [fp, #-16]
  1015b8:	e2833050 	add	r3, r3, #80	; 0x50
  1015bc:	e5933000 	ldr	r3, [r3]
  1015c0:	e203100f 	and	r1, r3, #15
  1015c4:	e3063134 	movw	r3, #24884	; 0x6134
  1015c8:	e3403010 	movt	r3, #16
  1015cc:	e1a00200 	lsl	r0, r0, #4
  1015d0:	e0801001 	add	r1, r0, r1
  1015d4:	e7933101 	ldr	r3, [r3, r1, lsl #2]
  1015d8:	e5823000 	str	r3, [r2]
  1015dc:	ea000209 	b	101e08 <ByteSub_ShiftRow+0x1298>
  1015e0:	e51b3010 	ldr	r3, [fp, #-16]
  1015e4:	e2833004 	add	r3, r3, #4
  1015e8:	e5933000 	ldr	r3, [r3]
  1015ec:	e1a01243 	asr	r1, r3, #4
  1015f0:	e51b3010 	ldr	r3, [fp, #-16]
  1015f4:	e2833004 	add	r3, r3, #4
  1015f8:	e5933000 	ldr	r3, [r3]
  1015fc:	e203200f 	and	r2, r3, #15
  101600:	e3063134 	movw	r3, #24884	; 0x6134
  101604:	e3403010 	movt	r3, #16
  101608:	e1a01201 	lsl	r1, r1, #4
  10160c:	e0812002 	add	r2, r1, r2
  101610:	e7933102 	ldr	r3, [r3, r2, lsl #2]
  101614:	e50b3008 	str	r3, [fp, #-8]
  101618:	e51b3010 	ldr	r3, [fp, #-16]
  10161c:	e2832004 	add	r2, r3, #4
  101620:	e51b3010 	ldr	r3, [fp, #-16]
  101624:	e2833014 	add	r3, r3, #20
  101628:	e5933000 	ldr	r3, [r3]
  10162c:	e1a00243 	asr	r0, r3, #4
  101630:	e51b3010 	ldr	r3, [fp, #-16]
  101634:	e2833014 	add	r3, r3, #20
  101638:	e5933000 	ldr	r3, [r3]
  10163c:	e203100f 	and	r1, r3, #15
  101640:	e3063134 	movw	r3, #24884	; 0x6134
  101644:	e3403010 	movt	r3, #16
  101648:	e1a00200 	lsl	r0, r0, #4
  10164c:	e0801001 	add	r1, r0, r1
  101650:	e7933101 	ldr	r3, [r3, r1, lsl #2]
  101654:	e5823000 	str	r3, [r2]
  101658:	e51b3010 	ldr	r3, [fp, #-16]
  10165c:	e2832014 	add	r2, r3, #20
  101660:	e51b3010 	ldr	r3, [fp, #-16]
  101664:	e2833024 	add	r3, r3, #36	; 0x24
  101668:	e5933000 	ldr	r3, [r3]
  10166c:	e1a00243 	asr	r0, r3, #4
  101670:	e51b3010 	ldr	r3, [fp, #-16]
  101674:	e2833024 	add	r3, r3, #36	; 0x24
  101678:	e5933000 	ldr	r3, [r3]
  10167c:	e203100f 	and	r1, r3, #15
  101680:	e3063134 	movw	r3, #24884	; 0x6134
  101684:	e3403010 	movt	r3, #16
  101688:	e1a00200 	lsl	r0, r0, #4
  10168c:	e0801001 	add	r1, r0, r1
  101690:	e7933101 	ldr	r3, [r3, r1, lsl #2]
  101694:	e5823000 	str	r3, [r2]
  101698:	e51b3010 	ldr	r3, [fp, #-16]
  10169c:	e2832024 	add	r2, r3, #36	; 0x24
  1016a0:	e51b3010 	ldr	r3, [fp, #-16]
  1016a4:	e2833034 	add	r3, r3, #52	; 0x34
  1016a8:	e5933000 	ldr	r3, [r3]
  1016ac:	e1a00243 	asr	r0, r3, #4
  1016b0:	e51b3010 	ldr	r3, [fp, #-16]
  1016b4:	e2833034 	add	r3, r3, #52	; 0x34
  1016b8:	e5933000 	ldr	r3, [r3]
  1016bc:	e203100f 	and	r1, r3, #15
  1016c0:	e3063134 	movw	r3, #24884	; 0x6134
  1016c4:	e3403010 	movt	r3, #16
  1016c8:	e1a00200 	lsl	r0, r0, #4
  1016cc:	e0801001 	add	r1, r0, r1
  1016d0:	e7933101 	ldr	r3, [r3, r1, lsl #2]
  1016d4:	e5823000 	str	r3, [r2]
  1016d8:	e51b3010 	ldr	r3, [fp, #-16]
  1016dc:	e2832034 	add	r2, r3, #52	; 0x34
  1016e0:	e51b3010 	ldr	r3, [fp, #-16]
  1016e4:	e2833044 	add	r3, r3, #68	; 0x44
  1016e8:	e5933000 	ldr	r3, [r3]
  1016ec:	e1a00243 	asr	r0, r3, #4
  1016f0:	e51b3010 	ldr	r3, [fp, #-16]
  1016f4:	e2833044 	add	r3, r3, #68	; 0x44
  1016f8:	e5933000 	ldr	r3, [r3]
  1016fc:	e203100f 	and	r1, r3, #15
  101700:	e3063134 	movw	r3, #24884	; 0x6134
  101704:	e3403010 	movt	r3, #16
  101708:	e1a00200 	lsl	r0, r0, #4
  10170c:	e0801001 	add	r1, r0, r1
  101710:	e7933101 	ldr	r3, [r3, r1, lsl #2]
  101714:	e5823000 	str	r3, [r2]
  101718:	e51b3010 	ldr	r3, [fp, #-16]
  10171c:	e2832044 	add	r2, r3, #68	; 0x44
  101720:	e51b3010 	ldr	r3, [fp, #-16]
  101724:	e2833054 	add	r3, r3, #84	; 0x54
  101728:	e5933000 	ldr	r3, [r3]
  10172c:	e1a00243 	asr	r0, r3, #4
  101730:	e51b3010 	ldr	r3, [fp, #-16]
  101734:	e2833054 	add	r3, r3, #84	; 0x54
  101738:	e5933000 	ldr	r3, [r3]
  10173c:	e203100f 	and	r1, r3, #15
  101740:	e3063134 	movw	r3, #24884	; 0x6134
  101744:	e3403010 	movt	r3, #16
  101748:	e1a00200 	lsl	r0, r0, #4
  10174c:	e0801001 	add	r1, r0, r1
  101750:	e7933101 	ldr	r3, [r3, r1, lsl #2]
  101754:	e5823000 	str	r3, [r2]
  101758:	e51b3010 	ldr	r3, [fp, #-16]
  10175c:	e2832054 	add	r2, r3, #84	; 0x54
  101760:	e51b3010 	ldr	r3, [fp, #-16]
  101764:	e2833064 	add	r3, r3, #100	; 0x64
  101768:	e5933000 	ldr	r3, [r3]
  10176c:	e1a00243 	asr	r0, r3, #4
  101770:	e51b3010 	ldr	r3, [fp, #-16]
  101774:	e2833064 	add	r3, r3, #100	; 0x64
  101778:	e5933000 	ldr	r3, [r3]
  10177c:	e203100f 	and	r1, r3, #15
  101780:	e3063134 	movw	r3, #24884	; 0x6134
  101784:	e3403010 	movt	r3, #16
  101788:	e1a00200 	lsl	r0, r0, #4
  10178c:	e0801001 	add	r1, r0, r1
  101790:	e7933101 	ldr	r3, [r3, r1, lsl #2]
  101794:	e5823000 	str	r3, [r2]
  101798:	e51b3010 	ldr	r3, [fp, #-16]
  10179c:	e2832064 	add	r2, r3, #100	; 0x64
  1017a0:	e51b3010 	ldr	r3, [fp, #-16]
  1017a4:	e2833074 	add	r3, r3, #116	; 0x74
  1017a8:	e5933000 	ldr	r3, [r3]
  1017ac:	e1a00243 	asr	r0, r3, #4
  1017b0:	e51b3010 	ldr	r3, [fp, #-16]
  1017b4:	e2833074 	add	r3, r3, #116	; 0x74
  1017b8:	e5933000 	ldr	r3, [r3]
  1017bc:	e203100f 	and	r1, r3, #15
  1017c0:	e3063134 	movw	r3, #24884	; 0x6134
  1017c4:	e3403010 	movt	r3, #16
  1017c8:	e1a00200 	lsl	r0, r0, #4
  1017cc:	e0801001 	add	r1, r0, r1
  1017d0:	e7933101 	ldr	r3, [r3, r1, lsl #2]
  1017d4:	e5823000 	str	r3, [r2]
  1017d8:	e51b3010 	ldr	r3, [fp, #-16]
  1017dc:	e2833074 	add	r3, r3, #116	; 0x74
  1017e0:	e51b2008 	ldr	r2, [fp, #-8]
  1017e4:	e5832000 	str	r2, [r3]
  1017e8:	e51b3010 	ldr	r3, [fp, #-16]
  1017ec:	e2833008 	add	r3, r3, #8
  1017f0:	e5933000 	ldr	r3, [r3]
  1017f4:	e1a01243 	asr	r1, r3, #4
  1017f8:	e51b3010 	ldr	r3, [fp, #-16]
  1017fc:	e2833008 	add	r3, r3, #8
  101800:	e5933000 	ldr	r3, [r3]
  101804:	e203200f 	and	r2, r3, #15
  101808:	e3063134 	movw	r3, #24884	; 0x6134
  10180c:	e3403010 	movt	r3, #16
  101810:	e1a01201 	lsl	r1, r1, #4
  101814:	e0812002 	add	r2, r1, r2
  101818:	e7933102 	ldr	r3, [r3, r2, lsl #2]
  10181c:	e50b3008 	str	r3, [fp, #-8]
  101820:	e51b3010 	ldr	r3, [fp, #-16]
  101824:	e2832008 	add	r2, r3, #8
  101828:	e51b3010 	ldr	r3, [fp, #-16]
  10182c:	e2833038 	add	r3, r3, #56	; 0x38
  101830:	e5933000 	ldr	r3, [r3]
  101834:	e1a00243 	asr	r0, r3, #4
  101838:	e51b3010 	ldr	r3, [fp, #-16]
  10183c:	e2833038 	add	r3, r3, #56	; 0x38
  101840:	e5933000 	ldr	r3, [r3]
  101844:	e203100f 	and	r1, r3, #15
  101848:	e3063134 	movw	r3, #24884	; 0x6134
  10184c:	e3403010 	movt	r3, #16
  101850:	e1a00200 	lsl	r0, r0, #4
  101854:	e0801001 	add	r1, r0, r1
  101858:	e7933101 	ldr	r3, [r3, r1, lsl #2]
  10185c:	e5823000 	str	r3, [r2]
  101860:	e51b3010 	ldr	r3, [fp, #-16]
  101864:	e2832038 	add	r2, r3, #56	; 0x38
  101868:	e51b3010 	ldr	r3, [fp, #-16]
  10186c:	e2833068 	add	r3, r3, #104	; 0x68
  101870:	e5933000 	ldr	r3, [r3]
  101874:	e1a00243 	asr	r0, r3, #4
  101878:	e51b3010 	ldr	r3, [fp, #-16]
  10187c:	e2833068 	add	r3, r3, #104	; 0x68
  101880:	e5933000 	ldr	r3, [r3]
  101884:	e203100f 	and	r1, r3, #15
  101888:	e3063134 	movw	r3, #24884	; 0x6134
  10188c:	e3403010 	movt	r3, #16
  101890:	e1a00200 	lsl	r0, r0, #4
  101894:	e0801001 	add	r1, r0, r1
  101898:	e7933101 	ldr	r3, [r3, r1, lsl #2]
  10189c:	e5823000 	str	r3, [r2]
  1018a0:	e51b3010 	ldr	r3, [fp, #-16]
  1018a4:	e2832068 	add	r2, r3, #104	; 0x68
  1018a8:	e51b3010 	ldr	r3, [fp, #-16]
  1018ac:	e2833018 	add	r3, r3, #24
  1018b0:	e5933000 	ldr	r3, [r3]
  1018b4:	e1a00243 	asr	r0, r3, #4
  1018b8:	e51b3010 	ldr	r3, [fp, #-16]
  1018bc:	e2833018 	add	r3, r3, #24
  1018c0:	e5933000 	ldr	r3, [r3]
  1018c4:	e203100f 	and	r1, r3, #15
  1018c8:	e3063134 	movw	r3, #24884	; 0x6134
  1018cc:	e3403010 	movt	r3, #16
  1018d0:	e1a00200 	lsl	r0, r0, #4
  1018d4:	e0801001 	add	r1, r0, r1
  1018d8:	e7933101 	ldr	r3, [r3, r1, lsl #2]
  1018dc:	e5823000 	str	r3, [r2]
  1018e0:	e51b3010 	ldr	r3, [fp, #-16]
  1018e4:	e2832018 	add	r2, r3, #24
  1018e8:	e51b3010 	ldr	r3, [fp, #-16]
  1018ec:	e2833048 	add	r3, r3, #72	; 0x48
  1018f0:	e5933000 	ldr	r3, [r3]
  1018f4:	e1a00243 	asr	r0, r3, #4
  1018f8:	e51b3010 	ldr	r3, [fp, #-16]
  1018fc:	e2833048 	add	r3, r3, #72	; 0x48
  101900:	e5933000 	ldr	r3, [r3]
  101904:	e203100f 	and	r1, r3, #15
  101908:	e3063134 	movw	r3, #24884	; 0x6134
  10190c:	e3403010 	movt	r3, #16
  101910:	e1a00200 	lsl	r0, r0, #4
  101914:	e0801001 	add	r1, r0, r1
  101918:	e7933101 	ldr	r3, [r3, r1, lsl #2]
  10191c:	e5823000 	str	r3, [r2]
  101920:	e51b3010 	ldr	r3, [fp, #-16]
  101924:	e2832048 	add	r2, r3, #72	; 0x48
  101928:	e51b3010 	ldr	r3, [fp, #-16]
  10192c:	e2833078 	add	r3, r3, #120	; 0x78
  101930:	e5933000 	ldr	r3, [r3]
  101934:	e1a00243 	asr	r0, r3, #4
  101938:	e51b3010 	ldr	r3, [fp, #-16]
  10193c:	e2833078 	add	r3, r3, #120	; 0x78
  101940:	e5933000 	ldr	r3, [r3]
  101944:	e203100f 	and	r1, r3, #15
  101948:	e3063134 	movw	r3, #24884	; 0x6134
  10194c:	e3403010 	movt	r3, #16
  101950:	e1a00200 	lsl	r0, r0, #4
  101954:	e0801001 	add	r1, r0, r1
  101958:	e7933101 	ldr	r3, [r3, r1, lsl #2]
  10195c:	e5823000 	str	r3, [r2]
  101960:	e51b3010 	ldr	r3, [fp, #-16]
  101964:	e2832078 	add	r2, r3, #120	; 0x78
  101968:	e51b3010 	ldr	r3, [fp, #-16]
  10196c:	e2833028 	add	r3, r3, #40	; 0x28
  101970:	e5933000 	ldr	r3, [r3]
  101974:	e1a00243 	asr	r0, r3, #4
  101978:	e51b3010 	ldr	r3, [fp, #-16]
  10197c:	e2833028 	add	r3, r3, #40	; 0x28
  101980:	e5933000 	ldr	r3, [r3]
  101984:	e203100f 	and	r1, r3, #15
  101988:	e3063134 	movw	r3, #24884	; 0x6134
  10198c:	e3403010 	movt	r3, #16
  101990:	e1a00200 	lsl	r0, r0, #4
  101994:	e0801001 	add	r1, r0, r1
  101998:	e7933101 	ldr	r3, [r3, r1, lsl #2]
  10199c:	e5823000 	str	r3, [r2]
  1019a0:	e51b3010 	ldr	r3, [fp, #-16]
  1019a4:	e2832028 	add	r2, r3, #40	; 0x28
  1019a8:	e51b3010 	ldr	r3, [fp, #-16]
  1019ac:	e2833058 	add	r3, r3, #88	; 0x58
  1019b0:	e5933000 	ldr	r3, [r3]
  1019b4:	e1a00243 	asr	r0, r3, #4
  1019b8:	e51b3010 	ldr	r3, [fp, #-16]
  1019bc:	e2833058 	add	r3, r3, #88	; 0x58
  1019c0:	e5933000 	ldr	r3, [r3]
  1019c4:	e203100f 	and	r1, r3, #15
  1019c8:	e3063134 	movw	r3, #24884	; 0x6134
  1019cc:	e3403010 	movt	r3, #16
  1019d0:	e1a00200 	lsl	r0, r0, #4
  1019d4:	e0801001 	add	r1, r0, r1
  1019d8:	e7933101 	ldr	r3, [r3, r1, lsl #2]
  1019dc:	e5823000 	str	r3, [r2]
  1019e0:	e51b3010 	ldr	r3, [fp, #-16]
  1019e4:	e2833058 	add	r3, r3, #88	; 0x58
  1019e8:	e51b2008 	ldr	r2, [fp, #-8]
  1019ec:	e5832000 	str	r2, [r3]
  1019f0:	e51b3010 	ldr	r3, [fp, #-16]
  1019f4:	e283300c 	add	r3, r3, #12
  1019f8:	e5933000 	ldr	r3, [r3]
  1019fc:	e1a01243 	asr	r1, r3, #4
  101a00:	e51b3010 	ldr	r3, [fp, #-16]
  101a04:	e283300c 	add	r3, r3, #12
  101a08:	e5933000 	ldr	r3, [r3]
  101a0c:	e203200f 	and	r2, r3, #15
  101a10:	e3063134 	movw	r3, #24884	; 0x6134
  101a14:	e3403010 	movt	r3, #16
  101a18:	e1a01201 	lsl	r1, r1, #4
  101a1c:	e0812002 	add	r2, r1, r2
  101a20:	e7933102 	ldr	r3, [r3, r2, lsl #2]
  101a24:	e50b3008 	str	r3, [fp, #-8]
  101a28:	e51b3010 	ldr	r3, [fp, #-16]
  101a2c:	e283200c 	add	r2, r3, #12
  101a30:	e51b3010 	ldr	r3, [fp, #-16]
  101a34:	e283304c 	add	r3, r3, #76	; 0x4c
  101a38:	e5933000 	ldr	r3, [r3]
  101a3c:	e1a00243 	asr	r0, r3, #4
  101a40:	e51b3010 	ldr	r3, [fp, #-16]
  101a44:	e283304c 	add	r3, r3, #76	; 0x4c
  101a48:	e5933000 	ldr	r3, [r3]
  101a4c:	e203100f 	and	r1, r3, #15
  101a50:	e3063134 	movw	r3, #24884	; 0x6134
  101a54:	e3403010 	movt	r3, #16
  101a58:	e1a00200 	lsl	r0, r0, #4
  101a5c:	e0801001 	add	r1, r0, r1
  101a60:	e7933101 	ldr	r3, [r3, r1, lsl #2]
  101a64:	e5823000 	str	r3, [r2]
  101a68:	e51b3010 	ldr	r3, [fp, #-16]
  101a6c:	e283304c 	add	r3, r3, #76	; 0x4c
  101a70:	e51b2008 	ldr	r2, [fp, #-8]
  101a74:	e5832000 	str	r2, [r3]
  101a78:	e51b3010 	ldr	r3, [fp, #-16]
  101a7c:	e283301c 	add	r3, r3, #28
  101a80:	e5933000 	ldr	r3, [r3]
  101a84:	e1a01243 	asr	r1, r3, #4
  101a88:	e51b3010 	ldr	r3, [fp, #-16]
  101a8c:	e283301c 	add	r3, r3, #28
  101a90:	e5933000 	ldr	r3, [r3]
  101a94:	e203200f 	and	r2, r3, #15
  101a98:	e3063134 	movw	r3, #24884	; 0x6134
  101a9c:	e3403010 	movt	r3, #16
  101aa0:	e1a01201 	lsl	r1, r1, #4
  101aa4:	e0812002 	add	r2, r1, r2
  101aa8:	e7933102 	ldr	r3, [r3, r2, lsl #2]
  101aac:	e50b3008 	str	r3, [fp, #-8]
  101ab0:	e51b3010 	ldr	r3, [fp, #-16]
  101ab4:	e283201c 	add	r2, r3, #28
  101ab8:	e51b3010 	ldr	r3, [fp, #-16]
  101abc:	e283305c 	add	r3, r3, #92	; 0x5c
  101ac0:	e5933000 	ldr	r3, [r3]
  101ac4:	e1a00243 	asr	r0, r3, #4
  101ac8:	e51b3010 	ldr	r3, [fp, #-16]
  101acc:	e283305c 	add	r3, r3, #92	; 0x5c
  101ad0:	e5933000 	ldr	r3, [r3]
  101ad4:	e203100f 	and	r1, r3, #15
  101ad8:	e3063134 	movw	r3, #24884	; 0x6134
  101adc:	e3403010 	movt	r3, #16
  101ae0:	e1a00200 	lsl	r0, r0, #4
  101ae4:	e0801001 	add	r1, r0, r1
  101ae8:	e7933101 	ldr	r3, [r3, r1, lsl #2]
  101aec:	e5823000 	str	r3, [r2]
  101af0:	e51b3010 	ldr	r3, [fp, #-16]
  101af4:	e283305c 	add	r3, r3, #92	; 0x5c
  101af8:	e51b2008 	ldr	r2, [fp, #-8]
  101afc:	e5832000 	str	r2, [r3]
  101b00:	e51b3010 	ldr	r3, [fp, #-16]
  101b04:	e283302c 	add	r3, r3, #44	; 0x2c
  101b08:	e5933000 	ldr	r3, [r3]
  101b0c:	e1a01243 	asr	r1, r3, #4
  101b10:	e51b3010 	ldr	r3, [fp, #-16]
  101b14:	e283302c 	add	r3, r3, #44	; 0x2c
  101b18:	e5933000 	ldr	r3, [r3]
  101b1c:	e203200f 	and	r2, r3, #15
  101b20:	e3063134 	movw	r3, #24884	; 0x6134
  101b24:	e3403010 	movt	r3, #16
  101b28:	e1a01201 	lsl	r1, r1, #4
  101b2c:	e0812002 	add	r2, r1, r2
  101b30:	e7933102 	ldr	r3, [r3, r2, lsl #2]
  101b34:	e50b3008 	str	r3, [fp, #-8]
  101b38:	e51b3010 	ldr	r3, [fp, #-16]
  101b3c:	e283202c 	add	r2, r3, #44	; 0x2c
  101b40:	e51b3010 	ldr	r3, [fp, #-16]
  101b44:	e283306c 	add	r3, r3, #108	; 0x6c
  101b48:	e5933000 	ldr	r3, [r3]
  101b4c:	e1a00243 	asr	r0, r3, #4
  101b50:	e51b3010 	ldr	r3, [fp, #-16]
  101b54:	e283306c 	add	r3, r3, #108	; 0x6c
  101b58:	e5933000 	ldr	r3, [r3]
  101b5c:	e203100f 	and	r1, r3, #15
  101b60:	e3063134 	movw	r3, #24884	; 0x6134
  101b64:	e3403010 	movt	r3, #16
  101b68:	e1a00200 	lsl	r0, r0, #4
  101b6c:	e0801001 	add	r1, r0, r1
  101b70:	e7933101 	ldr	r3, [r3, r1, lsl #2]
  101b74:	e5823000 	str	r3, [r2]
  101b78:	e51b3010 	ldr	r3, [fp, #-16]
  101b7c:	e283306c 	add	r3, r3, #108	; 0x6c
  101b80:	e51b2008 	ldr	r2, [fp, #-8]
  101b84:	e5832000 	str	r2, [r3]
  101b88:	e51b3010 	ldr	r3, [fp, #-16]
  101b8c:	e283303c 	add	r3, r3, #60	; 0x3c
  101b90:	e5933000 	ldr	r3, [r3]
  101b94:	e1a01243 	asr	r1, r3, #4
  101b98:	e51b3010 	ldr	r3, [fp, #-16]
  101b9c:	e283303c 	add	r3, r3, #60	; 0x3c
  101ba0:	e5933000 	ldr	r3, [r3]
  101ba4:	e203200f 	and	r2, r3, #15
  101ba8:	e3063134 	movw	r3, #24884	; 0x6134
  101bac:	e3403010 	movt	r3, #16
  101bb0:	e1a01201 	lsl	r1, r1, #4
  101bb4:	e0812002 	add	r2, r1, r2
  101bb8:	e7933102 	ldr	r3, [r3, r2, lsl #2]
  101bbc:	e50b3008 	str	r3, [fp, #-8]
  101bc0:	e51b3010 	ldr	r3, [fp, #-16]
  101bc4:	e283203c 	add	r2, r3, #60	; 0x3c
  101bc8:	e51b3010 	ldr	r3, [fp, #-16]
  101bcc:	e283307c 	add	r3, r3, #124	; 0x7c
  101bd0:	e5933000 	ldr	r3, [r3]
  101bd4:	e1a00243 	asr	r0, r3, #4
  101bd8:	e51b3010 	ldr	r3, [fp, #-16]
  101bdc:	e283307c 	add	r3, r3, #124	; 0x7c
  101be0:	e5933000 	ldr	r3, [r3]
  101be4:	e203100f 	and	r1, r3, #15
  101be8:	e3063134 	movw	r3, #24884	; 0x6134
  101bec:	e3403010 	movt	r3, #16
  101bf0:	e1a00200 	lsl	r0, r0, #4
  101bf4:	e0801001 	add	r1, r0, r1
  101bf8:	e7933101 	ldr	r3, [r3, r1, lsl #2]
  101bfc:	e5823000 	str	r3, [r2]
  101c00:	e51b3010 	ldr	r3, [fp, #-16]
  101c04:	e283307c 	add	r3, r3, #124	; 0x7c
  101c08:	e51b2008 	ldr	r2, [fp, #-8]
  101c0c:	e5832000 	str	r2, [r3]
  101c10:	e51b3010 	ldr	r3, [fp, #-16]
  101c14:	e5933000 	ldr	r3, [r3]
  101c18:	e1a01243 	asr	r1, r3, #4
  101c1c:	e51b3010 	ldr	r3, [fp, #-16]
  101c20:	e5933000 	ldr	r3, [r3]
  101c24:	e203200f 	and	r2, r3, #15
  101c28:	e3063134 	movw	r3, #24884	; 0x6134
  101c2c:	e3403010 	movt	r3, #16
  101c30:	e1a01201 	lsl	r1, r1, #4
  101c34:	e0812002 	add	r2, r1, r2
  101c38:	e7932102 	ldr	r2, [r3, r2, lsl #2]
  101c3c:	e51b3010 	ldr	r3, [fp, #-16]
  101c40:	e5832000 	str	r2, [r3]
  101c44:	e51b3010 	ldr	r3, [fp, #-16]
  101c48:	e2832010 	add	r2, r3, #16
  101c4c:	e51b3010 	ldr	r3, [fp, #-16]
  101c50:	e2833010 	add	r3, r3, #16
  101c54:	e5933000 	ldr	r3, [r3]
  101c58:	e1a00243 	asr	r0, r3, #4
  101c5c:	e51b3010 	ldr	r3, [fp, #-16]
  101c60:	e2833010 	add	r3, r3, #16
  101c64:	e5933000 	ldr	r3, [r3]
  101c68:	e203100f 	and	r1, r3, #15
  101c6c:	e3063134 	movw	r3, #24884	; 0x6134
  101c70:	e3403010 	movt	r3, #16
  101c74:	e1a00200 	lsl	r0, r0, #4
  101c78:	e0801001 	add	r1, r0, r1
  101c7c:	e7933101 	ldr	r3, [r3, r1, lsl #2]
  101c80:	e5823000 	str	r3, [r2]
  101c84:	e51b3010 	ldr	r3, [fp, #-16]
  101c88:	e2832020 	add	r2, r3, #32
  101c8c:	e51b3010 	ldr	r3, [fp, #-16]
  101c90:	e2833020 	add	r3, r3, #32
  101c94:	e5933000 	ldr	r3, [r3]
  101c98:	e1a00243 	asr	r0, r3, #4
  101c9c:	e51b3010 	ldr	r3, [fp, #-16]
  101ca0:	e2833020 	add	r3, r3, #32
  101ca4:	e5933000 	ldr	r3, [r3]
  101ca8:	e203100f 	and	r1, r3, #15
  101cac:	e3063134 	movw	r3, #24884	; 0x6134
  101cb0:	e3403010 	movt	r3, #16
  101cb4:	e1a00200 	lsl	r0, r0, #4
  101cb8:	e0801001 	add	r1, r0, r1
  101cbc:	e7933101 	ldr	r3, [r3, r1, lsl #2]
  101cc0:	e5823000 	str	r3, [r2]
  101cc4:	e51b3010 	ldr	r3, [fp, #-16]
  101cc8:	e2832030 	add	r2, r3, #48	; 0x30
  101ccc:	e51b3010 	ldr	r3, [fp, #-16]
  101cd0:	e2833030 	add	r3, r3, #48	; 0x30
  101cd4:	e5933000 	ldr	r3, [r3]
  101cd8:	e1a00243 	asr	r0, r3, #4
  101cdc:	e51b3010 	ldr	r3, [fp, #-16]
  101ce0:	e2833030 	add	r3, r3, #48	; 0x30
  101ce4:	e5933000 	ldr	r3, [r3]
  101ce8:	e203100f 	and	r1, r3, #15
  101cec:	e3063134 	movw	r3, #24884	; 0x6134
  101cf0:	e3403010 	movt	r3, #16
  101cf4:	e1a00200 	lsl	r0, r0, #4
  101cf8:	e0801001 	add	r1, r0, r1
  101cfc:	e7933101 	ldr	r3, [r3, r1, lsl #2]
  101d00:	e5823000 	str	r3, [r2]
  101d04:	e51b3010 	ldr	r3, [fp, #-16]
  101d08:	e2832040 	add	r2, r3, #64	; 0x40
  101d0c:	e51b3010 	ldr	r3, [fp, #-16]
  101d10:	e2833040 	add	r3, r3, #64	; 0x40
  101d14:	e5933000 	ldr	r3, [r3]
  101d18:	e1a00243 	asr	r0, r3, #4
  101d1c:	e51b3010 	ldr	r3, [fp, #-16]
  101d20:	e2833040 	add	r3, r3, #64	; 0x40
  101d24:	e5933000 	ldr	r3, [r3]
  101d28:	e203100f 	and	r1, r3, #15
  101d2c:	e3063134 	movw	r3, #24884	; 0x6134
  101d30:	e3403010 	movt	r3, #16
  101d34:	e1a00200 	lsl	r0, r0, #4
  101d38:	e0801001 	add	r1, r0, r1
  101d3c:	e7933101 	ldr	r3, [r3, r1, lsl #2]
  101d40:	e5823000 	str	r3, [r2]
  101d44:	e51b3010 	ldr	r3, [fp, #-16]
  101d48:	e2832050 	add	r2, r3, #80	; 0x50
  101d4c:	e51b3010 	ldr	r3, [fp, #-16]
  101d50:	e2833050 	add	r3, r3, #80	; 0x50
  101d54:	e5933000 	ldr	r3, [r3]
  101d58:	e1a00243 	asr	r0, r3, #4
  101d5c:	e51b3010 	ldr	r3, [fp, #-16]
  101d60:	e2833050 	add	r3, r3, #80	; 0x50
  101d64:	e5933000 	ldr	r3, [r3]
  101d68:	e203100f 	and	r1, r3, #15
  101d6c:	e3063134 	movw	r3, #24884	; 0x6134
  101d70:	e3403010 	movt	r3, #16
  101d74:	e1a00200 	lsl	r0, r0, #4
  101d78:	e0801001 	add	r1, r0, r1
  101d7c:	e7933101 	ldr	r3, [r3, r1, lsl #2]
  101d80:	e5823000 	str	r3, [r2]
  101d84:	e51b3010 	ldr	r3, [fp, #-16]
  101d88:	e2832060 	add	r2, r3, #96	; 0x60
  101d8c:	e51b3010 	ldr	r3, [fp, #-16]
  101d90:	e2833060 	add	r3, r3, #96	; 0x60
  101d94:	e5933000 	ldr	r3, [r3]
  101d98:	e1a00243 	asr	r0, r3, #4
  101d9c:	e51b3010 	ldr	r3, [fp, #-16]
  101da0:	e2833060 	add	r3, r3, #96	; 0x60
  101da4:	e5933000 	ldr	r3, [r3]
  101da8:	e203100f 	and	r1, r3, #15
  101dac:	e3063134 	movw	r3, #24884	; 0x6134
  101db0:	e3403010 	movt	r3, #16
  101db4:	e1a00200 	lsl	r0, r0, #4
  101db8:	e0801001 	add	r1, r0, r1
  101dbc:	e7933101 	ldr	r3, [r3, r1, lsl #2]
  101dc0:	e5823000 	str	r3, [r2]
  101dc4:	e51b3010 	ldr	r3, [fp, #-16]
  101dc8:	e2832070 	add	r2, r3, #112	; 0x70
  101dcc:	e51b3010 	ldr	r3, [fp, #-16]
  101dd0:	e2833070 	add	r3, r3, #112	; 0x70
  101dd4:	e5933000 	ldr	r3, [r3]
  101dd8:	e1a00243 	asr	r0, r3, #4
  101ddc:	e51b3010 	ldr	r3, [fp, #-16]
  101de0:	e2833070 	add	r3, r3, #112	; 0x70
  101de4:	e5933000 	ldr	r3, [r3]
  101de8:	e203100f 	and	r1, r3, #15
  101dec:	e3063134 	movw	r3, #24884	; 0x6134
  101df0:	e3403010 	movt	r3, #16
  101df4:	e1a00200 	lsl	r0, r0, #4
  101df8:	e0801001 	add	r1, r0, r1
  101dfc:	e7933101 	ldr	r3, [r3, r1, lsl #2]
  101e00:	e5823000 	str	r3, [r2]
  101e04:	e1a00000 	nop			; (mov r0, r0)
  101e08:	e24bd000 	sub	sp, fp, #0
  101e0c:	e49db004 	pop	{fp}		; (ldr fp, [sp], #4)
  101e10:	e12fff1e 	bx	lr

00101e14 <SubByte>:
  101e14:	e52db004 	push	{fp}		; (str fp, [sp, #-4]!)
  101e18:	e28db000 	add	fp, sp, #0
  101e1c:	e24dd00c 	sub	sp, sp, #12
  101e20:	e50b0008 	str	r0, [fp, #-8]
  101e24:	e51b3008 	ldr	r3, [fp, #-8]
  101e28:	e283200f 	add	r2, r3, #15
  101e2c:	e3530000 	cmp	r3, #0
  101e30:	b1a03002 	movlt	r3, r2
  101e34:	e1a03243 	asr	r3, r3, #4
  101e38:	e1a01003 	mov	r1, r3
  101e3c:	e51b2008 	ldr	r2, [fp, #-8]
  101e40:	e1a03fc2 	asr	r3, r2, #31
  101e44:	e1a03e23 	lsr	r3, r3, #28
  101e48:	e0822003 	add	r2, r2, r3
  101e4c:	e202200f 	and	r2, r2, #15
  101e50:	e0633002 	rsb	r3, r3, r2
  101e54:	e1a02003 	mov	r2, r3
  101e58:	e3063134 	movw	r3, #24884	; 0x6134
  101e5c:	e3403010 	movt	r3, #16
  101e60:	e1a01201 	lsl	r1, r1, #4
  101e64:	e0812002 	add	r2, r1, r2
  101e68:	e7933102 	ldr	r3, [r3, r2, lsl #2]
  101e6c:	e1a00003 	mov	r0, r3
  101e70:	e24bd000 	sub	sp, fp, #0
  101e74:	e49db004 	pop	{fp}		; (ldr fp, [sp], #4)
  101e78:	e12fff1e 	bx	lr

00101e7c <InversShiftRow_ByteSub>:
  101e7c:	e52db004 	push	{fp}		; (str fp, [sp, #-4]!)
  101e80:	e28db000 	add	fp, sp, #0
  101e84:	e24dd014 	sub	sp, sp, #20
  101e88:	e50b0010 	str	r0, [fp, #-16]
  101e8c:	e50b1014 	str	r1, [fp, #-20]	; 0xffffffec
  101e90:	e51b3014 	ldr	r3, [fp, #-20]	; 0xffffffec
  101e94:	e3530006 	cmp	r3, #6
  101e98:	0a000109 	beq	1022c4 <InversShiftRow_ByteSub+0x448>
  101e9c:	e3530008 	cmp	r3, #8
  101ea0:	0a000291 	beq	1028ec <InversShiftRow_ByteSub+0xa70>
  101ea4:	e3530004 	cmp	r3, #4
  101ea8:	1a000499 	bne	103114 <InversShiftRow_ByteSub+0x1298>
  101eac:	e51b3010 	ldr	r3, [fp, #-16]
  101eb0:	e2833034 	add	r3, r3, #52	; 0x34
  101eb4:	e5933000 	ldr	r3, [r3]
  101eb8:	e1a01243 	asr	r1, r3, #4
  101ebc:	e51b3010 	ldr	r3, [fp, #-16]
  101ec0:	e2833034 	add	r3, r3, #52	; 0x34
  101ec4:	e5933000 	ldr	r3, [r3]
  101ec8:	e203200f 	and	r2, r3, #15
  101ecc:	e3063534 	movw	r3, #25908	; 0x6534
  101ed0:	e3403010 	movt	r3, #16
  101ed4:	e1a01201 	lsl	r1, r1, #4
  101ed8:	e0812002 	add	r2, r1, r2
  101edc:	e7933102 	ldr	r3, [r3, r2, lsl #2]
  101ee0:	e50b3008 	str	r3, [fp, #-8]
  101ee4:	e51b3010 	ldr	r3, [fp, #-16]
  101ee8:	e2832034 	add	r2, r3, #52	; 0x34
  101eec:	e51b3010 	ldr	r3, [fp, #-16]
  101ef0:	e2833024 	add	r3, r3, #36	; 0x24
  101ef4:	e5933000 	ldr	r3, [r3]
  101ef8:	e1a00243 	asr	r0, r3, #4
  101efc:	e51b3010 	ldr	r3, [fp, #-16]
  101f00:	e2833024 	add	r3, r3, #36	; 0x24
  101f04:	e5933000 	ldr	r3, [r3]
  101f08:	e203100f 	and	r1, r3, #15
  101f0c:	e3063534 	movw	r3, #25908	; 0x6534
  101f10:	e3403010 	movt	r3, #16
  101f14:	e1a00200 	lsl	r0, r0, #4
  101f18:	e0801001 	add	r1, r0, r1
  101f1c:	e7933101 	ldr	r3, [r3, r1, lsl #2]
  101f20:	e5823000 	str	r3, [r2]
  101f24:	e51b3010 	ldr	r3, [fp, #-16]
  101f28:	e2832024 	add	r2, r3, #36	; 0x24
  101f2c:	e51b3010 	ldr	r3, [fp, #-16]
  101f30:	e2833014 	add	r3, r3, #20
  101f34:	e5933000 	ldr	r3, [r3]
  101f38:	e1a00243 	asr	r0, r3, #4
  101f3c:	e51b3010 	ldr	r3, [fp, #-16]
  101f40:	e2833014 	add	r3, r3, #20
  101f44:	e5933000 	ldr	r3, [r3]
  101f48:	e203100f 	and	r1, r3, #15
  101f4c:	e3063534 	movw	r3, #25908	; 0x6534
  101f50:	e3403010 	movt	r3, #16
  101f54:	e1a00200 	lsl	r0, r0, #4
  101f58:	e0801001 	add	r1, r0, r1
  101f5c:	e7933101 	ldr	r3, [r3, r1, lsl #2]
  101f60:	e5823000 	str	r3, [r2]
  101f64:	e51b3010 	ldr	r3, [fp, #-16]
  101f68:	e2832014 	add	r2, r3, #20
  101f6c:	e51b3010 	ldr	r3, [fp, #-16]
  101f70:	e2833004 	add	r3, r3, #4
  101f74:	e5933000 	ldr	r3, [r3]
  101f78:	e1a00243 	asr	r0, r3, #4
  101f7c:	e51b3010 	ldr	r3, [fp, #-16]
  101f80:	e2833004 	add	r3, r3, #4
  101f84:	e5933000 	ldr	r3, [r3]
  101f88:	e203100f 	and	r1, r3, #15
  101f8c:	e3063534 	movw	r3, #25908	; 0x6534
  101f90:	e3403010 	movt	r3, #16
  101f94:	e1a00200 	lsl	r0, r0, #4
  101f98:	e0801001 	add	r1, r0, r1
  101f9c:	e7933101 	ldr	r3, [r3, r1, lsl #2]
  101fa0:	e5823000 	str	r3, [r2]
  101fa4:	e51b3010 	ldr	r3, [fp, #-16]
  101fa8:	e2833004 	add	r3, r3, #4
  101fac:	e51b2008 	ldr	r2, [fp, #-8]
  101fb0:	e5832000 	str	r2, [r3]
  101fb4:	e51b3010 	ldr	r3, [fp, #-16]
  101fb8:	e2833038 	add	r3, r3, #56	; 0x38
  101fbc:	e5933000 	ldr	r3, [r3]
  101fc0:	e1a01243 	asr	r1, r3, #4
  101fc4:	e51b3010 	ldr	r3, [fp, #-16]
  101fc8:	e2833038 	add	r3, r3, #56	; 0x38
  101fcc:	e5933000 	ldr	r3, [r3]
  101fd0:	e203200f 	and	r2, r3, #15
  101fd4:	e3063534 	movw	r3, #25908	; 0x6534
  101fd8:	e3403010 	movt	r3, #16
  101fdc:	e1a01201 	lsl	r1, r1, #4
  101fe0:	e0812002 	add	r2, r1, r2
  101fe4:	e7933102 	ldr	r3, [r3, r2, lsl #2]
  101fe8:	e50b3008 	str	r3, [fp, #-8]
  101fec:	e51b3010 	ldr	r3, [fp, #-16]
  101ff0:	e2832038 	add	r2, r3, #56	; 0x38
  101ff4:	e51b3010 	ldr	r3, [fp, #-16]
  101ff8:	e2833018 	add	r3, r3, #24
  101ffc:	e5933000 	ldr	r3, [r3]
  102000:	e1a00243 	asr	r0, r3, #4
  102004:	e51b3010 	ldr	r3, [fp, #-16]
  102008:	e2833018 	add	r3, r3, #24
  10200c:	e5933000 	ldr	r3, [r3]
  102010:	e203100f 	and	r1, r3, #15
  102014:	e3063534 	movw	r3, #25908	; 0x6534
  102018:	e3403010 	movt	r3, #16
  10201c:	e1a00200 	lsl	r0, r0, #4
  102020:	e0801001 	add	r1, r0, r1
  102024:	e7933101 	ldr	r3, [r3, r1, lsl #2]
  102028:	e5823000 	str	r3, [r2]
  10202c:	e51b3010 	ldr	r3, [fp, #-16]
  102030:	e2833018 	add	r3, r3, #24
  102034:	e51b2008 	ldr	r2, [fp, #-8]
  102038:	e5832000 	str	r2, [r3]
  10203c:	e51b3010 	ldr	r3, [fp, #-16]
  102040:	e2833008 	add	r3, r3, #8
  102044:	e5933000 	ldr	r3, [r3]
  102048:	e1a01243 	asr	r1, r3, #4
  10204c:	e51b3010 	ldr	r3, [fp, #-16]
  102050:	e2833008 	add	r3, r3, #8
  102054:	e5933000 	ldr	r3, [r3]
  102058:	e203200f 	and	r2, r3, #15
  10205c:	e3063534 	movw	r3, #25908	; 0x6534
  102060:	e3403010 	movt	r3, #16
  102064:	e1a01201 	lsl	r1, r1, #4
  102068:	e0812002 	add	r2, r1, r2
  10206c:	e7933102 	ldr	r3, [r3, r2, lsl #2]
  102070:	e50b3008 	str	r3, [fp, #-8]
  102074:	e51b3010 	ldr	r3, [fp, #-16]
  102078:	e2832008 	add	r2, r3, #8
  10207c:	e51b3010 	ldr	r3, [fp, #-16]
  102080:	e2833028 	add	r3, r3, #40	; 0x28
  102084:	e5933000 	ldr	r3, [r3]
  102088:	e1a00243 	asr	r0, r3, #4
  10208c:	e51b3010 	ldr	r3, [fp, #-16]
  102090:	e2833028 	add	r3, r3, #40	; 0x28
  102094:	e5933000 	ldr	r3, [r3]
  102098:	e203100f 	and	r1, r3, #15
  10209c:	e3063534 	movw	r3, #25908	; 0x6534
  1020a0:	e3403010 	movt	r3, #16
  1020a4:	e1a00200 	lsl	r0, r0, #4
  1020a8:	e0801001 	add	r1, r0, r1
  1020ac:	e7933101 	ldr	r3, [r3, r1, lsl #2]
  1020b0:	e5823000 	str	r3, [r2]
  1020b4:	e51b3010 	ldr	r3, [fp, #-16]
  1020b8:	e2833028 	add	r3, r3, #40	; 0x28
  1020bc:	e51b2008 	ldr	r2, [fp, #-8]
  1020c0:	e5832000 	str	r2, [r3]
  1020c4:	e51b3010 	ldr	r3, [fp, #-16]
  1020c8:	e283303c 	add	r3, r3, #60	; 0x3c
  1020cc:	e5933000 	ldr	r3, [r3]
  1020d0:	e1a01243 	asr	r1, r3, #4
  1020d4:	e51b3010 	ldr	r3, [fp, #-16]
  1020d8:	e283303c 	add	r3, r3, #60	; 0x3c
  1020dc:	e5933000 	ldr	r3, [r3]
  1020e0:	e203200f 	and	r2, r3, #15
  1020e4:	e3063534 	movw	r3, #25908	; 0x6534
  1020e8:	e3403010 	movt	r3, #16
  1020ec:	e1a01201 	lsl	r1, r1, #4
  1020f0:	e0812002 	add	r2, r1, r2
  1020f4:	e7933102 	ldr	r3, [r3, r2, lsl #2]
  1020f8:	e50b3008 	str	r3, [fp, #-8]
  1020fc:	e51b3010 	ldr	r3, [fp, #-16]
  102100:	e283203c 	add	r2, r3, #60	; 0x3c
  102104:	e51b3010 	ldr	r3, [fp, #-16]
  102108:	e283300c 	add	r3, r3, #12
  10210c:	e5933000 	ldr	r3, [r3]
  102110:	e1a00243 	asr	r0, r3, #4
  102114:	e51b3010 	ldr	r3, [fp, #-16]
  102118:	e283300c 	add	r3, r3, #12
  10211c:	e5933000 	ldr	r3, [r3]
  102120:	e203100f 	and	r1, r3, #15
  102124:	e3063534 	movw	r3, #25908	; 0x6534
  102128:	e3403010 	movt	r3, #16
  10212c:	e1a00200 	lsl	r0, r0, #4
  102130:	e0801001 	add	r1, r0, r1
  102134:	e7933101 	ldr	r3, [r3, r1, lsl #2]
  102138:	e5823000 	str	r3, [r2]
  10213c:	e51b3010 	ldr	r3, [fp, #-16]
  102140:	e283200c 	add	r2, r3, #12
  102144:	e51b3010 	ldr	r3, [fp, #-16]
  102148:	e283301c 	add	r3, r3, #28
  10214c:	e5933000 	ldr	r3, [r3]
  102150:	e1a00243 	asr	r0, r3, #4
  102154:	e51b3010 	ldr	r3, [fp, #-16]
  102158:	e283301c 	add	r3, r3, #28
  10215c:	e5933000 	ldr	r3, [r3]
  102160:	e203100f 	and	r1, r3, #15
  102164:	e3063534 	movw	r3, #25908	; 0x6534
  102168:	e3403010 	movt	r3, #16
  10216c:	e1a00200 	lsl	r0, r0, #4
  102170:	e0801001 	add	r1, r0, r1
  102174:	e7933101 	ldr	r3, [r3, r1, lsl #2]
  102178:	e5823000 	str	r3, [r2]
  10217c:	e51b3010 	ldr	r3, [fp, #-16]
  102180:	e283201c 	add	r2, r3, #28
  102184:	e51b3010 	ldr	r3, [fp, #-16]
  102188:	e283302c 	add	r3, r3, #44	; 0x2c
  10218c:	e5933000 	ldr	r3, [r3]
  102190:	e1a00243 	asr	r0, r3, #4
  102194:	e51b3010 	ldr	r3, [fp, #-16]
  102198:	e283302c 	add	r3, r3, #44	; 0x2c
  10219c:	e5933000 	ldr	r3, [r3]
  1021a0:	e203100f 	and	r1, r3, #15
  1021a4:	e3063534 	movw	r3, #25908	; 0x6534
  1021a8:	e3403010 	movt	r3, #16
  1021ac:	e1a00200 	lsl	r0, r0, #4
  1021b0:	e0801001 	add	r1, r0, r1
  1021b4:	e7933101 	ldr	r3, [r3, r1, lsl #2]
  1021b8:	e5823000 	str	r3, [r2]
  1021bc:	e51b3010 	ldr	r3, [fp, #-16]
  1021c0:	e283302c 	add	r3, r3, #44	; 0x2c
  1021c4:	e51b2008 	ldr	r2, [fp, #-8]
  1021c8:	e5832000 	str	r2, [r3]
  1021cc:	e51b3010 	ldr	r3, [fp, #-16]
  1021d0:	e5933000 	ldr	r3, [r3]
  1021d4:	e1a01243 	asr	r1, r3, #4
  1021d8:	e51b3010 	ldr	r3, [fp, #-16]
  1021dc:	e5933000 	ldr	r3, [r3]
  1021e0:	e203200f 	and	r2, r3, #15
  1021e4:	e3063534 	movw	r3, #25908	; 0x6534
  1021e8:	e3403010 	movt	r3, #16
  1021ec:	e1a01201 	lsl	r1, r1, #4
  1021f0:	e0812002 	add	r2, r1, r2
  1021f4:	e7932102 	ldr	r2, [r3, r2, lsl #2]
  1021f8:	e51b3010 	ldr	r3, [fp, #-16]
  1021fc:	e5832000 	str	r2, [r3]
  102200:	e51b3010 	ldr	r3, [fp, #-16]
  102204:	e2832010 	add	r2, r3, #16
  102208:	e51b3010 	ldr	r3, [fp, #-16]
  10220c:	e2833010 	add	r3, r3, #16
  102210:	e5933000 	ldr	r3, [r3]
  102214:	e1a00243 	asr	r0, r3, #4
  102218:	e51b3010 	ldr	r3, [fp, #-16]
  10221c:	e2833010 	add	r3, r3, #16
  102220:	e5933000 	ldr	r3, [r3]
  102224:	e203100f 	and	r1, r3, #15
  102228:	e3063534 	movw	r3, #25908	; 0x6534
  10222c:	e3403010 	movt	r3, #16
  102230:	e1a00200 	lsl	r0, r0, #4
  102234:	e0801001 	add	r1, r0, r1
  102238:	e7933101 	ldr	r3, [r3, r1, lsl #2]
  10223c:	e5823000 	str	r3, [r2]
  102240:	e51b3010 	ldr	r3, [fp, #-16]
  102244:	e2832020 	add	r2, r3, #32
  102248:	e51b3010 	ldr	r3, [fp, #-16]
  10224c:	e2833020 	add	r3, r3, #32
  102250:	e5933000 	ldr	r3, [r3]
  102254:	e1a00243 	asr	r0, r3, #4
  102258:	e51b3010 	ldr	r3, [fp, #-16]
  10225c:	e2833020 	add	r3, r3, #32
  102260:	e5933000 	ldr	r3, [r3]
  102264:	e203100f 	and	r1, r3, #15
  102268:	e3063534 	movw	r3, #25908	; 0x6534
  10226c:	e3403010 	movt	r3, #16
  102270:	e1a00200 	lsl	r0, r0, #4
  102274:	e0801001 	add	r1, r0, r1
  102278:	e7933101 	ldr	r3, [r3, r1, lsl #2]
  10227c:	e5823000 	str	r3, [r2]
  102280:	e51b3010 	ldr	r3, [fp, #-16]
  102284:	e2832030 	add	r2, r3, #48	; 0x30
  102288:	e51b3010 	ldr	r3, [fp, #-16]
  10228c:	e2833030 	add	r3, r3, #48	; 0x30
  102290:	e5933000 	ldr	r3, [r3]
  102294:	e1a00243 	asr	r0, r3, #4
  102298:	e51b3010 	ldr	r3, [fp, #-16]
  10229c:	e2833030 	add	r3, r3, #48	; 0x30
  1022a0:	e5933000 	ldr	r3, [r3]
  1022a4:	e203100f 	and	r1, r3, #15
  1022a8:	e3063534 	movw	r3, #25908	; 0x6534
  1022ac:	e3403010 	movt	r3, #16
  1022b0:	e1a00200 	lsl	r0, r0, #4
  1022b4:	e0801001 	add	r1, r0, r1
  1022b8:	e7933101 	ldr	r3, [r3, r1, lsl #2]
  1022bc:	e5823000 	str	r3, [r2]
  1022c0:	ea000393 	b	103114 <InversShiftRow_ByteSub+0x1298>
  1022c4:	e51b3010 	ldr	r3, [fp, #-16]
  1022c8:	e2833054 	add	r3, r3, #84	; 0x54
  1022cc:	e5933000 	ldr	r3, [r3]
  1022d0:	e1a01243 	asr	r1, r3, #4
  1022d4:	e51b3010 	ldr	r3, [fp, #-16]
  1022d8:	e2833054 	add	r3, r3, #84	; 0x54
  1022dc:	e5933000 	ldr	r3, [r3]
  1022e0:	e203200f 	and	r2, r3, #15
  1022e4:	e3063534 	movw	r3, #25908	; 0x6534
  1022e8:	e3403010 	movt	r3, #16
  1022ec:	e1a01201 	lsl	r1, r1, #4
  1022f0:	e0812002 	add	r2, r1, r2
  1022f4:	e7933102 	ldr	r3, [r3, r2, lsl #2]
  1022f8:	e50b3008 	str	r3, [fp, #-8]
  1022fc:	e51b3010 	ldr	r3, [fp, #-16]
  102300:	e2832054 	add	r2, r3, #84	; 0x54
  102304:	e51b3010 	ldr	r3, [fp, #-16]
  102308:	e2833044 	add	r3, r3, #68	; 0x44
  10230c:	e5933000 	ldr	r3, [r3]
  102310:	e1a00243 	asr	r0, r3, #4
  102314:	e51b3010 	ldr	r3, [fp, #-16]
  102318:	e2833044 	add	r3, r3, #68	; 0x44
  10231c:	e5933000 	ldr	r3, [r3]
  102320:	e203100f 	and	r1, r3, #15
  102324:	e3063534 	movw	r3, #25908	; 0x6534
  102328:	e3403010 	movt	r3, #16
  10232c:	e1a00200 	lsl	r0, r0, #4
  102330:	e0801001 	add	r1, r0, r1
  102334:	e7933101 	ldr	r3, [r3, r1, lsl #2]
  102338:	e5823000 	str	r3, [r2]
  10233c:	e51b3010 	ldr	r3, [fp, #-16]
  102340:	e2832044 	add	r2, r3, #68	; 0x44
  102344:	e51b3010 	ldr	r3, [fp, #-16]
  102348:	e2833034 	add	r3, r3, #52	; 0x34
  10234c:	e5933000 	ldr	r3, [r3]
  102350:	e1a00243 	asr	r0, r3, #4
  102354:	e51b3010 	ldr	r3, [fp, #-16]
  102358:	e2833034 	add	r3, r3, #52	; 0x34
  10235c:	e5933000 	ldr	r3, [r3]
  102360:	e203100f 	and	r1, r3, #15
  102364:	e3063534 	movw	r3, #25908	; 0x6534
  102368:	e3403010 	movt	r3, #16
  10236c:	e1a00200 	lsl	r0, r0, #4
  102370:	e0801001 	add	r1, r0, r1
  102374:	e7933101 	ldr	r3, [r3, r1, lsl #2]
  102378:	e5823000 	str	r3, [r2]
  10237c:	e51b3010 	ldr	r3, [fp, #-16]
  102380:	e2832034 	add	r2, r3, #52	; 0x34
  102384:	e51b3010 	ldr	r3, [fp, #-16]
  102388:	e2833024 	add	r3, r3, #36	; 0x24
  10238c:	e5933000 	ldr	r3, [r3]
  102390:	e1a00243 	asr	r0, r3, #4
  102394:	e51b3010 	ldr	r3, [fp, #-16]
  102398:	e2833024 	add	r3, r3, #36	; 0x24
  10239c:	e5933000 	ldr	r3, [r3]
  1023a0:	e203100f 	and	r1, r3, #15
  1023a4:	e3063534 	movw	r3, #25908	; 0x6534
  1023a8:	e3403010 	movt	r3, #16
  1023ac:	e1a00200 	lsl	r0, r0, #4
  1023b0:	e0801001 	add	r1, r0, r1
  1023b4:	e7933101 	ldr	r3, [r3, r1, lsl #2]
  1023b8:	e5823000 	str	r3, [r2]
  1023bc:	e51b3010 	ldr	r3, [fp, #-16]
  1023c0:	e2832024 	add	r2, r3, #36	; 0x24
  1023c4:	e51b3010 	ldr	r3, [fp, #-16]
  1023c8:	e2833014 	add	r3, r3, #20
  1023cc:	e5933000 	ldr	r3, [r3]
  1023d0:	e1a00243 	asr	r0, r3, #4
  1023d4:	e51b3010 	ldr	r3, [fp, #-16]
  1023d8:	e2833014 	add	r3, r3, #20
  1023dc:	e5933000 	ldr	r3, [r3]
  1023e0:	e203100f 	and	r1, r3, #15
  1023e4:	e3063534 	movw	r3, #25908	; 0x6534
  1023e8:	e3403010 	movt	r3, #16
  1023ec:	e1a00200 	lsl	r0, r0, #4
  1023f0:	e0801001 	add	r1, r0, r1
  1023f4:	e7933101 	ldr	r3, [r3, r1, lsl #2]
  1023f8:	e5823000 	str	r3, [r2]
  1023fc:	e51b3010 	ldr	r3, [fp, #-16]
  102400:	e2832014 	add	r2, r3, #20
  102404:	e51b3010 	ldr	r3, [fp, #-16]
  102408:	e2833004 	add	r3, r3, #4
  10240c:	e5933000 	ldr	r3, [r3]
  102410:	e1a00243 	asr	r0, r3, #4
  102414:	e51b3010 	ldr	r3, [fp, #-16]
  102418:	e2833004 	add	r3, r3, #4
  10241c:	e5933000 	ldr	r3, [r3]
  102420:	e203100f 	and	r1, r3, #15
  102424:	e3063534 	movw	r3, #25908	; 0x6534
  102428:	e3403010 	movt	r3, #16
  10242c:	e1a00200 	lsl	r0, r0, #4
  102430:	e0801001 	add	r1, r0, r1
  102434:	e7933101 	ldr	r3, [r3, r1, lsl #2]
  102438:	e5823000 	str	r3, [r2]
  10243c:	e51b3010 	ldr	r3, [fp, #-16]
  102440:	e2833004 	add	r3, r3, #4
  102444:	e51b2008 	ldr	r2, [fp, #-8]
  102448:	e5832000 	str	r2, [r3]
  10244c:	e51b3010 	ldr	r3, [fp, #-16]
  102450:	e2833058 	add	r3, r3, #88	; 0x58
  102454:	e5933000 	ldr	r3, [r3]
  102458:	e1a01243 	asr	r1, r3, #4
  10245c:	e51b3010 	ldr	r3, [fp, #-16]
  102460:	e2833058 	add	r3, r3, #88	; 0x58
  102464:	e5933000 	ldr	r3, [r3]
  102468:	e203200f 	and	r2, r3, #15
  10246c:	e3063534 	movw	r3, #25908	; 0x6534
  102470:	e3403010 	movt	r3, #16
  102474:	e1a01201 	lsl	r1, r1, #4
  102478:	e0812002 	add	r2, r1, r2
  10247c:	e7933102 	ldr	r3, [r3, r2, lsl #2]
  102480:	e50b3008 	str	r3, [fp, #-8]
  102484:	e51b3010 	ldr	r3, [fp, #-16]
  102488:	e2832058 	add	r2, r3, #88	; 0x58
  10248c:	e51b3010 	ldr	r3, [fp, #-16]
  102490:	e2833038 	add	r3, r3, #56	; 0x38
  102494:	e5933000 	ldr	r3, [r3]
  102498:	e1a00243 	asr	r0, r3, #4
  10249c:	e51b3010 	ldr	r3, [fp, #-16]
  1024a0:	e2833038 	add	r3, r3, #56	; 0x38
  1024a4:	e5933000 	ldr	r3, [r3]
  1024a8:	e203100f 	and	r1, r3, #15
  1024ac:	e3063534 	movw	r3, #25908	; 0x6534
  1024b0:	e3403010 	movt	r3, #16
  1024b4:	e1a00200 	lsl	r0, r0, #4
  1024b8:	e0801001 	add	r1, r0, r1
  1024bc:	e7933101 	ldr	r3, [r3, r1, lsl #2]
  1024c0:	e5823000 	str	r3, [r2]
  1024c4:	e51b3010 	ldr	r3, [fp, #-16]
  1024c8:	e2832038 	add	r2, r3, #56	; 0x38
  1024cc:	e51b3010 	ldr	r3, [fp, #-16]
  1024d0:	e2833018 	add	r3, r3, #24
  1024d4:	e5933000 	ldr	r3, [r3]
  1024d8:	e1a00243 	asr	r0, r3, #4
  1024dc:	e51b3010 	ldr	r3, [fp, #-16]
  1024e0:	e2833018 	add	r3, r3, #24
  1024e4:	e5933000 	ldr	r3, [r3]
  1024e8:	e203100f 	and	r1, r3, #15
  1024ec:	e3063534 	movw	r3, #25908	; 0x6534
  1024f0:	e3403010 	movt	r3, #16
  1024f4:	e1a00200 	lsl	r0, r0, #4
  1024f8:	e0801001 	add	r1, r0, r1
  1024fc:	e7933101 	ldr	r3, [r3, r1, lsl #2]
  102500:	e5823000 	str	r3, [r2]
  102504:	e51b3010 	ldr	r3, [fp, #-16]
  102508:	e2833018 	add	r3, r3, #24
  10250c:	e51b2008 	ldr	r2, [fp, #-8]
  102510:	e5832000 	str	r2, [r3]
  102514:	e51b3010 	ldr	r3, [fp, #-16]
  102518:	e2833048 	add	r3, r3, #72	; 0x48
  10251c:	e5933000 	ldr	r3, [r3]
  102520:	e1a01243 	asr	r1, r3, #4
  102524:	e51b3010 	ldr	r3, [fp, #-16]
  102528:	e2833048 	add	r3, r3, #72	; 0x48
  10252c:	e5933000 	ldr	r3, [r3]
  102530:	e203200f 	and	r2, r3, #15
  102534:	e3063534 	movw	r3, #25908	; 0x6534
  102538:	e3403010 	movt	r3, #16
  10253c:	e1a01201 	lsl	r1, r1, #4
  102540:	e0812002 	add	r2, r1, r2
  102544:	e7933102 	ldr	r3, [r3, r2, lsl #2]
  102548:	e50b3008 	str	r3, [fp, #-8]
  10254c:	e51b3010 	ldr	r3, [fp, #-16]
  102550:	e2832048 	add	r2, r3, #72	; 0x48
  102554:	e51b3010 	ldr	r3, [fp, #-16]
  102558:	e2833028 	add	r3, r3, #40	; 0x28
  10255c:	e5933000 	ldr	r3, [r3]
  102560:	e1a00243 	asr	r0, r3, #4
  102564:	e51b3010 	ldr	r3, [fp, #-16]
  102568:	e2833028 	add	r3, r3, #40	; 0x28
  10256c:	e5933000 	ldr	r3, [r3]
  102570:	e203100f 	and	r1, r3, #15
  102574:	e3063534 	movw	r3, #25908	; 0x6534
  102578:	e3403010 	movt	r3, #16
  10257c:	e1a00200 	lsl	r0, r0, #4
  102580:	e0801001 	add	r1, r0, r1
  102584:	e7933101 	ldr	r3, [r3, r1, lsl #2]
  102588:	e5823000 	str	r3, [r2]
  10258c:	e51b3010 	ldr	r3, [fp, #-16]
  102590:	e2832028 	add	r2, r3, #40	; 0x28
  102594:	e51b3010 	ldr	r3, [fp, #-16]
  102598:	e2833008 	add	r3, r3, #8
  10259c:	e5933000 	ldr	r3, [r3]
  1025a0:	e1a00243 	asr	r0, r3, #4
  1025a4:	e51b3010 	ldr	r3, [fp, #-16]
  1025a8:	e2833008 	add	r3, r3, #8
  1025ac:	e5933000 	ldr	r3, [r3]
  1025b0:	e203100f 	and	r1, r3, #15
  1025b4:	e3063534 	movw	r3, #25908	; 0x6534
  1025b8:	e3403010 	movt	r3, #16
  1025bc:	e1a00200 	lsl	r0, r0, #4
  1025c0:	e0801001 	add	r1, r0, r1
  1025c4:	e7933101 	ldr	r3, [r3, r1, lsl #2]
  1025c8:	e5823000 	str	r3, [r2]
  1025cc:	e51b3010 	ldr	r3, [fp, #-16]
  1025d0:	e2833008 	add	r3, r3, #8
  1025d4:	e51b2008 	ldr	r2, [fp, #-8]
  1025d8:	e5832000 	str	r2, [r3]
  1025dc:	e51b3010 	ldr	r3, [fp, #-16]
  1025e0:	e283303c 	add	r3, r3, #60	; 0x3c
  1025e4:	e5933000 	ldr	r3, [r3]
  1025e8:	e1a01243 	asr	r1, r3, #4
  1025ec:	e51b3010 	ldr	r3, [fp, #-16]
  1025f0:	e283303c 	add	r3, r3, #60	; 0x3c
  1025f4:	e5933000 	ldr	r3, [r3]
  1025f8:	e203200f 	and	r2, r3, #15
  1025fc:	e3063534 	movw	r3, #25908	; 0x6534
  102600:	e3403010 	movt	r3, #16
  102604:	e1a01201 	lsl	r1, r1, #4
  102608:	e0812002 	add	r2, r1, r2
  10260c:	e7933102 	ldr	r3, [r3, r2, lsl #2]
  102610:	e50b3008 	str	r3, [fp, #-8]
  102614:	e51b3010 	ldr	r3, [fp, #-16]
  102618:	e283203c 	add	r2, r3, #60	; 0x3c
  10261c:	e51b3010 	ldr	r3, [fp, #-16]
  102620:	e283300c 	add	r3, r3, #12
  102624:	e5933000 	ldr	r3, [r3]
  102628:	e1a00243 	asr	r0, r3, #4
  10262c:	e51b3010 	ldr	r3, [fp, #-16]
  102630:	e283300c 	add	r3, r3, #12
  102634:	e5933000 	ldr	r3, [r3]
  102638:	e203100f 	and	r1, r3, #15
  10263c:	e3063534 	movw	r3, #25908	; 0x6534
  102640:	e3403010 	movt	r3, #16
  102644:	e1a00200 	lsl	r0, r0, #4
  102648:	e0801001 	add	r1, r0, r1
  10264c:	e7933101 	ldr	r3, [r3, r1, lsl #2]
  102650:	e5823000 	str	r3, [r2]
  102654:	e51b3010 	ldr	r3, [fp, #-16]
  102658:	e283300c 	add	r3, r3, #12
  10265c:	e51b2008 	ldr	r2, [fp, #-8]
  102660:	e5832000 	str	r2, [r3]
  102664:	e51b3010 	ldr	r3, [fp, #-16]
  102668:	e283304c 	add	r3, r3, #76	; 0x4c
  10266c:	e5933000 	ldr	r3, [r3]
  102670:	e1a01243 	asr	r1, r3, #4
  102674:	e51b3010 	ldr	r3, [fp, #-16]
  102678:	e283304c 	add	r3, r3, #76	; 0x4c
  10267c:	e5933000 	ldr	r3, [r3]
  102680:	e203200f 	and	r2, r3, #15
  102684:	e3063534 	movw	r3, #25908	; 0x6534
  102688:	e3403010 	movt	r3, #16
  10268c:	e1a01201 	lsl	r1, r1, #4
  102690:	e0812002 	add	r2, r1, r2
  102694:	e7933102 	ldr	r3, [r3, r2, lsl #2]
  102698:	e50b3008 	str	r3, [fp, #-8]
  10269c:	e51b3010 	ldr	r3, [fp, #-16]
  1026a0:	e283204c 	add	r2, r3, #76	; 0x4c
  1026a4:	e51b3010 	ldr	r3, [fp, #-16]
  1026a8:	e283301c 	add	r3, r3, #28
  1026ac:	e5933000 	ldr	r3, [r3]
  1026b0:	e1a00243 	asr	r0, r3, #4
  1026b4:	e51b3010 	ldr	r3, [fp, #-16]
  1026b8:	e283301c 	add	r3, r3, #28
  1026bc:	e5933000 	ldr	r3, [r3]
  1026c0:	e203100f 	and	r1, r3, #15
  1026c4:	e3063534 	movw	r3, #25908	; 0x6534
  1026c8:	e3403010 	movt	r3, #16
  1026cc:	e1a00200 	lsl	r0, r0, #4
  1026d0:	e0801001 	add	r1, r0, r1
  1026d4:	e7933101 	ldr	r3, [r3, r1, lsl #2]
  1026d8:	e5823000 	str	r3, [r2]
  1026dc:	e51b3010 	ldr	r3, [fp, #-16]
  1026e0:	e283301c 	add	r3, r3, #28
  1026e4:	e51b2008 	ldr	r2, [fp, #-8]
  1026e8:	e5832000 	str	r2, [r3]
  1026ec:	e51b3010 	ldr	r3, [fp, #-16]
  1026f0:	e283305c 	add	r3, r3, #92	; 0x5c
  1026f4:	e5933000 	ldr	r3, [r3]
  1026f8:	e1a01243 	asr	r1, r3, #4
  1026fc:	e51b3010 	ldr	r3, [fp, #-16]
  102700:	e283305c 	add	r3, r3, #92	; 0x5c
  102704:	e5933000 	ldr	r3, [r3]
  102708:	e203200f 	and	r2, r3, #15
  10270c:	e3063534 	movw	r3, #25908	; 0x6534
  102710:	e3403010 	movt	r3, #16
  102714:	e1a01201 	lsl	r1, r1, #4
  102718:	e0812002 	add	r2, r1, r2
  10271c:	e7933102 	ldr	r3, [r3, r2, lsl #2]
  102720:	e50b3008 	str	r3, [fp, #-8]
  102724:	e51b3010 	ldr	r3, [fp, #-16]
  102728:	e283205c 	add	r2, r3, #92	; 0x5c
  10272c:	e51b3010 	ldr	r3, [fp, #-16]
  102730:	e283302c 	add	r3, r3, #44	; 0x2c
  102734:	e5933000 	ldr	r3, [r3]
  102738:	e1a00243 	asr	r0, r3, #4
  10273c:	e51b3010 	ldr	r3, [fp, #-16]
  102740:	e283302c 	add	r3, r3, #44	; 0x2c
  102744:	e5933000 	ldr	r3, [r3]
  102748:	e203100f 	and	r1, r3, #15
  10274c:	e3063534 	movw	r3, #25908	; 0x6534
  102750:	e3403010 	movt	r3, #16
  102754:	e1a00200 	lsl	r0, r0, #4
  102758:	e0801001 	add	r1, r0, r1
  10275c:	e7933101 	ldr	r3, [r3, r1, lsl #2]
  102760:	e5823000 	str	r3, [r2]
  102764:	e51b3010 	ldr	r3, [fp, #-16]
  102768:	e283302c 	add	r3, r3, #44	; 0x2c
  10276c:	e51b2008 	ldr	r2, [fp, #-8]
  102770:	e5832000 	str	r2, [r3]
  102774:	e51b3010 	ldr	r3, [fp, #-16]
  102778:	e5933000 	ldr	r3, [r3]
  10277c:	e1a01243 	asr	r1, r3, #4
  102780:	e51b3010 	ldr	r3, [fp, #-16]
  102784:	e5933000 	ldr	r3, [r3]
  102788:	e203200f 	and	r2, r3, #15
  10278c:	e3063534 	movw	r3, #25908	; 0x6534
  102790:	e3403010 	movt	r3, #16
  102794:	e1a01201 	lsl	r1, r1, #4
  102798:	e0812002 	add	r2, r1, r2
  10279c:	e7932102 	ldr	r2, [r3, r2, lsl #2]
  1027a0:	e51b3010 	ldr	r3, [fp, #-16]
  1027a4:	e5832000 	str	r2, [r3]
  1027a8:	e51b3010 	ldr	r3, [fp, #-16]
  1027ac:	e2832010 	add	r2, r3, #16
  1027b0:	e51b3010 	ldr	r3, [fp, #-16]
  1027b4:	e2833010 	add	r3, r3, #16
  1027b8:	e5933000 	ldr	r3, [r3]
  1027bc:	e1a00243 	asr	r0, r3, #4
  1027c0:	e51b3010 	ldr	r3, [fp, #-16]
  1027c4:	e2833010 	add	r3, r3, #16
  1027c8:	e5933000 	ldr	r3, [r3]
  1027cc:	e203100f 	and	r1, r3, #15
  1027d0:	e3063534 	movw	r3, #25908	; 0x6534
  1027d4:	e3403010 	movt	r3, #16
  1027d8:	e1a00200 	lsl	r0, r0, #4
  1027dc:	e0801001 	add	r1, r0, r1
  1027e0:	e7933101 	ldr	r3, [r3, r1, lsl #2]
  1027e4:	e5823000 	str	r3, [r2]
  1027e8:	e51b3010 	ldr	r3, [fp, #-16]
  1027ec:	e2832020 	add	r2, r3, #32
  1027f0:	e51b3010 	ldr	r3, [fp, #-16]
  1027f4:	e2833020 	add	r3, r3, #32
  1027f8:	e5933000 	ldr	r3, [r3]
  1027fc:	e1a00243 	asr	r0, r3, #4
  102800:	e51b3010 	ldr	r3, [fp, #-16]
  102804:	e2833020 	add	r3, r3, #32
  102808:	e5933000 	ldr	r3, [r3]
  10280c:	e203100f 	and	r1, r3, #15
  102810:	e3063534 	movw	r3, #25908	; 0x6534
  102814:	e3403010 	movt	r3, #16
  102818:	e1a00200 	lsl	r0, r0, #4
  10281c:	e0801001 	add	r1, r0, r1
  102820:	e7933101 	ldr	r3, [r3, r1, lsl #2]
  102824:	e5823000 	str	r3, [r2]
  102828:	e51b3010 	ldr	r3, [fp, #-16]
  10282c:	e2832030 	add	r2, r3, #48	; 0x30
  102830:	e51b3010 	ldr	r3, [fp, #-16]
  102834:	e2833030 	add	r3, r3, #48	; 0x30
  102838:	e5933000 	ldr	r3, [r3]
  10283c:	e1a00243 	asr	r0, r3, #4
  102840:	e51b3010 	ldr	r3, [fp, #-16]
  102844:	e2833030 	add	r3, r3, #48	; 0x30
  102848:	e5933000 	ldr	r3, [r3]
  10284c:	e203100f 	and	r1, r3, #15
  102850:	e3063534 	movw	r3, #25908	; 0x6534
  102854:	e3403010 	movt	r3, #16
  102858:	e1a00200 	lsl	r0, r0, #4
  10285c:	e0801001 	add	r1, r0, r1
  102860:	e7933101 	ldr	r3, [r3, r1, lsl #2]
  102864:	e5823000 	str	r3, [r2]
  102868:	e51b3010 	ldr	r3, [fp, #-16]
  10286c:	e2832040 	add	r2, r3, #64	; 0x40
  102870:	e51b3010 	ldr	r3, [fp, #-16]
  102874:	e2833040 	add	r3, r3, #64	; 0x40
  102878:	e5933000 	ldr	r3, [r3]
  10287c:	e1a00243 	asr	r0, r3, #4
  102880:	e51b3010 	ldr	r3, [fp, #-16]
  102884:	e2833040 	add	r3, r3, #64	; 0x40
  102888:	e5933000 	ldr	r3, [r3]
  10288c:	e203100f 	and	r1, r3, #15
  102890:	e3063534 	movw	r3, #25908	; 0x6534
  102894:	e3403010 	movt	r3, #16
  102898:	e1a00200 	lsl	r0, r0, #4
  10289c:	e0801001 	add	r1, r0, r1
  1028a0:	e7933101 	ldr	r3, [r3, r1, lsl #2]
  1028a4:	e5823000 	str	r3, [r2]
  1028a8:	e51b3010 	ldr	r3, [fp, #-16]
  1028ac:	e2832050 	add	r2, r3, #80	; 0x50
  1028b0:	e51b3010 	ldr	r3, [fp, #-16]
  1028b4:	e2833050 	add	r3, r3, #80	; 0x50
  1028b8:	e5933000 	ldr	r3, [r3]
  1028bc:	e1a00243 	asr	r0, r3, #4
  1028c0:	e51b3010 	ldr	r3, [fp, #-16]
  1028c4:	e2833050 	add	r3, r3, #80	; 0x50
  1028c8:	e5933000 	ldr	r3, [r3]
  1028cc:	e203100f 	and	r1, r3, #15
  1028d0:	e3063534 	movw	r3, #25908	; 0x6534
  1028d4:	e3403010 	movt	r3, #16
  1028d8:	e1a00200 	lsl	r0, r0, #4
  1028dc:	e0801001 	add	r1, r0, r1
  1028e0:	e7933101 	ldr	r3, [r3, r1, lsl #2]
  1028e4:	e5823000 	str	r3, [r2]
  1028e8:	ea000209 	b	103114 <InversShiftRow_ByteSub+0x1298>
  1028ec:	e51b3010 	ldr	r3, [fp, #-16]
  1028f0:	e2833074 	add	r3, r3, #116	; 0x74
  1028f4:	e5933000 	ldr	r3, [r3]
  1028f8:	e1a01243 	asr	r1, r3, #4
  1028fc:	e51b3010 	ldr	r3, [fp, #-16]
  102900:	e2833074 	add	r3, r3, #116	; 0x74
  102904:	e5933000 	ldr	r3, [r3]
  102908:	e203200f 	and	r2, r3, #15
  10290c:	e3063534 	movw	r3, #25908	; 0x6534
  102910:	e3403010 	movt	r3, #16
  102914:	e1a01201 	lsl	r1, r1, #4
  102918:	e0812002 	add	r2, r1, r2
  10291c:	e7933102 	ldr	r3, [r3, r2, lsl #2]
  102920:	e50b3008 	str	r3, [fp, #-8]
  102924:	e51b3010 	ldr	r3, [fp, #-16]
  102928:	e2832074 	add	r2, r3, #116	; 0x74
  10292c:	e51b3010 	ldr	r3, [fp, #-16]
  102930:	e2833064 	add	r3, r3, #100	; 0x64
  102934:	e5933000 	ldr	r3, [r3]
  102938:	e1a00243 	asr	r0, r3, #4
  10293c:	e51b3010 	ldr	r3, [fp, #-16]
  102940:	e2833064 	add	r3, r3, #100	; 0x64
  102944:	e5933000 	ldr	r3, [r3]
  102948:	e203100f 	and	r1, r3, #15
  10294c:	e3063534 	movw	r3, #25908	; 0x6534
  102950:	e3403010 	movt	r3, #16
  102954:	e1a00200 	lsl	r0, r0, #4
  102958:	e0801001 	add	r1, r0, r1
  10295c:	e7933101 	ldr	r3, [r3, r1, lsl #2]
  102960:	e5823000 	str	r3, [r2]
  102964:	e51b3010 	ldr	r3, [fp, #-16]
  102968:	e2832064 	add	r2, r3, #100	; 0x64
  10296c:	e51b3010 	ldr	r3, [fp, #-16]
  102970:	e2833054 	add	r3, r3, #84	; 0x54
  102974:	e5933000 	ldr	r3, [r3]
  102978:	e1a00243 	asr	r0, r3, #4
  10297c:	e51b3010 	ldr	r3, [fp, #-16]
  102980:	e2833054 	add	r3, r3, #84	; 0x54
  102984:	e5933000 	ldr	r3, [r3]
  102988:	e203100f 	and	r1, r3, #15
  10298c:	e3063534 	movw	r3, #25908	; 0x6534
  102990:	e3403010 	movt	r3, #16
  102994:	e1a00200 	lsl	r0, r0, #4
  102998:	e0801001 	add	r1, r0, r1
  10299c:	e7933101 	ldr	r3, [r3, r1, lsl #2]
  1029a0:	e5823000 	str	r3, [r2]
  1029a4:	e51b3010 	ldr	r3, [fp, #-16]
  1029a8:	e2832054 	add	r2, r3, #84	; 0x54
  1029ac:	e51b3010 	ldr	r3, [fp, #-16]
  1029b0:	e2833044 	add	r3, r3, #68	; 0x44
  1029b4:	e5933000 	ldr	r3, [r3]
  1029b8:	e1a00243 	asr	r0, r3, #4
  1029bc:	e51b3010 	ldr	r3, [fp, #-16]
  1029c0:	e2833044 	add	r3, r3, #68	; 0x44
  1029c4:	e5933000 	ldr	r3, [r3]
  1029c8:	e203100f 	and	r1, r3, #15
  1029cc:	e3063534 	movw	r3, #25908	; 0x6534
  1029d0:	e3403010 	movt	r3, #16
  1029d4:	e1a00200 	lsl	r0, r0, #4
  1029d8:	e0801001 	add	r1, r0, r1
  1029dc:	e7933101 	ldr	r3, [r3, r1, lsl #2]
  1029e0:	e5823000 	str	r3, [r2]
  1029e4:	e51b3010 	ldr	r3, [fp, #-16]
  1029e8:	e2832044 	add	r2, r3, #68	; 0x44
  1029ec:	e51b3010 	ldr	r3, [fp, #-16]
  1029f0:	e2833034 	add	r3, r3, #52	; 0x34
  1029f4:	e5933000 	ldr	r3, [r3]
  1029f8:	e1a00243 	asr	r0, r3, #4
  1029fc:	e51b3010 	ldr	r3, [fp, #-16]
  102a00:	e2833034 	add	r3, r3, #52	; 0x34
  102a04:	e5933000 	ldr	r3, [r3]
  102a08:	e203100f 	and	r1, r3, #15
  102a0c:	e3063534 	movw	r3, #25908	; 0x6534
  102a10:	e3403010 	movt	r3, #16
  102a14:	e1a00200 	lsl	r0, r0, #4
  102a18:	e0801001 	add	r1, r0, r1
  102a1c:	e7933101 	ldr	r3, [r3, r1, lsl #2]
  102a20:	e5823000 	str	r3, [r2]
  102a24:	e51b3010 	ldr	r3, [fp, #-16]
  102a28:	e2832034 	add	r2, r3, #52	; 0x34
  102a2c:	e51b3010 	ldr	r3, [fp, #-16]
  102a30:	e2833024 	add	r3, r3, #36	; 0x24
  102a34:	e5933000 	ldr	r3, [r3]
  102a38:	e1a00243 	asr	r0, r3, #4
  102a3c:	e51b3010 	ldr	r3, [fp, #-16]
  102a40:	e2833024 	add	r3, r3, #36	; 0x24
  102a44:	e5933000 	ldr	r3, [r3]
  102a48:	e203100f 	and	r1, r3, #15
  102a4c:	e3063534 	movw	r3, #25908	; 0x6534
  102a50:	e3403010 	movt	r3, #16
  102a54:	e1a00200 	lsl	r0, r0, #4
  102a58:	e0801001 	add	r1, r0, r1
  102a5c:	e7933101 	ldr	r3, [r3, r1, lsl #2]
  102a60:	e5823000 	str	r3, [r2]
  102a64:	e51b3010 	ldr	r3, [fp, #-16]
  102a68:	e2832024 	add	r2, r3, #36	; 0x24
  102a6c:	e51b3010 	ldr	r3, [fp, #-16]
  102a70:	e2833014 	add	r3, r3, #20
  102a74:	e5933000 	ldr	r3, [r3]
  102a78:	e1a00243 	asr	r0, r3, #4
  102a7c:	e51b3010 	ldr	r3, [fp, #-16]
  102a80:	e2833014 	add	r3, r3, #20
  102a84:	e5933000 	ldr	r3, [r3]
  102a88:	e203100f 	and	r1, r3, #15
  102a8c:	e3063534 	movw	r3, #25908	; 0x6534
  102a90:	e3403010 	movt	r3, #16
  102a94:	e1a00200 	lsl	r0, r0, #4
  102a98:	e0801001 	add	r1, r0, r1
  102a9c:	e7933101 	ldr	r3, [r3, r1, lsl #2]
  102aa0:	e5823000 	str	r3, [r2]
  102aa4:	e51b3010 	ldr	r3, [fp, #-16]
  102aa8:	e2832014 	add	r2, r3, #20
  102aac:	e51b3010 	ldr	r3, [fp, #-16]
  102ab0:	e2833004 	add	r3, r3, #4
  102ab4:	e5933000 	ldr	r3, [r3]
  102ab8:	e1a00243 	asr	r0, r3, #4
  102abc:	e51b3010 	ldr	r3, [fp, #-16]
  102ac0:	e2833004 	add	r3, r3, #4
  102ac4:	e5933000 	ldr	r3, [r3]
  102ac8:	e203100f 	and	r1, r3, #15
  102acc:	e3063534 	movw	r3, #25908	; 0x6534
  102ad0:	e3403010 	movt	r3, #16
  102ad4:	e1a00200 	lsl	r0, r0, #4
  102ad8:	e0801001 	add	r1, r0, r1
  102adc:	e7933101 	ldr	r3, [r3, r1, lsl #2]
  102ae0:	e5823000 	str	r3, [r2]
  102ae4:	e51b3010 	ldr	r3, [fp, #-16]
  102ae8:	e2833004 	add	r3, r3, #4
  102aec:	e51b2008 	ldr	r2, [fp, #-8]
  102af0:	e5832000 	str	r2, [r3]
  102af4:	e51b3010 	ldr	r3, [fp, #-16]
  102af8:	e2833078 	add	r3, r3, #120	; 0x78
  102afc:	e5933000 	ldr	r3, [r3]
  102b00:	e1a01243 	asr	r1, r3, #4
  102b04:	e51b3010 	ldr	r3, [fp, #-16]
  102b08:	e2833078 	add	r3, r3, #120	; 0x78
  102b0c:	e5933000 	ldr	r3, [r3]
  102b10:	e203200f 	and	r2, r3, #15
  102b14:	e3063534 	movw	r3, #25908	; 0x6534
  102b18:	e3403010 	movt	r3, #16
  102b1c:	e1a01201 	lsl	r1, r1, #4
  102b20:	e0812002 	add	r2, r1, r2
  102b24:	e7933102 	ldr	r3, [r3, r2, lsl #2]
  102b28:	e50b3008 	str	r3, [fp, #-8]
  102b2c:	e51b3010 	ldr	r3, [fp, #-16]
  102b30:	e2832078 	add	r2, r3, #120	; 0x78
  102b34:	e51b3010 	ldr	r3, [fp, #-16]
  102b38:	e2833048 	add	r3, r3, #72	; 0x48
  102b3c:	e5933000 	ldr	r3, [r3]
  102b40:	e1a00243 	asr	r0, r3, #4
  102b44:	e51b3010 	ldr	r3, [fp, #-16]
  102b48:	e2833048 	add	r3, r3, #72	; 0x48
  102b4c:	e5933000 	ldr	r3, [r3]
  102b50:	e203100f 	and	r1, r3, #15
  102b54:	e3063534 	movw	r3, #25908	; 0x6534
  102b58:	e3403010 	movt	r3, #16
  102b5c:	e1a00200 	lsl	r0, r0, #4
  102b60:	e0801001 	add	r1, r0, r1
  102b64:	e7933101 	ldr	r3, [r3, r1, lsl #2]
  102b68:	e5823000 	str	r3, [r2]
  102b6c:	e51b3010 	ldr	r3, [fp, #-16]
  102b70:	e2832048 	add	r2, r3, #72	; 0x48
  102b74:	e51b3010 	ldr	r3, [fp, #-16]
  102b78:	e2833018 	add	r3, r3, #24
  102b7c:	e5933000 	ldr	r3, [r3]
  102b80:	e1a00243 	asr	r0, r3, #4
  102b84:	e51b3010 	ldr	r3, [fp, #-16]
  102b88:	e2833018 	add	r3, r3, #24
  102b8c:	e5933000 	ldr	r3, [r3]
  102b90:	e203100f 	and	r1, r3, #15
  102b94:	e3063534 	movw	r3, #25908	; 0x6534
  102b98:	e3403010 	movt	r3, #16
  102b9c:	e1a00200 	lsl	r0, r0, #4
  102ba0:	e0801001 	add	r1, r0, r1
  102ba4:	e7933101 	ldr	r3, [r3, r1, lsl #2]
  102ba8:	e5823000 	str	r3, [r2]
  102bac:	e51b3010 	ldr	r3, [fp, #-16]
  102bb0:	e2832018 	add	r2, r3, #24
  102bb4:	e51b3010 	ldr	r3, [fp, #-16]
  102bb8:	e2833068 	add	r3, r3, #104	; 0x68
  102bbc:	e5933000 	ldr	r3, [r3]
  102bc0:	e1a00243 	asr	r0, r3, #4
  102bc4:	e51b3010 	ldr	r3, [fp, #-16]
  102bc8:	e2833068 	add	r3, r3, #104	; 0x68
  102bcc:	e5933000 	ldr	r3, [r3]
  102bd0:	e203100f 	and	r1, r3, #15
  102bd4:	e3063534 	movw	r3, #25908	; 0x6534
  102bd8:	e3403010 	movt	r3, #16
  102bdc:	e1a00200 	lsl	r0, r0, #4
  102be0:	e0801001 	add	r1, r0, r1
  102be4:	e7933101 	ldr	r3, [r3, r1, lsl #2]
  102be8:	e5823000 	str	r3, [r2]
  102bec:	e51b3010 	ldr	r3, [fp, #-16]
  102bf0:	e2832068 	add	r2, r3, #104	; 0x68
  102bf4:	e51b3010 	ldr	r3, [fp, #-16]
  102bf8:	e2833038 	add	r3, r3, #56	; 0x38
  102bfc:	e5933000 	ldr	r3, [r3]
  102c00:	e1a00243 	asr	r0, r3, #4
  102c04:	e51b3010 	ldr	r3, [fp, #-16]
  102c08:	e2833038 	add	r3, r3, #56	; 0x38
  102c0c:	e5933000 	ldr	r3, [r3]
  102c10:	e203100f 	and	r1, r3, #15
  102c14:	e3063534 	movw	r3, #25908	; 0x6534
  102c18:	e3403010 	movt	r3, #16
  102c1c:	e1a00200 	lsl	r0, r0, #4
  102c20:	e0801001 	add	r1, r0, r1
  102c24:	e7933101 	ldr	r3, [r3, r1, lsl #2]
  102c28:	e5823000 	str	r3, [r2]
  102c2c:	e51b3010 	ldr	r3, [fp, #-16]
  102c30:	e2832038 	add	r2, r3, #56	; 0x38
  102c34:	e51b3010 	ldr	r3, [fp, #-16]
  102c38:	e2833008 	add	r3, r3, #8
  102c3c:	e5933000 	ldr	r3, [r3]
  102c40:	e1a00243 	asr	r0, r3, #4
  102c44:	e51b3010 	ldr	r3, [fp, #-16]
  102c48:	e2833008 	add	r3, r3, #8
  102c4c:	e5933000 	ldr	r3, [r3]
  102c50:	e203100f 	and	r1, r3, #15
  102c54:	e3063534 	movw	r3, #25908	; 0x6534
  102c58:	e3403010 	movt	r3, #16
  102c5c:	e1a00200 	lsl	r0, r0, #4
  102c60:	e0801001 	add	r1, r0, r1
  102c64:	e7933101 	ldr	r3, [r3, r1, lsl #2]
  102c68:	e5823000 	str	r3, [r2]
  102c6c:	e51b3010 	ldr	r3, [fp, #-16]
  102c70:	e2832008 	add	r2, r3, #8
  102c74:	e51b3010 	ldr	r3, [fp, #-16]
  102c78:	e2833058 	add	r3, r3, #88	; 0x58
  102c7c:	e5933000 	ldr	r3, [r3]
  102c80:	e1a00243 	asr	r0, r3, #4
  102c84:	e51b3010 	ldr	r3, [fp, #-16]
  102c88:	e2833058 	add	r3, r3, #88	; 0x58
  102c8c:	e5933000 	ldr	r3, [r3]
  102c90:	e203100f 	and	r1, r3, #15
  102c94:	e3063534 	movw	r3, #25908	; 0x6534
  102c98:	e3403010 	movt	r3, #16
  102c9c:	e1a00200 	lsl	r0, r0, #4
  102ca0:	e0801001 	add	r1, r0, r1
  102ca4:	e7933101 	ldr	r3, [r3, r1, lsl #2]
  102ca8:	e5823000 	str	r3, [r2]
  102cac:	e51b3010 	ldr	r3, [fp, #-16]
  102cb0:	e2832058 	add	r2, r3, #88	; 0x58
  102cb4:	e51b3010 	ldr	r3, [fp, #-16]
  102cb8:	e2833028 	add	r3, r3, #40	; 0x28
  102cbc:	e5933000 	ldr	r3, [r3]
  102cc0:	e1a00243 	asr	r0, r3, #4
  102cc4:	e51b3010 	ldr	r3, [fp, #-16]
  102cc8:	e2833028 	add	r3, r3, #40	; 0x28
  102ccc:	e5933000 	ldr	r3, [r3]
  102cd0:	e203100f 	and	r1, r3, #15
  102cd4:	e3063534 	movw	r3, #25908	; 0x6534
  102cd8:	e3403010 	movt	r3, #16
  102cdc:	e1a00200 	lsl	r0, r0, #4
  102ce0:	e0801001 	add	r1, r0, r1
  102ce4:	e7933101 	ldr	r3, [r3, r1, lsl #2]
  102ce8:	e5823000 	str	r3, [r2]
  102cec:	e51b3010 	ldr	r3, [fp, #-16]
  102cf0:	e2833028 	add	r3, r3, #40	; 0x28
  102cf4:	e51b2008 	ldr	r2, [fp, #-8]
  102cf8:	e5832000 	str	r2, [r3]
  102cfc:	e51b3010 	ldr	r3, [fp, #-16]
  102d00:	e283307c 	add	r3, r3, #124	; 0x7c
  102d04:	e5933000 	ldr	r3, [r3]
  102d08:	e1a01243 	asr	r1, r3, #4
  102d0c:	e51b3010 	ldr	r3, [fp, #-16]
  102d10:	e283307c 	add	r3, r3, #124	; 0x7c
  102d14:	e5933000 	ldr	r3, [r3]
  102d18:	e203200f 	and	r2, r3, #15
  102d1c:	e3063534 	movw	r3, #25908	; 0x6534
  102d20:	e3403010 	movt	r3, #16
  102d24:	e1a01201 	lsl	r1, r1, #4
  102d28:	e0812002 	add	r2, r1, r2
  102d2c:	e7933102 	ldr	r3, [r3, r2, lsl #2]
  102d30:	e50b3008 	str	r3, [fp, #-8]
  102d34:	e51b3010 	ldr	r3, [fp, #-16]
  102d38:	e283207c 	add	r2, r3, #124	; 0x7c
  102d3c:	e51b3010 	ldr	r3, [fp, #-16]
  102d40:	e283303c 	add	r3, r3, #60	; 0x3c
  102d44:	e5933000 	ldr	r3, [r3]
  102d48:	e1a00243 	asr	r0, r3, #4
  102d4c:	e51b3010 	ldr	r3, [fp, #-16]
  102d50:	e283303c 	add	r3, r3, #60	; 0x3c
  102d54:	e5933000 	ldr	r3, [r3]
  102d58:	e203100f 	and	r1, r3, #15
  102d5c:	e3063534 	movw	r3, #25908	; 0x6534
  102d60:	e3403010 	movt	r3, #16
  102d64:	e1a00200 	lsl	r0, r0, #4
  102d68:	e0801001 	add	r1, r0, r1
  102d6c:	e7933101 	ldr	r3, [r3, r1, lsl #2]
  102d70:	e5823000 	str	r3, [r2]
  102d74:	e51b3010 	ldr	r3, [fp, #-16]
  102d78:	e283303c 	add	r3, r3, #60	; 0x3c
  102d7c:	e51b2008 	ldr	r2, [fp, #-8]
  102d80:	e5832000 	str	r2, [r3]
  102d84:	e51b3010 	ldr	r3, [fp, #-16]
  102d88:	e283306c 	add	r3, r3, #108	; 0x6c
  102d8c:	e5933000 	ldr	r3, [r3]
  102d90:	e1a01243 	asr	r1, r3, #4
  102d94:	e51b3010 	ldr	r3, [fp, #-16]
  102d98:	e283306c 	add	r3, r3, #108	; 0x6c
  102d9c:	e5933000 	ldr	r3, [r3]
  102da0:	e203200f 	and	r2, r3, #15
  102da4:	e3063534 	movw	r3, #25908	; 0x6534
  102da8:	e3403010 	movt	r3, #16
  102dac:	e1a01201 	lsl	r1, r1, #4
  102db0:	e0812002 	add	r2, r1, r2
  102db4:	e7933102 	ldr	r3, [r3, r2, lsl #2]
  102db8:	e50b3008 	str	r3, [fp, #-8]
  102dbc:	e51b3010 	ldr	r3, [fp, #-16]
  102dc0:	e283206c 	add	r2, r3, #108	; 0x6c
  102dc4:	e51b3010 	ldr	r3, [fp, #-16]
  102dc8:	e283302c 	add	r3, r3, #44	; 0x2c
  102dcc:	e5933000 	ldr	r3, [r3]
  102dd0:	e1a00243 	asr	r0, r3, #4
  102dd4:	e51b3010 	ldr	r3, [fp, #-16]
  102dd8:	e283302c 	add	r3, r3, #44	; 0x2c
  102ddc:	e5933000 	ldr	r3, [r3]
  102de0:	e203100f 	and	r1, r3, #15
  102de4:	e3063534 	movw	r3, #25908	; 0x6534
  102de8:	e3403010 	movt	r3, #16
  102dec:	e1a00200 	lsl	r0, r0, #4
  102df0:	e0801001 	add	r1, r0, r1
  102df4:	e7933101 	ldr	r3, [r3, r1, lsl #2]
  102df8:	e5823000 	str	r3, [r2]
  102dfc:	e51b3010 	ldr	r3, [fp, #-16]
  102e00:	e283302c 	add	r3, r3, #44	; 0x2c
  102e04:	e51b2008 	ldr	r2, [fp, #-8]
  102e08:	e5832000 	str	r2, [r3]
  102e0c:	e51b3010 	ldr	r3, [fp, #-16]
  102e10:	e283305c 	add	r3, r3, #92	; 0x5c
  102e14:	e5933000 	ldr	r3, [r3]
  102e18:	e1a01243 	asr	r1, r3, #4
  102e1c:	e51b3010 	ldr	r3, [fp, #-16]
  102e20:	e283305c 	add	r3, r3, #92	; 0x5c
  102e24:	e5933000 	ldr	r3, [r3]
  102e28:	e203200f 	and	r2, r3, #15
  102e2c:	e3063534 	movw	r3, #25908	; 0x6534
  102e30:	e3403010 	movt	r3, #16
  102e34:	e1a01201 	lsl	r1, r1, #4
  102e38:	e0812002 	add	r2, r1, r2
  102e3c:	e7933102 	ldr	r3, [r3, r2, lsl #2]
  102e40:	e50b3008 	str	r3, [fp, #-8]
  102e44:	e51b3010 	ldr	r3, [fp, #-16]
  102e48:	e283205c 	add	r2, r3, #92	; 0x5c
  102e4c:	e51b3010 	ldr	r3, [fp, #-16]
  102e50:	e283301c 	add	r3, r3, #28
  102e54:	e5933000 	ldr	r3, [r3]
  102e58:	e1a00243 	asr	r0, r3, #4
  102e5c:	e51b3010 	ldr	r3, [fp, #-16]
  102e60:	e283301c 	add	r3, r3, #28
  102e64:	e5933000 	ldr	r3, [r3]
  102e68:	e203100f 	and	r1, r3, #15
  102e6c:	e3063534 	movw	r3, #25908	; 0x6534
  102e70:	e3403010 	movt	r3, #16
  102e74:	e1a00200 	lsl	r0, r0, #4
  102e78:	e0801001 	add	r1, r0, r1
  102e7c:	e7933101 	ldr	r3, [r3, r1, lsl #2]
  102e80:	e5823000 	str	r3, [r2]
  102e84:	e51b3010 	ldr	r3, [fp, #-16]
  102e88:	e283301c 	add	r3, r3, #28
  102e8c:	e51b2008 	ldr	r2, [fp, #-8]
  102e90:	e5832000 	str	r2, [r3]
  102e94:	e51b3010 	ldr	r3, [fp, #-16]
  102e98:	e283304c 	add	r3, r3, #76	; 0x4c
  102e9c:	e5933000 	ldr	r3, [r3]
  102ea0:	e1a01243 	asr	r1, r3, #4
  102ea4:	e51b3010 	ldr	r3, [fp, #-16]
  102ea8:	e283304c 	add	r3, r3, #76	; 0x4c
  102eac:	e5933000 	ldr	r3, [r3]
  102eb0:	e203200f 	and	r2, r3, #15
  102eb4:	e3063534 	movw	r3, #25908	; 0x6534
  102eb8:	e3403010 	movt	r3, #16
  102ebc:	e1a01201 	lsl	r1, r1, #4
  102ec0:	e0812002 	add	r2, r1, r2
  102ec4:	e7933102 	ldr	r3, [r3, r2, lsl #2]
  102ec8:	e50b3008 	str	r3, [fp, #-8]
  102ecc:	e51b3010 	ldr	r3, [fp, #-16]
  102ed0:	e283204c 	add	r2, r3, #76	; 0x4c
  102ed4:	e51b3010 	ldr	r3, [fp, #-16]
  102ed8:	e283300c 	add	r3, r3, #12
  102edc:	e5933000 	ldr	r3, [r3]
  102ee0:	e1a00243 	asr	r0, r3, #4
  102ee4:	e51b3010 	ldr	r3, [fp, #-16]
  102ee8:	e283300c 	add	r3, r3, #12
  102eec:	e5933000 	ldr	r3, [r3]
  102ef0:	e203100f 	and	r1, r3, #15
  102ef4:	e3063534 	movw	r3, #25908	; 0x6534
  102ef8:	e3403010 	movt	r3, #16
  102efc:	e1a00200 	lsl	r0, r0, #4
  102f00:	e0801001 	add	r1, r0, r1
  102f04:	e7933101 	ldr	r3, [r3, r1, lsl #2]
  102f08:	e5823000 	str	r3, [r2]
  102f0c:	e51b3010 	ldr	r3, [fp, #-16]
  102f10:	e283300c 	add	r3, r3, #12
  102f14:	e51b2008 	ldr	r2, [fp, #-8]
  102f18:	e5832000 	str	r2, [r3]
  102f1c:	e51b3010 	ldr	r3, [fp, #-16]
  102f20:	e5933000 	ldr	r3, [r3]
  102f24:	e1a01243 	asr	r1, r3, #4
  102f28:	e51b3010 	ldr	r3, [fp, #-16]
  102f2c:	e5933000 	ldr	r3, [r3]
  102f30:	e203200f 	and	r2, r3, #15
  102f34:	e3063534 	movw	r3, #25908	; 0x6534
  102f38:	e3403010 	movt	r3, #16
  102f3c:	e1a01201 	lsl	r1, r1, #4
  102f40:	e0812002 	add	r2, r1, r2
  102f44:	e7932102 	ldr	r2, [r3, r2, lsl #2]
  102f48:	e51b3010 	ldr	r3, [fp, #-16]
  102f4c:	e5832000 	str	r2, [r3]
  102f50:	e51b3010 	ldr	r3, [fp, #-16]
  102f54:	e2832010 	add	r2, r3, #16
  102f58:	e51b3010 	ldr	r3, [fp, #-16]
  102f5c:	e2833010 	add	r3, r3, #16
  102f60:	e5933000 	ldr	r3, [r3]
  102f64:	e1a00243 	asr	r0, r3, #4
  102f68:	e51b3010 	ldr	r3, [fp, #-16]
  102f6c:	e2833010 	add	r3, r3, #16
  102f70:	e5933000 	ldr	r3, [r3]
  102f74:	e203100f 	and	r1, r3, #15
  102f78:	e3063534 	movw	r3, #25908	; 0x6534
  102f7c:	e3403010 	movt	r3, #16
  102f80:	e1a00200 	lsl	r0, r0, #4
  102f84:	e0801001 	add	r1, r0, r1
  102f88:	e7933101 	ldr	r3, [r3, r1, lsl #2]
  102f8c:	e5823000 	str	r3, [r2]
  102f90:	e51b3010 	ldr	r3, [fp, #-16]
  102f94:	e2832020 	add	r2, r3, #32
  102f98:	e51b3010 	ldr	r3, [fp, #-16]
  102f9c:	e2833020 	add	r3, r3, #32
  102fa0:	e5933000 	ldr	r3, [r3]
  102fa4:	e1a00243 	asr	r0, r3, #4
  102fa8:	e51b3010 	ldr	r3, [fp, #-16]
  102fac:	e2833020 	add	r3, r3, #32
  102fb0:	e5933000 	ldr	r3, [r3]
  102fb4:	e203100f 	and	r1, r3, #15
  102fb8:	e3063534 	movw	r3, #25908	; 0x6534
  102fbc:	e3403010 	movt	r3, #16
  102fc0:	e1a00200 	lsl	r0, r0, #4
  102fc4:	e0801001 	add	r1, r0, r1
  102fc8:	e7933101 	ldr	r3, [r3, r1, lsl #2]
  102fcc:	e5823000 	str	r3, [r2]
  102fd0:	e51b3010 	ldr	r3, [fp, #-16]
  102fd4:	e2832030 	add	r2, r3, #48	; 0x30
  102fd8:	e51b3010 	ldr	r3, [fp, #-16]
  102fdc:	e2833030 	add	r3, r3, #48	; 0x30
  102fe0:	e5933000 	ldr	r3, [r3]
  102fe4:	e1a00243 	asr	r0, r3, #4
  102fe8:	e51b3010 	ldr	r3, [fp, #-16]
  102fec:	e2833030 	add	r3, r3, #48	; 0x30
  102ff0:	e5933000 	ldr	r3, [r3]
  102ff4:	e203100f 	and	r1, r3, #15
  102ff8:	e3063534 	movw	r3, #25908	; 0x6534
  102ffc:	e3403010 	movt	r3, #16
  103000:	e1a00200 	lsl	r0, r0, #4
  103004:	e0801001 	add	r1, r0, r1
  103008:	e7933101 	ldr	r3, [r3, r1, lsl #2]
  10300c:	e5823000 	str	r3, [r2]
  103010:	e51b3010 	ldr	r3, [fp, #-16]
  103014:	e2832040 	add	r2, r3, #64	; 0x40
  103018:	e51b3010 	ldr	r3, [fp, #-16]
  10301c:	e2833040 	add	r3, r3, #64	; 0x40
  103020:	e5933000 	ldr	r3, [r3]
  103024:	e1a00243 	asr	r0, r3, #4
  103028:	e51b3010 	ldr	r3, [fp, #-16]
  10302c:	e2833040 	add	r3, r3, #64	; 0x40
  103030:	e5933000 	ldr	r3, [r3]
  103034:	e203100f 	and	r1, r3, #15
  103038:	e3063534 	movw	r3, #25908	; 0x6534
  10303c:	e3403010 	movt	r3, #16
  103040:	e1a00200 	lsl	r0, r0, #4
  103044:	e0801001 	add	r1, r0, r1
  103048:	e7933101 	ldr	r3, [r3, r1, lsl #2]
  10304c:	e5823000 	str	r3, [r2]
  103050:	e51b3010 	ldr	r3, [fp, #-16]
  103054:	e2832050 	add	r2, r3, #80	; 0x50
  103058:	e51b3010 	ldr	r3, [fp, #-16]
  10305c:	e2833050 	add	r3, r3, #80	; 0x50
  103060:	e5933000 	ldr	r3, [r3]
  103064:	e1a00243 	asr	r0, r3, #4
  103068:	e51b3010 	ldr	r3, [fp, #-16]
  10306c:	e2833050 	add	r3, r3, #80	; 0x50
  103070:	e5933000 	ldr	r3, [r3]
  103074:	e203100f 	and	r1, r3, #15
  103078:	e3063534 	movw	r3, #25908	; 0x6534
  10307c:	e3403010 	movt	r3, #16
  103080:	e1a00200 	lsl	r0, r0, #4
  103084:	e0801001 	add	r1, r0, r1
  103088:	e7933101 	ldr	r3, [r3, r1, lsl #2]
  10308c:	e5823000 	str	r3, [r2]
  103090:	e51b3010 	ldr	r3, [fp, #-16]
  103094:	e2832060 	add	r2, r3, #96	; 0x60
  103098:	e51b3010 	ldr	r3, [fp, #-16]
  10309c:	e2833060 	add	r3, r3, #96	; 0x60
  1030a0:	e5933000 	ldr	r3, [r3]
  1030a4:	e1a00243 	asr	r0, r3, #4
  1030a8:	e51b3010 	ldr	r3, [fp, #-16]
  1030ac:	e2833060 	add	r3, r3, #96	; 0x60
  1030b0:	e5933000 	ldr	r3, [r3]
  1030b4:	e203100f 	and	r1, r3, #15
  1030b8:	e3063534 	movw	r3, #25908	; 0x6534
  1030bc:	e3403010 	movt	r3, #16
  1030c0:	e1a00200 	lsl	r0, r0, #4
  1030c4:	e0801001 	add	r1, r0, r1
  1030c8:	e7933101 	ldr	r3, [r3, r1, lsl #2]
  1030cc:	e5823000 	str	r3, [r2]
  1030d0:	e51b3010 	ldr	r3, [fp, #-16]
  1030d4:	e2832070 	add	r2, r3, #112	; 0x70
  1030d8:	e51b3010 	ldr	r3, [fp, #-16]
  1030dc:	e2833070 	add	r3, r3, #112	; 0x70
  1030e0:	e5933000 	ldr	r3, [r3]
  1030e4:	e1a00243 	asr	r0, r3, #4
  1030e8:	e51b3010 	ldr	r3, [fp, #-16]
  1030ec:	e2833070 	add	r3, r3, #112	; 0x70
  1030f0:	e5933000 	ldr	r3, [r3]
  1030f4:	e203100f 	and	r1, r3, #15
  1030f8:	e3063534 	movw	r3, #25908	; 0x6534
  1030fc:	e3403010 	movt	r3, #16
  103100:	e1a00200 	lsl	r0, r0, #4
  103104:	e0801001 	add	r1, r0, r1
  103108:	e7933101 	ldr	r3, [r3, r1, lsl #2]
  10310c:	e5823000 	str	r3, [r2]
  103110:	e1a00000 	nop			; (mov r0, r0)
  103114:	e24bd000 	sub	sp, fp, #0
  103118:	e49db004 	pop	{fp}		; (ldr fp, [sp], #4)
  10311c:	e12fff1e 	bx	lr

00103120 <MixColumn_AddRoundKey>:
  103120:	e92d0810 	push	{r4, fp}
  103124:	e28db004 	add	fp, sp, #4
  103128:	e24dd098 	sub	sp, sp, #152	; 0x98
  10312c:	e50b0090 	str	r0, [fp, #-144]	; 0xffffff70
  103130:	e50b1094 	str	r1, [fp, #-148]	; 0xffffff6c
  103134:	e50b2098 	str	r2, [fp, #-152]	; 0xffffff68
  103138:	e3a03000 	mov	r3, #0
  10313c:	e50b3008 	str	r3, [fp, #-8]
  103140:	ea00022b 	b	1039f4 <MixColumn_AddRoundKey+0x8d4>
  103144:	e51b3008 	ldr	r3, [fp, #-8]
  103148:	e1a01103 	lsl	r1, r3, #2
  10314c:	e51b3008 	ldr	r3, [fp, #-8]
  103150:	e1a03203 	lsl	r3, r3, #4
  103154:	e51b2090 	ldr	r2, [fp, #-144]	; 0xffffff70
  103158:	e0823003 	add	r3, r2, r3
  10315c:	e5933000 	ldr	r3, [r3]
  103160:	e1a02083 	lsl	r2, r3, #1
  103164:	e3e03083 	mvn	r3, #131	; 0x83
  103168:	e1a01101 	lsl	r1, r1, #2
  10316c:	e24b0004 	sub	r0, fp, #4
  103170:	e0801001 	add	r1, r0, r1
  103174:	e0813003 	add	r3, r1, r3
  103178:	e5832000 	str	r2, [r3]
  10317c:	e51b3008 	ldr	r3, [fp, #-8]
  103180:	e1a02103 	lsl	r2, r3, #2
  103184:	e3e03083 	mvn	r3, #131	; 0x83
  103188:	e1a02102 	lsl	r2, r2, #2
  10318c:	e24b1004 	sub	r1, fp, #4
  103190:	e0812002 	add	r2, r1, r2
  103194:	e0823003 	add	r3, r2, r3
  103198:	e5933000 	ldr	r3, [r3]
  10319c:	e1a03443 	asr	r3, r3, #8
  1031a0:	e3530001 	cmp	r3, #1
  1031a4:	1a000011 	bne	1031f0 <MixColumn_AddRoundKey+0xd0>
  1031a8:	e51b3008 	ldr	r3, [fp, #-8]
  1031ac:	e1a01103 	lsl	r1, r3, #2
  1031b0:	e51b3008 	ldr	r3, [fp, #-8]
  1031b4:	e1a02103 	lsl	r2, r3, #2
  1031b8:	e3e03083 	mvn	r3, #131	; 0x83
  1031bc:	e1a02102 	lsl	r2, r2, #2
  1031c0:	e24b0004 	sub	r0, fp, #4
  1031c4:	e0802002 	add	r2, r0, r2
  1031c8:	e0823003 	add	r3, r2, r3
  1031cc:	e5933000 	ldr	r3, [r3]
  1031d0:	e2233f46 	eor	r3, r3, #280	; 0x118
  1031d4:	e2233003 	eor	r3, r3, #3
  1031d8:	e3e02083 	mvn	r2, #131	; 0x83
  1031dc:	e1a01101 	lsl	r1, r1, #2
  1031e0:	e24b0004 	sub	r0, fp, #4
  1031e4:	e0801001 	add	r1, r0, r1
  1031e8:	e0812002 	add	r2, r1, r2
  1031ec:	e5823000 	str	r3, [r2]
  1031f0:	e51b3008 	ldr	r3, [fp, #-8]
  1031f4:	e1a03203 	lsl	r3, r3, #4
  1031f8:	e2833004 	add	r3, r3, #4
  1031fc:	e51b2090 	ldr	r2, [fp, #-144]	; 0xffffff70
  103200:	e0823003 	add	r3, r2, r3
  103204:	e5934000 	ldr	r4, [r3]
  103208:	e1a03084 	lsl	r3, r4, #1
  10320c:	e0244003 	eor	r4, r4, r3
  103210:	e1a03444 	asr	r3, r4, #8
  103214:	e3530001 	cmp	r3, #1
  103218:	1a000013 	bne	10326c <MixColumn_AddRoundKey+0x14c>
  10321c:	e51b3008 	ldr	r3, [fp, #-8]
  103220:	e1a01103 	lsl	r1, r3, #2
  103224:	e51b3008 	ldr	r3, [fp, #-8]
  103228:	e1a02103 	lsl	r2, r3, #2
  10322c:	e3e03083 	mvn	r3, #131	; 0x83
  103230:	e1a02102 	lsl	r2, r2, #2
  103234:	e24b0004 	sub	r0, fp, #4
  103238:	e0802002 	add	r2, r0, r2
  10323c:	e0823003 	add	r3, r2, r3
  103240:	e5932000 	ldr	r2, [r3]
  103244:	e2243f46 	eor	r3, r4, #280	; 0x118
  103248:	e2233003 	eor	r3, r3, #3
  10324c:	e0222003 	eor	r2, r2, r3
  103250:	e3e03083 	mvn	r3, #131	; 0x83
  103254:	e1a01101 	lsl	r1, r1, #2
  103258:	e24b0004 	sub	r0, fp, #4
  10325c:	e0801001 	add	r1, r0, r1
  103260:	e0813003 	add	r3, r1, r3
  103264:	e5832000 	str	r2, [r3]
  103268:	ea000010 	b	1032b0 <MixColumn_AddRoundKey+0x190>
  10326c:	e51b3008 	ldr	r3, [fp, #-8]
  103270:	e1a01103 	lsl	r1, r3, #2
  103274:	e51b3008 	ldr	r3, [fp, #-8]
  103278:	e1a02103 	lsl	r2, r3, #2
  10327c:	e3e03083 	mvn	r3, #131	; 0x83
  103280:	e1a02102 	lsl	r2, r2, #2
  103284:	e24b0004 	sub	r0, fp, #4
  103288:	e0802002 	add	r2, r0, r2
  10328c:	e0823003 	add	r3, r2, r3
  103290:	e5933000 	ldr	r3, [r3]
  103294:	e0232004 	eor	r2, r3, r4
  103298:	e3e03083 	mvn	r3, #131	; 0x83
  10329c:	e1a01101 	lsl	r1, r1, #2
  1032a0:	e24b0004 	sub	r0, fp, #4
  1032a4:	e0801001 	add	r1, r0, r1
  1032a8:	e0813003 	add	r3, r1, r3
  1032ac:	e5832000 	str	r2, [r3]
  1032b0:	e51b3008 	ldr	r3, [fp, #-8]
  1032b4:	e1a01103 	lsl	r1, r3, #2
  1032b8:	e51b3008 	ldr	r3, [fp, #-8]
  1032bc:	e1a02103 	lsl	r2, r3, #2
  1032c0:	e3e03083 	mvn	r3, #131	; 0x83
  1032c4:	e1a02102 	lsl	r2, r2, #2
  1032c8:	e24b0004 	sub	r0, fp, #4
  1032cc:	e0802002 	add	r2, r0, r2
  1032d0:	e0823003 	add	r3, r2, r3
  1032d4:	e5932000 	ldr	r2, [r3]
  1032d8:	e51b3008 	ldr	r3, [fp, #-8]
  1032dc:	e1a03203 	lsl	r3, r3, #4
  1032e0:	e2833008 	add	r3, r3, #8
  1032e4:	e51b0090 	ldr	r0, [fp, #-144]	; 0xffffff70
  1032e8:	e0803003 	add	r3, r0, r3
  1032ec:	e5930000 	ldr	r0, [r3]
  1032f0:	e51b3008 	ldr	r3, [fp, #-8]
  1032f4:	e1a03203 	lsl	r3, r3, #4
  1032f8:	e283300c 	add	r3, r3, #12
  1032fc:	e51bc090 	ldr	ip, [fp, #-144]	; 0xffffff70
  103300:	e08c3003 	add	r3, ip, r3
  103304:	e5933000 	ldr	r3, [r3]
  103308:	e0200003 	eor	r0, r0, r3
  10330c:	e51b3094 	ldr	r3, [fp, #-148]	; 0xffffff6c
  103310:	e51bc098 	ldr	ip, [fp, #-152]	; 0xffffff68
  103314:	e00c039c 	mul	ip, ip, r3
  103318:	e51b3008 	ldr	r3, [fp, #-8]
  10331c:	e08cc003 	add	ip, ip, r3
  103320:	e30c3034 	movw	r3, #49204	; 0xc034
  103324:	e3403010 	movt	r3, #16
  103328:	e793310c 	ldr	r3, [r3, ip, lsl #2]
  10332c:	e0203003 	eor	r3, r0, r3
  103330:	e0222003 	eor	r2, r2, r3
  103334:	e3e03083 	mvn	r3, #131	; 0x83
  103338:	e1a01101 	lsl	r1, r1, #2
  10333c:	e24b0004 	sub	r0, fp, #4
  103340:	e0801001 	add	r1, r0, r1
  103344:	e0813003 	add	r3, r1, r3
  103348:	e5832000 	str	r2, [r3]
  10334c:	e51b3008 	ldr	r3, [fp, #-8]
  103350:	e1a03103 	lsl	r3, r3, #2
  103354:	e2831001 	add	r1, r3, #1
  103358:	e51b3008 	ldr	r3, [fp, #-8]
  10335c:	e1a03203 	lsl	r3, r3, #4
  103360:	e2833004 	add	r3, r3, #4
  103364:	e51b2090 	ldr	r2, [fp, #-144]	; 0xffffff70
  103368:	e0823003 	add	r3, r2, r3
  10336c:	e5933000 	ldr	r3, [r3]
  103370:	e1a02083 	lsl	r2, r3, #1
  103374:	e3e03083 	mvn	r3, #131	; 0x83
  103378:	e1a01101 	lsl	r1, r1, #2
  10337c:	e24b0004 	sub	r0, fp, #4
  103380:	e0801001 	add	r1, r0, r1
  103384:	e0813003 	add	r3, r1, r3
  103388:	e5832000 	str	r2, [r3]
  10338c:	e51b3008 	ldr	r3, [fp, #-8]
  103390:	e1a03103 	lsl	r3, r3, #2
  103394:	e2832001 	add	r2, r3, #1
  103398:	e3e03083 	mvn	r3, #131	; 0x83
  10339c:	e1a02102 	lsl	r2, r2, #2
  1033a0:	e24b1004 	sub	r1, fp, #4
  1033a4:	e0812002 	add	r2, r1, r2
  1033a8:	e0823003 	add	r3, r2, r3
  1033ac:	e5933000 	ldr	r3, [r3]
  1033b0:	e1a03443 	asr	r3, r3, #8
  1033b4:	e3530001 	cmp	r3, #1
  1033b8:	1a000013 	bne	10340c <MixColumn_AddRoundKey+0x2ec>
  1033bc:	e51b3008 	ldr	r3, [fp, #-8]
  1033c0:	e1a03103 	lsl	r3, r3, #2
  1033c4:	e2831001 	add	r1, r3, #1
  1033c8:	e51b3008 	ldr	r3, [fp, #-8]
  1033cc:	e1a03103 	lsl	r3, r3, #2
  1033d0:	e2832001 	add	r2, r3, #1
  1033d4:	e3e03083 	mvn	r3, #131	; 0x83
  1033d8:	e1a02102 	lsl	r2, r2, #2
  1033dc:	e24b0004 	sub	r0, fp, #4
  1033e0:	e0802002 	add	r2, r0, r2
  1033e4:	e0823003 	add	r3, r2, r3
  1033e8:	e5933000 	ldr	r3, [r3]
  1033ec:	e2233f46 	eor	r3, r3, #280	; 0x118
  1033f0:	e2233003 	eor	r3, r3, #3
  1033f4:	e3e02083 	mvn	r2, #131	; 0x83
  1033f8:	e1a01101 	lsl	r1, r1, #2
  1033fc:	e24b0004 	sub	r0, fp, #4
  103400:	e0801001 	add	r1, r0, r1
  103404:	e0812002 	add	r2, r1, r2
  103408:	e5823000 	str	r3, [r2]
  10340c:	e51b3008 	ldr	r3, [fp, #-8]
  103410:	e1a03203 	lsl	r3, r3, #4
  103414:	e2833008 	add	r3, r3, #8
  103418:	e51b2090 	ldr	r2, [fp, #-144]	; 0xffffff70
  10341c:	e0823003 	add	r3, r2, r3
  103420:	e5934000 	ldr	r4, [r3]
  103424:	e1a03084 	lsl	r3, r4, #1
  103428:	e0244003 	eor	r4, r4, r3
  10342c:	e1a03444 	asr	r3, r4, #8
  103430:	e3530001 	cmp	r3, #1
  103434:	1a000015 	bne	103490 <MixColumn_AddRoundKey+0x370>
  103438:	e51b3008 	ldr	r3, [fp, #-8]
  10343c:	e1a03103 	lsl	r3, r3, #2
  103440:	e2831001 	add	r1, r3, #1
  103444:	e51b3008 	ldr	r3, [fp, #-8]
  103448:	e1a03103 	lsl	r3, r3, #2
  10344c:	e2832001 	add	r2, r3, #1
  103450:	e3e03083 	mvn	r3, #131	; 0x83
  103454:	e1a02102 	lsl	r2, r2, #2
  103458:	e24b0004 	sub	r0, fp, #4
  10345c:	e0802002 	add	r2, r0, r2
  103460:	e0823003 	add	r3, r2, r3
  103464:	e5932000 	ldr	r2, [r3]
  103468:	e2243f46 	eor	r3, r4, #280	; 0x118
  10346c:	e2233003 	eor	r3, r3, #3
  103470:	e0222003 	eor	r2, r2, r3
  103474:	e3e03083 	mvn	r3, #131	; 0x83
  103478:	e1a01101 	lsl	r1, r1, #2
  10347c:	e24b0004 	sub	r0, fp, #4
  103480:	e0801001 	add	r1, r0, r1
  103484:	e0813003 	add	r3, r1, r3
  103488:	e5832000 	str	r2, [r3]
  10348c:	ea000012 	b	1034dc <MixColumn_AddRoundKey+0x3bc>
  103490:	e51b3008 	ldr	r3, [fp, #-8]
  103494:	e1a03103 	lsl	r3, r3, #2
  103498:	e2831001 	add	r1, r3, #1
  10349c:	e51b3008 	ldr	r3, [fp, #-8]
  1034a0:	e1a03103 	lsl	r3, r3, #2
  1034a4:	e2832001 	add	r2, r3, #1
  1034a8:	e3e03083 	mvn	r3, #131	; 0x83
  1034ac:	e1a02102 	lsl	r2, r2, #2
  1034b0:	e24b0004 	sub	r0, fp, #4
  1034b4:	e0802002 	add	r2, r0, r2
  1034b8:	e0823003 	add	r3, r2, r3
  1034bc:	e5933000 	ldr	r3, [r3]
  1034c0:	e0232004 	eor	r2, r3, r4
  1034c4:	e3e03083 	mvn	r3, #131	; 0x83
  1034c8:	e1a01101 	lsl	r1, r1, #2
  1034cc:	e24b0004 	sub	r0, fp, #4
  1034d0:	e0801001 	add	r1, r0, r1
  1034d4:	e0813003 	add	r3, r1, r3
  1034d8:	e5832000 	str	r2, [r3]
  1034dc:	e51b3008 	ldr	r3, [fp, #-8]
  1034e0:	e1a03103 	lsl	r3, r3, #2
  1034e4:	e2831001 	add	r1, r3, #1
  1034e8:	e51b3008 	ldr	r3, [fp, #-8]
  1034ec:	e1a03103 	lsl	r3, r3, #2
  1034f0:	e2832001 	add	r2, r3, #1
  1034f4:	e3e03083 	mvn	r3, #131	; 0x83
  1034f8:	e1a02102 	lsl	r2, r2, #2
  1034fc:	e24b0004 	sub	r0, fp, #4
  103500:	e0802002 	add	r2, r0, r2
  103504:	e0823003 	add	r3, r2, r3
  103508:	e5932000 	ldr	r2, [r3]
  10350c:	e51b3008 	ldr	r3, [fp, #-8]
  103510:	e1a03203 	lsl	r3, r3, #4
  103514:	e283300c 	add	r3, r3, #12
  103518:	e51b0090 	ldr	r0, [fp, #-144]	; 0xffffff70
  10351c:	e0803003 	add	r3, r0, r3
  103520:	e5930000 	ldr	r0, [r3]
  103524:	e51b3008 	ldr	r3, [fp, #-8]
  103528:	e1a03203 	lsl	r3, r3, #4
  10352c:	e51bc090 	ldr	ip, [fp, #-144]	; 0xffffff70
  103530:	e08c3003 	add	r3, ip, r3
  103534:	e5933000 	ldr	r3, [r3]
  103538:	e0200003 	eor	r0, r0, r3
  10353c:	e51b3094 	ldr	r3, [fp, #-148]	; 0xffffff6c
  103540:	e51bc098 	ldr	ip, [fp, #-152]	; 0xffffff68
  103544:	e00c039c 	mul	ip, ip, r3
  103548:	e51b3008 	ldr	r3, [fp, #-8]
  10354c:	e08cc003 	add	ip, ip, r3
  103550:	e30c3034 	movw	r3, #49204	; 0xc034
  103554:	e3403010 	movt	r3, #16
  103558:	e28cc078 	add	ip, ip, #120	; 0x78
  10355c:	e793310c 	ldr	r3, [r3, ip, lsl #2]
  103560:	e0203003 	eor	r3, r0, r3
  103564:	e0222003 	eor	r2, r2, r3
  103568:	e3e03083 	mvn	r3, #131	; 0x83
  10356c:	e1a01101 	lsl	r1, r1, #2
  103570:	e24b0004 	sub	r0, fp, #4
  103574:	e0801001 	add	r1, r0, r1
  103578:	e0813003 	add	r3, r1, r3
  10357c:	e5832000 	str	r2, [r3]
  103580:	e51b3008 	ldr	r3, [fp, #-8]
  103584:	e1a03103 	lsl	r3, r3, #2
  103588:	e2831002 	add	r1, r3, #2
  10358c:	e51b3008 	ldr	r3, [fp, #-8]
  103590:	e1a03203 	lsl	r3, r3, #4
  103594:	e2833008 	add	r3, r3, #8
  103598:	e51b2090 	ldr	r2, [fp, #-144]	; 0xffffff70
  10359c:	e0823003 	add	r3, r2, r3
  1035a0:	e5933000 	ldr	r3, [r3]
  1035a4:	e1a02083 	lsl	r2, r3, #1
  1035a8:	e3e03083 	mvn	r3, #131	; 0x83
  1035ac:	e1a01101 	lsl	r1, r1, #2
  1035b0:	e24b0004 	sub	r0, fp, #4
  1035b4:	e0801001 	add	r1, r0, r1
  1035b8:	e0813003 	add	r3, r1, r3
  1035bc:	e5832000 	str	r2, [r3]
  1035c0:	e51b3008 	ldr	r3, [fp, #-8]
  1035c4:	e1a03103 	lsl	r3, r3, #2
  1035c8:	e2832002 	add	r2, r3, #2
  1035cc:	e3e03083 	mvn	r3, #131	; 0x83
  1035d0:	e1a02102 	lsl	r2, r2, #2
  1035d4:	e24b1004 	sub	r1, fp, #4
  1035d8:	e0812002 	add	r2, r1, r2
  1035dc:	e0823003 	add	r3, r2, r3
  1035e0:	e5933000 	ldr	r3, [r3]
  1035e4:	e1a03443 	asr	r3, r3, #8
  1035e8:	e3530001 	cmp	r3, #1
  1035ec:	1a000013 	bne	103640 <MixColumn_AddRoundKey+0x520>
  1035f0:	e51b3008 	ldr	r3, [fp, #-8]
  1035f4:	e1a03103 	lsl	r3, r3, #2
  1035f8:	e2831002 	add	r1, r3, #2
  1035fc:	e51b3008 	ldr	r3, [fp, #-8]
  103600:	e1a03103 	lsl	r3, r3, #2
  103604:	e2832002 	add	r2, r3, #2
  103608:	e3e03083 	mvn	r3, #131	; 0x83
  10360c:	e1a02102 	lsl	r2, r2, #2
  103610:	e24b0004 	sub	r0, fp, #4
  103614:	e0802002 	add	r2, r0, r2
  103618:	e0823003 	add	r3, r2, r3
  10361c:	e5933000 	ldr	r3, [r3]
  103620:	e2233f46 	eor	r3, r3, #280	; 0x118
  103624:	e2233003 	eor	r3, r3, #3
  103628:	e3e02083 	mvn	r2, #131	; 0x83
  10362c:	e1a01101 	lsl	r1, r1, #2
  103630:	e24b0004 	sub	r0, fp, #4
  103634:	e0801001 	add	r1, r0, r1
  103638:	e0812002 	add	r2, r1, r2
  10363c:	e5823000 	str	r3, [r2]
  103640:	e51b3008 	ldr	r3, [fp, #-8]
  103644:	e1a03203 	lsl	r3, r3, #4
  103648:	e283300c 	add	r3, r3, #12
  10364c:	e51b2090 	ldr	r2, [fp, #-144]	; 0xffffff70
  103650:	e0823003 	add	r3, r2, r3
  103654:	e5934000 	ldr	r4, [r3]
  103658:	e1a03084 	lsl	r3, r4, #1
  10365c:	e0244003 	eor	r4, r4, r3
  103660:	e1a03444 	asr	r3, r4, #8
  103664:	e3530001 	cmp	r3, #1
  103668:	1a000015 	bne	1036c4 <MixColumn_AddRoundKey+0x5a4>
  10366c:	e51b3008 	ldr	r3, [fp, #-8]
  103670:	e1a03103 	lsl	r3, r3, #2
  103674:	e2831002 	add	r1, r3, #2
  103678:	e51b3008 	ldr	r3, [fp, #-8]
  10367c:	e1a03103 	lsl	r3, r3, #2
  103680:	e2832002 	add	r2, r3, #2
  103684:	e3e03083 	mvn	r3, #131	; 0x83
  103688:	e1a02102 	lsl	r2, r2, #2
  10368c:	e24b0004 	sub	r0, fp, #4
  103690:	e0802002 	add	r2, r0, r2
  103694:	e0823003 	add	r3, r2, r3
  103698:	e5932000 	ldr	r2, [r3]
  10369c:	e2243f46 	eor	r3, r4, #280	; 0x118
  1036a0:	e2233003 	eor	r3, r3, #3
  1036a4:	e0222003 	eor	r2, r2, r3
  1036a8:	e3e03083 	mvn	r3, #131	; 0x83
  1036ac:	e1a01101 	lsl	r1, r1, #2
  1036b0:	e24b0004 	sub	r0, fp, #4
  1036b4:	e0801001 	add	r1, r0, r1
  1036b8:	e0813003 	add	r3, r1, r3
  1036bc:	e5832000 	str	r2, [r3]
  1036c0:	ea000012 	b	103710 <MixColumn_AddRoundKey+0x5f0>
  1036c4:	e51b3008 	ldr	r3, [fp, #-8]
  1036c8:	e1a03103 	lsl	r3, r3, #2
  1036cc:	e2831002 	add	r1, r3, #2
  1036d0:	e51b3008 	ldr	r3, [fp, #-8]
  1036d4:	e1a03103 	lsl	r3, r3, #2
  1036d8:	e2832002 	add	r2, r3, #2
  1036dc:	e3e03083 	mvn	r3, #131	; 0x83
  1036e0:	e1a02102 	lsl	r2, r2, #2
  1036e4:	e24b0004 	sub	r0, fp, #4
  1036e8:	e0802002 	add	r2, r0, r2
  1036ec:	e0823003 	add	r3, r2, r3
  1036f0:	e5933000 	ldr	r3, [r3]
  1036f4:	e0232004 	eor	r2, r3, r4
  1036f8:	e3e03083 	mvn	r3, #131	; 0x83
  1036fc:	e1a01101 	lsl	r1, r1, #2
  103700:	e24b0004 	sub	r0, fp, #4
  103704:	e0801001 	add	r1, r0, r1
  103708:	e0813003 	add	r3, r1, r3
  10370c:	e5832000 	str	r2, [r3]
  103710:	e51b3008 	ldr	r3, [fp, #-8]
  103714:	e1a03103 	lsl	r3, r3, #2
  103718:	e2831002 	add	r1, r3, #2
  10371c:	e51b3008 	ldr	r3, [fp, #-8]
  103720:	e1a03103 	lsl	r3, r3, #2
  103724:	e2832002 	add	r2, r3, #2
  103728:	e3e03083 	mvn	r3, #131	; 0x83
  10372c:	e1a02102 	lsl	r2, r2, #2
  103730:	e24b0004 	sub	r0, fp, #4
  103734:	e0802002 	add	r2, r0, r2
  103738:	e0823003 	add	r3, r2, r3
  10373c:	e5932000 	ldr	r2, [r3]
  103740:	e51b3008 	ldr	r3, [fp, #-8]
  103744:	e1a03203 	lsl	r3, r3, #4
  103748:	e51b0090 	ldr	r0, [fp, #-144]	; 0xffffff70
  10374c:	e0803003 	add	r3, r0, r3
  103750:	e5930000 	ldr	r0, [r3]
  103754:	e51b3008 	ldr	r3, [fp, #-8]
  103758:	e1a03203 	lsl	r3, r3, #4
  10375c:	e2833004 	add	r3, r3, #4
  103760:	e51bc090 	ldr	ip, [fp, #-144]	; 0xffffff70
  103764:	e08c3003 	add	r3, ip, r3
  103768:	e5933000 	ldr	r3, [r3]
  10376c:	e0200003 	eor	r0, r0, r3
  103770:	e51b3094 	ldr	r3, [fp, #-148]	; 0xffffff6c
  103774:	e51bc098 	ldr	ip, [fp, #-152]	; 0xffffff68
  103778:	e00c039c 	mul	ip, ip, r3
  10377c:	e51b3008 	ldr	r3, [fp, #-8]
  103780:	e08cc003 	add	ip, ip, r3
  103784:	e30c3034 	movw	r3, #49204	; 0xc034
  103788:	e3403010 	movt	r3, #16
  10378c:	e28cc0f0 	add	ip, ip, #240	; 0xf0
  103790:	e793310c 	ldr	r3, [r3, ip, lsl #2]
  103794:	e0203003 	eor	r3, r0, r3
  103798:	e0222003 	eor	r2, r2, r3
  10379c:	e3e03083 	mvn	r3, #131	; 0x83
  1037a0:	e1a01101 	lsl	r1, r1, #2
  1037a4:	e24b0004 	sub	r0, fp, #4
  1037a8:	e0801001 	add	r1, r0, r1
  1037ac:	e0813003 	add	r3, r1, r3
  1037b0:	e5832000 	str	r2, [r3]
  1037b4:	e51b3008 	ldr	r3, [fp, #-8]
  1037b8:	e1a03103 	lsl	r3, r3, #2
  1037bc:	e2831003 	add	r1, r3, #3
  1037c0:	e51b3008 	ldr	r3, [fp, #-8]
  1037c4:	e1a03203 	lsl	r3, r3, #4
  1037c8:	e283300c 	add	r3, r3, #12
  1037cc:	e51b2090 	ldr	r2, [fp, #-144]	; 0xffffff70
  1037d0:	e0823003 	add	r3, r2, r3
  1037d4:	e5933000 	ldr	r3, [r3]
  1037d8:	e1a02083 	lsl	r2, r3, #1
  1037dc:	e3e03083 	mvn	r3, #131	; 0x83
  1037e0:	e1a01101 	lsl	r1, r1, #2
  1037e4:	e24b0004 	sub	r0, fp, #4
  1037e8:	e0801001 	add	r1, r0, r1
  1037ec:	e0813003 	add	r3, r1, r3
  1037f0:	e5832000 	str	r2, [r3]
  1037f4:	e51b3008 	ldr	r3, [fp, #-8]
  1037f8:	e1a03103 	lsl	r3, r3, #2
  1037fc:	e2832003 	add	r2, r3, #3
  103800:	e3e03083 	mvn	r3, #131	; 0x83
  103804:	e1a02102 	lsl	r2, r2, #2
  103808:	e24b1004 	sub	r1, fp, #4
  10380c:	e0812002 	add	r2, r1, r2
  103810:	e0823003 	add	r3, r2, r3
  103814:	e5933000 	ldr	r3, [r3]
  103818:	e1a03443 	asr	r3, r3, #8
  10381c:	e3530001 	cmp	r3, #1
  103820:	1a000013 	bne	103874 <MixColumn_AddRoundKey+0x754>
  103824:	e51b3008 	ldr	r3, [fp, #-8]
  103828:	e1a03103 	lsl	r3, r3, #2
  10382c:	e2831003 	add	r1, r3, #3
  103830:	e51b3008 	ldr	r3, [fp, #-8]
  103834:	e1a03103 	lsl	r3, r3, #2
  103838:	e2832003 	add	r2, r3, #3
  10383c:	e3e03083 	mvn	r3, #131	; 0x83
  103840:	e1a02102 	lsl	r2, r2, #2
  103844:	e24b0004 	sub	r0, fp, #4
  103848:	e0802002 	add	r2, r0, r2
  10384c:	e0823003 	add	r3, r2, r3
  103850:	e5933000 	ldr	r3, [r3]
  103854:	e2233f46 	eor	r3, r3, #280	; 0x118
  103858:	e2233003 	eor	r3, r3, #3
  10385c:	e3e02083 	mvn	r2, #131	; 0x83
  103860:	e1a01101 	lsl	r1, r1, #2
  103864:	e24b0004 	sub	r0, fp, #4
  103868:	e0801001 	add	r1, r0, r1
  10386c:	e0812002 	add	r2, r1, r2
  103870:	e5823000 	str	r3, [r2]
  103874:	e51b3008 	ldr	r3, [fp, #-8]
  103878:	e1a03203 	lsl	r3, r3, #4
  10387c:	e51b2090 	ldr	r2, [fp, #-144]	; 0xffffff70
  103880:	e0823003 	add	r3, r2, r3
  103884:	e5934000 	ldr	r4, [r3]
  103888:	e1a03084 	lsl	r3, r4, #1
  10388c:	e0244003 	eor	r4, r4, r3
  103890:	e1a03444 	asr	r3, r4, #8
  103894:	e3530001 	cmp	r3, #1
  103898:	1a000015 	bne	1038f4 <MixColumn_AddRoundKey+0x7d4>
  10389c:	e51b3008 	ldr	r3, [fp, #-8]
  1038a0:	e1a03103 	lsl	r3, r3, #2
  1038a4:	e2831003 	add	r1, r3, #3
  1038a8:	e51b3008 	ldr	r3, [fp, #-8]
  1038ac:	e1a03103 	lsl	r3, r3, #2
  1038b0:	e2832003 	add	r2, r3, #3
  1038b4:	e3e03083 	mvn	r3, #131	; 0x83
  1038b8:	e1a02102 	lsl	r2, r2, #2
  1038bc:	e24b0004 	sub	r0, fp, #4
  1038c0:	e0802002 	add	r2, r0, r2
  1038c4:	e0823003 	add	r3, r2, r3
  1038c8:	e5932000 	ldr	r2, [r3]
  1038cc:	e2243f46 	eor	r3, r4, #280	; 0x118
  1038d0:	e2233003 	eor	r3, r3, #3
  1038d4:	e0222003 	eor	r2, r2, r3
  1038d8:	e3e03083 	mvn	r3, #131	; 0x83
  1038dc:	e1a01101 	lsl	r1, r1, #2
  1038e0:	e24b0004 	sub	r0, fp, #4
  1038e4:	e0801001 	add	r1, r0, r1
  1038e8:	e0813003 	add	r3, r1, r3
  1038ec:	e5832000 	str	r2, [r3]
  1038f0:	ea000012 	b	103940 <MixColumn_AddRoundKey+0x820>
  1038f4:	e51b3008 	ldr	r3, [fp, #-8]
  1038f8:	e1a03103 	lsl	r3, r3, #2
  1038fc:	e2831003 	add	r1, r3, #3
  103900:	e51b3008 	ldr	r3, [fp, #-8]
  103904:	e1a03103 	lsl	r3, r3, #2
  103908:	e2832003 	add	r2, r3, #3
  10390c:	e3e03083 	mvn	r3, #131	; 0x83
  103910:	e1a02102 	lsl	r2, r2, #2
  103914:	e24b0004 	sub	r0, fp, #4
  103918:	e0802002 	add	r2, r0, r2
  10391c:	e0823003 	add	r3, r2, r3
  103920:	e5933000 	ldr	r3, [r3]
  103924:	e0232004 	eor	r2, r3, r4
  103928:	e3e03083 	mvn	r3, #131	; 0x83
  10392c:	e1a01101 	lsl	r1, r1, #2
  103930:	e24b0004 	sub	r0, fp, #4
  103934:	e0801001 	add	r1, r0, r1
  103938:	e0813003 	add	r3, r1, r3
  10393c:	e5832000 	str	r2, [r3]
  103940:	e51b3008 	ldr	r3, [fp, #-8]
  103944:	e1a03103 	lsl	r3, r3, #2
  103948:	e2831003 	add	r1, r3, #3
  10394c:	e51b3008 	ldr	r3, [fp, #-8]
  103950:	e1a03103 	lsl	r3, r3, #2
  103954:	e2832003 	add	r2, r3, #3
  103958:	e3e03083 	mvn	r3, #131	; 0x83
  10395c:	e1a02102 	lsl	r2, r2, #2
  103960:	e24b0004 	sub	r0, fp, #4
  103964:	e0802002 	add	r2, r0, r2
  103968:	e0823003 	add	r3, r2, r3
  10396c:	e5932000 	ldr	r2, [r3]
  103970:	e51b3008 	ldr	r3, [fp, #-8]
  103974:	e1a03203 	lsl	r3, r3, #4
  103978:	e2833004 	add	r3, r3, #4
  10397c:	e51b0090 	ldr	r0, [fp, #-144]	; 0xffffff70
  103980:	e0803003 	add	r3, r0, r3
  103984:	e5930000 	ldr	r0, [r3]
  103988:	e51b3008 	ldr	r3, [fp, #-8]
  10398c:	e1a03203 	lsl	r3, r3, #4
  103990:	e2833008 	add	r3, r3, #8
  103994:	e51bc090 	ldr	ip, [fp, #-144]	; 0xffffff70
  103998:	e08c3003 	add	r3, ip, r3
  10399c:	e5933000 	ldr	r3, [r3]
  1039a0:	e0200003 	eor	r0, r0, r3
  1039a4:	e51b3094 	ldr	r3, [fp, #-148]	; 0xffffff6c
  1039a8:	e51bc098 	ldr	ip, [fp, #-152]	; 0xffffff68
  1039ac:	e00c039c 	mul	ip, ip, r3
  1039b0:	e51b3008 	ldr	r3, [fp, #-8]
  1039b4:	e08cc003 	add	ip, ip, r3
  1039b8:	e30c3034 	movw	r3, #49204	; 0xc034
  1039bc:	e3403010 	movt	r3, #16
  1039c0:	e28ccf5a 	add	ip, ip, #360	; 0x168
  1039c4:	e793310c 	ldr	r3, [r3, ip, lsl #2]
  1039c8:	e0203003 	eor	r3, r0, r3
  1039cc:	e0222003 	eor	r2, r2, r3
  1039d0:	e3e03083 	mvn	r3, #131	; 0x83
  1039d4:	e1a01101 	lsl	r1, r1, #2
  1039d8:	e24b0004 	sub	r0, fp, #4
  1039dc:	e0801001 	add	r1, r0, r1
  1039e0:	e0813003 	add	r3, r1, r3
  1039e4:	e5832000 	str	r2, [r3]
  1039e8:	e51b3008 	ldr	r3, [fp, #-8]
  1039ec:	e2833001 	add	r3, r3, #1
  1039f0:	e50b3008 	str	r3, [fp, #-8]
  1039f4:	e51b2008 	ldr	r2, [fp, #-8]
  1039f8:	e51b3094 	ldr	r3, [fp, #-148]	; 0xffffff6c
  1039fc:	e1520003 	cmp	r2, r3
  103a00:	bafffdcf 	blt	103144 <MixColumn_AddRoundKey+0x24>
  103a04:	e3a03000 	mov	r3, #0
  103a08:	e50b3008 	str	r3, [fp, #-8]
  103a0c:	ea00003c 	b	103b04 <MixColumn_AddRoundKey+0x9e4>
  103a10:	e51b3008 	ldr	r3, [fp, #-8]
  103a14:	e1a03203 	lsl	r3, r3, #4
  103a18:	e51b2090 	ldr	r2, [fp, #-144]	; 0xffffff70
  103a1c:	e0823003 	add	r3, r2, r3
  103a20:	e51b2008 	ldr	r2, [fp, #-8]
  103a24:	e1a01102 	lsl	r1, r2, #2
  103a28:	e3e02083 	mvn	r2, #131	; 0x83
  103a2c:	e1a01101 	lsl	r1, r1, #2
  103a30:	e24b0004 	sub	r0, fp, #4
  103a34:	e0801001 	add	r1, r0, r1
  103a38:	e0812002 	add	r2, r1, r2
  103a3c:	e5922000 	ldr	r2, [r2]
  103a40:	e5832000 	str	r2, [r3]
  103a44:	e51b3008 	ldr	r3, [fp, #-8]
  103a48:	e1a03203 	lsl	r3, r3, #4
  103a4c:	e2833004 	add	r3, r3, #4
  103a50:	e51b2090 	ldr	r2, [fp, #-144]	; 0xffffff70
  103a54:	e0823003 	add	r3, r2, r3
  103a58:	e51b2008 	ldr	r2, [fp, #-8]
  103a5c:	e1a02102 	lsl	r2, r2, #2
  103a60:	e2821001 	add	r1, r2, #1
  103a64:	e3e02083 	mvn	r2, #131	; 0x83
  103a68:	e1a01101 	lsl	r1, r1, #2
  103a6c:	e24b0004 	sub	r0, fp, #4
  103a70:	e0801001 	add	r1, r0, r1
  103a74:	e0812002 	add	r2, r1, r2
  103a78:	e5922000 	ldr	r2, [r2]
  103a7c:	e5832000 	str	r2, [r3]
  103a80:	e51b3008 	ldr	r3, [fp, #-8]
  103a84:	e1a03203 	lsl	r3, r3, #4
  103a88:	e2833008 	add	r3, r3, #8
  103a8c:	e51b2090 	ldr	r2, [fp, #-144]	; 0xffffff70
  103a90:	e0823003 	add	r3, r2, r3
  103a94:	e51b2008 	ldr	r2, [fp, #-8]
  103a98:	e1a02102 	lsl	r2, r2, #2
  103a9c:	e2821002 	add	r1, r2, #2
  103aa0:	e3e02083 	mvn	r2, #131	; 0x83
  103aa4:	e1a01101 	lsl	r1, r1, #2
  103aa8:	e24b0004 	sub	r0, fp, #4
  103aac:	e0801001 	add	r1, r0, r1
  103ab0:	e0812002 	add	r2, r1, r2
  103ab4:	e5922000 	ldr	r2, [r2]
  103ab8:	e5832000 	str	r2, [r3]
  103abc:	e51b3008 	ldr	r3, [fp, #-8]
  103ac0:	e1a03203 	lsl	r3, r3, #4
  103ac4:	e283300c 	add	r3, r3, #12
  103ac8:	e51b2090 	ldr	r2, [fp, #-144]	; 0xffffff70
  103acc:	e0823003 	add	r3, r2, r3
  103ad0:	e51b2008 	ldr	r2, [fp, #-8]
  103ad4:	e1a02102 	lsl	r2, r2, #2
  103ad8:	e2821003 	add	r1, r2, #3
  103adc:	e3e02083 	mvn	r2, #131	; 0x83
  103ae0:	e1a01101 	lsl	r1, r1, #2
  103ae4:	e24b0004 	sub	r0, fp, #4
  103ae8:	e0801001 	add	r1, r0, r1
  103aec:	e0812002 	add	r2, r1, r2
  103af0:	e5922000 	ldr	r2, [r2]
  103af4:	e5832000 	str	r2, [r3]
  103af8:	e51b3008 	ldr	r3, [fp, #-8]
  103afc:	e2833001 	add	r3, r3, #1
  103b00:	e50b3008 	str	r3, [fp, #-8]
  103b04:	e51b2008 	ldr	r2, [fp, #-8]
  103b08:	e51b3094 	ldr	r3, [fp, #-148]	; 0xffffff6c
  103b0c:	e1520003 	cmp	r2, r3
  103b10:	baffffbe 	blt	103a10 <MixColumn_AddRoundKey+0x8f0>
  103b14:	e3a03000 	mov	r3, #0
  103b18:	e1a00003 	mov	r0, r3
  103b1c:	e24bd004 	sub	sp, fp, #4
  103b20:	e8bd0810 	pop	{r4, fp}
  103b24:	e12fff1e 	bx	lr

00103b28 <AddRoundKey_InversMixColumn>:
  103b28:	e92d0810 	push	{r4, fp}
  103b2c:	e28db004 	add	fp, sp, #4
  103b30:	e24dd098 	sub	sp, sp, #152	; 0x98
  103b34:	e50b0090 	str	r0, [fp, #-144]	; 0xffffff70
  103b38:	e50b1094 	str	r1, [fp, #-148]	; 0xffffff6c
  103b3c:	e50b2098 	str	r2, [fp, #-152]	; 0xffffff68
  103b40:	e3a03000 	mov	r3, #0
  103b44:	e50b300c 	str	r3, [fp, #-12]
  103b48:	ea000057 	b	103cac <AddRoundKey_InversMixColumn+0x184>
  103b4c:	e51b300c 	ldr	r3, [fp, #-12]
  103b50:	e1a03203 	lsl	r3, r3, #4
  103b54:	e51b2090 	ldr	r2, [fp, #-144]	; 0xffffff70
  103b58:	e0822003 	add	r2, r2, r3
  103b5c:	e51b300c 	ldr	r3, [fp, #-12]
  103b60:	e1a03203 	lsl	r3, r3, #4
  103b64:	e51b1090 	ldr	r1, [fp, #-144]	; 0xffffff70
  103b68:	e0813003 	add	r3, r1, r3
  103b6c:	e5931000 	ldr	r1, [r3]
  103b70:	e51b3094 	ldr	r3, [fp, #-148]	; 0xffffff6c
  103b74:	e51b0098 	ldr	r0, [fp, #-152]	; 0xffffff68
  103b78:	e0000390 	mul	r0, r0, r3
  103b7c:	e51b300c 	ldr	r3, [fp, #-12]
  103b80:	e0800003 	add	r0, r0, r3
  103b84:	e30c3034 	movw	r3, #49204	; 0xc034
  103b88:	e3403010 	movt	r3, #16
  103b8c:	e7933100 	ldr	r3, [r3, r0, lsl #2]
  103b90:	e0213003 	eor	r3, r1, r3
  103b94:	e5823000 	str	r3, [r2]
  103b98:	e51b300c 	ldr	r3, [fp, #-12]
  103b9c:	e1a03203 	lsl	r3, r3, #4
  103ba0:	e2833004 	add	r3, r3, #4
  103ba4:	e51b2090 	ldr	r2, [fp, #-144]	; 0xffffff70
  103ba8:	e0822003 	add	r2, r2, r3
  103bac:	e51b300c 	ldr	r3, [fp, #-12]
  103bb0:	e1a03203 	lsl	r3, r3, #4
  103bb4:	e2833004 	add	r3, r3, #4
  103bb8:	e51b1090 	ldr	r1, [fp, #-144]	; 0xffffff70
  103bbc:	e0813003 	add	r3, r1, r3
  103bc0:	e5931000 	ldr	r1, [r3]
  103bc4:	e51b3094 	ldr	r3, [fp, #-148]	; 0xffffff6c
  103bc8:	e51b0098 	ldr	r0, [fp, #-152]	; 0xffffff68
  103bcc:	e0000390 	mul	r0, r0, r3
  103bd0:	e51b300c 	ldr	r3, [fp, #-12]
  103bd4:	e0800003 	add	r0, r0, r3
  103bd8:	e30c3034 	movw	r3, #49204	; 0xc034
  103bdc:	e3403010 	movt	r3, #16
  103be0:	e2800078 	add	r0, r0, #120	; 0x78
  103be4:	e7933100 	ldr	r3, [r3, r0, lsl #2]
  103be8:	e0213003 	eor	r3, r1, r3
  103bec:	e5823000 	str	r3, [r2]
  103bf0:	e51b300c 	ldr	r3, [fp, #-12]
  103bf4:	e1a03203 	lsl	r3, r3, #4
  103bf8:	e2833008 	add	r3, r3, #8
  103bfc:	e51b2090 	ldr	r2, [fp, #-144]	; 0xffffff70
  103c00:	e0822003 	add	r2, r2, r3
  103c04:	e51b300c 	ldr	r3, [fp, #-12]
  103c08:	e1a03203 	lsl	r3, r3, #4
  103c0c:	e2833008 	add	r3, r3, #8
  103c10:	e51b1090 	ldr	r1, [fp, #-144]	; 0xffffff70
  103c14:	e0813003 	add	r3, r1, r3
  103c18:	e5931000 	ldr	r1, [r3]
  103c1c:	e51b3094 	ldr	r3, [fp, #-148]	; 0xffffff6c
  103c20:	e51b0098 	ldr	r0, [fp, #-152]	; 0xffffff68
  103c24:	e0000390 	mul	r0, r0, r3
  103c28:	e51b300c 	ldr	r3, [fp, #-12]
  103c2c:	e0800003 	add	r0, r0, r3
  103c30:	e30c3034 	movw	r3, #49204	; 0xc034
  103c34:	e3403010 	movt	r3, #16
  103c38:	e28000f0 	add	r0, r0, #240	; 0xf0
  103c3c:	e7933100 	ldr	r3, [r3, r0, lsl #2]
  103c40:	e0213003 	eor	r3, r1, r3
  103c44:	e5823000 	str	r3, [r2]
  103c48:	e51b300c 	ldr	r3, [fp, #-12]
  103c4c:	e1a03203 	lsl	r3, r3, #4
  103c50:	e283300c 	add	r3, r3, #12
  103c54:	e51b2090 	ldr	r2, [fp, #-144]	; 0xffffff70
  103c58:	e0822003 	add	r2, r2, r3
  103c5c:	e51b300c 	ldr	r3, [fp, #-12]
  103c60:	e1a03203 	lsl	r3, r3, #4
  103c64:	e283300c 	add	r3, r3, #12
  103c68:	e51b1090 	ldr	r1, [fp, #-144]	; 0xffffff70
  103c6c:	e0813003 	add	r3, r1, r3
  103c70:	e5931000 	ldr	r1, [r3]
  103c74:	e51b3094 	ldr	r3, [fp, #-148]	; 0xffffff6c
  103c78:	e51b0098 	ldr	r0, [fp, #-152]	; 0xffffff68
  103c7c:	e0000390 	mul	r0, r0, r3
  103c80:	e51b300c 	ldr	r3, [fp, #-12]
  103c84:	e0800003 	add	r0, r0, r3
  103c88:	e30c3034 	movw	r3, #49204	; 0xc034
  103c8c:	e3403010 	movt	r3, #16
  103c90:	e2800f5a 	add	r0, r0, #360	; 0x168
  103c94:	e7933100 	ldr	r3, [r3, r0, lsl #2]
  103c98:	e0213003 	eor	r3, r1, r3
  103c9c:	e5823000 	str	r3, [r2]
  103ca0:	e51b300c 	ldr	r3, [fp, #-12]
  103ca4:	e2833001 	add	r3, r3, #1
  103ca8:	e50b300c 	str	r3, [fp, #-12]
  103cac:	e51b200c 	ldr	r2, [fp, #-12]
  103cb0:	e51b3094 	ldr	r3, [fp, #-148]	; 0xffffff6c
  103cb4:	e1520003 	cmp	r2, r3
  103cb8:	baffffa3 	blt	103b4c <AddRoundKey_InversMixColumn+0x24>
  103cbc:	e3a03000 	mov	r3, #0
  103cc0:	e50b300c 	str	r3, [fp, #-12]
  103cc4:	ea00013f 	b	1041c8 <AddRoundKey_InversMixColumn+0x6a0>
  103cc8:	e3a03000 	mov	r3, #0
  103ccc:	e50b3008 	str	r3, [fp, #-8]
  103cd0:	ea000136 	b	1041b0 <AddRoundKey_InversMixColumn+0x688>
  103cd4:	e51b300c 	ldr	r3, [fp, #-12]
  103cd8:	e1a02103 	lsl	r2, r3, #2
  103cdc:	e51b3008 	ldr	r3, [fp, #-8]
  103ce0:	e0823003 	add	r3, r2, r3
  103ce4:	e1a03103 	lsl	r3, r3, #2
  103ce8:	e51b2090 	ldr	r2, [fp, #-144]	; 0xffffff70
  103cec:	e0823003 	add	r3, r2, r3
  103cf0:	e5933000 	ldr	r3, [r3]
  103cf4:	e1a04083 	lsl	r4, r3, #1
  103cf8:	e1a03444 	asr	r3, r4, #8
  103cfc:	e3530001 	cmp	r3, #1
  103d00:	1a000002 	bne	103d10 <AddRoundKey_InversMixColumn+0x1e8>
  103d04:	e2243f46 	eor	r3, r4, #280	; 0x118
  103d08:	e2233003 	eor	r3, r3, #3
  103d0c:	e1a04003 	mov	r4, r3
  103d10:	e51b300c 	ldr	r3, [fp, #-12]
  103d14:	e1a02103 	lsl	r2, r3, #2
  103d18:	e51b3008 	ldr	r3, [fp, #-8]
  103d1c:	e0823003 	add	r3, r2, r3
  103d20:	e1a03103 	lsl	r3, r3, #2
  103d24:	e51b2090 	ldr	r2, [fp, #-144]	; 0xffffff70
  103d28:	e0823003 	add	r3, r2, r3
  103d2c:	e5933000 	ldr	r3, [r3]
  103d30:	e0244003 	eor	r4, r4, r3
  103d34:	e1a04084 	lsl	r4, r4, #1
  103d38:	e1a03444 	asr	r3, r4, #8
  103d3c:	e3530001 	cmp	r3, #1
  103d40:	1a000002 	bne	103d50 <AddRoundKey_InversMixColumn+0x228>
  103d44:	e2243f46 	eor	r3, r4, #280	; 0x118
  103d48:	e2233003 	eor	r3, r3, #3
  103d4c:	e1a04003 	mov	r4, r3
  103d50:	e51b300c 	ldr	r3, [fp, #-12]
  103d54:	e1a02103 	lsl	r2, r3, #2
  103d58:	e51b3008 	ldr	r3, [fp, #-8]
  103d5c:	e0823003 	add	r3, r2, r3
  103d60:	e1a03103 	lsl	r3, r3, #2
  103d64:	e51b2090 	ldr	r2, [fp, #-144]	; 0xffffff70
  103d68:	e0823003 	add	r3, r2, r3
  103d6c:	e5933000 	ldr	r3, [r3]
  103d70:	e0244003 	eor	r4, r4, r3
  103d74:	e1a04084 	lsl	r4, r4, #1
  103d78:	e1a03444 	asr	r3, r4, #8
  103d7c:	e3530001 	cmp	r3, #1
  103d80:	1a000002 	bne	103d90 <AddRoundKey_InversMixColumn+0x268>
  103d84:	e2243f46 	eor	r3, r4, #280	; 0x118
  103d88:	e2233003 	eor	r3, r3, #3
  103d8c:	e1a04003 	mov	r4, r3
  103d90:	e51b300c 	ldr	r3, [fp, #-12]
  103d94:	e1a02103 	lsl	r2, r3, #2
  103d98:	e51b3008 	ldr	r3, [fp, #-8]
  103d9c:	e0822003 	add	r2, r2, r3
  103da0:	e3e03087 	mvn	r3, #135	; 0x87
  103da4:	e1a02102 	lsl	r2, r2, #2
  103da8:	e24b0004 	sub	r0, fp, #4
  103dac:	e0802002 	add	r2, r0, r2
  103db0:	e0823003 	add	r3, r2, r3
  103db4:	e5834000 	str	r4, [r3]
  103db8:	e51b3008 	ldr	r3, [fp, #-8]
  103dbc:	e2832001 	add	r2, r3, #1
  103dc0:	e1a03fc2 	asr	r3, r2, #31
  103dc4:	e1a03f23 	lsr	r3, r3, #30
  103dc8:	e0822003 	add	r2, r2, r3
  103dcc:	e2022003 	and	r2, r2, #3
  103dd0:	e0633002 	rsb	r3, r3, r2
  103dd4:	e1a02003 	mov	r2, r3
  103dd8:	e51b300c 	ldr	r3, [fp, #-12]
  103ddc:	e1a03103 	lsl	r3, r3, #2
  103de0:	e0823003 	add	r3, r2, r3
  103de4:	e1a03103 	lsl	r3, r3, #2
  103de8:	e51b2090 	ldr	r2, [fp, #-144]	; 0xffffff70
  103dec:	e0823003 	add	r3, r2, r3
  103df0:	e5933000 	ldr	r3, [r3]
  103df4:	e1a04083 	lsl	r4, r3, #1
  103df8:	e1a03444 	asr	r3, r4, #8
  103dfc:	e3530001 	cmp	r3, #1
  103e00:	1a000002 	bne	103e10 <AddRoundKey_InversMixColumn+0x2e8>
  103e04:	e2243f46 	eor	r3, r4, #280	; 0x118
  103e08:	e2233003 	eor	r3, r3, #3
  103e0c:	e1a04003 	mov	r4, r3
  103e10:	e1a04084 	lsl	r4, r4, #1
  103e14:	e1a03444 	asr	r3, r4, #8
  103e18:	e3530001 	cmp	r3, #1
  103e1c:	1a000002 	bne	103e2c <AddRoundKey_InversMixColumn+0x304>
  103e20:	e2243f46 	eor	r3, r4, #280	; 0x118
  103e24:	e2233003 	eor	r3, r3, #3
  103e28:	e1a04003 	mov	r4, r3
  103e2c:	e51b3008 	ldr	r3, [fp, #-8]
  103e30:	e2832001 	add	r2, r3, #1
  103e34:	e1a03fc2 	asr	r3, r2, #31
  103e38:	e1a03f23 	lsr	r3, r3, #30
  103e3c:	e0822003 	add	r2, r2, r3
  103e40:	e2022003 	and	r2, r2, #3
  103e44:	e0633002 	rsb	r3, r3, r2
  103e48:	e1a02003 	mov	r2, r3
  103e4c:	e51b300c 	ldr	r3, [fp, #-12]
  103e50:	e1a03103 	lsl	r3, r3, #2
  103e54:	e0823003 	add	r3, r2, r3
  103e58:	e1a03103 	lsl	r3, r3, #2
  103e5c:	e51b2090 	ldr	r2, [fp, #-144]	; 0xffffff70
  103e60:	e0823003 	add	r3, r2, r3
  103e64:	e5933000 	ldr	r3, [r3]
  103e68:	e0244003 	eor	r4, r4, r3
  103e6c:	e1a04084 	lsl	r4, r4, #1
  103e70:	e1a03444 	asr	r3, r4, #8
  103e74:	e3530001 	cmp	r3, #1
  103e78:	1a000002 	bne	103e88 <AddRoundKey_InversMixColumn+0x360>
  103e7c:	e2243f46 	eor	r3, r4, #280	; 0x118
  103e80:	e2233003 	eor	r3, r3, #3
  103e84:	e1a04003 	mov	r4, r3
  103e88:	e51b3008 	ldr	r3, [fp, #-8]
  103e8c:	e2832001 	add	r2, r3, #1
  103e90:	e1a03fc2 	asr	r3, r2, #31
  103e94:	e1a03f23 	lsr	r3, r3, #30
  103e98:	e0822003 	add	r2, r2, r3
  103e9c:	e2022003 	and	r2, r2, #3
  103ea0:	e0633002 	rsb	r3, r3, r2
  103ea4:	e1a02003 	mov	r2, r3
  103ea8:	e51b300c 	ldr	r3, [fp, #-12]
  103eac:	e1a03103 	lsl	r3, r3, #2
  103eb0:	e0823003 	add	r3, r2, r3
  103eb4:	e1a03103 	lsl	r3, r3, #2
  103eb8:	e51b2090 	ldr	r2, [fp, #-144]	; 0xffffff70
  103ebc:	e0823003 	add	r3, r2, r3
  103ec0:	e5933000 	ldr	r3, [r3]
  103ec4:	e0244003 	eor	r4, r4, r3
  103ec8:	e51b300c 	ldr	r3, [fp, #-12]
  103ecc:	e1a02103 	lsl	r2, r3, #2
  103ed0:	e51b3008 	ldr	r3, [fp, #-8]
  103ed4:	e0821003 	add	r1, r2, r3
  103ed8:	e51b300c 	ldr	r3, [fp, #-12]
  103edc:	e1a02103 	lsl	r2, r3, #2
  103ee0:	e51b3008 	ldr	r3, [fp, #-8]
  103ee4:	e0822003 	add	r2, r2, r3
  103ee8:	e3e03087 	mvn	r3, #135	; 0x87
  103eec:	e1a02102 	lsl	r2, r2, #2
  103ef0:	e24b0004 	sub	r0, fp, #4
  103ef4:	e0802002 	add	r2, r0, r2
  103ef8:	e0823003 	add	r3, r2, r3
  103efc:	e5933000 	ldr	r3, [r3]
  103f00:	e0232004 	eor	r2, r3, r4
  103f04:	e3e03087 	mvn	r3, #135	; 0x87
  103f08:	e1a01101 	lsl	r1, r1, #2
  103f0c:	e24b0004 	sub	r0, fp, #4
  103f10:	e0801001 	add	r1, r0, r1
  103f14:	e0813003 	add	r3, r1, r3
  103f18:	e5832000 	str	r2, [r3]
  103f1c:	e51b3008 	ldr	r3, [fp, #-8]
  103f20:	e2832002 	add	r2, r3, #2
  103f24:	e1a03fc2 	asr	r3, r2, #31
  103f28:	e1a03f23 	lsr	r3, r3, #30
  103f2c:	e0822003 	add	r2, r2, r3
  103f30:	e2022003 	and	r2, r2, #3
  103f34:	e0633002 	rsb	r3, r3, r2
  103f38:	e1a02003 	mov	r2, r3
  103f3c:	e51b300c 	ldr	r3, [fp, #-12]
  103f40:	e1a03103 	lsl	r3, r3, #2
  103f44:	e0823003 	add	r3, r2, r3
  103f48:	e1a03103 	lsl	r3, r3, #2
  103f4c:	e51b2090 	ldr	r2, [fp, #-144]	; 0xffffff70
  103f50:	e0823003 	add	r3, r2, r3
  103f54:	e5933000 	ldr	r3, [r3]
  103f58:	e1a04083 	lsl	r4, r3, #1
  103f5c:	e1a03444 	asr	r3, r4, #8
  103f60:	e3530001 	cmp	r3, #1
  103f64:	1a000002 	bne	103f74 <AddRoundKey_InversMixColumn+0x44c>
  103f68:	e2243f46 	eor	r3, r4, #280	; 0x118
  103f6c:	e2233003 	eor	r3, r3, #3
  103f70:	e1a04003 	mov	r4, r3
  103f74:	e51b3008 	ldr	r3, [fp, #-8]
  103f78:	e2832002 	add	r2, r3, #2
  103f7c:	e1a03fc2 	asr	r3, r2, #31
  103f80:	e1a03f23 	lsr	r3, r3, #30
  103f84:	e0822003 	add	r2, r2, r3
  103f88:	e2022003 	and	r2, r2, #3
  103f8c:	e0633002 	rsb	r3, r3, r2
  103f90:	e1a02003 	mov	r2, r3
  103f94:	e51b300c 	ldr	r3, [fp, #-12]
  103f98:	e1a03103 	lsl	r3, r3, #2
  103f9c:	e0823003 	add	r3, r2, r3
  103fa0:	e1a03103 	lsl	r3, r3, #2
  103fa4:	e51b2090 	ldr	r2, [fp, #-144]	; 0xffffff70
  103fa8:	e0823003 	add	r3, r2, r3
  103fac:	e5933000 	ldr	r3, [r3]
  103fb0:	e0244003 	eor	r4, r4, r3
  103fb4:	e1a04084 	lsl	r4, r4, #1
  103fb8:	e1a03444 	asr	r3, r4, #8
  103fbc:	e3530001 	cmp	r3, #1
  103fc0:	1a000002 	bne	103fd0 <AddRoundKey_InversMixColumn+0x4a8>
  103fc4:	e2243f46 	eor	r3, r4, #280	; 0x118
  103fc8:	e2233003 	eor	r3, r3, #3
  103fcc:	e1a04003 	mov	r4, r3
  103fd0:	e1a04084 	lsl	r4, r4, #1
  103fd4:	e1a03444 	asr	r3, r4, #8
  103fd8:	e3530001 	cmp	r3, #1
  103fdc:	1a000002 	bne	103fec <AddRoundKey_InversMixColumn+0x4c4>
  103fe0:	e2243f46 	eor	r3, r4, #280	; 0x118
  103fe4:	e2233003 	eor	r3, r3, #3
  103fe8:	e1a04003 	mov	r4, r3
  103fec:	e51b3008 	ldr	r3, [fp, #-8]
  103ff0:	e2832002 	add	r2, r3, #2
  103ff4:	e1a03fc2 	asr	r3, r2, #31
  103ff8:	e1a03f23 	lsr	r3, r3, #30
  103ffc:	e0822003 	add	r2, r2, r3
  104000:	e2022003 	and	r2, r2, #3
  104004:	e0633002 	rsb	r3, r3, r2
  104008:	e1a02003 	mov	r2, r3
  10400c:	e51b300c 	ldr	r3, [fp, #-12]
  104010:	e1a03103 	lsl	r3, r3, #2
  104014:	e0823003 	add	r3, r2, r3
  104018:	e1a03103 	lsl	r3, r3, #2
  10401c:	e51b2090 	ldr	r2, [fp, #-144]	; 0xffffff70
  104020:	e0823003 	add	r3, r2, r3
  104024:	e5933000 	ldr	r3, [r3]
  104028:	e0244003 	eor	r4, r4, r3
  10402c:	e51b300c 	ldr	r3, [fp, #-12]
  104030:	e1a02103 	lsl	r2, r3, #2
  104034:	e51b3008 	ldr	r3, [fp, #-8]
  104038:	e0821003 	add	r1, r2, r3
  10403c:	e51b300c 	ldr	r3, [fp, #-12]
  104040:	e1a02103 	lsl	r2, r3, #2
  104044:	e51b3008 	ldr	r3, [fp, #-8]
  104048:	e0822003 	add	r2, r2, r3
  10404c:	e3e03087 	mvn	r3, #135	; 0x87
  104050:	e1a02102 	lsl	r2, r2, #2
  104054:	e24b0004 	sub	r0, fp, #4
  104058:	e0802002 	add	r2, r0, r2
  10405c:	e0823003 	add	r3, r2, r3
  104060:	e5933000 	ldr	r3, [r3]
  104064:	e0232004 	eor	r2, r3, r4
  104068:	e3e03087 	mvn	r3, #135	; 0x87
  10406c:	e1a01101 	lsl	r1, r1, #2
  104070:	e24b0004 	sub	r0, fp, #4
  104074:	e0801001 	add	r1, r0, r1
  104078:	e0813003 	add	r3, r1, r3
  10407c:	e5832000 	str	r2, [r3]
  104080:	e51b3008 	ldr	r3, [fp, #-8]
  104084:	e2832003 	add	r2, r3, #3
  104088:	e1a03fc2 	asr	r3, r2, #31
  10408c:	e1a03f23 	lsr	r3, r3, #30
  104090:	e0822003 	add	r2, r2, r3
  104094:	e2022003 	and	r2, r2, #3
  104098:	e0633002 	rsb	r3, r3, r2
  10409c:	e1a02003 	mov	r2, r3
  1040a0:	e51b300c 	ldr	r3, [fp, #-12]
  1040a4:	e1a03103 	lsl	r3, r3, #2
  1040a8:	e0823003 	add	r3, r2, r3
  1040ac:	e1a03103 	lsl	r3, r3, #2
  1040b0:	e51b2090 	ldr	r2, [fp, #-144]	; 0xffffff70
  1040b4:	e0823003 	add	r3, r2, r3
  1040b8:	e5933000 	ldr	r3, [r3]
  1040bc:	e1a04083 	lsl	r4, r3, #1
  1040c0:	e1a03444 	asr	r3, r4, #8
  1040c4:	e3530001 	cmp	r3, #1
  1040c8:	1a000002 	bne	1040d8 <AddRoundKey_InversMixColumn+0x5b0>
  1040cc:	e2243f46 	eor	r3, r4, #280	; 0x118
  1040d0:	e2233003 	eor	r3, r3, #3
  1040d4:	e1a04003 	mov	r4, r3
  1040d8:	e1a04084 	lsl	r4, r4, #1
  1040dc:	e1a03444 	asr	r3, r4, #8
  1040e0:	e3530001 	cmp	r3, #1
  1040e4:	1a000002 	bne	1040f4 <AddRoundKey_InversMixColumn+0x5cc>
  1040e8:	e2243f46 	eor	r3, r4, #280	; 0x118
  1040ec:	e2233003 	eor	r3, r3, #3
  1040f0:	e1a04003 	mov	r4, r3
  1040f4:	e1a04084 	lsl	r4, r4, #1
  1040f8:	e1a03444 	asr	r3, r4, #8
  1040fc:	e3530001 	cmp	r3, #1
  104100:	1a000002 	bne	104110 <AddRoundKey_InversMixColumn+0x5e8>
  104104:	e2243f46 	eor	r3, r4, #280	; 0x118
  104108:	e2233003 	eor	r3, r3, #3
  10410c:	e1a04003 	mov	r4, r3
  104110:	e51b3008 	ldr	r3, [fp, #-8]
  104114:	e2832003 	add	r2, r3, #3
  104118:	e1a03fc2 	asr	r3, r2, #31
  10411c:	e1a03f23 	lsr	r3, r3, #30
  104120:	e0822003 	add	r2, r2, r3
  104124:	e2022003 	and	r2, r2, #3
  104128:	e0633002 	rsb	r3, r3, r2
  10412c:	e1a02003 	mov	r2, r3
  104130:	e51b300c 	ldr	r3, [fp, #-12]
  104134:	e1a03103 	lsl	r3, r3, #2
  104138:	e0823003 	add	r3, r2, r3
  10413c:	e1a03103 	lsl	r3, r3, #2
  104140:	e51b2090 	ldr	r2, [fp, #-144]	; 0xffffff70
  104144:	e0823003 	add	r3, r2, r3
  104148:	e5933000 	ldr	r3, [r3]
  10414c:	e0244003 	eor	r4, r4, r3
  104150:	e51b300c 	ldr	r3, [fp, #-12]
  104154:	e1a02103 	lsl	r2, r3, #2
  104158:	e51b3008 	ldr	r3, [fp, #-8]
  10415c:	e0821003 	add	r1, r2, r3
  104160:	e51b300c 	ldr	r3, [fp, #-12]
  104164:	e1a02103 	lsl	r2, r3, #2
  104168:	e51b3008 	ldr	r3, [fp, #-8]
  10416c:	e0822003 	add	r2, r2, r3
  104170:	e3e03087 	mvn	r3, #135	; 0x87
  104174:	e1a02102 	lsl	r2, r2, #2
  104178:	e24b0004 	sub	r0, fp, #4
  10417c:	e0802002 	add	r2, r0, r2
  104180:	e0823003 	add	r3, r2, r3
  104184:	e5933000 	ldr	r3, [r3]
  104188:	e0232004 	eor	r2, r3, r4
  10418c:	e3e03087 	mvn	r3, #135	; 0x87
  104190:	e1a01101 	lsl	r1, r1, #2
  104194:	e24b0004 	sub	r0, fp, #4
  104198:	e0801001 	add	r1, r0, r1
  10419c:	e0813003 	add	r3, r1, r3
  1041a0:	e5832000 	str	r2, [r3]
  1041a4:	e51b3008 	ldr	r3, [fp, #-8]
  1041a8:	e2833001 	add	r3, r3, #1
  1041ac:	e50b3008 	str	r3, [fp, #-8]
  1041b0:	e51b3008 	ldr	r3, [fp, #-8]
  1041b4:	e3530003 	cmp	r3, #3
  1041b8:	dafffec5 	ble	103cd4 <AddRoundKey_InversMixColumn+0x1ac>
  1041bc:	e51b300c 	ldr	r3, [fp, #-12]
  1041c0:	e2833001 	add	r3, r3, #1
  1041c4:	e50b300c 	str	r3, [fp, #-12]
  1041c8:	e51b200c 	ldr	r2, [fp, #-12]
  1041cc:	e51b3094 	ldr	r3, [fp, #-148]	; 0xffffff6c
  1041d0:	e1520003 	cmp	r2, r3
  1041d4:	bafffebb 	blt	103cc8 <AddRoundKey_InversMixColumn+0x1a0>
  1041d8:	e3a03000 	mov	r3, #0
  1041dc:	e50b3008 	str	r3, [fp, #-8]
  1041e0:	ea00003c 	b	1042d8 <AddRoundKey_InversMixColumn+0x7b0>
  1041e4:	e51b3008 	ldr	r3, [fp, #-8]
  1041e8:	e1a03203 	lsl	r3, r3, #4
  1041ec:	e51b2090 	ldr	r2, [fp, #-144]	; 0xffffff70
  1041f0:	e0823003 	add	r3, r2, r3
  1041f4:	e51b2008 	ldr	r2, [fp, #-8]
  1041f8:	e1a01102 	lsl	r1, r2, #2
  1041fc:	e3e02087 	mvn	r2, #135	; 0x87
  104200:	e1a01101 	lsl	r1, r1, #2
  104204:	e24b0004 	sub	r0, fp, #4
  104208:	e0801001 	add	r1, r0, r1
  10420c:	e0812002 	add	r2, r1, r2
  104210:	e5922000 	ldr	r2, [r2]
  104214:	e5832000 	str	r2, [r3]
  104218:	e51b3008 	ldr	r3, [fp, #-8]
  10421c:	e1a03203 	lsl	r3, r3, #4
  104220:	e2833004 	add	r3, r3, #4
  104224:	e51b2090 	ldr	r2, [fp, #-144]	; 0xffffff70
  104228:	e0823003 	add	r3, r2, r3
  10422c:	e51b2008 	ldr	r2, [fp, #-8]
  104230:	e1a02102 	lsl	r2, r2, #2
  104234:	e2821001 	add	r1, r2, #1
  104238:	e3e02087 	mvn	r2, #135	; 0x87
  10423c:	e1a01101 	lsl	r1, r1, #2
  104240:	e24b0004 	sub	r0, fp, #4
  104244:	e0801001 	add	r1, r0, r1
  104248:	e0812002 	add	r2, r1, r2
  10424c:	e5922000 	ldr	r2, [r2]
  104250:	e5832000 	str	r2, [r3]
  104254:	e51b3008 	ldr	r3, [fp, #-8]
  104258:	e1a03203 	lsl	r3, r3, #4
  10425c:	e2833008 	add	r3, r3, #8
  104260:	e51b2090 	ldr	r2, [fp, #-144]	; 0xffffff70
  104264:	e0823003 	add	r3, r2, r3
  104268:	e51b2008 	ldr	r2, [fp, #-8]
  10426c:	e1a02102 	lsl	r2, r2, #2
  104270:	e2821002 	add	r1, r2, #2
  104274:	e3e02087 	mvn	r2, #135	; 0x87
  104278:	e1a01101 	lsl	r1, r1, #2
  10427c:	e24b0004 	sub	r0, fp, #4
  104280:	e0801001 	add	r1, r0, r1
  104284:	e0812002 	add	r2, r1, r2
  104288:	e5922000 	ldr	r2, [r2]
  10428c:	e5832000 	str	r2, [r3]
  104290:	e51b3008 	ldr	r3, [fp, #-8]
  104294:	e1a03203 	lsl	r3, r3, #4
  104298:	e283300c 	add	r3, r3, #12
  10429c:	e51b2090 	ldr	r2, [fp, #-144]	; 0xffffff70
  1042a0:	e0823003 	add	r3, r2, r3
  1042a4:	e51b2008 	ldr	r2, [fp, #-8]
  1042a8:	e1a02102 	lsl	r2, r2, #2
  1042ac:	e2821003 	add	r1, r2, #3
  1042b0:	e3e02087 	mvn	r2, #135	; 0x87
  1042b4:	e1a01101 	lsl	r1, r1, #2
  1042b8:	e24b0004 	sub	r0, fp, #4
  1042bc:	e0801001 	add	r1, r0, r1
  1042c0:	e0812002 	add	r2, r1, r2
  1042c4:	e5922000 	ldr	r2, [r2]
  1042c8:	e5832000 	str	r2, [r3]
  1042cc:	e51b3008 	ldr	r3, [fp, #-8]
  1042d0:	e2833001 	add	r3, r3, #1
  1042d4:	e50b3008 	str	r3, [fp, #-8]
  1042d8:	e51b2008 	ldr	r2, [fp, #-8]
  1042dc:	e51b3094 	ldr	r3, [fp, #-148]	; 0xffffff6c
  1042e0:	e1520003 	cmp	r2, r3
  1042e4:	baffffbe 	blt	1041e4 <AddRoundKey_InversMixColumn+0x6bc>
  1042e8:	e3a03000 	mov	r3, #0
  1042ec:	e1a00003 	mov	r0, r3
  1042f0:	e24bd004 	sub	sp, fp, #4
  1042f4:	e8bd0810 	pop	{r4, fp}
  1042f8:	e12fff1e 	bx	lr

001042fc <AddRoundKey>:
  1042fc:	e52db004 	push	{fp}		; (str fp, [sp, #-4]!)
  104300:	e28db000 	add	fp, sp, #0
  104304:	e24dd01c 	sub	sp, sp, #28
  104308:	e50b0010 	str	r0, [fp, #-16]
  10430c:	e50b1014 	str	r1, [fp, #-20]	; 0xffffffec
  104310:	e50b2018 	str	r2, [fp, #-24]	; 0xffffffe8
  104314:	e51b3014 	ldr	r3, [fp, #-20]	; 0xffffffec
  104318:	e30e2ec0 	movw	r2, #61120	; 0xeec0
  10431c:	e3402002 	movt	r2, #2
  104320:	e1530002 	cmp	r3, r2
  104324:	0a000032 	beq	1043f4 <AddRoundKey+0xf8>
  104328:	e30e2ec0 	movw	r2, #61120	; 0xeec0
  10432c:	e3402002 	movt	r2, #2
  104330:	e1530002 	cmp	r3, r2
  104334:	ca000015 	bgt	104390 <AddRoundKey+0x94>
  104338:	e30f24c0 	movw	r2, #62656	; 0xf4c0
  10433c:	e3402001 	movt	r2, #1
  104340:	e1530002 	cmp	r3, r2
  104344:	0a00002a 	beq	1043f4 <AddRoundKey+0xf8>
  104348:	e30f24c0 	movw	r2, #62656	; 0xf4c0
  10434c:	e3402001 	movt	r2, #1
  104350:	e1530002 	cmp	r3, r2
  104354:	ca000004 	bgt	10436c <AddRoundKey+0x70>
  104358:	e30f2480 	movw	r2, #62592	; 0xf480
  10435c:	e3402001 	movt	r2, #1
  104360:	e1530002 	cmp	r3, r2
  104364:	0a00001f 	beq	1043e8 <AddRoundKey+0xec>
  104368:	ea000027 	b	10440c <AddRoundKey+0x110>
  10436c:	e3a02cf5 	mov	r2, #62720	; 0xf500
  104370:	e3402001 	movt	r2, #1
  104374:	e1530002 	cmp	r3, r2
  104378:	0a000020 	beq	104400 <AddRoundKey+0x104>
  10437c:	e30e2e80 	movw	r2, #61056	; 0xee80
  104380:	e3402002 	movt	r2, #2
  104384:	e1530002 	cmp	r3, r2
  104388:	0a000016 	beq	1043e8 <AddRoundKey+0xec>
  10438c:	ea00001e 	b	10440c <AddRoundKey+0x110>
  104390:	e30e2880 	movw	r2, #59520	; 0xe880
  104394:	e3402003 	movt	r2, #3
  104398:	e1530002 	cmp	r3, r2
  10439c:	0a000011 	beq	1043e8 <AddRoundKey+0xec>
  1043a0:	e30e2880 	movw	r2, #59520	; 0xe880
  1043a4:	e3402003 	movt	r2, #3
  1043a8:	e1530002 	cmp	r3, r2
  1043ac:	ca000004 	bgt	1043c4 <AddRoundKey+0xc8>
  1043b0:	e3a02cef 	mov	r2, #61184	; 0xef00
  1043b4:	e3402002 	movt	r2, #2
  1043b8:	e1530002 	cmp	r3, r2
  1043bc:	0a00000f 	beq	104400 <AddRoundKey+0x104>
  1043c0:	ea000011 	b	10440c <AddRoundKey+0x110>
  1043c4:	e30e28c0 	movw	r2, #59584	; 0xe8c0
  1043c8:	e3402003 	movt	r2, #3
  1043cc:	e1530002 	cmp	r3, r2
  1043d0:	0a000007 	beq	1043f4 <AddRoundKey+0xf8>
  1043d4:	e3a02ce9 	mov	r2, #59648	; 0xe900
  1043d8:	e3402003 	movt	r2, #3
  1043dc:	e1530002 	cmp	r3, r2
  1043e0:	0a000006 	beq	104400 <AddRoundKey+0x104>
  1043e4:	ea000008 	b	10440c <AddRoundKey+0x110>
  1043e8:	e3a03004 	mov	r3, #4
  1043ec:	e50b300c 	str	r3, [fp, #-12]
  1043f0:	ea000005 	b	10440c <AddRoundKey+0x110>
  1043f4:	e3a03006 	mov	r3, #6
  1043f8:	e50b300c 	str	r3, [fp, #-12]
  1043fc:	ea000002 	b	10440c <AddRoundKey+0x110>
  104400:	e3a03008 	mov	r3, #8
  104404:	e50b300c 	str	r3, [fp, #-12]
  104408:	e1a00000 	nop			; (mov r0, r0)
  10440c:	e3a03000 	mov	r3, #0
  104410:	e50b3008 	str	r3, [fp, #-8]
  104414:	ea000057 	b	104578 <AddRoundKey+0x27c>
  104418:	e51b3008 	ldr	r3, [fp, #-8]
  10441c:	e1a03203 	lsl	r3, r3, #4
  104420:	e51b2010 	ldr	r2, [fp, #-16]
  104424:	e0822003 	add	r2, r2, r3
  104428:	e51b3008 	ldr	r3, [fp, #-8]
  10442c:	e1a03203 	lsl	r3, r3, #4
  104430:	e51b1010 	ldr	r1, [fp, #-16]
  104434:	e0813003 	add	r3, r1, r3
  104438:	e5931000 	ldr	r1, [r3]
  10443c:	e51b300c 	ldr	r3, [fp, #-12]
  104440:	e51b0018 	ldr	r0, [fp, #-24]	; 0xffffffe8
  104444:	e0000390 	mul	r0, r0, r3
  104448:	e51b3008 	ldr	r3, [fp, #-8]
  10444c:	e0800003 	add	r0, r0, r3
  104450:	e30c3034 	movw	r3, #49204	; 0xc034
  104454:	e3403010 	movt	r3, #16
  104458:	e7933100 	ldr	r3, [r3, r0, lsl #2]
  10445c:	e0213003 	eor	r3, r1, r3
  104460:	e5823000 	str	r3, [r2]
  104464:	e51b3008 	ldr	r3, [fp, #-8]
  104468:	e1a03203 	lsl	r3, r3, #4
  10446c:	e2833004 	add	r3, r3, #4
  104470:	e51b2010 	ldr	r2, [fp, #-16]
  104474:	e0822003 	add	r2, r2, r3
  104478:	e51b3008 	ldr	r3, [fp, #-8]
  10447c:	e1a03203 	lsl	r3, r3, #4
  104480:	e2833004 	add	r3, r3, #4
  104484:	e51b1010 	ldr	r1, [fp, #-16]
  104488:	e0813003 	add	r3, r1, r3
  10448c:	e5931000 	ldr	r1, [r3]
  104490:	e51b300c 	ldr	r3, [fp, #-12]
  104494:	e51b0018 	ldr	r0, [fp, #-24]	; 0xffffffe8
  104498:	e0000390 	mul	r0, r0, r3
  10449c:	e51b3008 	ldr	r3, [fp, #-8]
  1044a0:	e0800003 	add	r0, r0, r3
  1044a4:	e30c3034 	movw	r3, #49204	; 0xc034
  1044a8:	e3403010 	movt	r3, #16
  1044ac:	e2800078 	add	r0, r0, #120	; 0x78
  1044b0:	e7933100 	ldr	r3, [r3, r0, lsl #2]
  1044b4:	e0213003 	eor	r3, r1, r3
  1044b8:	e5823000 	str	r3, [r2]
  1044bc:	e51b3008 	ldr	r3, [fp, #-8]
  1044c0:	e1a03203 	lsl	r3, r3, #4
  1044c4:	e2833008 	add	r3, r3, #8
  1044c8:	e51b2010 	ldr	r2, [fp, #-16]
  1044cc:	e0822003 	add	r2, r2, r3
  1044d0:	e51b3008 	ldr	r3, [fp, #-8]
  1044d4:	e1a03203 	lsl	r3, r3, #4
  1044d8:	e2833008 	add	r3, r3, #8
  1044dc:	e51b1010 	ldr	r1, [fp, #-16]
  1044e0:	e0813003 	add	r3, r1, r3
  1044e4:	e5931000 	ldr	r1, [r3]
  1044e8:	e51b300c 	ldr	r3, [fp, #-12]
  1044ec:	e51b0018 	ldr	r0, [fp, #-24]	; 0xffffffe8
  1044f0:	e0000390 	mul	r0, r0, r3
  1044f4:	e51b3008 	ldr	r3, [fp, #-8]
  1044f8:	e0800003 	add	r0, r0, r3
  1044fc:	e30c3034 	movw	r3, #49204	; 0xc034
  104500:	e3403010 	movt	r3, #16
  104504:	e28000f0 	add	r0, r0, #240	; 0xf0
  104508:	e7933100 	ldr	r3, [r3, r0, lsl #2]
  10450c:	e0213003 	eor	r3, r1, r3
  104510:	e5823000 	str	r3, [r2]
  104514:	e51b3008 	ldr	r3, [fp, #-8]
  104518:	e1a03203 	lsl	r3, r3, #4
  10451c:	e283300c 	add	r3, r3, #12
  104520:	e51b2010 	ldr	r2, [fp, #-16]
  104524:	e0822003 	add	r2, r2, r3
  104528:	e51b3008 	ldr	r3, [fp, #-8]
  10452c:	e1a03203 	lsl	r3, r3, #4
  104530:	e283300c 	add	r3, r3, #12
  104534:	e51b1010 	ldr	r1, [fp, #-16]
  104538:	e0813003 	add	r3, r1, r3
  10453c:	e5931000 	ldr	r1, [r3]
  104540:	e51b300c 	ldr	r3, [fp, #-12]
  104544:	e51b0018 	ldr	r0, [fp, #-24]	; 0xffffffe8
  104548:	e0000390 	mul	r0, r0, r3
  10454c:	e51b3008 	ldr	r3, [fp, #-8]
  104550:	e0800003 	add	r0, r0, r3
  104554:	e30c3034 	movw	r3, #49204	; 0xc034
  104558:	e3403010 	movt	r3, #16
  10455c:	e2800f5a 	add	r0, r0, #360	; 0x168
  104560:	e7933100 	ldr	r3, [r3, r0, lsl #2]
  104564:	e0213003 	eor	r3, r1, r3
  104568:	e5823000 	str	r3, [r2]
  10456c:	e51b3008 	ldr	r3, [fp, #-8]
  104570:	e2833001 	add	r3, r3, #1
  104574:	e50b3008 	str	r3, [fp, #-8]
  104578:	e51b2008 	ldr	r2, [fp, #-8]
  10457c:	e51b300c 	ldr	r3, [fp, #-12]
  104580:	e1520003 	cmp	r2, r3
  104584:	baffffa3 	blt	104418 <AddRoundKey+0x11c>
  104588:	e3a03000 	mov	r3, #0
  10458c:	e1a00003 	mov	r0, r3
  104590:	e24bd000 	sub	sp, fp, #0
  104594:	e49db004 	pop	{fp}		; (ldr fp, [sp], #4)
  104598:	e12fff1e 	bx	lr

0010459c <KeySchedule>:
  10459c:	e92d4810 	push	{r4, fp, lr}
  1045a0:	e28db008 	add	fp, sp, #8
  1045a4:	e24dd034 	sub	sp, sp, #52	; 0x34
  1045a8:	e50b0038 	str	r0, [fp, #-56]	; 0xffffffc8
  1045ac:	e50b103c 	str	r1, [fp, #-60]	; 0xffffffc4
  1045b0:	e51b3038 	ldr	r3, [fp, #-56]	; 0xffffffc8
  1045b4:	e30e2ec0 	movw	r2, #61120	; 0xeec0
  1045b8:	e3402002 	movt	r2, #2
  1045bc:	e1530002 	cmp	r3, r2
  1045c0:	0a00004b 	beq	1046f4 <KeySchedule+0x158>
  1045c4:	e30e2ec0 	movw	r2, #61120	; 0xeec0
  1045c8:	e3402002 	movt	r2, #2
  1045cc:	e1530002 	cmp	r3, r2
  1045d0:	ca000015 	bgt	10462c <KeySchedule+0x90>
  1045d4:	e30f24c0 	movw	r2, #62656	; 0xf4c0
  1045d8:	e3402001 	movt	r2, #1
  1045dc:	e1530002 	cmp	r3, r2
  1045e0:	0a00002e 	beq	1046a0 <KeySchedule+0x104>
  1045e4:	e30f24c0 	movw	r2, #62656	; 0xf4c0
  1045e8:	e3402001 	movt	r2, #1
  1045ec:	e1530002 	cmp	r3, r2
  1045f0:	ca000004 	bgt	104608 <KeySchedule+0x6c>
  1045f4:	e30f2480 	movw	r2, #62592	; 0xf480
  1045f8:	e3402001 	movt	r2, #1
  1045fc:	e1530002 	cmp	r3, r2
  104600:	0a00001f 	beq	104684 <KeySchedule+0xe8>
  104604:	ea00005d 	b	104780 <KeySchedule+0x1e4>
  104608:	e3a02cf5 	mov	r2, #62720	; 0xf500
  10460c:	e3402001 	movt	r2, #1
  104610:	e1530002 	cmp	r3, r2
  104614:	0a000028 	beq	1046bc <KeySchedule+0x120>
  104618:	e30e2e80 	movw	r2, #61056	; 0xee80
  10461c:	e3402002 	movt	r2, #2
  104620:	e1530002 	cmp	r3, r2
  104624:	0a00002b 	beq	1046d8 <KeySchedule+0x13c>
  104628:	ea000054 	b	104780 <KeySchedule+0x1e4>
  10462c:	e30e2880 	movw	r2, #59520	; 0xe880
  104630:	e3402003 	movt	r2, #3
  104634:	e1530002 	cmp	r3, r2
  104638:	0a00003b 	beq	10472c <KeySchedule+0x190>
  10463c:	e30e2880 	movw	r2, #59520	; 0xe880
  104640:	e3402003 	movt	r2, #3
  104644:	e1530002 	cmp	r3, r2
  104648:	ca000004 	bgt	104660 <KeySchedule+0xc4>
  10464c:	e3a02cef 	mov	r2, #61184	; 0xef00
  104650:	e3402002 	movt	r2, #2
  104654:	e1530002 	cmp	r3, r2
  104658:	0a00002c 	beq	104710 <KeySchedule+0x174>
  10465c:	ea000047 	b	104780 <KeySchedule+0x1e4>
  104660:	e30e28c0 	movw	r2, #59584	; 0xe8c0
  104664:	e3402003 	movt	r2, #3
  104668:	e1530002 	cmp	r3, r2
  10466c:	0a000035 	beq	104748 <KeySchedule+0x1ac>
  104670:	e3a02ce9 	mov	r2, #59648	; 0xe900
  104674:	e3402003 	movt	r2, #3
  104678:	e1530002 	cmp	r3, r2
  10467c:	0a000038 	beq	104764 <KeySchedule+0x1c8>
  104680:	ea00003e 	b	104780 <KeySchedule+0x1e4>
  104684:	e3a03004 	mov	r3, #4
  104688:	e50b3010 	str	r3, [fp, #-16]
  10468c:	e3a03004 	mov	r3, #4
  104690:	e50b3014 	str	r3, [fp, #-20]	; 0xffffffec
  104694:	e3a0300a 	mov	r3, #10
  104698:	e50b3018 	str	r3, [fp, #-24]	; 0xffffffe8
  10469c:	ea000039 	b	104788 <KeySchedule+0x1ec>
  1046a0:	e3a03004 	mov	r3, #4
  1046a4:	e50b3010 	str	r3, [fp, #-16]
  1046a8:	e3a03006 	mov	r3, #6
  1046ac:	e50b3014 	str	r3, [fp, #-20]	; 0xffffffec
  1046b0:	e3a0300c 	mov	r3, #12
  1046b4:	e50b3018 	str	r3, [fp, #-24]	; 0xffffffe8
  1046b8:	ea000032 	b	104788 <KeySchedule+0x1ec>
  1046bc:	e3a03004 	mov	r3, #4
  1046c0:	e50b3010 	str	r3, [fp, #-16]
  1046c4:	e3a03008 	mov	r3, #8
  1046c8:	e50b3014 	str	r3, [fp, #-20]	; 0xffffffec
  1046cc:	e3a0300e 	mov	r3, #14
  1046d0:	e50b3018 	str	r3, [fp, #-24]	; 0xffffffe8
  1046d4:	ea00002b 	b	104788 <KeySchedule+0x1ec>
  1046d8:	e3a03006 	mov	r3, #6
  1046dc:	e50b3010 	str	r3, [fp, #-16]
  1046e0:	e3a03004 	mov	r3, #4
  1046e4:	e50b3014 	str	r3, [fp, #-20]	; 0xffffffec
  1046e8:	e3a0300c 	mov	r3, #12
  1046ec:	e50b3018 	str	r3, [fp, #-24]	; 0xffffffe8
  1046f0:	ea000024 	b	104788 <KeySchedule+0x1ec>
  1046f4:	e3a03006 	mov	r3, #6
  1046f8:	e50b3010 	str	r3, [fp, #-16]
  1046fc:	e3a03006 	mov	r3, #6
  104700:	e50b3014 	str	r3, [fp, #-20]	; 0xffffffec
  104704:	e3a0300c 	mov	r3, #12
  104708:	e50b3018 	str	r3, [fp, #-24]	; 0xffffffe8
  10470c:	ea00001d 	b	104788 <KeySchedule+0x1ec>
  104710:	e3a03006 	mov	r3, #6
  104714:	e50b3010 	str	r3, [fp, #-16]
  104718:	e3a03008 	mov	r3, #8
  10471c:	e50b3014 	str	r3, [fp, #-20]	; 0xffffffec
  104720:	e3a0300e 	mov	r3, #14
  104724:	e50b3018 	str	r3, [fp, #-24]	; 0xffffffe8
  104728:	ea000016 	b	104788 <KeySchedule+0x1ec>
  10472c:	e3a03008 	mov	r3, #8
  104730:	e50b3010 	str	r3, [fp, #-16]
  104734:	e3a03004 	mov	r3, #4
  104738:	e50b3014 	str	r3, [fp, #-20]	; 0xffffffec
  10473c:	e3a0300e 	mov	r3, #14
  104740:	e50b3018 	str	r3, [fp, #-24]	; 0xffffffe8
  104744:	ea00000f 	b	104788 <KeySchedule+0x1ec>
  104748:	e3a03008 	mov	r3, #8
  10474c:	e50b3010 	str	r3, [fp, #-16]
  104750:	e3a03006 	mov	r3, #6
  104754:	e50b3014 	str	r3, [fp, #-20]	; 0xffffffec
  104758:	e3a0300e 	mov	r3, #14
  10475c:	e50b3018 	str	r3, [fp, #-24]	; 0xffffffe8
  104760:	ea000008 	b	104788 <KeySchedule+0x1ec>
  104764:	e3a03008 	mov	r3, #8
  104768:	e50b3010 	str	r3, [fp, #-16]
  10476c:	e3a03008 	mov	r3, #8
  104770:	e50b3014 	str	r3, [fp, #-20]	; 0xffffffec
  104774:	e3a0300e 	mov	r3, #14
  104778:	e50b3018 	str	r3, [fp, #-24]	; 0xffffffe8
  10477c:	ea000001 	b	104788 <KeySchedule+0x1ec>
  104780:	e3e03000 	mvn	r3, #0
  104784:	ea0000d6 	b	104ae4 <KeySchedule+0x548>
  104788:	e3a03000 	mov	r3, #0
  10478c:	e50b3020 	str	r3, [fp, #-32]	; 0xffffffe0
  104790:	ea00001d 	b	10480c <KeySchedule+0x270>
  104794:	e3a03000 	mov	r3, #0
  104798:	e50b301c 	str	r3, [fp, #-28]	; 0xffffffe4
  10479c:	ea000014 	b	1047f4 <KeySchedule+0x258>
  1047a0:	e51b3020 	ldr	r3, [fp, #-32]	; 0xffffffe0
  1047a4:	e1a02103 	lsl	r2, r3, #2
  1047a8:	e51b301c 	ldr	r3, [fp, #-28]	; 0xffffffe4
  1047ac:	e0823003 	add	r3, r2, r3
  1047b0:	e1a03103 	lsl	r3, r3, #2
  1047b4:	e51b203c 	ldr	r2, [fp, #-60]	; 0xffffffc4
  1047b8:	e0823003 	add	r3, r2, r3
  1047bc:	e5930000 	ldr	r0, [r3]
  1047c0:	e30c2034 	movw	r2, #49204	; 0xc034
  1047c4:	e3402010 	movt	r2, #16
  1047c8:	e51b101c 	ldr	r1, [fp, #-28]	; 0xffffffe4
  1047cc:	e1a03001 	mov	r3, r1
  1047d0:	e1a03203 	lsl	r3, r3, #4
  1047d4:	e0613003 	rsb	r3, r1, r3
  1047d8:	e1a03183 	lsl	r3, r3, #3
  1047dc:	e51b1020 	ldr	r1, [fp, #-32]	; 0xffffffe0
  1047e0:	e0833001 	add	r3, r3, r1
  1047e4:	e7820103 	str	r0, [r2, r3, lsl #2]
  1047e8:	e51b301c 	ldr	r3, [fp, #-28]	; 0xffffffe4
  1047ec:	e2833001 	add	r3, r3, #1
  1047f0:	e50b301c 	str	r3, [fp, #-28]	; 0xffffffe4
  1047f4:	e51b301c 	ldr	r3, [fp, #-28]	; 0xffffffe4
  1047f8:	e3530003 	cmp	r3, #3
  1047fc:	daffffe7 	ble	1047a0 <KeySchedule+0x204>
  104800:	e51b3020 	ldr	r3, [fp, #-32]	; 0xffffffe0
  104804:	e2833001 	add	r3, r3, #1
  104808:	e50b3020 	str	r3, [fp, #-32]	; 0xffffffe0
  10480c:	e51b2020 	ldr	r2, [fp, #-32]	; 0xffffffe0
  104810:	e51b3010 	ldr	r3, [fp, #-16]
  104814:	e1520003 	cmp	r2, r3
  104818:	baffffdd 	blt	104794 <KeySchedule+0x1f8>
  10481c:	e51b3010 	ldr	r3, [fp, #-16]
  104820:	e50b3020 	str	r3, [fp, #-32]	; 0xffffffe0
  104824:	ea0000a6 	b	104ac4 <KeySchedule+0x528>
  104828:	e51b3020 	ldr	r3, [fp, #-32]	; 0xffffffe0
  10482c:	e1a00003 	mov	r0, r3
  104830:	e51b1010 	ldr	r1, [fp, #-16]
  104834:	eb00054a 	bl	105d64 <__aeabi_idivmod>
  104838:	e1a03001 	mov	r3, r1
  10483c:	e3530000 	cmp	r3, #0
  104840:	1a00002f 	bne	104904 <KeySchedule+0x368>
  104844:	e51b3020 	ldr	r3, [fp, #-32]	; 0xffffffe0
  104848:	e2432001 	sub	r2, r3, #1
  10484c:	e30c3034 	movw	r3, #49204	; 0xc034
  104850:	e3403010 	movt	r3, #16
  104854:	e2822078 	add	r2, r2, #120	; 0x78
  104858:	e7933102 	ldr	r3, [r3, r2, lsl #2]
  10485c:	e1a00003 	mov	r0, r3
  104860:	ebfff56b 	bl	101e14 <SubByte>
  104864:	e1a04000 	mov	r4, r0
  104868:	e51b0020 	ldr	r0, [fp, #-32]	; 0xffffffe0
  10486c:	e51b1010 	ldr	r1, [fp, #-16]
  104870:	eb0004b3 	bl	105b44 <__aeabi_idiv>
  104874:	e1a03000 	mov	r3, r0
  104878:	e2432001 	sub	r2, r3, #1
  10487c:	e3063934 	movw	r3, #26932	; 0x6934
  104880:	e3403010 	movt	r3, #16
  104884:	e7933102 	ldr	r3, [r3, r2, lsl #2]
  104888:	e0243003 	eor	r3, r4, r3
  10488c:	e50b3030 	str	r3, [fp, #-48]	; 0xffffffd0
  104890:	e51b3020 	ldr	r3, [fp, #-32]	; 0xffffffe0
  104894:	e2432001 	sub	r2, r3, #1
  104898:	e30c3034 	movw	r3, #49204	; 0xc034
  10489c:	e3403010 	movt	r3, #16
  1048a0:	e28220f0 	add	r2, r2, #240	; 0xf0
  1048a4:	e7933102 	ldr	r3, [r3, r2, lsl #2]
  1048a8:	e1a00003 	mov	r0, r3
  1048ac:	ebfff558 	bl	101e14 <SubByte>
  1048b0:	e1a03000 	mov	r3, r0
  1048b4:	e50b302c 	str	r3, [fp, #-44]	; 0xffffffd4
  1048b8:	e51b3020 	ldr	r3, [fp, #-32]	; 0xffffffe0
  1048bc:	e2432001 	sub	r2, r3, #1
  1048c0:	e30c3034 	movw	r3, #49204	; 0xc034
  1048c4:	e3403010 	movt	r3, #16
  1048c8:	e2822f5a 	add	r2, r2, #360	; 0x168
  1048cc:	e7933102 	ldr	r3, [r3, r2, lsl #2]
  1048d0:	e1a00003 	mov	r0, r3
  1048d4:	ebfff54e 	bl	101e14 <SubByte>
  1048d8:	e1a03000 	mov	r3, r0
  1048dc:	e50b3028 	str	r3, [fp, #-40]	; 0xffffffd8
  1048e0:	e51b3020 	ldr	r3, [fp, #-32]	; 0xffffffe0
  1048e4:	e2432001 	sub	r2, r3, #1
  1048e8:	e30c3034 	movw	r3, #49204	; 0xc034
  1048ec:	e3403010 	movt	r3, #16
  1048f0:	e7933102 	ldr	r3, [r3, r2, lsl #2]
  1048f4:	e1a00003 	mov	r0, r3
  1048f8:	ebfff545 	bl	101e14 <SubByte>
  1048fc:	e1a03000 	mov	r3, r0
  104900:	e50b3024 	str	r3, [fp, #-36]	; 0xffffffdc
  104904:	e51b3020 	ldr	r3, [fp, #-32]	; 0xffffffe0
  104908:	e1a00003 	mov	r0, r3
  10490c:	e51b1010 	ldr	r1, [fp, #-16]
  104910:	eb000513 	bl	105d64 <__aeabi_idivmod>
  104914:	e1a03001 	mov	r3, r1
  104918:	e3530000 	cmp	r3, #0
  10491c:	0a00001a 	beq	10498c <KeySchedule+0x3f0>
  104920:	e51b3020 	ldr	r3, [fp, #-32]	; 0xffffffe0
  104924:	e2432001 	sub	r2, r3, #1
  104928:	e30c3034 	movw	r3, #49204	; 0xc034
  10492c:	e3403010 	movt	r3, #16
  104930:	e7933102 	ldr	r3, [r3, r2, lsl #2]
  104934:	e50b3030 	str	r3, [fp, #-48]	; 0xffffffd0
  104938:	e51b3020 	ldr	r3, [fp, #-32]	; 0xffffffe0
  10493c:	e2432001 	sub	r2, r3, #1
  104940:	e30c3034 	movw	r3, #49204	; 0xc034
  104944:	e3403010 	movt	r3, #16
  104948:	e2822078 	add	r2, r2, #120	; 0x78
  10494c:	e7933102 	ldr	r3, [r3, r2, lsl #2]
  104950:	e50b302c 	str	r3, [fp, #-44]	; 0xffffffd4
  104954:	e51b3020 	ldr	r3, [fp, #-32]	; 0xffffffe0
  104958:	e2432001 	sub	r2, r3, #1
  10495c:	e30c3034 	movw	r3, #49204	; 0xc034
  104960:	e3403010 	movt	r3, #16
  104964:	e28220f0 	add	r2, r2, #240	; 0xf0
  104968:	e7933102 	ldr	r3, [r3, r2, lsl #2]
  10496c:	e50b3028 	str	r3, [fp, #-40]	; 0xffffffd8
  104970:	e51b3020 	ldr	r3, [fp, #-32]	; 0xffffffe0
  104974:	e2432001 	sub	r2, r3, #1
  104978:	e30c3034 	movw	r3, #49204	; 0xc034
  10497c:	e3403010 	movt	r3, #16
  104980:	e2822f5a 	add	r2, r2, #360	; 0x168
  104984:	e7933102 	ldr	r3, [r3, r2, lsl #2]
  104988:	e50b3024 	str	r3, [fp, #-36]	; 0xffffffdc
  10498c:	e51b3010 	ldr	r3, [fp, #-16]
  104990:	e3530006 	cmp	r3, #6
  104994:	da000020 	ble	104a1c <KeySchedule+0x480>
  104998:	e51b3020 	ldr	r3, [fp, #-32]	; 0xffffffe0
  10499c:	e1a00003 	mov	r0, r3
  1049a0:	e51b1010 	ldr	r1, [fp, #-16]
  1049a4:	eb0004ee 	bl	105d64 <__aeabi_idivmod>
  1049a8:	e1a03001 	mov	r3, r1
  1049ac:	e3530004 	cmp	r3, #4
  1049b0:	1a000019 	bne	104a1c <KeySchedule+0x480>
  1049b4:	e3a03000 	mov	r3, #0
  1049b8:	e50b301c 	str	r3, [fp, #-28]	; 0xffffffe4
  1049bc:	ea000013 	b	104a10 <KeySchedule+0x474>
  1049c0:	e51b201c 	ldr	r2, [fp, #-28]	; 0xffffffe4
  1049c4:	e3e03023 	mvn	r3, #35	; 0x23
  1049c8:	e1a02102 	lsl	r2, r2, #2
  1049cc:	e24b000c 	sub	r0, fp, #12
  1049d0:	e0802002 	add	r2, r0, r2
  1049d4:	e0823003 	add	r3, r2, r3
  1049d8:	e5933000 	ldr	r3, [r3]
  1049dc:	e1a00003 	mov	r0, r3
  1049e0:	ebfff50b 	bl	101e14 <SubByte>
  1049e4:	e1a02000 	mov	r2, r0
  1049e8:	e51b101c 	ldr	r1, [fp, #-28]	; 0xffffffe4
  1049ec:	e3e03023 	mvn	r3, #35	; 0x23
  1049f0:	e1a01101 	lsl	r1, r1, #2
  1049f4:	e24b000c 	sub	r0, fp, #12
  1049f8:	e0801001 	add	r1, r0, r1
  1049fc:	e0813003 	add	r3, r1, r3
  104a00:	e5832000 	str	r2, [r3]
  104a04:	e51b301c 	ldr	r3, [fp, #-28]	; 0xffffffe4
  104a08:	e2833001 	add	r3, r3, #1
  104a0c:	e50b301c 	str	r3, [fp, #-28]	; 0xffffffe4
  104a10:	e51b301c 	ldr	r3, [fp, #-28]	; 0xffffffe4
  104a14:	e3530003 	cmp	r3, #3
  104a18:	daffffe8 	ble	1049c0 <KeySchedule+0x424>
  104a1c:	e3a03000 	mov	r3, #0
  104a20:	e50b301c 	str	r3, [fp, #-28]	; 0xffffffe4
  104a24:	ea000020 	b	104aac <KeySchedule+0x510>
  104a28:	e51b2020 	ldr	r2, [fp, #-32]	; 0xffffffe0
  104a2c:	e51b3010 	ldr	r3, [fp, #-16]
  104a30:	e0630002 	rsb	r0, r3, r2
  104a34:	e30c2034 	movw	r2, #49204	; 0xc034
  104a38:	e3402010 	movt	r2, #16
  104a3c:	e51b101c 	ldr	r1, [fp, #-28]	; 0xffffffe4
  104a40:	e1a03001 	mov	r3, r1
  104a44:	e1a03203 	lsl	r3, r3, #4
  104a48:	e0613003 	rsb	r3, r1, r3
  104a4c:	e1a03183 	lsl	r3, r3, #3
  104a50:	e0833000 	add	r3, r3, r0
  104a54:	e7922103 	ldr	r2, [r2, r3, lsl #2]
  104a58:	e51b101c 	ldr	r1, [fp, #-28]	; 0xffffffe4
  104a5c:	e3e03023 	mvn	r3, #35	; 0x23
  104a60:	e1a01101 	lsl	r1, r1, #2
  104a64:	e24b000c 	sub	r0, fp, #12
  104a68:	e0801001 	add	r1, r0, r1
  104a6c:	e0813003 	add	r3, r1, r3
  104a70:	e5933000 	ldr	r3, [r3]
  104a74:	e0220003 	eor	r0, r2, r3
  104a78:	e30c2034 	movw	r2, #49204	; 0xc034
  104a7c:	e3402010 	movt	r2, #16
  104a80:	e51b101c 	ldr	r1, [fp, #-28]	; 0xffffffe4
  104a84:	e1a03001 	mov	r3, r1
  104a88:	e1a03203 	lsl	r3, r3, #4
  104a8c:	e0613003 	rsb	r3, r1, r3
  104a90:	e1a03183 	lsl	r3, r3, #3
  104a94:	e51b1020 	ldr	r1, [fp, #-32]	; 0xffffffe0
  104a98:	e0833001 	add	r3, r3, r1
  104a9c:	e7820103 	str	r0, [r2, r3, lsl #2]
  104aa0:	e51b301c 	ldr	r3, [fp, #-28]	; 0xffffffe4
  104aa4:	e2833001 	add	r3, r3, #1
  104aa8:	e50b301c 	str	r3, [fp, #-28]	; 0xffffffe4
  104aac:	e51b301c 	ldr	r3, [fp, #-28]	; 0xffffffe4
  104ab0:	e3530003 	cmp	r3, #3
  104ab4:	daffffdb 	ble	104a28 <KeySchedule+0x48c>
  104ab8:	e51b3020 	ldr	r3, [fp, #-32]	; 0xffffffe0
  104abc:	e2833001 	add	r3, r3, #1
  104ac0:	e50b3020 	str	r3, [fp, #-32]	; 0xffffffe0
  104ac4:	e51b3018 	ldr	r3, [fp, #-24]	; 0xffffffe8
  104ac8:	e2833001 	add	r3, r3, #1
  104acc:	e51b2014 	ldr	r2, [fp, #-20]	; 0xffffffec
  104ad0:	e0020392 	mul	r2, r2, r3
  104ad4:	e51b3020 	ldr	r3, [fp, #-32]	; 0xffffffe0
  104ad8:	e1520003 	cmp	r2, r3
  104adc:	caffff51 	bgt	104828 <KeySchedule+0x28c>
  104ae0:	e3a03000 	mov	r3, #0
  104ae4:	e1a00003 	mov	r0, r3
  104ae8:	e24bd008 	sub	sp, fp, #8
  104aec:	e8bd8810 	pop	{r4, fp, pc}

00104af0 <main>:
  104af0:	e92d4800 	push	{fp, lr}
  104af4:	e28db004 	add	fp, sp, #4
  104af8:	e24ddd06 	sub	sp, sp, #384	; 0x180
  104afc:	e3a03032 	mov	r3, #50	; 0x32
  104b00:	e50b3084 	str	r3, [fp, #-132]	; 0xffffff7c
  104b04:	e3a03043 	mov	r3, #67	; 0x43
  104b08:	e50b3080 	str	r3, [fp, #-128]	; 0xffffff80
  104b0c:	e3a030f6 	mov	r3, #246	; 0xf6
  104b10:	e50b307c 	str	r3, [fp, #-124]	; 0xffffff84
  104b14:	e3a030a8 	mov	r3, #168	; 0xa8
  104b18:	e50b3078 	str	r3, [fp, #-120]	; 0xffffff88
  104b1c:	e3a03088 	mov	r3, #136	; 0x88
  104b20:	e50b3074 	str	r3, [fp, #-116]	; 0xffffff8c
  104b24:	e3a0305a 	mov	r3, #90	; 0x5a
  104b28:	e50b3070 	str	r3, [fp, #-112]	; 0xffffff90
  104b2c:	e3a03030 	mov	r3, #48	; 0x30
  104b30:	e50b306c 	str	r3, [fp, #-108]	; 0xffffff94
  104b34:	e3a0308d 	mov	r3, #141	; 0x8d
  104b38:	e50b3068 	str	r3, [fp, #-104]	; 0xffffff98
  104b3c:	e3a03031 	mov	r3, #49	; 0x31
  104b40:	e50b3064 	str	r3, [fp, #-100]	; 0xffffff9c
  104b44:	e3a03031 	mov	r3, #49	; 0x31
  104b48:	e50b3060 	str	r3, [fp, #-96]	; 0xffffffa0
  104b4c:	e3a03098 	mov	r3, #152	; 0x98
  104b50:	e50b305c 	str	r3, [fp, #-92]	; 0xffffffa4
  104b54:	e3a030a2 	mov	r3, #162	; 0xa2
  104b58:	e50b3058 	str	r3, [fp, #-88]	; 0xffffffa8
  104b5c:	e3a030e0 	mov	r3, #224	; 0xe0
  104b60:	e50b3054 	str	r3, [fp, #-84]	; 0xffffffac
  104b64:	e3a03037 	mov	r3, #55	; 0x37
  104b68:	e50b3050 	str	r3, [fp, #-80]	; 0xffffffb0
  104b6c:	e3a03007 	mov	r3, #7
  104b70:	e50b304c 	str	r3, [fp, #-76]	; 0xffffffb4
  104b74:	e3a03034 	mov	r3, #52	; 0x34
  104b78:	e50b3048 	str	r3, [fp, #-72]	; 0xffffffb8
  104b7c:	e3a0302b 	mov	r3, #43	; 0x2b
  104b80:	e50b3104 	str	r3, [fp, #-260]	; 0xfffffefc
  104b84:	e3a0307e 	mov	r3, #126	; 0x7e
  104b88:	e50b3100 	str	r3, [fp, #-256]	; 0xffffff00
  104b8c:	e3a03015 	mov	r3, #21
  104b90:	e50b30fc 	str	r3, [fp, #-252]	; 0xffffff04
  104b94:	e3a03016 	mov	r3, #22
  104b98:	e50b30f8 	str	r3, [fp, #-248]	; 0xffffff08
  104b9c:	e3a03028 	mov	r3, #40	; 0x28
  104ba0:	e50b30f4 	str	r3, [fp, #-244]	; 0xffffff0c
  104ba4:	e3a030ae 	mov	r3, #174	; 0xae
  104ba8:	e50b30f0 	str	r3, [fp, #-240]	; 0xffffff10
  104bac:	e3a030d2 	mov	r3, #210	; 0xd2
  104bb0:	e50b30ec 	str	r3, [fp, #-236]	; 0xffffff14
  104bb4:	e3a030a6 	mov	r3, #166	; 0xa6
  104bb8:	e50b30e8 	str	r3, [fp, #-232]	; 0xffffff18
  104bbc:	e3a030ab 	mov	r3, #171	; 0xab
  104bc0:	e50b30e4 	str	r3, [fp, #-228]	; 0xffffff1c
  104bc4:	e3a030f7 	mov	r3, #247	; 0xf7
  104bc8:	e50b30e0 	str	r3, [fp, #-224]	; 0xffffff20
  104bcc:	e3a03015 	mov	r3, #21
  104bd0:	e50b30dc 	str	r3, [fp, #-220]	; 0xffffff24
  104bd4:	e3a03088 	mov	r3, #136	; 0x88
  104bd8:	e50b30d8 	str	r3, [fp, #-216]	; 0xffffff28
  104bdc:	e3a03009 	mov	r3, #9
  104be0:	e50b30d4 	str	r3, [fp, #-212]	; 0xffffff2c
  104be4:	e3a030cf 	mov	r3, #207	; 0xcf
  104be8:	e50b30d0 	str	r3, [fp, #-208]	; 0xffffff30
  104bec:	e3a0304f 	mov	r3, #79	; 0x4f
  104bf0:	e50b30cc 	str	r3, [fp, #-204]	; 0xffffff34
  104bf4:	e3a0303c 	mov	r3, #60	; 0x3c
  104bf8:	e50b30c8 	str	r3, [fp, #-200]	; 0xffffff38
  104bfc:	e24b1f61 	sub	r1, fp, #388	; 0x184
  104c00:	e24b2084 	sub	r2, fp, #132	; 0x84
  104c04:	e24b3f41 	sub	r3, fp, #260	; 0x104
  104c08:	e1a00001 	mov	r0, r1
  104c0c:	e1a01002 	mov	r1, r2
  104c10:	e1a02003 	mov	r2, r3
  104c14:	ebffee4f 	bl	100558 <aes_main>
  104c18:	eb000017 	bl	104c7c <cleanup_platform>
  104c1c:	e3a03000 	mov	r3, #0
  104c20:	e1a00003 	mov	r0, r3
  104c24:	e24bd004 	sub	sp, fp, #4
  104c28:	e8bd8800 	pop	{fp, pc}

00104c2c <enable_caches>:
  104c2c:	e52db004 	push	{fp}		; (str fp, [sp, #-4]!)
  104c30:	e28db000 	add	fp, sp, #0
  104c34:	e24bd000 	sub	sp, fp, #0
  104c38:	e49db004 	pop	{fp}		; (ldr fp, [sp], #4)
  104c3c:	e12fff1e 	bx	lr

00104c40 <disable_caches>:
  104c40:	e92d4800 	push	{fp, lr}
  104c44:	e28db004 	add	fp, sp, #4
  104c48:	eb00021b 	bl	1054bc <Xil_DCacheDisable>
  104c4c:	eb000221 	bl	1054d8 <Xil_ICacheDisable>
  104c50:	e8bd8800 	pop	{fp, pc}

00104c54 <init_uart>:
  104c54:	e52db004 	push	{fp}		; (str fp, [sp, #-4]!)
  104c58:	e28db000 	add	fp, sp, #0
  104c5c:	e24bd000 	sub	sp, fp, #0
  104c60:	e49db004 	pop	{fp}		; (ldr fp, [sp], #4)
  104c64:	e12fff1e 	bx	lr

00104c68 <init_platform>:
  104c68:	e92d4800 	push	{fp, lr}
  104c6c:	e28db004 	add	fp, sp, #4
  104c70:	ebffffed 	bl	104c2c <enable_caches>
  104c74:	ebfffff6 	bl	104c54 <init_uart>
  104c78:	e8bd8800 	pop	{fp, pc}

00104c7c <cleanup_platform>:
  104c7c:	e92d4800 	push	{fp, lr}
  104c80:	e28db004 	add	fp, sp, #4
  104c84:	ebffffed 	bl	104c40 <disable_caches>
  104c88:	e8bd8800 	pop	{fp, pc}

00104c8c <FIQInterrupt>:
  104c8c:	e92d4008 	push	{r3, lr}
  104c90:	e30639bc 	movw	r3, #27068	; 0x69bc
  104c94:	e3403010 	movt	r3, #16
  104c98:	e5932030 	ldr	r2, [r3, #48]	; 0x30
  104c9c:	e5930034 	ldr	r0, [r3, #52]	; 0x34
  104ca0:	e12fff32 	blx	r2
  104ca4:	e8bd8008 	pop	{r3, pc}

00104ca8 <IRQInterrupt>:
  104ca8:	e92d4008 	push	{r3, lr}
  104cac:	e30639bc 	movw	r3, #27068	; 0x69bc
  104cb0:	e3403010 	movt	r3, #16
  104cb4:	e5932028 	ldr	r2, [r3, #40]	; 0x28
  104cb8:	e593002c 	ldr	r0, [r3, #44]	; 0x2c
  104cbc:	e12fff32 	blx	r2
  104cc0:	e8bd8008 	pop	{r3, pc}

00104cc4 <SWInterrupt>:
  104cc4:	e92d4008 	push	{r3, lr}
  104cc8:	e30639bc 	movw	r3, #27068	; 0x69bc
  104ccc:	e3403010 	movt	r3, #16
  104cd0:	e5932010 	ldr	r2, [r3, #16]
  104cd4:	e5930014 	ldr	r0, [r3, #20]
  104cd8:	e12fff32 	blx	r2
  104cdc:	e8bd8008 	pop	{r3, pc}

00104ce0 <DataAbortInterrupt>:
  104ce0:	e92d4008 	push	{r3, lr}
  104ce4:	e30639bc 	movw	r3, #27068	; 0x69bc
  104ce8:	e3403010 	movt	r3, #16
  104cec:	e5932020 	ldr	r2, [r3, #32]
  104cf0:	e5930024 	ldr	r0, [r3, #36]	; 0x24
  104cf4:	e12fff32 	blx	r2
  104cf8:	e8bd8008 	pop	{r3, pc}

00104cfc <PrefetchAbortInterrupt>:
  104cfc:	e92d4008 	push	{r3, lr}
  104d00:	e30639bc 	movw	r3, #27068	; 0x69bc
  104d04:	e3403010 	movt	r3, #16
  104d08:	e5932018 	ldr	r2, [r3, #24]
  104d0c:	e593001c 	ldr	r0, [r3, #28]
  104d10:	e12fff32 	blx	r2
  104d14:	e8bd8008 	pop	{r3, pc}
  104d18:	0010c00c 	andseq	ip, r0, ip
  104d1c:	0010c00c 	andseq	ip, r0, ip
  104d20:	0010c00c 	andseq	ip, r0, ip
  104d24:	0010c7b4 			; <UNDEFINED> instruction: 0x0010c7b4
  104d28:	001107c0 	andseq	r0, r1, r0, asr #15

00104d2c <_start>:
  104d2c:	eb0002f1 	bl	1058f8 <__cpu_init>
  104d30:	e3a00000 	mov	r0, #0
  104d34:	e51f1024 	ldr	r1, [pc, #-36]	; 104d18 <PrefetchAbortInterrupt+0x1c>
  104d38:	e51f2024 	ldr	r2, [pc, #-36]	; 104d1c <PrefetchAbortInterrupt+0x20>
  104d3c:	e1510002 	cmp	r1, r2
  104d40:	aa000001 	bge	104d4c <_start+0x20>
  104d44:	e4810004 	str	r0, [r1], #4
  104d48:	eafffffb 	b	104d3c <_start+0x10>
  104d4c:	e51f1034 	ldr	r1, [pc, #-52]	; 104d20 <PrefetchAbortInterrupt+0x24>
  104d50:	e51f2034 	ldr	r2, [pc, #-52]	; 104d24 <PrefetchAbortInterrupt+0x28>
  104d54:	e1510002 	cmp	r1, r2
  104d58:	aa000001 	bge	104d64 <_start+0x38>
  104d5c:	e4810004 	str	r0, [r1], #4
  104d60:	eafffffb 	b	104d54 <_start+0x28>
  104d64:	e51fd044 	ldr	sp, [pc, #-68]	; 104d28 <PrefetchAbortInterrupt+0x2c>
  104d68:	e3a00000 	mov	r0, #0
  104d6c:	e3a01000 	mov	r1, #0
  104d70:	eb0002b8 	bl	105858 <XTime_SetTime>
  104d74:	eb000420 	bl	105dfc <__libc_init_array>
  104d78:	e3a00000 	mov	r0, #0
  104d7c:	e3a01000 	mov	r1, #0
  104d80:	ebffff5a 	bl	104af0 <main>
  104d84:	eb00040c 	bl	105dbc <__libc_fini_array>
  104d88:	eb0003fe 	bl	105d88 <exit>
  104d8c:	eafffffe 	b	104d8c <_start+0x60>

00104d90 <Xil_DCacheInvalidateLine>:
  104d90:	e92d4038 	push	{r3, r4, r5, lr}
  104d94:	e1a05000 	mov	r5, r0
  104d98:	e10f4000 	mrs	r4, CPSR
  104d9c:	e38430c0 	orr	r3, r4, #192	; 0xc0
  104da0:	e129f003 	msr	CPSR_fc, r3
  104da4:	e3020770 	movw	r0, #10096	; 0x2770
  104da8:	e1a01005 	mov	r1, r5
  104dac:	e34f08f0 	movt	r0, #63728	; 0xf8f0
  104db0:	eb000282 	bl	1057c0 <Xil_Out32>
  104db4:	f57ff04f 	dsb	sy
  104db8:	e3a03000 	mov	r3, #0
  104dbc:	ee403f10 	mcr	15, 2, r3, cr0, cr0, {0}
  104dc0:	e3c5501f 	bic	r5, r5, #31
  104dc4:	ee075f36 	mcr	15, 0, r5, cr7, cr6, {1}
  104dc8:	f57ff04f 	dsb	sy
  104dcc:	e129f004 	msr	CPSR_fc, r4
  104dd0:	e8bd8038 	pop	{r3, r4, r5, pc}

00104dd4 <Xil_DCacheFlushRange>:
  104dd4:	e10f2000 	mrs	r2, CPSR
  104dd8:	e38230c0 	orr	r3, r2, #192	; 0xc0
  104ddc:	e129f003 	msr	CPSR_fc, r3
  104de0:	e3510000 	cmp	r1, #0
  104de4:	0a00000b 	beq	104e18 <Xil_DCacheFlushRange+0x44>
  104de8:	e0811000 	add	r1, r1, r0
  104dec:	e3c0001f 	bic	r0, r0, #31
  104df0:	e1510000 	cmp	r1, r0
  104df4:	9a000007 	bls	104e18 <Xil_DCacheFlushRange+0x44>
  104df8:	e3a03a02 	mov	r3, #8192	; 0x2000
  104dfc:	e34f38f0 	movt	r3, #63728	; 0xf8f0
  104e00:	ee070f3e 	mcr	15, 0, r0, cr7, cr14, {1}
  104e04:	e58307f0 	str	r0, [r3, #2032]	; 0x7f0
  104e08:	f57ff04f 	dsb	sy
  104e0c:	e2800020 	add	r0, r0, #32
  104e10:	e1510000 	cmp	r1, r0
  104e14:	8afffff9 	bhi	104e00 <Xil_DCacheFlushRange+0x2c>
  104e18:	f57ff04f 	dsb	sy
  104e1c:	e129f002 	msr	CPSR_fc, r2
  104e20:	e12fff1e 	bx	lr

00104e24 <Xil_DCacheStoreLine>:
  104e24:	e92d4010 	push	{r4, lr}
  104e28:	e1a01000 	mov	r1, r0
  104e2c:	e10f4000 	mrs	r4, CPSR
  104e30:	e38430c0 	orr	r3, r4, #192	; 0xc0
  104e34:	e129f003 	msr	CPSR_fc, r3
  104e38:	e3a03000 	mov	r3, #0
  104e3c:	ee403f10 	mcr	15, 2, r3, cr0, cr0, {0}
  104e40:	e3c0301f 	bic	r3, r0, #31
  104e44:	ee073f3a 	mcr	15, 0, r3, cr7, cr10, {1}
  104e48:	f57ff04f 	dsb	sy
  104e4c:	e30207b0 	movw	r0, #10160	; 0x27b0
  104e50:	e34f08f0 	movt	r0, #63728	; 0xf8f0
  104e54:	eb000259 	bl	1057c0 <Xil_Out32>
  104e58:	f57ff04f 	dsb	sy
  104e5c:	e129f004 	msr	CPSR_fc, r4
  104e60:	e8bd8010 	pop	{r4, pc}

00104e64 <Xil_ICacheInvalidateLine>:
  104e64:	e92d4038 	push	{r3, r4, r5, lr}
  104e68:	e1a05000 	mov	r5, r0
  104e6c:	e10f4000 	mrs	r4, CPSR
  104e70:	e38430c0 	orr	r3, r4, #192	; 0xc0
  104e74:	e129f003 	msr	CPSR_fc, r3
  104e78:	e3020770 	movw	r0, #10096	; 0x2770
  104e7c:	e1a01005 	mov	r1, r5
  104e80:	e34f08f0 	movt	r0, #63728	; 0xf8f0
  104e84:	eb00024d 	bl	1057c0 <Xil_Out32>
  104e88:	f57ff04f 	dsb	sy
  104e8c:	e3a03001 	mov	r3, #1
  104e90:	ee403f10 	mcr	15, 2, r3, cr0, cr0, {0}
  104e94:	e3c5501f 	bic	r5, r5, #31
  104e98:	ee075f35 	mcr	15, 0, r5, cr7, cr5, {1}
  104e9c:	f57ff04f 	dsb	sy
  104ea0:	e129f004 	msr	CPSR_fc, r4
  104ea4:	e8bd8038 	pop	{r3, r4, r5, pc}

00104ea8 <Xil_ICacheInvalidateRange>:
  104ea8:	e10f2000 	mrs	r2, CPSR
  104eac:	e38230c0 	orr	r3, r2, #192	; 0xc0
  104eb0:	e129f003 	msr	CPSR_fc, r3
  104eb4:	e3510000 	cmp	r1, #0
  104eb8:	0a00000d 	beq	104ef4 <Xil_ICacheInvalidateRange+0x4c>
  104ebc:	e0811000 	add	r1, r1, r0
  104ec0:	e3a03001 	mov	r3, #1
  104ec4:	e3c0001f 	bic	r0, r0, #31
  104ec8:	ee403f10 	mcr	15, 2, r3, cr0, cr0, {0}
  104ecc:	e1510000 	cmp	r1, r0
  104ed0:	9a000007 	bls	104ef4 <Xil_ICacheInvalidateRange+0x4c>
  104ed4:	e3a03a02 	mov	r3, #8192	; 0x2000
  104ed8:	e34f38f0 	movt	r3, #63728	; 0xf8f0
  104edc:	e5830770 	str	r0, [r3, #1904]	; 0x770
  104ee0:	f57ff04f 	dsb	sy
  104ee4:	ee070f35 	mcr	15, 0, r0, cr7, cr5, {1}
  104ee8:	e2800020 	add	r0, r0, #32
  104eec:	e1510000 	cmp	r1, r0
  104ef0:	8afffff9 	bhi	104edc <Xil_ICacheInvalidateRange+0x34>
  104ef4:	f57ff04f 	dsb	sy
  104ef8:	e129f002 	msr	CPSR_fc, r2
  104efc:	e12fff1e 	bx	lr

00104f00 <Xil_L1DCacheInvalidate>:
  104f00:	e92d41f0 	push	{r4, r5, r6, r7, r8, lr}
  104f04:	e10f8000 	mrs	r8, CPSR
  104f08:	e38830c0 	orr	r3, r8, #192	; 0xc0
  104f0c:	e129f003 	msr	CPSR_fc, r3
  104f10:	e30e07c0 	movw	r0, #59328	; 0xe7c0
  104f14:	e30017c0 	movw	r1, #1984	; 0x7c0
  104f18:	e3400010 	movt	r0, #16
  104f1c:	e3401011 	movt	r1, #17
  104f20:	e0601001 	rsb	r1, r0, r1
  104f24:	ebffffaa 	bl	104dd4 <Xil_DCacheFlushRange>
  104f28:	e3a03000 	mov	r3, #0
  104f2c:	ee403f10 	mcr	15, 2, r3, cr0, cr0, {0}
  104f30:	ee304f10 	mrc	15, 1, r4, cr0, cr0, {0}
  104f34:	e7e806d4 	ubfx	r0, r4, #13, #9
  104f38:	e7e671d4 	ubfx	r7, r4, #3, #7
  104f3c:	e2800001 	add	r0, r0, #1
  104f40:	e2877001 	add	r7, r7, #1
  104f44:	e3a05001 	mov	r5, #1
  104f48:	e3a06000 	mov	r6, #0
  104f4c:	e1a00380 	lsl	r0, r0, #7
  104f50:	e1a01007 	mov	r1, r7
  104f54:	eb000277 	bl	105938 <__aeabi_uidiv>
  104f58:	e2043007 	and	r3, r4, #7
  104f5c:	e2833004 	add	r3, r3, #4
  104f60:	e1a05315 	lsl	r5, r5, r3
  104f64:	e1a00330 	lsr	r0, r0, r3
  104f68:	e3500000 	cmp	r0, #0
  104f6c:	e1a04f06 	lsl	r4, r6, #30
  104f70:	0a000007 	beq	104f94 <Xil_L1DCacheInvalidate+0x94>
  104f74:	e3a03000 	mov	r3, #0
  104f78:	e1a02003 	mov	r2, r3
  104f7c:	e182c004 	orr	ip, r2, r4
  104f80:	ee07cf56 	mcr	15, 0, ip, cr7, cr6, {2}
  104f84:	e2833001 	add	r3, r3, #1
  104f88:	e0822005 	add	r2, r2, r5
  104f8c:	e1530000 	cmp	r3, r0
  104f90:	1afffff9 	bne	104f7c <Xil_L1DCacheInvalidate+0x7c>
  104f94:	e2866001 	add	r6, r6, #1
  104f98:	e1570006 	cmp	r7, r6
  104f9c:	8afffff1 	bhi	104f68 <Xil_L1DCacheInvalidate+0x68>
  104fa0:	f57ff04f 	dsb	sy
  104fa4:	e129f008 	msr	CPSR_fc, r8
  104fa8:	e8bd81f0 	pop	{r4, r5, r6, r7, r8, pc}

00104fac <Xil_L1DCacheEnable>:
  104fac:	e92d4010 	push	{r4, lr}
  104fb0:	ee114f10 	mrc	15, 0, r4, cr1, cr0, {0}
  104fb4:	e3140004 	tst	r4, #4
  104fb8:	18bd8010 	popne	{r4, pc}
  104fbc:	ebffffcf 	bl	104f00 <Xil_L1DCacheInvalidate>
  104fc0:	e3844004 	orr	r4, r4, #4
  104fc4:	ee014f10 	mcr	15, 0, r4, cr1, cr0, {0}
  104fc8:	e8bd8010 	pop	{r4, pc}

00104fcc <Xil_L1DCacheInvalidateLine>:
  104fcc:	e3a03000 	mov	r3, #0
  104fd0:	ee403f10 	mcr	15, 2, r3, cr0, cr0, {0}
  104fd4:	e3c0001f 	bic	r0, r0, #31
  104fd8:	ee070f36 	mcr	15, 0, r0, cr7, cr6, {1}
  104fdc:	f57ff04f 	dsb	sy
  104fe0:	e12fff1e 	bx	lr

00104fe4 <Xil_L1DCacheInvalidateRange>:
  104fe4:	e10f3000 	mrs	r3, CPSR
  104fe8:	e38320c0 	orr	r2, r3, #192	; 0xc0
  104fec:	e129f002 	msr	CPSR_fc, r2
  104ff0:	e3510000 	cmp	r1, #0
  104ff4:	0a000009 	beq	105020 <Xil_L1DCacheInvalidateRange+0x3c>
  104ff8:	e0811000 	add	r1, r1, r0
  104ffc:	e3a02000 	mov	r2, #0
  105000:	e3c0001f 	bic	r0, r0, #31
  105004:	ee402f10 	mcr	15, 2, r2, cr0, cr0, {0}
  105008:	e1510000 	cmp	r1, r0
  10500c:	9a000003 	bls	105020 <Xil_L1DCacheInvalidateRange+0x3c>
  105010:	ee070f36 	mcr	15, 0, r0, cr7, cr6, {1}
  105014:	e2800020 	add	r0, r0, #32
  105018:	e1510000 	cmp	r1, r0
  10501c:	8afffffb 	bhi	105010 <Xil_L1DCacheInvalidateRange+0x2c>
  105020:	f57ff04f 	dsb	sy
  105024:	e129f003 	msr	CPSR_fc, r3
  105028:	e12fff1e 	bx	lr

0010502c <Xil_L1DCacheFlush>:
  10502c:	e92d41f0 	push	{r4, r5, r6, r7, r8, lr}
  105030:	e10f8000 	mrs	r8, CPSR
  105034:	e38830c0 	orr	r3, r8, #192	; 0xc0
  105038:	e129f003 	msr	CPSR_fc, r3
  10503c:	e3a03000 	mov	r3, #0
  105040:	ee403f10 	mcr	15, 2, r3, cr0, cr0, {0}
  105044:	ee304f10 	mrc	15, 1, r4, cr0, cr0, {0}
  105048:	e7e806d4 	ubfx	r0, r4, #13, #9
  10504c:	e7e671d4 	ubfx	r7, r4, #3, #7
  105050:	e2800001 	add	r0, r0, #1
  105054:	e2877001 	add	r7, r7, #1
  105058:	e3a05001 	mov	r5, #1
  10505c:	e3a06000 	mov	r6, #0
  105060:	e1a00380 	lsl	r0, r0, #7
  105064:	e1a01007 	mov	r1, r7
  105068:	eb000232 	bl	105938 <__aeabi_uidiv>
  10506c:	e2043007 	and	r3, r4, #7
  105070:	e2833004 	add	r3, r3, #4
  105074:	e1a05315 	lsl	r5, r5, r3
  105078:	e1a00330 	lsr	r0, r0, r3
  10507c:	e3500000 	cmp	r0, #0
  105080:	e1a04f06 	lsl	r4, r6, #30
  105084:	0a000007 	beq	1050a8 <Xil_L1DCacheFlush+0x7c>
  105088:	e3a03000 	mov	r3, #0
  10508c:	e1a02003 	mov	r2, r3
  105090:	e182c004 	orr	ip, r2, r4
  105094:	ee07cf5e 	mcr	15, 0, ip, cr7, cr14, {2}
  105098:	e2833001 	add	r3, r3, #1
  10509c:	e0822005 	add	r2, r2, r5
  1050a0:	e1530000 	cmp	r3, r0
  1050a4:	1afffff9 	bne	105090 <Xil_L1DCacheFlush+0x64>
  1050a8:	e2866001 	add	r6, r6, #1
  1050ac:	e1570006 	cmp	r7, r6
  1050b0:	8afffff1 	bhi	10507c <Xil_L1DCacheFlush+0x50>
  1050b4:	f57ff04f 	dsb	sy
  1050b8:	e129f008 	msr	CPSR_fc, r8
  1050bc:	e8bd81f0 	pop	{r4, r5, r6, r7, r8, pc}

001050c0 <Xil_L1DCacheDisable>:
  1050c0:	e92d4008 	push	{r3, lr}
  1050c4:	ebffffd8 	bl	10502c <Xil_L1DCacheFlush>
  1050c8:	ee113f10 	mrc	15, 0, r3, cr1, cr0, {0}
  1050cc:	e3c33004 	bic	r3, r3, #4
  1050d0:	ee013f10 	mcr	15, 0, r3, cr1, cr0, {0}
  1050d4:	e8bd8008 	pop	{r3, pc}

001050d8 <Xil_L1DCacheFlushLine>:
  1050d8:	e3a03000 	mov	r3, #0
  1050dc:	ee403f10 	mcr	15, 2, r3, cr0, cr0, {0}
  1050e0:	e3c0001f 	bic	r0, r0, #31
  1050e4:	ee070f3e 	mcr	15, 0, r0, cr7, cr14, {1}
  1050e8:	f57ff04f 	dsb	sy
  1050ec:	e12fff1e 	bx	lr

001050f0 <Xil_L1DCacheFlushRange>:
  1050f0:	e10f3000 	mrs	r3, CPSR
  1050f4:	e38320c0 	orr	r2, r3, #192	; 0xc0
  1050f8:	e129f002 	msr	CPSR_fc, r2
  1050fc:	e3510000 	cmp	r1, #0
  105100:	0a000009 	beq	10512c <Xil_L1DCacheFlushRange+0x3c>
  105104:	e0811000 	add	r1, r1, r0
  105108:	e3a02000 	mov	r2, #0
  10510c:	e3c0001f 	bic	r0, r0, #31
  105110:	ee402f10 	mcr	15, 2, r2, cr0, cr0, {0}
  105114:	e1510000 	cmp	r1, r0
  105118:	9a000003 	bls	10512c <Xil_L1DCacheFlushRange+0x3c>
  10511c:	ee070f3e 	mcr	15, 0, r0, cr7, cr14, {1}
  105120:	e2800020 	add	r0, r0, #32
  105124:	e1510000 	cmp	r1, r0
  105128:	8afffffb 	bhi	10511c <Xil_L1DCacheFlushRange+0x2c>
  10512c:	f57ff04f 	dsb	sy
  105130:	e129f003 	msr	CPSR_fc, r3
  105134:	e12fff1e 	bx	lr

00105138 <Xil_L1DCacheStoreLine>:
  105138:	e3a03000 	mov	r3, #0
  10513c:	ee403f10 	mcr	15, 2, r3, cr0, cr0, {0}
  105140:	e3c0001f 	bic	r0, r0, #31
  105144:	ee070f3a 	mcr	15, 0, r0, cr7, cr10, {1}
  105148:	f57ff04f 	dsb	sy
  10514c:	e12fff1e 	bx	lr

00105150 <Xil_L1ICacheEnable>:
  105150:	ee113f10 	mrc	15, 0, r3, cr1, cr0, {0}
  105154:	e2132a01 	ands	r2, r3, #4096	; 0x1000
  105158:	112fff1e 	bxne	lr
  10515c:	ee072f15 	mcr	15, 0, r2, cr7, cr5, {0}
  105160:	e3833a01 	orr	r3, r3, #4096	; 0x1000
  105164:	ee013f10 	mcr	15, 0, r3, cr1, cr0, {0}
  105168:	e12fff1e 	bx	lr

0010516c <Xil_L1ICacheDisable>:
  10516c:	f57ff04f 	dsb	sy
  105170:	e3a03000 	mov	r3, #0
  105174:	ee073f15 	mcr	15, 0, r3, cr7, cr5, {0}
  105178:	ee113f10 	mrc	15, 0, r3, cr1, cr0, {0}
  10517c:	e3c33a01 	bic	r3, r3, #4096	; 0x1000
  105180:	ee013f10 	mcr	15, 0, r3, cr1, cr0, {0}
  105184:	e12fff1e 	bx	lr

00105188 <Xil_L1ICacheInvalidate>:
  105188:	e3a03001 	mov	r3, #1
  10518c:	ee403f10 	mcr	15, 2, r3, cr0, cr0, {0}
  105190:	e3a03000 	mov	r3, #0
  105194:	ee073f15 	mcr	15, 0, r3, cr7, cr5, {0}
  105198:	f57ff04f 	dsb	sy
  10519c:	e12fff1e 	bx	lr

001051a0 <Xil_L1ICacheInvalidateLine>:
  1051a0:	e3a03001 	mov	r3, #1
  1051a4:	ee403f10 	mcr	15, 2, r3, cr0, cr0, {0}
  1051a8:	e3c0001f 	bic	r0, r0, #31
  1051ac:	ee070f35 	mcr	15, 0, r0, cr7, cr5, {1}
  1051b0:	f57ff04f 	dsb	sy
  1051b4:	e12fff1e 	bx	lr

001051b8 <Xil_L1ICacheInvalidateRange>:
  1051b8:	e10f3000 	mrs	r3, CPSR
  1051bc:	e38320c0 	orr	r2, r3, #192	; 0xc0
  1051c0:	e129f002 	msr	CPSR_fc, r2
  1051c4:	e3510000 	cmp	r1, #0
  1051c8:	0a000009 	beq	1051f4 <Xil_L1ICacheInvalidateRange+0x3c>
  1051cc:	e0811000 	add	r1, r1, r0
  1051d0:	e3a02001 	mov	r2, #1
  1051d4:	e3c0001f 	bic	r0, r0, #31
  1051d8:	ee402f10 	mcr	15, 2, r2, cr0, cr0, {0}
  1051dc:	e1510000 	cmp	r1, r0
  1051e0:	9a000003 	bls	1051f4 <Xil_L1ICacheInvalidateRange+0x3c>
  1051e4:	ee070f35 	mcr	15, 0, r0, cr7, cr5, {1}
  1051e8:	e2800020 	add	r0, r0, #32
  1051ec:	e1510000 	cmp	r1, r0
  1051f0:	8afffffb 	bhi	1051e4 <Xil_L1ICacheInvalidateRange+0x2c>
  1051f4:	f57ff04f 	dsb	sy
  1051f8:	e129f003 	msr	CPSR_fc, r3
  1051fc:	e12fff1e 	bx	lr

00105200 <Xil_L2CacheInvalidate>:
  105200:	e302077c 	movw	r0, #10108	; 0x277c
  105204:	e30f1fff 	movw	r1, #65535	; 0xffff
  105208:	e92d4008 	push	{r3, lr}
  10520c:	e34f08f0 	movt	r0, #63728	; 0xf8f0
  105210:	eb00016a 	bl	1057c0 <Xil_Out32>
  105214:	e302077c 	movw	r0, #10108	; 0x277c
  105218:	e34f08f0 	movt	r0, #63728	; 0xf8f0
  10521c:	eb000161 	bl	1057a8 <Xil_In32>
  105220:	e6ff1070 	uxth	r1, r0
  105224:	e3510000 	cmp	r1, #0
  105228:	1afffff9 	bne	105214 <Xil_L2CacheInvalidate+0x14>
  10522c:	e3a00d9d 	mov	r0, #10048	; 0x2740
  105230:	e34f08f0 	movt	r0, #63728	; 0xf8f0
  105234:	eb000161 	bl	1057c0 <Xil_Out32>
  105238:	f57ff04f 	dsb	sy
  10523c:	e8bd8008 	pop	{r3, pc}

00105240 <Xil_DCacheInvalidate>:
  105240:	e92d4010 	push	{r4, lr}
  105244:	e10f4000 	mrs	r4, CPSR
  105248:	e38430c0 	orr	r3, r4, #192	; 0xc0
  10524c:	e129f003 	msr	CPSR_fc, r3
  105250:	ebffffea 	bl	105200 <Xil_L2CacheInvalidate>
  105254:	ebffff29 	bl	104f00 <Xil_L1DCacheInvalidate>
  105258:	e129f004 	msr	CPSR_fc, r4
  10525c:	e8bd8010 	pop	{r4, pc}

00105260 <Xil_ICacheInvalidate>:
  105260:	e92d4010 	push	{r4, lr}
  105264:	e10f4000 	mrs	r4, CPSR
  105268:	e38430c0 	orr	r3, r4, #192	; 0xc0
  10526c:	e129f003 	msr	CPSR_fc, r3
  105270:	ebffffe2 	bl	105200 <Xil_L2CacheInvalidate>
  105274:	e3a03001 	mov	r3, #1
  105278:	ee403f10 	mcr	15, 2, r3, cr0, cr0, {0}
  10527c:	e3a03000 	mov	r3, #0
  105280:	ee073f15 	mcr	15, 0, r3, cr7, cr5, {0}
  105284:	f57ff04f 	dsb	sy
  105288:	e129f004 	msr	CPSR_fc, r4
  10528c:	e8bd8010 	pop	{r4, pc}

00105290 <Xil_L2CacheEnable>:
  105290:	e92d4010 	push	{r4, lr}
  105294:	e3a00c21 	mov	r0, #8448	; 0x2100
  105298:	e34f08f0 	movt	r0, #63728	; 0xf8f0
  10529c:	eb000141 	bl	1057a8 <Xil_In32>
  1052a0:	e2104001 	ands	r4, r0, #1
  1052a4:	18bd8010 	popne	{r4, pc}
  1052a8:	e3020104 	movw	r0, #8452	; 0x2104
  1052ac:	e34f08f0 	movt	r0, #63728	; 0xf8f0
  1052b0:	eb00013c 	bl	1057a8 <Xil_In32>
  1052b4:	e3c0180e 	bic	r1, r0, #917504	; 0xe0000
  1052b8:	e3020104 	movw	r0, #8452	; 0x2104
  1052bc:	e3811472 	orr	r1, r1, #1912602624	; 0x72000000
  1052c0:	e34f08f0 	movt	r0, #63728	; 0xf8f0
  1052c4:	e3811836 	orr	r1, r1, #3538944	; 0x360000
  1052c8:	eb00013c 	bl	1057c0 <Xil_Out32>
  1052cc:	e3001111 	movw	r1, #273	; 0x111
  1052d0:	e3020108 	movw	r0, #8456	; 0x2108
  1052d4:	e34f08f0 	movt	r0, #63728	; 0xf8f0
  1052d8:	eb000138 	bl	1057c0 <Xil_Out32>
  1052dc:	e3001121 	movw	r1, #289	; 0x121
  1052e0:	e302010c 	movw	r0, #8460	; 0x210c
  1052e4:	e34f08f0 	movt	r0, #63728	; 0xf8f0
  1052e8:	eb000134 	bl	1057c0 <Xil_Out32>
  1052ec:	e302021c 	movw	r0, #8732	; 0x221c
  1052f0:	e34f08f0 	movt	r0, #63728	; 0xf8f0
  1052f4:	eb00012b 	bl	1057a8 <Xil_In32>
  1052f8:	e1a01000 	mov	r1, r0
  1052fc:	e3020220 	movw	r0, #8736	; 0x2220
  105300:	e34f08f0 	movt	r0, #63728	; 0xf8f0
  105304:	eb00012d 	bl	1057c0 <Xil_Out32>
  105308:	ebffffbc 	bl	105200 <Xil_L2CacheInvalidate>
  10530c:	e3a00c21 	mov	r0, #8448	; 0x2100
  105310:	e34f08f0 	movt	r0, #63728	; 0xf8f0
  105314:	eb000123 	bl	1057a8 <Xil_In32>
  105318:	e3801001 	orr	r1, r0, #1
  10531c:	e3a00c21 	mov	r0, #8448	; 0x2100
  105320:	e34f08f0 	movt	r0, #63728	; 0xf8f0
  105324:	eb000125 	bl	1057c0 <Xil_Out32>
  105328:	e1a01004 	mov	r1, r4
  10532c:	e3a00d9d 	mov	r0, #10048	; 0x2740
  105330:	e34f08f0 	movt	r0, #63728	; 0xf8f0
  105334:	eb000121 	bl	1057c0 <Xil_Out32>
  105338:	f57ff04f 	dsb	sy
  10533c:	e8bd8010 	pop	{r4, pc}

00105340 <Xil_DCacheEnable>:
  105340:	e92d4008 	push	{r3, lr}
  105344:	ebffff18 	bl	104fac <Xil_L1DCacheEnable>
  105348:	e8bd4008 	pop	{r3, lr}
  10534c:	eaffffcf 	b	105290 <Xil_L2CacheEnable>

00105350 <Xil_ICacheEnable>:
  105350:	ee113f10 	mrc	15, 0, r3, cr1, cr0, {0}
  105354:	e2132a01 	ands	r2, r3, #4096	; 0x1000
  105358:	1a000002 	bne	105368 <Xil_ICacheEnable+0x18>
  10535c:	ee072f15 	mcr	15, 0, r2, cr7, cr5, {0}
  105360:	e3833a01 	orr	r3, r3, #4096	; 0x1000
  105364:	ee013f10 	mcr	15, 0, r3, cr1, cr0, {0}
  105368:	eaffffc8 	b	105290 <Xil_L2CacheEnable>

0010536c <Xil_L2CacheInvalidateLine>:
  10536c:	e1a01000 	mov	r1, r0
  105370:	e3020770 	movw	r0, #10096	; 0x2770
  105374:	e92d4008 	push	{r3, lr}
  105378:	e34f08f0 	movt	r0, #63728	; 0xf8f0
  10537c:	eb00010f 	bl	1057c0 <Xil_Out32>
  105380:	f57ff04f 	dsb	sy
  105384:	e8bd8008 	pop	{r3, pc}

00105388 <Xil_L2CacheInvalidateRange>:
  105388:	e92d4070 	push	{r4, r5, r6, lr}
  10538c:	e10f6000 	mrs	r6, CPSR
  105390:	e38630c0 	orr	r3, r6, #192	; 0xc0
  105394:	e129f003 	msr	CPSR_fc, r3
  105398:	e3510000 	cmp	r1, #0
  10539c:	1a000002 	bne	1053ac <Xil_L2CacheInvalidateRange+0x24>
  1053a0:	f57ff04f 	dsb	sy
  1053a4:	e129f006 	msr	CPSR_fc, r6
  1053a8:	e8bd8070 	pop	{r4, r5, r6, pc}
  1053ac:	e0815000 	add	r5, r1, r0
  1053b0:	e3c0401f 	bic	r4, r0, #31
  1053b4:	e3a01003 	mov	r1, #3
  1053b8:	e3a00dbd 	mov	r0, #12096	; 0x2f40
  1053bc:	e34f08f0 	movt	r0, #63728	; 0xf8f0
  1053c0:	eb0000fe 	bl	1057c0 <Xil_Out32>
  1053c4:	e1550004 	cmp	r5, r4
  1053c8:	83a03a02 	movhi	r3, #8192	; 0x2000
  1053cc:	834f38f0 	movthi	r3, #63728	; 0xf8f0
  1053d0:	9a000003 	bls	1053e4 <Xil_L2CacheInvalidateRange+0x5c>
  1053d4:	e5834770 	str	r4, [r3, #1904]	; 0x770
  1053d8:	e2844020 	add	r4, r4, #32
  1053dc:	e1550004 	cmp	r5, r4
  1053e0:	8afffffb 	bhi	1053d4 <Xil_L2CacheInvalidateRange+0x4c>
  1053e4:	e3a00dbd 	mov	r0, #12096	; 0x2f40
  1053e8:	e3a01000 	mov	r1, #0
  1053ec:	e34f08f0 	movt	r0, #63728	; 0xf8f0
  1053f0:	eb0000f2 	bl	1057c0 <Xil_Out32>
  1053f4:	eaffffe9 	b	1053a0 <Xil_L2CacheInvalidateRange+0x18>

001053f8 <Xil_L2CacheFlush>:
  1053f8:	e3a01003 	mov	r1, #3
  1053fc:	e3a00dbd 	mov	r0, #12096	; 0x2f40
  105400:	e92d4010 	push	{r4, lr}
  105404:	e34f08f0 	movt	r0, #63728	; 0xf8f0
  105408:	eb0000ec 	bl	1057c0 <Xil_Out32>
  10540c:	e30207fc 	movw	r0, #10236	; 0x27fc
  105410:	e30f1fff 	movw	r1, #65535	; 0xffff
  105414:	e34f08f0 	movt	r0, #63728	; 0xf8f0
  105418:	eb0000e8 	bl	1057c0 <Xil_Out32>
  10541c:	e30207fc 	movw	r0, #10236	; 0x27fc
  105420:	e34f08f0 	movt	r0, #63728	; 0xf8f0
  105424:	eb0000df 	bl	1057a8 <Xil_In32>
  105428:	e6ff4070 	uxth	r4, r0
  10542c:	e3540000 	cmp	r4, #0
  105430:	1afffff9 	bne	10541c <Xil_L2CacheFlush+0x24>
  105434:	e1a01004 	mov	r1, r4
  105438:	e3a00d9d 	mov	r0, #10048	; 0x2740
  10543c:	e34f08f0 	movt	r0, #63728	; 0xf8f0
  105440:	eb0000de 	bl	1057c0 <Xil_Out32>
  105444:	e1a01004 	mov	r1, r4
  105448:	e3a00dbd 	mov	r0, #12096	; 0x2f40
  10544c:	e34f08f0 	movt	r0, #63728	; 0xf8f0
  105450:	eb0000da 	bl	1057c0 <Xil_Out32>
  105454:	f57ff04f 	dsb	sy
  105458:	e8bd8010 	pop	{r4, pc}

0010545c <Xil_DCacheFlush>:
  10545c:	e92d4010 	push	{r4, lr}
  105460:	e10f4000 	mrs	r4, CPSR
  105464:	e38430c0 	orr	r3, r4, #192	; 0xc0
  105468:	e129f003 	msr	CPSR_fc, r3
  10546c:	ebfffeee 	bl	10502c <Xil_L1DCacheFlush>
  105470:	ebffffe0 	bl	1053f8 <Xil_L2CacheFlush>
  105474:	e129f004 	msr	CPSR_fc, r4
  105478:	e8bd8010 	pop	{r4, pc}

0010547c <Xil_L2CacheDisable>:
  10547c:	e92d4008 	push	{r3, lr}
  105480:	e3a00c21 	mov	r0, #8448	; 0x2100
  105484:	e34f08f0 	movt	r0, #63728	; 0xf8f0
  105488:	eb0000c6 	bl	1057a8 <Xil_In32>
  10548c:	e3100001 	tst	r0, #1
  105490:	08bd8008 	popeq	{r3, pc}
  105494:	ebffffd7 	bl	1053f8 <Xil_L2CacheFlush>
  105498:	e3a00c21 	mov	r0, #8448	; 0x2100
  10549c:	e34f08f0 	movt	r0, #63728	; 0xf8f0
  1054a0:	eb0000c0 	bl	1057a8 <Xil_In32>
  1054a4:	e3c01001 	bic	r1, r0, #1
  1054a8:	e3a00c21 	mov	r0, #8448	; 0x2100
  1054ac:	e34f08f0 	movt	r0, #63728	; 0xf8f0
  1054b0:	eb0000c2 	bl	1057c0 <Xil_Out32>
  1054b4:	f57ff04f 	dsb	sy
  1054b8:	e8bd8008 	pop	{r3, pc}

001054bc <Xil_DCacheDisable>:
  1054bc:	e92d4008 	push	{r3, lr}
  1054c0:	ebffffed 	bl	10547c <Xil_L2CacheDisable>
  1054c4:	ebfffed8 	bl	10502c <Xil_L1DCacheFlush>
  1054c8:	ee113f10 	mrc	15, 0, r3, cr1, cr0, {0}
  1054cc:	e3c33004 	bic	r3, r3, #4
  1054d0:	ee013f10 	mcr	15, 0, r3, cr1, cr0, {0}
  1054d4:	e8bd8008 	pop	{r3, pc}

001054d8 <Xil_ICacheDisable>:
  1054d8:	e92d4008 	push	{r3, lr}
  1054dc:	ebffffe6 	bl	10547c <Xil_L2CacheDisable>
  1054e0:	f57ff04f 	dsb	sy
  1054e4:	e3a03000 	mov	r3, #0
  1054e8:	ee073f15 	mcr	15, 0, r3, cr7, cr5, {0}
  1054ec:	ee113f10 	mrc	15, 0, r3, cr1, cr0, {0}
  1054f0:	e3c33a01 	bic	r3, r3, #4096	; 0x1000
  1054f4:	ee013f10 	mcr	15, 0, r3, cr1, cr0, {0}
  1054f8:	e8bd8008 	pop	{r3, pc}

001054fc <Xil_L2CacheFlushLine>:
  1054fc:	e92d4010 	push	{r4, lr}
  105500:	e1a04000 	mov	r4, r0
  105504:	e1a01004 	mov	r1, r4
  105508:	e30207b0 	movw	r0, #10160	; 0x27b0
  10550c:	e34f08f0 	movt	r0, #63728	; 0xf8f0
  105510:	eb0000aa 	bl	1057c0 <Xil_Out32>
  105514:	e1a01004 	mov	r1, r4
  105518:	e3020770 	movw	r0, #10096	; 0x2770
  10551c:	e34f08f0 	movt	r0, #63728	; 0xf8f0
  105520:	eb0000a6 	bl	1057c0 <Xil_Out32>
  105524:	f57ff04f 	dsb	sy
  105528:	e8bd8010 	pop	{r4, pc}

0010552c <Xil_DCacheInvalidateRange>:
  10552c:	e92d40f8 	push	{r3, r4, r5, r6, r7, lr}
  105530:	e1a04000 	mov	r4, r0
  105534:	e10f6000 	mrs	r6, CPSR
  105538:	e38630c0 	orr	r3, r6, #192	; 0xc0
  10553c:	e129f003 	msr	CPSR_fc, r3
  105540:	e3510000 	cmp	r1, #0
  105544:	0a000010 	beq	10558c <Xil_DCacheInvalidateRange+0x60>
  105548:	e0805001 	add	r5, r0, r1
  10554c:	e3a03000 	mov	r3, #0
  105550:	ee403f10 	mcr	15, 2, r3, cr0, cr0, {0}
  105554:	e310001f 	tst	r0, #31
  105558:	1a000022 	bne	1055e8 <Xil_DCacheInvalidateRange+0xbc>
  10555c:	e315001f 	tst	r5, #31
  105560:	1a00000c 	bne	105598 <Xil_DCacheInvalidateRange+0x6c>
  105564:	e1540005 	cmp	r4, r5
  105568:	2a000007 	bcs	10558c <Xil_DCacheInvalidateRange+0x60>
  10556c:	e3a03a02 	mov	r3, #8192	; 0x2000
  105570:	e34f38f0 	movt	r3, #63728	; 0xf8f0
  105574:	e5834770 	str	r4, [r3, #1904]	; 0x770
  105578:	f57ff04f 	dsb	sy
  10557c:	ee074f36 	mcr	15, 0, r4, cr7, cr6, {1}
  105580:	e2844020 	add	r4, r4, #32
  105584:	e1540005 	cmp	r4, r5
  105588:	3afffff9 	bcc	105574 <Xil_DCacheInvalidateRange+0x48>
  10558c:	f57ff04f 	dsb	sy
  105590:	e129f006 	msr	CPSR_fc, r6
  105594:	e8bd80f8 	pop	{r3, r4, r5, r6, r7, pc}
  105598:	e3c5501f 	bic	r5, r5, #31
  10559c:	e3a03000 	mov	r3, #0
  1055a0:	ee403f10 	mcr	15, 2, r3, cr0, cr0, {0}
  1055a4:	ee075f3e 	mcr	15, 0, r5, cr7, cr14, {1}
  1055a8:	f57ff04f 	dsb	sy
  1055ac:	e3a01003 	mov	r1, #3
  1055b0:	e3a00dbd 	mov	r0, #12096	; 0x2f40
  1055b4:	e34f08f0 	movt	r0, #63728	; 0xf8f0
  1055b8:	eb000080 	bl	1057c0 <Xil_Out32>
  1055bc:	e1a00005 	mov	r0, r5
  1055c0:	ebffffcd 	bl	1054fc <Xil_L2CacheFlushLine>
  1055c4:	e3a01000 	mov	r1, #0
  1055c8:	e3a00dbd 	mov	r0, #12096	; 0x2f40
  1055cc:	e34f08f0 	movt	r0, #63728	; 0xf8f0
  1055d0:	eb00007a 	bl	1057c0 <Xil_Out32>
  1055d4:	e3a00d9d 	mov	r0, #10048	; 0x2740
  1055d8:	e3a01000 	mov	r1, #0
  1055dc:	e34f08f0 	movt	r0, #63728	; 0xf8f0
  1055e0:	eb000076 	bl	1057c0 <Xil_Out32>
  1055e4:	eaffffde 	b	105564 <Xil_DCacheInvalidateRange+0x38>
  1055e8:	e3c0701f 	bic	r7, r0, #31
  1055ec:	ee403f10 	mcr	15, 2, r3, cr0, cr0, {0}
  1055f0:	ee077f3e 	mcr	15, 0, r7, cr7, cr14, {1}
  1055f4:	f57ff04f 	dsb	sy
  1055f8:	e3a01003 	mov	r1, #3
  1055fc:	e3a00dbd 	mov	r0, #12096	; 0x2f40
  105600:	e34f08f0 	movt	r0, #63728	; 0xf8f0
  105604:	e2874020 	add	r4, r7, #32
  105608:	eb00006c 	bl	1057c0 <Xil_Out32>
  10560c:	e1a00007 	mov	r0, r7
  105610:	ebffffb9 	bl	1054fc <Xil_L2CacheFlushLine>
  105614:	e3a01000 	mov	r1, #0
  105618:	e3a00dbd 	mov	r0, #12096	; 0x2f40
  10561c:	e34f08f0 	movt	r0, #63728	; 0xf8f0
  105620:	eb000066 	bl	1057c0 <Xil_Out32>
  105624:	e3a00d9d 	mov	r0, #10048	; 0x2740
  105628:	e3a01000 	mov	r1, #0
  10562c:	e34f08f0 	movt	r0, #63728	; 0xf8f0
  105630:	eb000062 	bl	1057c0 <Xil_Out32>
  105634:	e315001f 	tst	r5, #31
  105638:	0affffc9 	beq	105564 <Xil_DCacheInvalidateRange+0x38>
  10563c:	eaffffd5 	b	105598 <Xil_DCacheInvalidateRange+0x6c>

00105640 <Xil_DCacheFlushLine>:
  105640:	e92d4070 	push	{r4, r5, r6, lr}
  105644:	e1a06000 	mov	r6, r0
  105648:	e10f5000 	mrs	r5, CPSR
  10564c:	e38530c0 	orr	r3, r5, #192	; 0xc0
  105650:	e129f003 	msr	CPSR_fc, r3
  105654:	e3a03000 	mov	r3, #0
  105658:	ee403f10 	mcr	15, 2, r3, cr0, cr0, {0}
  10565c:	e3c0301f 	bic	r3, r0, #31
  105660:	ee073f3e 	mcr	15, 0, r3, cr7, cr14, {1}
  105664:	f57ff04f 	dsb	sy
  105668:	e3a04dbd 	mov	r4, #12096	; 0x2f40
  10566c:	e34f48f0 	movt	r4, #63728	; 0xf8f0
  105670:	e3a01003 	mov	r1, #3
  105674:	e1a00004 	mov	r0, r4
  105678:	eb000050 	bl	1057c0 <Xil_Out32>
  10567c:	e1a00006 	mov	r0, r6
  105680:	ebffff9d 	bl	1054fc <Xil_L2CacheFlushLine>
  105684:	e1a00004 	mov	r0, r4
  105688:	e3a01000 	mov	r1, #0
  10568c:	eb00004b 	bl	1057c0 <Xil_Out32>
  105690:	e3a01000 	mov	r1, #0
  105694:	e3a00d9d 	mov	r0, #10048	; 0x2740
  105698:	e34f08f0 	movt	r0, #63728	; 0xf8f0
  10569c:	eb000047 	bl	1057c0 <Xil_Out32>
  1056a0:	e129f005 	msr	CPSR_fc, r5
  1056a4:	e8bd8070 	pop	{r4, r5, r6, pc}

001056a8 <Xil_L2CacheFlushRange>:
  1056a8:	e92d40f8 	push	{r3, r4, r5, r6, r7, lr}
  1056ac:	e10f7000 	mrs	r7, CPSR
  1056b0:	e38730c0 	orr	r3, r7, #192	; 0xc0
  1056b4:	e129f003 	msr	CPSR_fc, r3
  1056b8:	e3510000 	cmp	r1, #0
  1056bc:	1a000002 	bne	1056cc <Xil_L2CacheFlushRange+0x24>
  1056c0:	f57ff04f 	dsb	sy
  1056c4:	e129f007 	msr	CPSR_fc, r7
  1056c8:	e8bd80f8 	pop	{r3, r4, r5, r6, r7, pc}
  1056cc:	e0815000 	add	r5, r1, r0
  1056d0:	e3c0401f 	bic	r4, r0, #31
  1056d4:	e3a01003 	mov	r1, #3
  1056d8:	e3a00dbd 	mov	r0, #12096	; 0x2f40
  1056dc:	e34f08f0 	movt	r0, #63728	; 0xf8f0
  1056e0:	eb000036 	bl	1057c0 <Xil_Out32>
  1056e4:	e1550004 	cmp	r5, r4
  1056e8:	83a06a02 	movhi	r6, #8192	; 0x2000
  1056ec:	834f68f0 	movthi	r6, #63728	; 0xf8f0
  1056f0:	9a000007 	bls	105714 <Xil_L2CacheFlushRange+0x6c>
  1056f4:	e58647f0 	str	r4, [r6, #2032]	; 0x7f0
  1056f8:	e3a00d9d 	mov	r0, #10048	; 0x2740
  1056fc:	e2844020 	add	r4, r4, #32
  105700:	e34f08f0 	movt	r0, #63728	; 0xf8f0
  105704:	e3a01000 	mov	r1, #0
  105708:	eb00002c 	bl	1057c0 <Xil_Out32>
  10570c:	e1550004 	cmp	r5, r4
  105710:	8afffff7 	bhi	1056f4 <Xil_L2CacheFlushRange+0x4c>
  105714:	e3a00dbd 	mov	r0, #12096	; 0x2f40
  105718:	e3a01000 	mov	r1, #0
  10571c:	e34f08f0 	movt	r0, #63728	; 0xf8f0
  105720:	eb000026 	bl	1057c0 <Xil_Out32>
  105724:	eaffffe5 	b	1056c0 <Xil_L2CacheFlushRange+0x18>

00105728 <Xil_L2CacheStoreLine>:
  105728:	e1a01000 	mov	r1, r0
  10572c:	e30207b0 	movw	r0, #10160	; 0x27b0
  105730:	e92d4008 	push	{r3, lr}
  105734:	e34f08f0 	movt	r0, #63728	; 0xf8f0
  105738:	eb000020 	bl	1057c0 <Xil_Out32>
  10573c:	f57ff04f 	dsb	sy
  105740:	e8bd8008 	pop	{r3, pc}

00105744 <Xil_ExceptionNullHandler>:
  105744:	eafffffe 	b	105744 <Xil_ExceptionNullHandler>

00105748 <Xil_DataAbortHandler>:
  105748:	ee153f10 	mrc	15, 0, r3, cr5, cr0, {0}
  10574c:	eafffffe 	b	10574c <Xil_DataAbortHandler+0x4>

00105750 <Xil_PrefetchAbortHandler>:
  105750:	ee153f30 	mrc	15, 0, r3, cr5, cr0, {1}
  105754:	eafffffe 	b	105754 <Xil_PrefetchAbortHandler+0x4>

00105758 <Xil_ExceptionInit>:
  105758:	e12fff1e 	bx	lr

0010575c <Xil_ExceptionRegisterHandler>:
  10575c:	e30639bc 	movw	r3, #27068	; 0x69bc
  105760:	e3403010 	movt	r3, #16
  105764:	e083c180 	add	ip, r3, r0, lsl #3
  105768:	e7831180 	str	r1, [r3, r0, lsl #3]
  10576c:	e58c2004 	str	r2, [ip, #4]
  105770:	e12fff1e 	bx	lr

00105774 <Xil_ExceptionRemoveHandler>:
  105774:	e30639bc 	movw	r3, #27068	; 0x69bc
  105778:	e3403010 	movt	r3, #16
  10577c:	e0831180 	add	r1, r3, r0, lsl #3
  105780:	e3052744 	movw	r2, #22340	; 0x5744
  105784:	e3a0c000 	mov	ip, #0
  105788:	e3402010 	movt	r2, #16
  10578c:	e7832180 	str	r2, [r3, r0, lsl #3]
  105790:	e581c004 	str	ip, [r1, #4]
  105794:	e12fff1e 	bx	lr

00105798 <Xil_In8>:
  105798:	e5d00000 	ldrb	r0, [r0]
  10579c:	e12fff1e 	bx	lr

001057a0 <Xil_In16>:
  1057a0:	e1d000b0 	ldrh	r0, [r0]
  1057a4:	e12fff1e 	bx	lr

001057a8 <Xil_In32>:
  1057a8:	e5900000 	ldr	r0, [r0]
  1057ac:	e12fff1e 	bx	lr

001057b0 <Xil_Out8>:
  1057b0:	e5c01000 	strb	r1, [r0]
  1057b4:	e12fff1e 	bx	lr

001057b8 <Xil_Out16>:
  1057b8:	e1c010b0 	strh	r1, [r0]
  1057bc:	e12fff1e 	bx	lr

001057c0 <Xil_Out32>:
  1057c0:	e5801000 	str	r1, [r0]
  1057c4:	e12fff1e 	bx	lr

001057c8 <Xil_In16BE>:
  1057c8:	e1d000b0 	ldrh	r0, [r0]
  1057cc:	e6bf0fb0 	rev16	r0, r0
  1057d0:	e6ff0070 	uxth	r0, r0
  1057d4:	e12fff1e 	bx	lr

001057d8 <Xil_In32BE>:
  1057d8:	e5902000 	ldr	r2, [r0]
  1057dc:	e6ff3072 	uxth	r3, r2
  1057e0:	e1a02822 	lsr	r2, r2, #16
  1057e4:	e6bf2fb2 	rev16	r2, r2
  1057e8:	e1a01423 	lsr	r1, r3, #8
  1057ec:	e1813403 	orr	r3, r1, r3, lsl #8
  1057f0:	e6ff0072 	uxth	r0, r2
  1057f4:	e1800803 	orr	r0, r0, r3, lsl #16
  1057f8:	e12fff1e 	bx	lr

001057fc <Xil_Out16BE>:
  1057fc:	e6bf1fb1 	rev16	r1, r1
  105800:	e1c010b0 	strh	r1, [r0]
  105804:	e12fff1e 	bx	lr

00105808 <Xil_Out32BE>:
  105808:	e6ff3071 	uxth	r3, r1
  10580c:	e1a01821 	lsr	r1, r1, #16
  105810:	e6bf1fb1 	rev16	r1, r1
  105814:	e1a02423 	lsr	r2, r3, #8
  105818:	e1823403 	orr	r3, r2, r3, lsl #8
  10581c:	e6ff1071 	uxth	r1, r1
  105820:	e1813803 	orr	r3, r1, r3, lsl #16
  105824:	e5803000 	str	r3, [r0]
  105828:	e12fff1e 	bx	lr

0010582c <Xil_EndianSwap16>:
  10582c:	e6bf0fb0 	rev16	r0, r0
  105830:	e6ff0070 	uxth	r0, r0
  105834:	e12fff1e 	bx	lr

00105838 <Xil_EndianSwap32>:
  105838:	e6ff3070 	uxth	r3, r0
  10583c:	e1a00820 	lsr	r0, r0, #16
  105840:	e6bf0fb0 	rev16	r0, r0
  105844:	e1a02423 	lsr	r2, r3, #8
  105848:	e1823403 	orr	r3, r2, r3, lsl #8
  10584c:	e6ff0070 	uxth	r0, r0
  105850:	e1800803 	orr	r0, r0, r3, lsl #16
  105854:	e12fff1e 	bx	lr

00105858 <XTime_SetTime>:
  105858:	e92d4070 	push	{r4, r5, r6, lr}
  10585c:	e3a04f82 	mov	r4, #520	; 0x208
  105860:	e34f48f0 	movt	r4, #63728	; 0xf8f0
  105864:	e1a06000 	mov	r6, r0
  105868:	e1a05001 	mov	r5, r1
  10586c:	e3a01000 	mov	r1, #0
  105870:	e1a00004 	mov	r0, r4
  105874:	ebffffd1 	bl	1057c0 <Xil_Out32>
  105878:	e1a01006 	mov	r1, r6
  10587c:	e3a00c02 	mov	r0, #512	; 0x200
  105880:	e34f08f0 	movt	r0, #63728	; 0xf8f0
  105884:	ebffffcd 	bl	1057c0 <Xil_Out32>
  105888:	e1a01005 	mov	r1, r5
  10588c:	e3a00f81 	mov	r0, #516	; 0x204
  105890:	e34f08f0 	movt	r0, #63728	; 0xf8f0
  105894:	ebffffc9 	bl	1057c0 <Xil_Out32>
  105898:	e1a00004 	mov	r0, r4
  10589c:	e3a01001 	mov	r1, #1
  1058a0:	e8bd4070 	pop	{r4, r5, r6, lr}
  1058a4:	eaffffc5 	b	1057c0 <Xil_Out32>

001058a8 <XTime_GetTime>:
  1058a8:	e92d4070 	push	{r4, r5, r6, lr}
  1058ac:	e1a06000 	mov	r6, r0
  1058b0:	e3a00f81 	mov	r0, #516	; 0x204
  1058b4:	e34f08f0 	movt	r0, #63728	; 0xf8f0
  1058b8:	ebffffba 	bl	1057a8 <Xil_In32>
  1058bc:	e1a04000 	mov	r4, r0
  1058c0:	e3a00c02 	mov	r0, #512	; 0x200
  1058c4:	e34f08f0 	movt	r0, #63728	; 0xf8f0
  1058c8:	ebffffb6 	bl	1057a8 <Xil_In32>
  1058cc:	e1a05000 	mov	r5, r0
  1058d0:	e3a00f81 	mov	r0, #516	; 0x204
  1058d4:	e34f08f0 	movt	r0, #63728	; 0xf8f0
  1058d8:	ebffffb2 	bl	1057a8 <Xil_In32>
  1058dc:	e1500004 	cmp	r0, r4
  1058e0:	1afffff2 	bne	1058b0 <XTime_GetTime+0x8>
  1058e4:	e3a02000 	mov	r2, #0
  1058e8:	e1a03000 	mov	r3, r0
  1058ec:	e1822005 	orr	r2, r2, r5
  1058f0:	e1c620f0 	strd	r2, [r6]
  1058f4:	e8bd8070 	pop	{r4, r5, r6, pc}

001058f8 <__cpu_init>:
  1058f8:	e3a00000 	mov	r0, #0
  1058fc:	ee050f10 	mcr	15, 0, r0, cr5, cr0, {0}
  105900:	ee050f30 	mcr	15, 0, r0, cr5, cr0, {1}
  105904:	ee060f10 	mcr	15, 0, r0, cr6, cr0, {0}
  105908:	ee060f50 	mcr	15, 0, r0, cr6, cr0, {2}
  10590c:	ee090f5d 	mcr	15, 0, r0, cr9, cr13, {2}
  105910:	ee0d0f50 	mcr	15, 0, r0, cr13, cr0, {2}
  105914:	ee0d0f70 	mcr	15, 0, r0, cr13, cr0, {3}
  105918:	eeaf0f55 	mcr	15, 5, r0, cr15, cr5, {2}
  10591c:	e3a02102 	mov	r2, #-2147483648	; 0x80000000
  105920:	ee092f7c 	mcr	15, 0, r2, cr9, cr12, {3}
  105924:	e3a0200d 	mov	r2, #13
  105928:	ee092f1c 	mcr	15, 0, r2, cr9, cr12, {0}
  10592c:	e3a02102 	mov	r2, #-2147483648	; 0x80000000
  105930:	ee092f3c 	mcr	15, 0, r2, cr9, cr12, {1}
  105934:	e12fff1e 	bx	lr

00105938 <__aeabi_uidiv>:
  105938:	e2512001 	subs	r2, r1, #1
  10593c:	012fff1e 	bxeq	lr
  105940:	3a000074 	bcc	105b18 <__aeabi_uidiv+0x1e0>
  105944:	e1500001 	cmp	r0, r1
  105948:	9a00006b 	bls	105afc <__aeabi_uidiv+0x1c4>
  10594c:	e1110002 	tst	r1, r2
  105950:	0a00006c 	beq	105b08 <__aeabi_uidiv+0x1d0>
  105954:	e16f3f10 	clz	r3, r0
  105958:	e16f2f11 	clz	r2, r1
  10595c:	e0423003 	sub	r3, r2, r3
  105960:	e273301f 	rsbs	r3, r3, #31
  105964:	10833083 	addne	r3, r3, r3, lsl #1
  105968:	e3a02000 	mov	r2, #0
  10596c:	108ff103 	addne	pc, pc, r3, lsl #2
  105970:	e320f000 	nop	{0}
  105974:	e1500f81 	cmp	r0, r1, lsl #31
  105978:	e0a22002 	adc	r2, r2, r2
  10597c:	20400f81 	subcs	r0, r0, r1, lsl #31
  105980:	e1500f01 	cmp	r0, r1, lsl #30
  105984:	e0a22002 	adc	r2, r2, r2
  105988:	20400f01 	subcs	r0, r0, r1, lsl #30
  10598c:	e1500e81 	cmp	r0, r1, lsl #29
  105990:	e0a22002 	adc	r2, r2, r2
  105994:	20400e81 	subcs	r0, r0, r1, lsl #29
  105998:	e1500e01 	cmp	r0, r1, lsl #28
  10599c:	e0a22002 	adc	r2, r2, r2
  1059a0:	20400e01 	subcs	r0, r0, r1, lsl #28
  1059a4:	e1500d81 	cmp	r0, r1, lsl #27
  1059a8:	e0a22002 	adc	r2, r2, r2
  1059ac:	20400d81 	subcs	r0, r0, r1, lsl #27
  1059b0:	e1500d01 	cmp	r0, r1, lsl #26
  1059b4:	e0a22002 	adc	r2, r2, r2
  1059b8:	20400d01 	subcs	r0, r0, r1, lsl #26
  1059bc:	e1500c81 	cmp	r0, r1, lsl #25
  1059c0:	e0a22002 	adc	r2, r2, r2
  1059c4:	20400c81 	subcs	r0, r0, r1, lsl #25
  1059c8:	e1500c01 	cmp	r0, r1, lsl #24
  1059cc:	e0a22002 	adc	r2, r2, r2
  1059d0:	20400c01 	subcs	r0, r0, r1, lsl #24
  1059d4:	e1500b81 	cmp	r0, r1, lsl #23
  1059d8:	e0a22002 	adc	r2, r2, r2
  1059dc:	20400b81 	subcs	r0, r0, r1, lsl #23
  1059e0:	e1500b01 	cmp	r0, r1, lsl #22
  1059e4:	e0a22002 	adc	r2, r2, r2
  1059e8:	20400b01 	subcs	r0, r0, r1, lsl #22
  1059ec:	e1500a81 	cmp	r0, r1, lsl #21
  1059f0:	e0a22002 	adc	r2, r2, r2
  1059f4:	20400a81 	subcs	r0, r0, r1, lsl #21
  1059f8:	e1500a01 	cmp	r0, r1, lsl #20
  1059fc:	e0a22002 	adc	r2, r2, r2
  105a00:	20400a01 	subcs	r0, r0, r1, lsl #20
  105a04:	e1500981 	cmp	r0, r1, lsl #19
  105a08:	e0a22002 	adc	r2, r2, r2
  105a0c:	20400981 	subcs	r0, r0, r1, lsl #19
  105a10:	e1500901 	cmp	r0, r1, lsl #18
  105a14:	e0a22002 	adc	r2, r2, r2
  105a18:	20400901 	subcs	r0, r0, r1, lsl #18
  105a1c:	e1500881 	cmp	r0, r1, lsl #17
  105a20:	e0a22002 	adc	r2, r2, r2
  105a24:	20400881 	subcs	r0, r0, r1, lsl #17
  105a28:	e1500801 	cmp	r0, r1, lsl #16
  105a2c:	e0a22002 	adc	r2, r2, r2
  105a30:	20400801 	subcs	r0, r0, r1, lsl #16
  105a34:	e1500781 	cmp	r0, r1, lsl #15
  105a38:	e0a22002 	adc	r2, r2, r2
  105a3c:	20400781 	subcs	r0, r0, r1, lsl #15
  105a40:	e1500701 	cmp	r0, r1, lsl #14
  105a44:	e0a22002 	adc	r2, r2, r2
  105a48:	20400701 	subcs	r0, r0, r1, lsl #14
  105a4c:	e1500681 	cmp	r0, r1, lsl #13
  105a50:	e0a22002 	adc	r2, r2, r2
  105a54:	20400681 	subcs	r0, r0, r1, lsl #13
  105a58:	e1500601 	cmp	r0, r1, lsl #12
  105a5c:	e0a22002 	adc	r2, r2, r2
  105a60:	20400601 	subcs	r0, r0, r1, lsl #12
  105a64:	e1500581 	cmp	r0, r1, lsl #11
  105a68:	e0a22002 	adc	r2, r2, r2
  105a6c:	20400581 	subcs	r0, r0, r1, lsl #11
  105a70:	e1500501 	cmp	r0, r1, lsl #10
  105a74:	e0a22002 	adc	r2, r2, r2
  105a78:	20400501 	subcs	r0, r0, r1, lsl #10
  105a7c:	e1500481 	cmp	r0, r1, lsl #9
  105a80:	e0a22002 	adc	r2, r2, r2
  105a84:	20400481 	subcs	r0, r0, r1, lsl #9
  105a88:	e1500401 	cmp	r0, r1, lsl #8
  105a8c:	e0a22002 	adc	r2, r2, r2
  105a90:	20400401 	subcs	r0, r0, r1, lsl #8
  105a94:	e1500381 	cmp	r0, r1, lsl #7
  105a98:	e0a22002 	adc	r2, r2, r2
  105a9c:	20400381 	subcs	r0, r0, r1, lsl #7
  105aa0:	e1500301 	cmp	r0, r1, lsl #6
  105aa4:	e0a22002 	adc	r2, r2, r2
  105aa8:	20400301 	subcs	r0, r0, r1, lsl #6
  105aac:	e1500281 	cmp	r0, r1, lsl #5
  105ab0:	e0a22002 	adc	r2, r2, r2
  105ab4:	20400281 	subcs	r0, r0, r1, lsl #5
  105ab8:	e1500201 	cmp	r0, r1, lsl #4
  105abc:	e0a22002 	adc	r2, r2, r2
  105ac0:	20400201 	subcs	r0, r0, r1, lsl #4
  105ac4:	e1500181 	cmp	r0, r1, lsl #3
  105ac8:	e0a22002 	adc	r2, r2, r2
  105acc:	20400181 	subcs	r0, r0, r1, lsl #3
  105ad0:	e1500101 	cmp	r0, r1, lsl #2
  105ad4:	e0a22002 	adc	r2, r2, r2
  105ad8:	20400101 	subcs	r0, r0, r1, lsl #2
  105adc:	e1500081 	cmp	r0, r1, lsl #1
  105ae0:	e0a22002 	adc	r2, r2, r2
  105ae4:	20400081 	subcs	r0, r0, r1, lsl #1
  105ae8:	e1500001 	cmp	r0, r1
  105aec:	e0a22002 	adc	r2, r2, r2
  105af0:	20400001 	subcs	r0, r0, r1
  105af4:	e1a00002 	mov	r0, r2
  105af8:	e12fff1e 	bx	lr
  105afc:	03a00001 	moveq	r0, #1
  105b00:	13a00000 	movne	r0, #0
  105b04:	e12fff1e 	bx	lr
  105b08:	e16f2f11 	clz	r2, r1
  105b0c:	e262201f 	rsb	r2, r2, #31
  105b10:	e1a00230 	lsr	r0, r0, r2
  105b14:	e12fff1e 	bx	lr
  105b18:	e3500000 	cmp	r0, #0
  105b1c:	13e00000 	mvnne	r0, #0
  105b20:	ea000097 	b	105d84 <__aeabi_idiv0>

00105b24 <__aeabi_uidivmod>:
  105b24:	e3510000 	cmp	r1, #0
  105b28:	0afffffa 	beq	105b18 <__aeabi_uidiv+0x1e0>
  105b2c:	e92d4003 	push	{r0, r1, lr}
  105b30:	ebffff80 	bl	105938 <__aeabi_uidiv>
  105b34:	e8bd4006 	pop	{r1, r2, lr}
  105b38:	e0030092 	mul	r3, r2, r0
  105b3c:	e0411003 	sub	r1, r1, r3
  105b40:	e12fff1e 	bx	lr

00105b44 <__aeabi_idiv>:
  105b44:	e3510000 	cmp	r1, #0
  105b48:	0a000081 	beq	105d54 <.divsi3_skip_div0_test+0x208>

00105b4c <.divsi3_skip_div0_test>:
  105b4c:	e020c001 	eor	ip, r0, r1
  105b50:	42611000 	rsbmi	r1, r1, #0
  105b54:	e2512001 	subs	r2, r1, #1
  105b58:	0a000070 	beq	105d20 <.divsi3_skip_div0_test+0x1d4>
  105b5c:	e1b03000 	movs	r3, r0
  105b60:	42603000 	rsbmi	r3, r0, #0
  105b64:	e1530001 	cmp	r3, r1
  105b68:	9a00006f 	bls	105d2c <.divsi3_skip_div0_test+0x1e0>
  105b6c:	e1110002 	tst	r1, r2
  105b70:	0a000071 	beq	105d3c <.divsi3_skip_div0_test+0x1f0>
  105b74:	e16f2f13 	clz	r2, r3
  105b78:	e16f0f11 	clz	r0, r1
  105b7c:	e0402002 	sub	r2, r0, r2
  105b80:	e272201f 	rsbs	r2, r2, #31
  105b84:	10822082 	addne	r2, r2, r2, lsl #1
  105b88:	e3a00000 	mov	r0, #0
  105b8c:	108ff102 	addne	pc, pc, r2, lsl #2
  105b90:	e320f000 	nop	{0}
  105b94:	e1530f81 	cmp	r3, r1, lsl #31
  105b98:	e0a00000 	adc	r0, r0, r0
  105b9c:	20433f81 	subcs	r3, r3, r1, lsl #31
  105ba0:	e1530f01 	cmp	r3, r1, lsl #30
  105ba4:	e0a00000 	adc	r0, r0, r0
  105ba8:	20433f01 	subcs	r3, r3, r1, lsl #30
  105bac:	e1530e81 	cmp	r3, r1, lsl #29
  105bb0:	e0a00000 	adc	r0, r0, r0
  105bb4:	20433e81 	subcs	r3, r3, r1, lsl #29
  105bb8:	e1530e01 	cmp	r3, r1, lsl #28
  105bbc:	e0a00000 	adc	r0, r0, r0
  105bc0:	20433e01 	subcs	r3, r3, r1, lsl #28
  105bc4:	e1530d81 	cmp	r3, r1, lsl #27
  105bc8:	e0a00000 	adc	r0, r0, r0
  105bcc:	20433d81 	subcs	r3, r3, r1, lsl #27
  105bd0:	e1530d01 	cmp	r3, r1, lsl #26
  105bd4:	e0a00000 	adc	r0, r0, r0
  105bd8:	20433d01 	subcs	r3, r3, r1, lsl #26
  105bdc:	e1530c81 	cmp	r3, r1, lsl #25
  105be0:	e0a00000 	adc	r0, r0, r0
  105be4:	20433c81 	subcs	r3, r3, r1, lsl #25
  105be8:	e1530c01 	cmp	r3, r1, lsl #24
  105bec:	e0a00000 	adc	r0, r0, r0
  105bf0:	20433c01 	subcs	r3, r3, r1, lsl #24
  105bf4:	e1530b81 	cmp	r3, r1, lsl #23
  105bf8:	e0a00000 	adc	r0, r0, r0
  105bfc:	20433b81 	subcs	r3, r3, r1, lsl #23
  105c00:	e1530b01 	cmp	r3, r1, lsl #22
  105c04:	e0a00000 	adc	r0, r0, r0
  105c08:	20433b01 	subcs	r3, r3, r1, lsl #22
  105c0c:	e1530a81 	cmp	r3, r1, lsl #21
  105c10:	e0a00000 	adc	r0, r0, r0
  105c14:	20433a81 	subcs	r3, r3, r1, lsl #21
  105c18:	e1530a01 	cmp	r3, r1, lsl #20
  105c1c:	e0a00000 	adc	r0, r0, r0
  105c20:	20433a01 	subcs	r3, r3, r1, lsl #20
  105c24:	e1530981 	cmp	r3, r1, lsl #19
  105c28:	e0a00000 	adc	r0, r0, r0
  105c2c:	20433981 	subcs	r3, r3, r1, lsl #19
  105c30:	e1530901 	cmp	r3, r1, lsl #18
  105c34:	e0a00000 	adc	r0, r0, r0
  105c38:	20433901 	subcs	r3, r3, r1, lsl #18
  105c3c:	e1530881 	cmp	r3, r1, lsl #17
  105c40:	e0a00000 	adc	r0, r0, r0
  105c44:	20433881 	subcs	r3, r3, r1, lsl #17
  105c48:	e1530801 	cmp	r3, r1, lsl #16
  105c4c:	e0a00000 	adc	r0, r0, r0
  105c50:	20433801 	subcs	r3, r3, r1, lsl #16
  105c54:	e1530781 	cmp	r3, r1, lsl #15
  105c58:	e0a00000 	adc	r0, r0, r0
  105c5c:	20433781 	subcs	r3, r3, r1, lsl #15
  105c60:	e1530701 	cmp	r3, r1, lsl #14
  105c64:	e0a00000 	adc	r0, r0, r0
  105c68:	20433701 	subcs	r3, r3, r1, lsl #14
  105c6c:	e1530681 	cmp	r3, r1, lsl #13
  105c70:	e0a00000 	adc	r0, r0, r0
  105c74:	20433681 	subcs	r3, r3, r1, lsl #13
  105c78:	e1530601 	cmp	r3, r1, lsl #12
  105c7c:	e0a00000 	adc	r0, r0, r0
  105c80:	20433601 	subcs	r3, r3, r1, lsl #12
  105c84:	e1530581 	cmp	r3, r1, lsl #11
  105c88:	e0a00000 	adc	r0, r0, r0
  105c8c:	20433581 	subcs	r3, r3, r1, lsl #11
  105c90:	e1530501 	cmp	r3, r1, lsl #10
  105c94:	e0a00000 	adc	r0, r0, r0
  105c98:	20433501 	subcs	r3, r3, r1, lsl #10
  105c9c:	e1530481 	cmp	r3, r1, lsl #9
  105ca0:	e0a00000 	adc	r0, r0, r0
  105ca4:	20433481 	subcs	r3, r3, r1, lsl #9
  105ca8:	e1530401 	cmp	r3, r1, lsl #8
  105cac:	e0a00000 	adc	r0, r0, r0
  105cb0:	20433401 	subcs	r3, r3, r1, lsl #8
  105cb4:	e1530381 	cmp	r3, r1, lsl #7
  105cb8:	e0a00000 	adc	r0, r0, r0
  105cbc:	20433381 	subcs	r3, r3, r1, lsl #7
  105cc0:	e1530301 	cmp	r3, r1, lsl #6
  105cc4:	e0a00000 	adc	r0, r0, r0
  105cc8:	20433301 	subcs	r3, r3, r1, lsl #6
  105ccc:	e1530281 	cmp	r3, r1, lsl #5
  105cd0:	e0a00000 	adc	r0, r0, r0
  105cd4:	20433281 	subcs	r3, r3, r1, lsl #5
  105cd8:	e1530201 	cmp	r3, r1, lsl #4
  105cdc:	e0a00000 	adc	r0, r0, r0
  105ce0:	20433201 	subcs	r3, r3, r1, lsl #4
  105ce4:	e1530181 	cmp	r3, r1, lsl #3
  105ce8:	e0a00000 	adc	r0, r0, r0
  105cec:	20433181 	subcs	r3, r3, r1, lsl #3
  105cf0:	e1530101 	cmp	r3, r1, lsl #2
  105cf4:	e0a00000 	adc	r0, r0, r0
  105cf8:	20433101 	subcs	r3, r3, r1, lsl #2
  105cfc:	e1530081 	cmp	r3, r1, lsl #1
  105d00:	e0a00000 	adc	r0, r0, r0
  105d04:	20433081 	subcs	r3, r3, r1, lsl #1
  105d08:	e1530001 	cmp	r3, r1
  105d0c:	e0a00000 	adc	r0, r0, r0
  105d10:	20433001 	subcs	r3, r3, r1
  105d14:	e35c0000 	cmp	ip, #0
  105d18:	42600000 	rsbmi	r0, r0, #0
  105d1c:	e12fff1e 	bx	lr
  105d20:	e13c0000 	teq	ip, r0
  105d24:	42600000 	rsbmi	r0, r0, #0
  105d28:	e12fff1e 	bx	lr
  105d2c:	33a00000 	movcc	r0, #0
  105d30:	01a00fcc 	asreq	r0, ip, #31
  105d34:	03800001 	orreq	r0, r0, #1
  105d38:	e12fff1e 	bx	lr
  105d3c:	e16f2f11 	clz	r2, r1
  105d40:	e262201f 	rsb	r2, r2, #31
  105d44:	e35c0000 	cmp	ip, #0
  105d48:	e1a00233 	lsr	r0, r3, r2
  105d4c:	42600000 	rsbmi	r0, r0, #0
  105d50:	e12fff1e 	bx	lr
  105d54:	e3500000 	cmp	r0, #0
  105d58:	c3e00102 	mvngt	r0, #-2147483648	; 0x80000000
  105d5c:	b3a00102 	movlt	r0, #-2147483648	; 0x80000000
  105d60:	ea000007 	b	105d84 <__aeabi_idiv0>

00105d64 <__aeabi_idivmod>:
  105d64:	e3510000 	cmp	r1, #0
  105d68:	0afffff9 	beq	105d54 <.divsi3_skip_div0_test+0x208>
  105d6c:	e92d4003 	push	{r0, r1, lr}
  105d70:	ebffff75 	bl	105b4c <.divsi3_skip_div0_test>
  105d74:	e8bd4006 	pop	{r1, r2, lr}
  105d78:	e0030092 	mul	r3, r2, r0
  105d7c:	e0411003 	sub	r1, r1, r3
  105d80:	e12fff1e 	bx	lr

00105d84 <__aeabi_idiv0>:
  105d84:	e12fff1e 	bx	lr

00105d88 <exit>:
  105d88:	e92d4008 	push	{r3, lr}
  105d8c:	e3a01000 	mov	r1, #0
  105d90:	e1a04000 	mov	r4, r0
  105d94:	eb000037 	bl	105e78 <__call_exitprocs>
  105d98:	e30639ac 	movw	r3, #27052	; 0x69ac
  105d9c:	e3403010 	movt	r3, #16
  105da0:	e5930000 	ldr	r0, [r3]
  105da4:	e590303c 	ldr	r3, [r0, #60]	; 0x3c
  105da8:	e3530000 	cmp	r3, #0
  105dac:	0a000000 	beq	105db4 <exit+0x2c>
  105db0:	e12fff33 	blx	r3
  105db4:	e1a00004 	mov	r0, r4
  105db8:	eb0000c9 	bl	1060e4 <_exit>

00105dbc <__libc_fini_array>:
  105dbc:	e92d4038 	push	{r3, r4, r5, lr}
  105dc0:	e30c400c 	movw	r4, #49164	; 0xc00c
  105dc4:	e30c5008 	movw	r5, #49160	; 0xc008
  105dc8:	e3404010 	movt	r4, #16
  105dcc:	e3405010 	movt	r5, #16
  105dd0:	e0654004 	rsb	r4, r5, r4
  105dd4:	e1b04144 	asrs	r4, r4, #2
  105dd8:	10855104 	addne	r5, r5, r4, lsl #2
  105ddc:	0a000004 	beq	105df4 <__libc_fini_array+0x38>
  105de0:	e2444001 	sub	r4, r4, #1
  105de4:	e5353004 	ldr	r3, [r5, #-4]!
  105de8:	e12fff33 	blx	r3
  105dec:	e3540000 	cmp	r4, #0
  105df0:	1afffffa 	bne	105de0 <__libc_fini_array+0x24>
  105df4:	e8bd4038 	pop	{r3, r4, r5, lr}
  105df8:	ea0000c7 	b	10611c <_fini>

00105dfc <__libc_init_array>:
  105dfc:	e92d4070 	push	{r4, r5, r6, lr}
  105e00:	e30c6000 	movw	r6, #49152	; 0xc000
  105e04:	e30c5000 	movw	r5, #49152	; 0xc000
  105e08:	e3406010 	movt	r6, #16
  105e0c:	e3405010 	movt	r5, #16
  105e10:	e0656006 	rsb	r6, r5, r6
  105e14:	e1b06146 	asrs	r6, r6, #2
  105e18:	12455004 	subne	r5, r5, #4
  105e1c:	13a04000 	movne	r4, #0
  105e20:	0a000004 	beq	105e38 <__libc_init_array+0x3c>
  105e24:	e2844001 	add	r4, r4, #1
  105e28:	e5b53004 	ldr	r3, [r5, #4]!
  105e2c:	e12fff33 	blx	r3
  105e30:	e1560004 	cmp	r6, r4
  105e34:	1afffffa 	bne	105e24 <__libc_init_array+0x28>
  105e38:	e30c6008 	movw	r6, #49160	; 0xc008
  105e3c:	e30c5000 	movw	r5, #49152	; 0xc000
  105e40:	e3406010 	movt	r6, #16
  105e44:	e3405010 	movt	r5, #16
  105e48:	e0656006 	rsb	r6, r5, r6
  105e4c:	eb0000ac 	bl	106104 <_init>
  105e50:	e1b06146 	asrs	r6, r6, #2
  105e54:	08bd8070 	popeq	{r4, r5, r6, pc}
  105e58:	e2455004 	sub	r5, r5, #4
  105e5c:	e3a04000 	mov	r4, #0
  105e60:	e2844001 	add	r4, r4, #1
  105e64:	e5b53004 	ldr	r3, [r5, #4]!
  105e68:	e12fff33 	blx	r3
  105e6c:	e1560004 	cmp	r6, r4
  105e70:	1afffffa 	bne	105e60 <__libc_init_array+0x64>
  105e74:	e8bd8070 	pop	{r4, r5, r6, pc}

00105e78 <__call_exitprocs>:
  105e78:	e30639ac 	movw	r3, #27052	; 0x69ac
  105e7c:	e3403010 	movt	r3, #16
  105e80:	e92d4ff0 	push	{r4, r5, r6, r7, r8, r9, sl, fp, lr}
  105e84:	e24dd014 	sub	sp, sp, #20
  105e88:	e5933000 	ldr	r3, [r3]
  105e8c:	e1a07001 	mov	r7, r1
  105e90:	e3a09001 	mov	r9, #1
  105e94:	e3002000 	movw	r2, #0
  105e98:	e58d0008 	str	r0, [sp, #8]
  105e9c:	e3402000 	movt	r2, #0
  105ea0:	e58d3004 	str	r3, [sp, #4]
  105ea4:	e2833f52 	add	r3, r3, #328	; 0x148
  105ea8:	e58d2000 	str	r2, [sp]
  105eac:	e58d300c 	str	r3, [sp, #12]
  105eb0:	e59d2004 	ldr	r2, [sp, #4]
  105eb4:	e5928148 	ldr	r8, [r2, #328]	; 0x148
  105eb8:	e3580000 	cmp	r8, #0
  105ebc:	0a000035 	beq	105f98 <__call_exitprocs+0x120>
  105ec0:	e59db00c 	ldr	fp, [sp, #12]
  105ec4:	e5985004 	ldr	r5, [r8, #4]
  105ec8:	e2554001 	subs	r4, r5, #1
  105ecc:	52856002 	addpl	r6, r5, #2
  105ed0:	50885105 	addpl	r5, r8, r5, lsl #2
  105ed4:	52855f42 	addpl	r5, r5, #264	; 0x108
  105ed8:	50886106 	addpl	r6, r8, r6, lsl #2
  105edc:	5a000008 	bpl	105f04 <__call_exitprocs+0x8c>
  105ee0:	ea000029 	b	105f8c <__call_exitprocs+0x114>
  105ee4:	e5153004 	ldr	r3, [r5, #-4]
  105ee8:	e1530007 	cmp	r3, r7
  105eec:	0a000006 	beq	105f0c <__call_exitprocs+0x94>
  105ef0:	e2444001 	sub	r4, r4, #1
  105ef4:	e2455004 	sub	r5, r5, #4
  105ef8:	e3740001 	cmn	r4, #1
  105efc:	e2466004 	sub	r6, r6, #4
  105f00:	0a000021 	beq	105f8c <__call_exitprocs+0x114>
  105f04:	e3570000 	cmp	r7, #0
  105f08:	1afffff5 	bne	105ee4 <__call_exitprocs+0x6c>
  105f0c:	e5982004 	ldr	r2, [r8, #4]
  105f10:	e5163004 	ldr	r3, [r6, #-4]
  105f14:	e2422001 	sub	r2, r2, #1
  105f18:	e1520004 	cmp	r2, r4
  105f1c:	05884004 	streq	r4, [r8, #4]
  105f20:	13a02000 	movne	r2, #0
  105f24:	15062004 	strne	r2, [r6, #-4]
  105f28:	e3530000 	cmp	r3, #0
  105f2c:	0affffef 	beq	105ef0 <__call_exitprocs+0x78>
  105f30:	e5981188 	ldr	r1, [r8, #392]	; 0x188
  105f34:	e1a02419 	lsl	r2, r9, r4
  105f38:	e598a004 	ldr	sl, [r8, #4]
  105f3c:	e1120001 	tst	r2, r1
  105f40:	0a00000c 	beq	105f78 <__call_exitprocs+0x100>
  105f44:	e598118c 	ldr	r1, [r8, #396]	; 0x18c
  105f48:	e1120001 	tst	r2, r1
  105f4c:	1a00000b 	bne	105f80 <__call_exitprocs+0x108>
  105f50:	e59d0008 	ldr	r0, [sp, #8]
  105f54:	e5151084 	ldr	r1, [r5, #-132]	; 0xffffff7c
  105f58:	e12fff33 	blx	r3
  105f5c:	e5983004 	ldr	r3, [r8, #4]
  105f60:	e153000a 	cmp	r3, sl
  105f64:	1affffd1 	bne	105eb0 <__call_exitprocs+0x38>
  105f68:	e59b3000 	ldr	r3, [fp]
  105f6c:	e1530008 	cmp	r3, r8
  105f70:	0affffde 	beq	105ef0 <__call_exitprocs+0x78>
  105f74:	eaffffcd 	b	105eb0 <__call_exitprocs+0x38>
  105f78:	e12fff33 	blx	r3
  105f7c:	eafffff6 	b	105f5c <__call_exitprocs+0xe4>
  105f80:	e5150084 	ldr	r0, [r5, #-132]	; 0xffffff7c
  105f84:	e12fff33 	blx	r3
  105f88:	eafffff3 	b	105f5c <__call_exitprocs+0xe4>
  105f8c:	e59d3000 	ldr	r3, [sp]
  105f90:	e3530000 	cmp	r3, #0
  105f94:	1a000001 	bne	105fa0 <__call_exitprocs+0x128>
  105f98:	e28dd014 	add	sp, sp, #20
  105f9c:	e8bd8ff0 	pop	{r4, r5, r6, r7, r8, r9, sl, fp, pc}
  105fa0:	e5983004 	ldr	r3, [r8, #4]
  105fa4:	e3530000 	cmp	r3, #0
  105fa8:	e5983000 	ldr	r3, [r8]
  105fac:	1a000008 	bne	105fd4 <__call_exitprocs+0x15c>
  105fb0:	e3530000 	cmp	r3, #0
  105fb4:	0a000006 	beq	105fd4 <__call_exitprocs+0x15c>
  105fb8:	e1a00008 	mov	r0, r8
  105fbc:	e58b3000 	str	r3, [fp]
  105fc0:	e320f000 	nop	{0}
  105fc4:	e59b8000 	ldr	r8, [fp]
  105fc8:	e3580000 	cmp	r8, #0
  105fcc:	1affffbc 	bne	105ec4 <__call_exitprocs+0x4c>
  105fd0:	eafffff0 	b	105f98 <__call_exitprocs+0x120>
  105fd4:	e1a0b008 	mov	fp, r8
  105fd8:	e1a08003 	mov	r8, r3
  105fdc:	eafffff9 	b	105fc8 <__call_exitprocs+0x150>

00105fe0 <atexit>:
  105fe0:	e1a01000 	mov	r1, r0
  105fe4:	e3a00000 	mov	r0, #0
  105fe8:	e1a02000 	mov	r2, r0
  105fec:	e1a03000 	mov	r3, r0
  105ff0:	eaffffff 	b	105ff4 <__register_exitproc>

00105ff4 <__register_exitproc>:
  105ff4:	e306c9ac 	movw	ip, #27052	; 0x69ac
  105ff8:	e340c010 	movt	ip, #16
  105ffc:	e92d40f0 	push	{r4, r5, r6, r7, lr}
  106000:	e1a06000 	mov	r6, r0
  106004:	e59c5000 	ldr	r5, [ip]
  106008:	e24dd014 	sub	sp, sp, #20
  10600c:	e595c148 	ldr	ip, [r5, #328]	; 0x148
  106010:	e35c0000 	cmp	ip, #0
  106014:	0285cf53 	addeq	ip, r5, #332	; 0x14c
  106018:	0585c148 	streq	ip, [r5, #328]	; 0x148
  10601c:	e59c4004 	ldr	r4, [ip, #4]
  106020:	e354001f 	cmp	r4, #31
  106024:	da000018 	ble	10608c <__register_exitproc+0x98>
  106028:	e300c000 	movw	ip, #0
  10602c:	e340c000 	movt	ip, #0
  106030:	e35c0000 	cmp	ip, #0
  106034:	1a000002 	bne	106044 <__register_exitproc+0x50>
  106038:	e3e00000 	mvn	r0, #0
  10603c:	e28dd014 	add	sp, sp, #20
  106040:	e8bd80f0 	pop	{r4, r5, r6, r7, pc}
  106044:	e3a00e19 	mov	r0, #400	; 0x190
  106048:	e58d100c 	str	r1, [sp, #12]
  10604c:	e58d2008 	str	r2, [sp, #8]
  106050:	e58d3004 	str	r3, [sp, #4]
  106054:	e320f000 	nop	{0}
  106058:	e59d100c 	ldr	r1, [sp, #12]
  10605c:	e59d2008 	ldr	r2, [sp, #8]
  106060:	e59d3004 	ldr	r3, [sp, #4]
  106064:	e250c000 	subs	ip, r0, #0
  106068:	0afffff2 	beq	106038 <__register_exitproc+0x44>
  10606c:	e5957148 	ldr	r7, [r5, #328]	; 0x148
  106070:	e3a00000 	mov	r0, #0
  106074:	e1a04000 	mov	r4, r0
  106078:	e58c0004 	str	r0, [ip, #4]
  10607c:	e58c7000 	str	r7, [ip]
  106080:	e585c148 	str	ip, [r5, #328]	; 0x148
  106084:	e58c0188 	str	r0, [ip, #392]	; 0x188
  106088:	e58c018c 	str	r0, [ip, #396]	; 0x18c
  10608c:	e3560000 	cmp	r6, #0
  106090:	1a000006 	bne	1060b0 <__register_exitproc+0xbc>
  106094:	e2843002 	add	r3, r4, #2
  106098:	e3a00000 	mov	r0, #0
  10609c:	e2844001 	add	r4, r4, #1
  1060a0:	e58c4004 	str	r4, [ip, #4]
  1060a4:	e78c1103 	str	r1, [ip, r3, lsl #2]
  1060a8:	e28dd014 	add	sp, sp, #20
  1060ac:	e8bd80f0 	pop	{r4, r5, r6, r7, pc}
  1060b0:	e08c0104 	add	r0, ip, r4, lsl #2
  1060b4:	e3a05001 	mov	r5, #1
  1060b8:	e3560002 	cmp	r6, #2
  1060bc:	e5802088 	str	r2, [r0, #136]	; 0x88
  1060c0:	e1a02415 	lsl	r2, r5, r4
  1060c4:	e59c5188 	ldr	r5, [ip, #392]	; 0x188
  1060c8:	e1855002 	orr	r5, r5, r2
  1060cc:	e58c5188 	str	r5, [ip, #392]	; 0x188
  1060d0:	e5803108 	str	r3, [r0, #264]	; 0x108
  1060d4:	059c318c 	ldreq	r3, [ip, #396]	; 0x18c
  1060d8:	01832002 	orreq	r2, r3, r2
  1060dc:	058c218c 	streq	r2, [ip, #396]	; 0x18c
  1060e0:	eaffffeb 	b	106094 <__register_exitproc+0xa0>

001060e4 <_exit>:
  1060e4:	eafffffe 	b	1060e4 <_exit>

001060e8 <register_fini>:
  1060e8:	e3003000 	movw	r3, #0
  1060ec:	e3403000 	movt	r3, #0
  1060f0:	e3530000 	cmp	r3, #0
  1060f4:	012fff1e 	bxeq	lr
  1060f8:	e3050dbc 	movw	r0, #23996	; 0x5dbc
  1060fc:	e3400010 	movt	r0, #16
  106100:	eaffffb6 	b	105fe0 <atexit>

Disassembly of section .init:

00106104 <_init>:
  106104:	e1a0c00d 	mov	ip, sp
  106108:	e92ddff8 	push	{r3, r4, r5, r6, r7, r8, r9, sl, fp, ip, lr, pc}
  10610c:	e24cb004 	sub	fp, ip, #4
  106110:	e24bd028 	sub	sp, fp, #40	; 0x28
  106114:	e89d6ff0 	ldm	sp, {r4, r5, r6, r7, r8, r9, sl, fp, sp, lr}
  106118:	e12fff1e 	bx	lr

Disassembly of section .fini:

0010611c <_fini>:
  10611c:	e1a0c00d 	mov	ip, sp
  106120:	e92ddff8 	push	{r3, r4, r5, r6, r7, r8, r9, sl, fp, ip, lr, pc}
  106124:	e24cb004 	sub	fp, ip, #4
  106128:	e24bd028 	sub	sp, fp, #40	; 0x28
  10612c:	e89d6ff0 	ldm	sp, {r4, r5, r6, r7, r8, r9, sl, fp, sp, lr}
  106130:	e12fff1e 	bx	lr

Disassembly of section .mmu_tbl:

00108000 <MMUTable>:
  108000:	00015de6 	andeq	r5, r1, r6, ror #27
  108004:	00115de6 	andseq	r5, r1, r6, ror #27
  108008:	00215de6 	eoreq	r5, r1, r6, ror #27
  10800c:	00315de6 	eorseq	r5, r1, r6, ror #27
  108010:	00415de6 	subeq	r5, r1, r6, ror #27
  108014:	00515de6 	subseq	r5, r1, r6, ror #27
  108018:	00615de6 	rsbeq	r5, r1, r6, ror #27
  10801c:	00715de6 	rsbseq	r5, r1, r6, ror #27
  108020:	00815de6 	addeq	r5, r1, r6, ror #27
  108024:	00915de6 	addseq	r5, r1, r6, ror #27
  108028:	00a15de6 	adceq	r5, r1, r6, ror #27
  10802c:	00b15de6 	adcseq	r5, r1, r6, ror #27
  108030:	00c15de6 	sbceq	r5, r1, r6, ror #27
  108034:	00d15de6 	sbcseq	r5, r1, r6, ror #27
  108038:	00e15de6 	rsceq	r5, r1, r6, ror #27
  10803c:	00f15de6 	rscseq	r5, r1, r6, ror #27
  108040:	01015de6 	smlatteq	r1, r6, sp, r5
  108044:	01115de6 	tsteq	r1, r6, ror #27
  108048:	01215de6 	teqeq	r1, r6, ror #27
  10804c:	01315de6 	teqeq	r1, r6, ror #27
  108050:	01415de6 	smlaltteq	r5, r1, r6, sp
  108054:	01515de6 	cmpeq	r1, r6, ror #27
  108058:	01615de6 	cmneq	r1, r6, ror #27
  10805c:	01715de6 	cmneq	r1, r6, ror #27
  108060:	01815de6 	orreq	r5, r1, r6, ror #27
  108064:	01915de6 	orrseq	r5, r1, r6, ror #27
  108068:	01a15de6 			; <UNDEFINED> instruction: 0x01a15de6
  10806c:	01b15de6 			; <UNDEFINED> instruction: 0x01b15de6
  108070:	01c15de6 	biceq	r5, r1, r6, ror #27
  108074:	01d15de6 	bicseq	r5, r1, r6, ror #27
  108078:	01e15de6 	mvneq	r5, r6, ror #27
  10807c:	01f15de6 	mvnseq	r5, r6, ror #27
  108080:	02015de6 	andeq	r5, r1, #14720	; 0x3980
  108084:	02115de6 	andseq	r5, r1, #14720	; 0x3980
  108088:	02215de6 	eoreq	r5, r1, #14720	; 0x3980
  10808c:	02315de6 	eorseq	r5, r1, #14720	; 0x3980
  108090:	02415de6 	subeq	r5, r1, #14720	; 0x3980
  108094:	02515de6 	subseq	r5, r1, #14720	; 0x3980
  108098:	02615de6 	rsbeq	r5, r1, #14720	; 0x3980
  10809c:	02715de6 	rsbseq	r5, r1, #14720	; 0x3980
  1080a0:	02815de6 	addeq	r5, r1, #14720	; 0x3980
  1080a4:	02915de6 	addseq	r5, r1, #14720	; 0x3980
  1080a8:	02a15de6 	adceq	r5, r1, #14720	; 0x3980
  1080ac:	02b15de6 	adcseq	r5, r1, #14720	; 0x3980
  1080b0:	02c15de6 	sbceq	r5, r1, #14720	; 0x3980
  1080b4:	02d15de6 	sbcseq	r5, r1, #14720	; 0x3980
  1080b8:	02e15de6 	rsceq	r5, r1, #14720	; 0x3980
  1080bc:	02f15de6 	rscseq	r5, r1, #14720	; 0x3980
  1080c0:	03015de6 	movweq	r5, #7654	; 0x1de6
  1080c4:	03115de6 	tsteq	r1, #14720	; 0x3980
  1080c8:	03215de6 	teqeq	r1, #14720	; 0x3980
  1080cc:	03315de6 	teqeq	r1, #14720	; 0x3980
  1080d0:	03415de6 	movteq	r5, #7654	; 0x1de6
  1080d4:	03515de6 	cmpeq	r1, #14720	; 0x3980
  1080d8:	03615de6 	cmneq	r1, #14720	; 0x3980
  1080dc:	03715de6 	cmneq	r1, #14720	; 0x3980
  1080e0:	03815de6 	orreq	r5, r1, #14720	; 0x3980
  1080e4:	03915de6 	orrseq	r5, r1, #14720	; 0x3980
  1080e8:	03a15de6 			; <UNDEFINED> instruction: 0x03a15de6
  1080ec:	03b15de6 			; <UNDEFINED> instruction: 0x03b15de6
  1080f0:	03c15de6 	biceq	r5, r1, #14720	; 0x3980
  1080f4:	03d15de6 	bicseq	r5, r1, #14720	; 0x3980
  1080f8:	03e15de6 	mvneq	r5, #14720	; 0x3980
  1080fc:	03f15de6 	mvnseq	r5, #14720	; 0x3980
  108100:	04015de6 	streq	r5, [r1], #-3558	; 0xfffff21a
  108104:	04115de6 	ldreq	r5, [r1], #-3558	; 0xfffff21a
  108108:	04215de6 	strteq	r5, [r1], #-3558	; 0xfffff21a
  10810c:	04315de6 	ldrteq	r5, [r1], #-3558	; 0xfffff21a
  108110:	04415de6 	strbeq	r5, [r1], #-3558	; 0xfffff21a
  108114:	04515de6 	ldrbeq	r5, [r1], #-3558	; 0xfffff21a
  108118:	04615de6 	strbteq	r5, [r1], #-3558	; 0xfffff21a
  10811c:	04715de6 	ldrbteq	r5, [r1], #-3558	; 0xfffff21a
  108120:	04815de6 	streq	r5, [r1], #3558	; 0xde6
  108124:	04915de6 	ldreq	r5, [r1], #3558	; 0xde6
  108128:	04a15de6 	strteq	r5, [r1], #3558	; 0xde6
  10812c:	04b15de6 	ldrteq	r5, [r1], #3558	; 0xde6
  108130:	04c15de6 	strbeq	r5, [r1], #3558	; 0xde6
  108134:	04d15de6 	ldrbeq	r5, [r1], #3558	; 0xde6
  108138:	04e15de6 	strbteq	r5, [r1], #3558	; 0xde6
  10813c:	04f15de6 	ldrbteq	r5, [r1], #3558	; 0xde6
  108140:	05015de6 	streq	r5, [r1, #-3558]	; 0xfffff21a
  108144:	05115de6 	ldreq	r5, [r1, #-3558]	; 0xfffff21a
  108148:	05215de6 	streq	r5, [r1, #-3558]!	; 0xfffff21a
  10814c:	05315de6 	ldreq	r5, [r1, #-3558]!	; 0xfffff21a
  108150:	05415de6 	strbeq	r5, [r1, #-3558]	; 0xfffff21a
  108154:	05515de6 	ldrbeq	r5, [r1, #-3558]	; 0xfffff21a
  108158:	05615de6 	strbeq	r5, [r1, #-3558]!	; 0xfffff21a
  10815c:	05715de6 	ldrbeq	r5, [r1, #-3558]!	; 0xfffff21a
  108160:	05815de6 	streq	r5, [r1, #3558]	; 0xde6
  108164:	05915de6 	ldreq	r5, [r1, #3558]	; 0xde6
  108168:	05a15de6 	streq	r5, [r1, #3558]!	; 0xde6
  10816c:	05b15de6 	ldreq	r5, [r1, #3558]!	; 0xde6
  108170:	05c15de6 	strbeq	r5, [r1, #3558]	; 0xde6
  108174:	05d15de6 	ldrbeq	r5, [r1, #3558]	; 0xde6
  108178:	05e15de6 	strbeq	r5, [r1, #3558]!	; 0xde6
  10817c:	05f15de6 	ldrbeq	r5, [r1, #3558]!	; 0xde6
  108180:	06015de6 	streq	r5, [r1], -r6, ror #27
  108184:	06115de6 	ldreq	r5, [r1], -r6, ror #27
  108188:	06215de6 	strteq	r5, [r1], -r6, ror #27
  10818c:	06315de6 	ldrteq	r5, [r1], -r6, ror #27
  108190:	06415de6 	strbeq	r5, [r1], -r6, ror #27
  108194:	06515de6 	ldrbeq	r5, [r1], -r6, ror #27
  108198:	06615de6 	strbteq	r5, [r1], -r6, ror #27
  10819c:	06715de6 	ldrbteq	r5, [r1], -r6, ror #27
  1081a0:	06815de6 	streq	r5, [r1], r6, ror #27
  1081a4:	06915de6 	ldreq	r5, [r1], r6, ror #27
  1081a8:	06a15de6 	strteq	r5, [r1], r6, ror #27
  1081ac:	06b15de6 	ldrteq	r5, [r1], r6, ror #27
  1081b0:	06c15de6 	strbeq	r5, [r1], r6, ror #27
  1081b4:	06d15de6 	ldrbeq	r5, [r1], r6, ror #27
